((dp0
S'arm_dbg_args'
p1
S'-via:"c:\\Users\\Vinicius\\Desktop\\Yes or No\\Stars_Small\\build_stars_small_vc12x\\Stars_Small_vc12x_arm_debug.via" -qemu'
p2
sS'game-icf'
p3
S''
p4
sS'dist'
p5
NsS'csproj'
p6
g4
sS'module_path_append'
p7
NsS'global_path'
p8
S'c:\\users\\vinicius\\desktop\\yes or no'
p9
sS'system_path'
p10
S'c:\\marmalade\\7.2\\s3e\\makefile_builder'
p11
sS'android_x86_dbg_args'
p12
S'../../tools/DeployTool/DeployTool.exe --dir "c:\\Users\\Vinicius\\Desktop\\Yes or No\\Stars_Small\\build_stars_small_vc12x"'
p13
sS'use_prebuilt'
p14
NsS'arm_rel_rtsm_args'
p15
S'-via:"c:\\Users\\Vinicius\\Desktop\\Yes or No\\Stars_Small\\build_stars_small_vc12x\\Stars_Small_vc12x_arm_release.via" -qemu'
p16
sS'amd64'
p17
NsS'line-width'
p18
I80
sS'gcc_dbg_args'
p19
S'-via:"c:\\Users\\Vinicius\\Desktop\\Yes or No\\Stars_Small\\build_stars_small_vc12x\\Stars_Small_vc12x_gcc_debug.via" -qemu'
p20
sS'android-x86'
p21
NsS'x86_dbg_exe'
p22
S'c:/marmalade/7.2/s3e\\win32\\s3e_simulator_debug.exe'
p23
sS'disable-runtime-checks'
p24
NsS'release'
p25
NsS'no-make'
p26
NsS'optimise-size'
p27
NsS'output-name-debug'
p28
g4
sS'arm-fpu'
p29
S'vfp'
p30
sS'proj_name'
p31
S'Stars_Small_vc12x'
p32
sS'rvct-version'
p33
S'none'
p34
sS'compiler'
p35
g4
sS'execute'
p36
NsS'compile-static'
p37
NsS'msvc-project'
p38
I01
sS'buildenv'
p39
S'VC12X'
p40
sS'quick'
p41
NsS'module_path'
p42
(lp43
S'c:/Users/Vinicius/Desktop/Yes or No/Stars_Small/modules'
p44
asS'use-release-std-libs'
p45
NsS'using_perforce'
p46
I00
sS'tizen-x86'
p47
NsS'mips-s3e'
p48
NsS'ios-no-pic'
p49
NsS'shared-arm-lib'
p50
NsS'arm-cpu'
p51
g4
sS'compile-thumb'
p52
NsS'no-ide'
p53
NsS'msvc-version'
p54
S'6.0'
p55
sS'arm'
p56
NsS'builddir'
p57
g4
sS'compile-debug-as-release'
p58
I0
sS'brief'
p59
NsS'dll'
p60
NsS'buildenv-toolset'
p61
g4
sS'version'
p62
NsS'ccache'
p63
I0
sS'offline'
p64
NsS'ios-version'
p65
g4
sS'hub_data'
p66
g4
sS'fake_vc_call'
p67
NsS'jobs'
p68
I0
sS'linkflags'
p69
NsS'tizen-x86-toolsroot'
p70
S'c:/marmalade/7.2/s3e\\..\\tools\\gcc\\x86\\tizen_windows'
p71
sS'debug'
p72
NsS'xcode-build-order'
p73
g4
sS'gcc_rel_rtsm_args'
p74
S'-via:"c:\\Users\\Vinicius\\Desktop\\Yes or No\\Stars_Small\\build_stars_small_vc12x\\Stars_Small_vc12x_gcc_release.via" -qemu'
p75
sS'done_defaults'
p76
I1
sS'path'
p77
NsS's3e-data-dir'
p78
S'c:/Users/Vinicius/Desktop/Yes or No/Stars_Small\\data'
p79
sS'enable-exceptions'
p80
NsS'osx-dll'
p81
NsS'extension'
p82
g4
sS'no-vc6'
p83
NsS'non-interactive'
p84
NsS'win32-console'
p85
NsS'dist-format'
p86
g4
sS's3e-force-arch'
p87
NsS'dump_defines'
p88
NsS'verbose'
p89
I0
sS'gcc-version'
p90
g4
sS'x86_dbg_args'
p91
S'-via:"c:\\Users\\Vinicius\\Desktop\\Yes or No\\Stars_Small\\build_stars_small_vc12x\\Stars_Small_vc12x_debug.via"'
p92
sS'tizen_x86_dbg_args'
p93
g13
sS'arm-debugger'
p94
g4
sS'use_temp_extension'
p95
NsS'log'
p96
NsS'no-strip'
p97
NsS'rebuild'
p98
NsS'win32-simulator-dll'
p99
NsS'strict'
p100
NsS'mips_dbg_args'
p101
g13
sS'enable-global-path'
p102
NsS'cflags'
p103
NsS'dist-dir'
p104
g4
sS'jflags'
p105
NsS'csprojSDKRefs'
p106
g4
sS'tizen_x86_rel_exe'
p107
S'c:\\marmalade\\7.2\\s3e\\makefile_builder\\tool_launcher.exe'
p108
sS'test-assets'
p109
g4
sS'distcc'
p110
NsS'external-compiler'
p111
NsS'no-distcc'
p112
NsS'preinclude'
p113
NsS'using_sdk'
p114
I01
sS'nologo'
p115
NsS'warn-level'
p116
I2
sS'mips_dbg_exe'
p117
g108
sS'mkb_in'
p118
S'c:/Users/Vinicius/Desktop/Yes or No/Stars_Small/Stars_Small.mkb'
p119
sS'tizen_x86_dbg_exe'
p120
g108
sS'arm_dbg_exe'
p121
S'c:/marmalade/7.2/s3e\\bin\\armdebug.exe'
p122
sS'csprojDLLRef'
p123
NsS'tizen_x86_rel_args'
p124
g13
sS'android_x86_dbg_exe'
p125
g108
sS'test-config'
p126
g4
sS'list-targets'
p127
NsS'arm_rel_exe'
p128
g108
sS'arm_rel_args'
p129
g13
sS'makedeps'
p130
NsS'android_x86_rel_exe'
p131
g108
sS'default-buildenv'
p132
S'vc12x'
p133
sS'x86_rel_exe'
p134
g23
sS'preprocess-java'
p135
NsS'mips_rel_args'
p136
g13
sS'defines'
p137
NsS'lib'
p138
NsS'global_argv'
p139
(lp140
S'C:\\Marmalade\\7.2\\s3e\\makefile_builder\\mkb.py'
p141
aS'c:/Users/Vinicius/Desktop/Yes or No/Stars_Small/Stars_Small.mkb'
p142
aS'--buildenv=VC12X'
p143
aS'--default-buildenv=vc12x'
p144
aS'--msvc-project'
p145
asS'make'
p146
NsS'optimise-speed'
p147
NsS'internal'
p148
NsS'enable-stdinc'
p149
NsS'deploy-only'
p150
NsS'x86'
p151
NsS'deploy'
p152
g4
sS'x86_run_exe'
p153
S'c:/marmalade/7.2/s3e\\win32\\s3e_console.exe'
p154
sS'x86_rel_args'
p155
S'-via:"c:\\Users\\Vinicius\\Desktop\\Yes or No\\Stars_Small\\build_stars_small_vc12x\\Stars_Small_vc12x_release.via"'
p156
sS'gcc_rel_args'
p157
g13
sS'mips'
p158
NsS'xcode-build-settings'
p159
g4
sS'incredibuild'
p160
NsS'strict-compile'
p161
NsS'use-auto-subdirs'
p162
NsS'mips_rel_exe'
p163
g108
sS'android_x86_rel_args'
p164
g13
sS'app-icf'
p165
g4
sS'deployargs'
p166
NsS'iosnativedebug'
p167
NsS'mkf_in'
p168
(lp169
S'c:\\marmalade\\7.2\\extensions\\s3ewebview\\s3ewebview.mkf'
p170
aS'c:\\marmalade\\7.2\\modules\\iwutil\\iwutil.mkf'
p171
aS'c:\\marmalade\\7.2\\modules\\third_party\\libjpeg\\libjpeg.mkf'
p172
aS'c:\\marmalade\\7.2\\modules\\third_party\\libpng\\libpng.mkf'
p173
aS'c:\\marmalade\\7.2\\modules\\third_party\\zlib\\zlib.mkf'
p174
aS'c:\\marmalade\\7.2\\extensions\\s3efacebook\\s3efacebook.mkf'
p175
aS'c:\\marmalade\\7.2\\modules\\iw2d\\iw2d.mkf'
p176
aS'c:\\marmalade\\7.2\\modules\\iwgx\\iwgx.mkf'
p177
aS'c:\\marmalade\\7.2\\modules\\iwgl\\iwgl.mkf'
p178
aS'c:\\marmalade\\7.2\\modules\\iwgeom\\iwgeom.mkf'
p179
aS'c:\\marmalade\\7.2\\modules\\iwresmanager\\iwresmanager.mkf'
p180
aS'c:\\marmalade\\7.2\\modules\\iwgxfont\\iwgxfont.mkf'
p181
aS'c:\\marmalade\\7.2\\modules\\third_party\\tiniconv\\tiniconv.mkf'
p182
aS'c:\\marmalade\\7.2\\modules\\iw2dscenegraph\\iw2dscenegraph.mkf'
p183
aS'c:\\marmalade\\7.2\\modules\\iw2dscenegraphcore\\iw2dscenegraphcore.mkf'
p184
aS'c:\\marmalade\\7.2\\modules\\iwtween\\iwtween.mkf'
p185
aS'c:\\users\\vinicius\\desktop\\yes or no\\stars_small\\modules\\soundengine\\soundengine.mkf'
p186
aS'c:\\marmalade\\7.2\\extensions\\s3eflurry\\s3eflurry.mkf'
p187
aS'c:\\users\\vinicius\\desktop\\yes or no\\stars_small\\modules\\core\\core.mkf'
p188
aS'c:\\users\\vinicius\\desktop\\yes or no\\stars_small\\modules\\template\\template.mkf'
p189
asS'strict-mkb'
p190
NsS'executeargs'
p191
NsS'clean'
p192
NsS'no-asm'
p193
NsS'output-name'
p194
g4
sS'no-modules'
p195
NsS'find_define'
p196
g4
s(dp197
S'c:\\marmalade\\7.2\\s3e\\makefile_builder\\templates\\ws8_sln.pyc'
p198
F1396656910.0
sS'c:\\marmalade\\7.2\\s3e\\makefile_builder\\plugins\\java.pyc'
p199
F1396656908.0
sS'c:\\marmalade\\7.2\\s3e\\makefile_builder\\plugins\\S3EEmitter.pyc'
p200
F1396656908.0
sS'c:\\marmalade\\7.2\\s3e\\makefile_builder\\templates\\win32_vcxproj_filters.pyc'
p201
F1396656910.0
sS'c:\\marmalade\\7.2\\s3e\\makefile_builder\\plugins\\xcode4_schememanagement.py'
p202
F1396655700.0
sS'c:\\marmalade\\7.2\\s3e\\makefile_builder\\plugins\\linux_scons.pyc'
p203
F1396656910.0
sS'c:\\marmalade\\7.2\\s3e\\makefile_builder\\templates\\wp8_sln.pyc'
p204
F1396656910.0
sS'c:\\marmalade\\7.2\\s3e\\makefile_builder\\templates\\ws8_ext_sln.pyc'
p205
F1396656910.0
sS'c:\\marmalade\\7.2\\s3e\\makefile_builder\\templates\\MainWindow.xib'
p206
F1396655700.0
sS'c:\\marmalade\\7.2\\s3e\\makefile_builder\\templates\\ws81_ext_sln.pyc'
p207
F1396656910.0
sS'c:\\marmalade\\7.2\\s3e\\makefile_builder\\plugins\\Win8Emitter.pyc'
p208
F1396656910.0
sS'c:\\marmalade\\7.2\\s3e\\makefile_builder\\templates\\win8_ext_csproj.pyc'
p209
F1396656910.0
sS'c:\\marmalade\\7.2\\s3e\\makefile_builder\\templates\\rvct_linker_script'
p210
F1396655702.0
sS'c:\\marmalade\\7.2\\s3e\\makefile_builder\\templates\\win8_sln.pyc'
p211
F1396656910.0
sS'c:\\marmalade\\7.2\\s3e\\makefile_builder\\templates\\ws8_ext_csproj.pyc'
p212
F1396656910.0
sS'c:\\marmalade\\7.2\\s3e\\makefile_builder\\plugins\\s3e_make.pyc'
p213
F1396656908.0
sS'c:\\marmalade\\7.2\\s3e\\makefile_builder\\templates\\wp8_csproj_user.pyc'
p214
F1396656910.0
sS'c:\\marmalade\\7.2\\s3e\\makefile_builder\\plugins\\s3e_scons.pyc'
p215
F1396656908.0
sS'c:\\marmalade\\7.2\\s3e\\makefile_builder\\plugins\\s3e_qmake.py'
p216
F1396655700.0
sS'c:\\marmalade\\7.2\\s3e\\makefile_builder\\docs\\deprecated.options.txt'
p217
F1396655698.0
sS'c:\\marmalade\\7.2\\s3e\\makefile_builder\\plugins\\ws8_ws8.pyc'
p218
F1396656910.0
sS'c:\\marmalade\\7.2\\s3e\\makefile_builder\\templates\\ws81_sln.pyc'
p219
F1396656910.0
sS'c:\\marmalade\\7.2\\s3e\\makefile_builder\\templates\\ws81_ext_csproj.pyc'
p220
F1396656910.0
sS'c:\\marmalade\\7.2\\s3e\\makefile_builder\\templates\\wp8_vcxproj.pyc'
p221
F1396656910.0
sS'c:\\marmalade\\7.2\\s3e\\makefile_builder\\templates\\vc6_opt.pyc'
p222
F1396656910.0
sS'c:\\marmalade\\7.2\\s3e\\makefile_builder\\plugins\\deploy.pyc'
p223
F1396656908.0
sS'c:\\marmalade\\7.2\\s3e\\makefile_builder\\templates\\scons.pyc'
p224
F1396656910.0
sS'c:\\marmalade\\7.2\\s3e\\makefile_builder\\templates\\win32_vcproj.pyc'
p225
F1396656910.0
sS'c:\\marmalade\\7.2\\s3e\\makefile_builder\\templates\\win8_csproj.pyc'
p226
F1396656910.0
sS'c:\\marmalade\\7.2\\s3e\\makefile_builder\\extensions\\make_dist.py'
p227
F1396655698.0
sS'c:\\marmalade\\7.2\\s3e\\makefile_builder\\templates\\gdb_start.txt'
p228
F1396655702.0
sS'c:\\marmalade\\7.2\\s3e\\makefile_builder\\templates\\vc8_user.pyc'
p229
F1396656910.0
sS'c:\\marmalade\\7.2\\s3e\\makefile_builder\\plugins\\s3e_win8.pyc'
p230
F1396656910.0
sS'c:\\marmalade\\7.2\\s3e\\makefile_builder\\templates\\win32_sln.pyc'
p231
F1396656910.0
sS'c:\\marmalade\\7.2\\s3e\\makefile_builder\\docs\\options.txt'
p232
F1396655698.0
sS'c:\\marmalade\\7.2\\s3e\\makefile_builder\\mkb.py'
p233
F1396655698.0
sS'c:\\marmalade\\7.2\\s3e\\makefile_builder\\templates\\Info.plist'
p234
F1396655700.0
sS'c:\\marmalade\\7.2\\s3e\\makefile_builder\\docs\\parse_options.pyc'
p235
F1396656912.0
sS'c:\\marmalade\\7.2\\s3e\\makefile_builder\\templates\\ws8_csproj.pyc'
p236
F1396656910.0
sS'c:\\marmalade\\7.2\\s3e\\makefile_builder\\templates\\ws81_csproj.pyc'
p237
F1396656910.0
sS'c:\\marmalade\\7.2\\s3e\\makefile_builder\\plugins\\osx_xcode.pyc'
p238
F1396656910.0
sS'c:\\marmalade\\7.2\\s3e\\makefile_builder\\plugins\\s3e_xcode.pyc'
p239
F1397674110.1375155
sS'c:\\marmalade\\7.2\\s3e\\makefile_builder\\plugins\\xcode4_schememanagement.pyc'
p240
F1397674109.1068296
sS'c:\\marmalade\\7.2\\s3e\\makefile_builder\\templates\\xcode4.xcscheme'
p241
F1396655704.0
sS'c:\\marmalade\\7.2\\s3e\\makefile_builder\\plugins\\Emitter.pyc'
p242
F1396656908.0
sS'c:\\marmalade\\7.2\\s3e\\makefile_builder\\templates\\mips_linker_script'
p243
F1396655702.0
sS'c:\\marmalade\\7.2\\s3e\\makefile_builder\\templates\\ws8_vcxproj.pyc'
p244
F1396656910.0
sS'c:\\marmalade\\7.2\\s3e\\makefile_builder\\plugins\\win32_vc6.pyc'
p245
F1396656910.0
sS'c:\\marmalade\\7.2\\s3e\\makefile_builder\\mkb_parser.pyc'
p246
F1396656908.0
sS'c:\\marmalade\\7.2\\s3e\\makefile_builder\\templates\\ws81_csproj_user.pyc'
p247
F1396656910.0
sS'c:\\marmalade\\7.2\\s3e\\makefile_builder\\templates\\linker_script'
p248
F1396655702.0
sS'c:\\marmalade\\7.2\\s3e\\makefile_builder\\docs\\deprecated.defines.txt'
p249
F1396655698.0
sS'c:\\marmalade\\7.2\\s3e\\makefile_builder\\templates\\template.suo'
p250
F1396655702.0
sS'c:\\marmalade\\7.2\\s3e\\makefile_builder\\templates\\make.py'
p251
F1396655702.0
sS'c:\\marmalade\\7.2\\s3e\\makefile_builder\\extensions'
p252
F1397673792.7230873
sS'c:\\marmalade\\7.2\\s3e\\makefile_builder\\templates\\win32_dsp.pyc'
p253
F1396656910.0
sS'c:\\marmalade\\7.2\\s3e\\makefile_builder\\templates\\wp8_ext_csproj.pyc'
p254
F1396656910.0
sS'c:\\marmalade\\7.2\\s3e\\makefile_builder\\plugins\\MakeEmitter.pyc'
p255
F1396656908.0
sS'c:\\marmalade\\7.2\\s3e\\makefile_builder\\plugins\\XcodeEmitter.pyc'
p256
F1397674109.0167696
sS'c:\\marmalade\\7.2\\s3e\\makefile_builder\\templates\\win32_dsw.pyc'
p257
F1396656910.0
sS'c:\\marmalade\\7.2\\s3e\\makefile_builder\\docs\\mkb.defines.txt'
p258
F1396655698.0
sS'c:\\marmalade\\7.2\\s3e\\makefile_builder\\docs\\deployment_options.txt'
p259
F1396655698.0
sS'c:\\marmalade\\7.2\\s3e\\makefile_builder\\plugins\\s3e_qmake.pyc'
p260
F1397674109.7792768
sS'c:\\marmalade\\7.2\\s3e\\makefile_builder\\plugins\\ws81_ws81.pyc'
p261
F1396656910.0
sS'c:\\marmalade\\7.2\\s3e\\makefile_builder\\templates\\win32_vcxproj.pyc'
p262
F1396656910.0
sS'c:\\marmalade\\7.2\\s3e\\makefile_builder\\docs'
p263
F1397673793.1573761
sS'c:\\marmalade\\7.2\\s3e\\makefile_builder\\plugins\\XcodeEmitter.py'
p264
F1396655698.0
sS'c:\\marmalade\\7.2\\s3e\\makefile_builder\\templates\\template.opt'
p265
F1396655702.0
sS'c:\\marmalade\\7.2\\s3e\\makefile_builder\\tool_launcher.exe'
p266
F1396656088.0
sS'c:\\marmalade\\7.2\\s3e\\makefile_builder\\templates\\xcode.py'
p267
F1396655702.0
sS'c:\\marmalade\\7.2\\s3e\\makefile_builder\\plugins\\VisualStudioEmitter.pyc'
p268
F1396656908.0
sS'c:\\marmalade\\7.2\\s3e\\makefile_builder\\plugins\\osx_scons.pyc'
p269
F1396656910.0
sS'c:\\marmalade\\7.2\\s3e\\makefile_builder\\templates'
p270
F1397673792.65204
sS'c:\\marmalade\\7.2\\s3e\\makefile_builder\\templates\\ws81_vcxproj.pyc'
p271
F1396656910.0
sS'c:\\marmalade\\7.2\\s3e\\makefile_builder\\templates\\win8_vcxproj.pyc'
p272
F1396656910.0
sS'c:\\marmalade\\7.2\\s3e\\makefile_builder\\plugins\\s3e_ws8.pyc'
p273
F1396656910.0
sS'c:\\marmalade\\7.2\\s3e\\makefile_builder\\templates\\wp8_csproj.pyc'
p274
F1396656910.0
sS'c:\\marmalade\\7.2\\s3e\\makefile_builder\\templates\\vc7_suo.pyc'
p275
F1396656910.0
sS'c:\\marmalade\\7.2\\s3e\\makefile_builder\\plugins\\SConsEmitter.pyc'
p276
F1396656908.0
sS'c:\\marmalade\\7.2\\s3e\\makefile_builder\\mkb_option.pyc'
p277
F1396656908.0
sS'c:\\marmalade\\7.2\\s3e\\makefile_builder\\templates\\ws8_csproj_user.pyc'
p278
F1396656910.0
sS'c:\\marmalade\\7.2\\s3e\\makefile_builder\\mkb_main.pyc'
p279
F1396656908.0
sS'c:\\marmalade\\7.2\\s3e\\makefile_builder\\plugins'
p280
F1397674110.1315114
sS'c:\\marmalade\\7.2\\s3e\\makefile_builder\\plugins\\s3e_web.pyc'
p281
F1396656908.0
sS'c:\\marmalade\\7.2\\s3e\\makefile_builder\\plugins\\s3e_ws81.pyc'
p282
F1396656910.0
sS'c:\\marmalade\\7.2\\s3e\\makefile_builder\\mkb_globals.pyc'
p283
F1396656908.0
sS'c:\\marmalade\\7.2\\s3e\\makefile_builder\\plugins\\iphone.pyc'
p284
F1396656910.0
sS'c:\\marmalade\\7.2\\s3e\\makefile_builder\\mkb_launcher.exe'
p285
F1396656088.0
sS'c:\\marmalade\\7.2\\s3e\\makefile_builder\\plugins\\vc7_utils.pyc'
p286
F1396656908.0
sS'c:\\marmalade\\7.2\\s3e\\makefile_builder\\plugins\\s3e_wp8.pyc'
p287
F1396656910.0
sS'c:\\marmalade\\7.2\\s3e\\makefile_builder\\plugins\\vc6_utils.pyc'
p288
F1396656908.0
sS'c:\\marmalade\\7.2\\s3e\\makefile_builder\\deployment.pyc'
p289
F1396656908.0
sS'c:\\marmalade\\7.2\\s3e\\makefile_builder\\plugins\\s3e_vc6.pyc'
p290
F1396656908.0
sS'c:\\marmalade\\7.2\\s3e\\makefile_builder\\plugins\\null.pyc'
p291
F1396656908.0
sS'c:\\marmalade\\7.2\\s3e\\makefile_builder\\templates\\qmake.py'
p292
F1396655702.0
sS'c:\\marmalade\\7.2\\s3e\\makefile_builder\\templates\\xcode4_DeployTool.xcscheme'
p293
F1396655704.0
sS'c:\\marmalade\\7.2\\s3e\\makefile_builder\\templates\\win8_csproj_user.pyc'
p294
F1396656910.0
sS'c:\\marmalade\\7.2\\s3e\\makefile_builder\\plugins\\win8_utils.pyc'
p295
F1396656908.0
sS'c:\\marmalade\\7.2\\s3e\\makefile_builder\\mkb_util.pyc'
p296
F1396656908.0
sS'c:\\marmalade\\7.2\\s3e\\makefile_builder\\plugins\\wp8_wp8.pyc'
p297
F1396656910.0
sS'c:\\marmalade\\7.2\\s3e\\makefile_builder\\plugins\\s3e_xcode.py'
p298
F1396655700.0
sS'c:\\marmalade\\7.2\\s3e\\makefile_builder\\templates\\vc10_user.pyc'
p299
F1396656910.0
sS'c:\\marmalade\\7.2\\s3e\\makefile_builder\\templates\\qmake_user.py'
p300
F1396655702.0
sS'c:\\marmalade\\7.2\\s3e\\makefile_builder\\templates\\xcode_pbxuser.py'
p301
F1396655704.0
sccopy_reg
_reconstructor
p302
(cmkb_main
MkbFile
p303
c__builtin__
object
p304
Ntp305
Rp306
(dp307
g5
(lp308
sS'target_name'
p309
S'Stars_Small'
p310
sS'current_file'
p311
g119
sS'package_path'
p312
(lp313
sS'post_build'
p314
(lp315
(lp316
S'c:/marmalade/7.2/s3e/tools'
p317
aS'C:\\Marmalade\\7.2\\s3e\\python\\python.exe .\\process_map.py "$(TargetPath)"'
p318
aa(S'c:\\marmalade\\7.2\\s3e\\bin'
p319
S'"s3e_plink" -l "$(TargetPath)" '
p320
g151
tp321
asS'librarys'
p322
(lp323
g302
(cmkb_main
Library
p324
g304
Ntp325
Rp326
(dp327
S'name'
p328
S'vc6_compat.lib'
p329
sS'expand_name'
p330
I00
sS'include_spec_rvct_objs'
p331
(lp332
sS'include_all_objs'
p333
I00
sS'share_arm'
p334
I00
sS'arch'
p335
S'x86'
p336
sS'nodebug'
p337
I00
sg35
Nsbag302
(g324
g304
Ntp338
Rp339
(dp340
g328
S'iwutil'
p341
sg330
I01
sg331
(lp342
sg333
Nsg334
Nsg335
Nsg337
I00
sg35
Nsbag302
(g324
g304
Ntp343
Rp344
(dp345
g328
S'jpeg'
p346
sg330
I01
sg331
g342
sg333
Nsg334
Nsg335
Nsg337
I00
sg35
Nsbag302
(g324
g304
Ntp347
Rp348
(dp349
g328
S'z'
p350
sg330
I01
sg331
g342
sg333
Nsg334
Nsg335
Nsg337
I00
sg35
Nsbag302
(g324
g304
Ntp351
Rp352
(dp353
g328
S'png'
p354
sg330
I01
sg331
g342
sg333
Nsg334
Nsg335
Nsg337
I00
sg35
Nsbag302
(g324
g304
Ntp355
Rp356
(dp357
g328
S'iw2d'
p358
sg330
I01
sg331
g342
sg333
Nsg334
Nsg335
Nsg337
I00
sg35
Nsbag302
(g324
g304
Ntp359
Rp360
(dp361
g328
S'ATI_Compress_MT_VC7.lib'
p362
sg330
I00
sg331
g342
sg333
Nsg334
Nsg335
S'x86'
p363
sg337
I00
sg35
Nsbag302
(g324
g304
Ntp364
Rp365
(dp366
g328
S'iwgx'
p367
sg330
I01
sg331
g342
sg333
Nsg334
Nsg335
Nsg337
I00
sg35
Nsbag302
(g324
g304
Ntp368
Rp369
(dp370
g328
S'iwgl'
p371
sg330
I01
sg331
g342
sg333
Nsg334
Nsg335
Nsg337
I00
sg35
Nsbag302
(g324
g304
Ntp372
Rp373
(dp374
g328
S'iwgeom'
p375
sg330
I01
sg331
g342
sg333
Nsg334
Nsg335
Nsg337
I00
sg35
Nsbag302
(g324
g304
Ntp376
Rp377
(dp378
g328
S'iwresmanager'
p379
sg330
I01
sg331
g342
sg333
Nsg334
Nsg335
Nsg337
I00
sg35
Nsbag302
(g324
g304
Ntp380
Rp381
(dp382
g328
S'iwgxfont'
p383
sg330
I01
sg331
g342
sg333
Nsg334
Nsg335
Nsg337
I00
sg35
Nsbag302
(g324
g304
Ntp384
Rp385
(dp386
g328
S'tiniconv'
p387
sg330
I01
sg331
g342
sg333
Nsg334
Nsg335
Nsg337
I00
sg35
Nsbag302
(g324
g304
Ntp388
Rp389
(dp390
g328
S's3e_cpp'
p391
sg330
I01
sg331
g332
sg333
I00
sg334
I00
sg335
Nsg337
I00
sg35
Nsbag302
(g324
g304
Ntp392
Rp393
(dp394
g328
S's3e'
p395
sg330
I01
sg331
(lp396
S'iwcrt.o'
p397
asg333
I00
sg334
I00
sg335
Nsg337
I00
sg35
Nsbag302
(g324
g304
Ntp398
Rp399
(dp400
g328
S's3e_api'
p401
sg330
I01
sg331
g332
sg333
I00
sg334
I00
sg335
S'x86'
p402
sg337
I01
sg35
Nsbag302
(g324
g304
Ntp403
Rp404
(dp405
g328
S's3e_api'
p406
sg330
I01
sg331
g332
sg333
I00
sg334
I00
sg335
S'!x86'
p407
sg337
I01
sg35
Nsbag302
(g324
g304
Ntp408
Rp409
(dp410
g328
S'stdc++'
p411
sg330
I00
sg331
g332
sg333
I00
sg334
I00
sg335
S'mips'
p412
sg337
I00
sg35
Nsbag302
(g324
g304
Ntp413
Rp414
(dp415
g328
S'c'
p416
sg330
I00
sg331
g332
sg333
I00
sg334
I00
sg335
S'mips'
p417
sg337
I00
sg35
Nsbag302
(g324
g304
Ntp418
Rp419
(dp420
g328
S'm'
p421
sg330
I00
sg331
g332
sg333
I00
sg334
I00
sg335
S'mips'
p422
sg337
I00
sg35
Nsbag302
(g324
g304
Ntp423
Rp424
(dp425
g328
S'gcc'
p426
sg330
I00
sg331
g332
sg333
I00
sg334
I00
sg335
S'mips'
p427
sg337
I00
sg35
Nsbag302
(g324
g304
Ntp428
Rp429
(dp430
g328
S'stdc++'
p431
sg330
I00
sg331
g332
sg333
I00
sg334
I00
sg335
S'gcc_x86_tizen'
p432
sg337
I00
sg35
Nsbag302
(g324
g304
Ntp433
Rp434
(dp435
g328
g416
sg330
I00
sg331
g332
sg333
I00
sg334
I00
sg335
S'gcc_x86_tizen'
p436
sg337
I00
sg35
Nsbag302
(g324
g304
Ntp437
Rp438
(dp439
g328
g421
sg330
I00
sg331
g332
sg333
I00
sg334
I00
sg335
S'gcc_x86_tizen'
p440
sg337
I00
sg35
Nsbag302
(g324
g304
Ntp441
Rp442
(dp443
g328
S'gcc'
p444
sg330
I00
sg331
g332
sg333
I00
sg334
I00
sg335
S'gcc_x86_tizen'
p445
sg337
I00
sg35
Nsbag302
(g324
g304
Ntp446
Rp447
(dp448
g328
S'gcc_eh'
p449
sg330
I00
sg331
g332
sg333
I00
sg334
I00
sg335
S'gcc_x86_tizen'
p450
sg337
I00
sg35
Nsbag302
(g324
g304
Ntp451
Rp452
(dp453
g328
S'stdc++'
p454
sg330
I00
sg331
g332
sg333
I00
sg334
I00
sg335
S'gcc_x86_android'
p455
sg337
I00
sg35
Nsbag302
(g324
g304
Ntp456
Rp457
(dp458
g328
g416
sg330
I00
sg331
g332
sg333
I00
sg334
I00
sg335
S'gcc_x86_android'
p459
sg337
I00
sg35
Nsbag302
(g324
g304
Ntp460
Rp461
(dp462
g328
g421
sg330
I00
sg331
g332
sg333
I00
sg334
I00
sg335
S'gcc_x86_android'
p463
sg337
I00
sg35
Nsbag302
(g324
g304
Ntp464
Rp465
(dp466
g328
S'gcc'
p467
sg330
I00
sg331
g332
sg333
I00
sg334
I00
sg335
S'gcc_x86_android'
p468
sg337
I00
sg35
NsbasS'library_paths'
p469
(lp470
g302
(cmkb_main
LibraryPath
p471
g304
Ntp472
Rp473
(dp474
S'expand_path'
p475
I01
sS'add_cpu_variant'
p476
I00
sg328
S'c:/marmalade/7.2/modules/iwutil'
p477
sbag302
(g471
g304
Ntp478
Rp479
(dp480
g475
I01
sg476
I00
sg328
S'c:/marmalade/7.2/modules/third_party/libjpeg'
p481
sbag302
(g471
g304
Ntp482
Rp483
(dp484
g475
I01
sg476
I00
sg328
S'c:/marmalade/7.2/modules/third_party/zlib'
p485
sbag302
(g471
g304
Ntp486
Rp487
(dp488
g475
I01
sg476
I00
sg328
S'c:/marmalade/7.2/modules/third_party/libpng'
p489
sbag302
(g471
g304
Ntp490
Rp491
(dp492
g475
I01
sg476
I00
sg328
S'c:/marmalade/7.2/modules/iw2d'
p493
sbag302
(g471
g304
Ntp494
Rp495
(dp496
g475
I00
sg476
I00
sg328
S'c:/marmalade/7.2/modules/iwgx/atitools'
p497
sbag302
(g471
g304
Ntp498
Rp499
(dp500
g475
I01
sg476
I00
sg328
S'c:/marmalade/7.2/modules/iwgx'
p501
sbag302
(g471
g304
Ntp502
Rp503
(dp504
g475
I01
sg476
I00
sg328
S'c:/marmalade/7.2/modules/iwgl'
p505
sbag302
(g471
g304
Ntp506
Rp507
(dp508
g475
I01
sg476
I00
sg328
S'c:/marmalade/7.2/modules/iwgeom'
p509
sbag302
(g471
g304
Ntp510
Rp511
(dp512
g475
I01
sg476
I00
sg328
S'c:/marmalade/7.2/modules/iwresmanager'
p513
sbag302
(g471
g304
Ntp514
Rp515
(dp516
g475
I01
sg476
I00
sg328
S'c:/marmalade/7.2/modules/iwgxfont'
p517
sbag302
(g471
g304
Ntp518
Rp519
(dp520
g475
I01
sg476
I00
sg328
S'c:/marmalade/7.2/modules/third_party/tiniconv'
p521
sbag302
(g471
g304
Ntp522
Rp523
(dp524
g475
I01
sg476
I00
sg328
S'c:/marmalade/7.2/s3e'
p525
sbasS'macros'
p526
(dp527
S'IW_TRACE_CHANNEL_WEBVIEW_VERBOSE'
p528
S'2'
p529
sS'IW_MKF_S3EFACEBOOK'
p530
NsS'IW_MKF_CORE'
p531
NsS'IW_TRACE_CHANNEL_FLURRY'
p532
S'1'
p533
sS'IW_USE_CALLSTACK'
p534
NsS'__S3E__'
p535
NsS'IW_TRACE_CHANNEL_WEBVIEW'
p536
g533
sS'IW_MKF_LIBJPEG'
p537
NsS'I3D_OS_S3E'
p538
NsS'IW_ASSERTION_CHANNEL_FLURRY'
p539
g533
sS'IW_MKF_TINICONV'
p540
NsS'IW_APP_VERSION'
p541
S'"1.0"'
p542
sS'IW_MKF_IWRESMANAGER'
p543
NsS'IW_MKF_TEMPLATE'
p544
NsS'IW_MKF_IWUTIL'
p545
NsS'IW_PLATFORM_S3E'
p546
NsS'IW_ASSERTION_CHANNEL_2D'
p547
g533
sS'IW_APP_NAME'
p548
S'"Stars_Small"'
p549
sS'IW_MKF_IWGXFONT'
p550
NsS'IW_MKF_IWTWEEN'
p551
NsS'IW_MKF_S3EFLURRY'
p552
NsS'IW_MKF_ZLIB'
p553
NsS'IW_MKF_IWGX'
p554
NsS'IW_MKF_IW2DSCENEGRAPH'
p555
NsS'IW_MKF_SOUNDENGINE'
p556
NsS'IW_ASSERTION_CHANNEL_WEBVIEW'
p557
g533
sS'IW_USE_ASSERTIONS'
p558
NsS'_CRT_SECURE_NO_DEPRECATE'
p559
NsS'IW_MKF_IWGL'
p560
NsS'IW_MKF_LIBPNG'
p561
NsS'IW_MKF_S3EWEBVIEW'
p562
NsS'IW_TRACE_CHANNEL_IW_2DSCENEGRAPH'
p563
g533
sS'IW_ASSERTION_CHANNEL_FACEBOOK'
p564
g533
sS'IW_TRACE_CHANNEL_FACEBOOK_VERBOSE'
p565
g529
sS'IW_DEBUG'
p566
NsS'IW_USE_TRACING'
p567
NsS'IW_ASSERTION_CHANNEL_IW_2DSCENEGRAPH'
p568
g533
sS'IW_SDK'
p569
NsS'S3E_INCLUDE_LEGACY'
p570
NsS'IW_MKF_IW2DSCENEGRAPHCORE'
p571
NsS'IW_TRACE_CHANNEL_FACEBOOK'
p572
g533
sS'IW_TRACE_CHANNEL_FLURRY_VERBOSE'
p573
g529
sS'I3D_PLATFORM_S3E'
p574
NsS'IW_MKF_IW2D'
p575
NsS'IW_MKF_IWGEOM'
p576
NssS'done_warnings'
p577
(dp578
sS'subprojects'
p579
(dp580
g181
S'iwgxfont'
p581
sg175
S's3eFacebook'
p582
sg170
S's3eWebView'
p583
sg171
S'iwutil'
p584
sg177
S'iwgx'
p585
sg180
S'iwresmanager'
p586
sg172
S'libjpeg'
p587
sg173
S'libpng'
p588
sg178
S'iwgl'
p589
sg188
S'core'
p590
sg189
S'template'
p591
sg185
S'iwtween'
p592
sg183
S'iw2dscenegraph'
p593
sg176
S'iw2d'
p594
sg179
S'iwgeom'
p595
sg182
S'tiniconv'
p596
sg186
S'SoundEngine'
p597
sg174
S'zlib'
p598
sg184
S'../iw2dscenegraphcore'
p599
sg187
S's3eFlurry'
p600
ssS'deployments'
p601
(dp602
S'Default'
p603
g302
(cdeployment
Deployment
p604
g304
Ntp605
Rp606
(dp607
S'got_version'
p608
I0
sS'assets'
p609
g603
sS'mkb'
p610
g306
sS'target'
p611
Nsg335
(lp612
sS'options'
p613
(dp614
S'iphone-link-lib'
p615
(lp616
S's3eWebView'
p617
aS's3eFacebook'
p618
aS'FlurryAnalytics'
p619
aS's3eFlurry'
p620
asS'game-icf'
p621
NsS'winmobile-icon32'
p622
NsS'ws8-logo-image150x150'
p623
NsS'ws81-product-version'
p624
NsS'osx-ext-dll'
p625
(lp626
S'c:/marmalade/7.2/extensions/s3ewebview/lib/osx/libs3eWebView.dylib'
p627
aS'c:/marmalade/7.2/extensions/s3eflurry/lib/osx/libs3eFlurry.dylib'
p628
asS'iphone-provisioning-profile'
p629
NsS'ws8-splash-screen-image620x300'
p630
NsS'ws8-ext-capabilities'
p631
(lp632
sS'android-icon-hdpi'
p633
NsS'brew-icon-large'
p634
NsS'iphone-splash-full-orient'
p635
NsS'wp8-tile-fliptemplate-supports-large'
p636
NsS'iphone-show-status-bar'
p637
NsS'roku-requires-mkv'
p638
NsS'long-caption'
p639
NsS'android-pkgname'
p640
NsS'blackberry-permissions-read-device-identifying-information'
p641
NsS'ws81-certificate-end-date'
p642
NsS'psp-dlgcontentid'
p643
NsS'target-folder'
p644
NsS'tizen-dist1-CA-path'
p645
NsS'symbian-icon2-format'
p646
NsS'iphone-region'
p647
NsS'uiq3-icon3-mask'
p648
NsS'brew-encoding'
p649
NsS'android-x86'
p650
NsS'nds-initialcode'
p651
NsS'iphone-persistent-wifi'
p652
NsS'psp-snd0'
p653
NsS'osx-signing-identity-inst'
p654
NsS'winmobile-install-folder'
p655
NsS'android-external-res'
p656
(lp657
S'c:/marmalade/7.2/extensions/s3efacebook/facebook-android-sdk/facebook/res'
p658
asS'ws8-product-version'
p659
NsS'brew-priviledges'
p660
NsS'symbian-icon2-mask-black'
p661
NsS'iphone-icon-ipad'
p662
NsS'roku-hidden'
p663
NsS'psp-titlename'
p664
NsS'symbian-icon1-mask'
p665
NsS'psp-parentallevel'
p666
NsS'splashscreen-use-all'
p667
NsS'wp8-author'
p668
NsS'symbian-disable-ecompxl'
p669
NsS'splashscreen-auto-onblack'
p670
NsS'win32-ext-dll'
p671
(lp672
S'c:/marmalade/7.2/extensions/s3ewebview/lib/win32/s3eWebView.dll'
p673
aS'c:/marmalade/7.2/extensions/s3eflurry/lib/win32/s3eFlurry.dll'
p674
asS'iphone-development-key'
p675
NsS'winmobile-icon48'
p676
NsS'android-unsigned'
p677
NsS'osx-appstore-category'
p678
NsS'version-revision'
p679
NsS'roku-icon-focus-sd'
p680
NsS'android-keystore'
p681
NsS'winmobile-png90'
p682
NsS'iphone-icon-ipad-high-res'
p683
NsS'iphone-disable-ipad'
p684
NsS'wp8-product-id'
p685
NsS'wp8-ext-capabilities'
p686
(lp687
sS'iphone-ipad-only'
p688
NsS'symbian-icon1-mask-black'
p689
NsS'iphone-bundle-localisations'
p690
NsS'winmobile-png60'
p691
NsS'blackberry-permissions-access-shared'
p692
NsS'blackberry-author'
p693
NsS'android-icon-xxxhdpi'
p694
NsS'olddeploytoolstyle'
p695
NsS'android_icon_gallery'
p696
NsS'winmobile-cab-compress'
p697
NsS'ws81-ext-managed-dll'
p698
(lp699
sS'win32-icon'
p700
NsS'symbian-key'
p701
NsS'app-icf'
p702
NsS'blackberry-storepass'
p703
NsS'wp8-tile-fliptemplate-back-title'
p704
NsS'brew-compress-loader'
p705
NsS'win32-pref-windowposy'
p706
NsS'win32-pref-windowposx'
p707
NsS'roku-requires-audiometadata'
p708
NsS'wp8-exclude-low-mem'
p709
NsS'wp8-tile-fliptemplate-title'
p710
NsS'iphone-icon-ipad-search-high-res'
p711
NsS'iphone-link-libdir'
p712
(lp713
S'c:/marmalade/7.2/extensions/s3ewebview/lib/iphone'
p714
aS'c:/marmalade/7.2/extensions/s3efacebook/lib/iphone'
p715
aS'c:/marmalade/7.2/extensions/s3eflurry/lib/iphone'
p716
asS'blackberry-permissions-read-geolocation'
p717
NsS'winmobile-nouninstall'
p718
NsS'tizen-signed'
p719
NsS'android-extra-application-manifest'
p720
(lp721
S'c:/marmalade/7.2/extensions/s3efacebook/source/android/extra_app_manifest.xml'
p722
asS'ws8-ext-native-dll'
p723
(lp724
sS'symbian-icon2-mask'
p725
NsS'iphone-backgroundmode-audio'
p726
NsS'webos-memory'
p727
NsS'android-keypass'
p728
NsS'name'
p729
NsS'uiq3-icon2-format'
p730
NsS'roku-splash-screen-sd'
p731
NsS'auto-derbh'
p732
NsS'roku-icon-side-sd'
p733
NsS'symbian-maxheapsize'
p734
NsS'nds-publicsavedatasize'
p735
NsS'splashscreen'
p736
NsS'brew-mif'
p737
NsS'iphone-icon-settings-high-res'
p738
NsS'android-manifest'
p739
NsS'ws81-splash-screen-image620x300'
p740
NsS's3e-compression'
p741
NsS'tizen-author-password'
p742
NsS'wp8-tile-fliptemplate-back-content'
p743
NsS'symbian-icon1'
p744
NsS'symbian-icon2'
p745
NsS'android-extra-styles-file'
p746
NsS'nds-bannertitle-jp'
p747
NsS'osx-sign-for-store'
p748
NsS'symbian7-uid'
p749
NsS'wp8-tile-fliptemplate-large-back-content'
p750
NsS'nds-bannertitle-cn'
p751
NsS'iphone-distribution-key'
p752
NsS'android-icon-gallery'
p753
NsS'blackberry-keystore'
p754
NsS'iphone-nosign'
p755
NsS'caption'
p756
NsS'android-extra-manifest'
p757
(lp758
sS'android-icon-xxhdpi'
p759
NsS'version-minor'
p760
NsS'iphone-link-libdirs'
p761
(lp762
sS'iphone-icon-large'
p763
NsS'symbian-keypwd'
p764
NsS'symbian8-uid'
p765
NsS'symbian-cert-key'
p766
NsS'winmobile-ampd-part-number'
p767
NsS'arch'
p768
NsS'nds-romheadertemplate'
p769
NsS'webos-icon'
p770
NsS'psp-dlgprotectdocument'
p771
NsS'android-icon-mdpi'
p772
NsS'nds-icon'
p773
NsS'ws8-custom-manifest-fill'
p774
NsS'iphone-development-cert'
p775
NsS'blackberry-phone-icon'
p776
NsS'iphone-enable-4inch-retina'
p777
NsS'ws8-custom-manifest'
p778
NsS'version-major'
p779
NsS'wp8-genre-isgame'
p780
NsS'uiq3-uid'
p781
NsS'iphone-splash-retina-generate'
p782
NsS'tizen-hw-acceleration'
p783
NsS'iphone_bundle_localisations'
p784
NsS'tizen-dist1-key'
p785
NsS'wp8-custom-manifest'
p786
NsS'nds-bannertitle-ge'
p787
NsS'iphone-sign-for-distribution'
p788
NsS'wp8-tile-fliptemplate-medium-back-image'
p789
NsS'wp8-publisher-id'
p790
NsS'icon'
p791
NsS'wp8-exclude-wxga'
p792
NsS'uiq3-icon2-mask'
p793
NsS'iphone-splashscreen-portrait'
p794
NsS'iphone-icon-high-res'
p795
NsS'ws81-distribution-pfx-password'
p796
NsS'playbook-author'
p797
NsS'android-icon-xhdpi'
p798
NsS'linux-ext-lib'
p799
(lp800
sS'blackberry-permissions-access-internet'
p801
NsS'wp8-exclude-720p'
p802
NsS'lgtv-use-drm'
p803
NsS'symbian-platsecflags'
p804
NsS'ws8-description'
p805
NsS'blackberry-playbook-icon'
p806
NsS'copyright'
p807
NsS'version'
p808
NsS'ws81-logo-image150x150'
p809
NsS'osx-signing-identity-app'
p810
NsS'tizen-project-url'
p811
NsS'symbian-icon-svg'
p812
NsS'android-aliasname'
p813
NsS'psp-dlgmanual'
p814
NsS'brew-uid'
p815
NsS'symbian-locationsupport'
p816
NsS'ws8-ext-managed-dll'
p817
(lp818
sS'nds-bannertitle-it'
p819
NsS'ws8-ext-sdk-manifest-part'
p820
(lp821
sS'uiq3-icon1-mask'
p822
NsS'winmobile-icon16'
p823
NsS'ws8-product-name'
p824
NsS'blackberry-cskpass'
p825
NsS'winmobile-start-menu-folder'
p826
NsS'brew-clsid'
p827
NsS'roku-requires-bluetooth'
p828
NsS'ws8-ext-device-capabilities'
p829
(lp830
sS'blackberry-permissions-use-camera'
p831
NsS'iphone-prerendered-icon'
p832
NsS'iphone-appid'
p833
S'com.yesornogames.countingstarts'
p834
sS'ws8-identity-name'
p835
NsS'tizen-dist2-CA-path'
p836
NsS'winmobile-icon64'
p837
NsS'blackberry-permissions-post-notification'
p838
NsS'winmobile-setup-dll'
p839
NsS'android-external-jars'
p840
(lp841
S'c:/marmalade/7.2/extensions/s3ewebview/lib/android/s3eWebView.jar'
p842
aS'c:/marmalade/7.2/extensions/s3efacebook/lib/android/s3eFacebook.jar'
p843
aS'c:/marmalade/7.2/extensions/s3efacebook/facebook-android-sdk/libs/android-support-v4.jar'
p844
aS'c:/marmalade/7.2/extensions/s3efacebook/lib/android/annotations-4.1.1.4.jar'
p845
aS'c:/marmalade/7.2/extensions/s3eflurry/lib/android/s3eFlurry.jar'
p846
aS'c:/marmalade/7.2/extensions/s3eflurry/lib/android/FlurryAgent.jar'
p847
asS'symbian9-uid'
p848
NsS'iphone-icon-ipad-ios7'
p849
NsS'winmobile-trace-file'
p850
NsS'roku-splash-color'
p851
NsS'psp-appversion'
p852
NsS'ws8-publisher-id'
p853
NsS'android-supports-gl-texture'
p854
(lp855
sS'winmobile-png45'
p856
NsS'android-storepass'
p857
NsS'roku-icon-focus-hd'
p858
NsS'android-custom-activity'
p859
NsS'psp-discversion'
p860
NsS'psp-copyright'
p861
NsS'embed-icf'
p862
NsS'tizen-manifest'
p863
NsS'osx-icon'
p864
NsS'webos-appinfo'
p865
NsS'psp-dlghealthwarning'
p866
NsS'webos-appid'
p867
NsS'roku-icon-side-hd'
p868
NsS'iphone-icon-ipad-search-high-res-ios7'
p869
NsS'ws81-ext-sdk-manifest-part'
p870
(lp871
sS'loader_name_prefix'
p872
NsS'nds-titlename'
p873
NsS'ws81-logo-image50x50'
p874
NsS'osx-entitlements-plist'
p875
NsS'psp-dlgicon0'
p876
NsS'ws81-ext-device-capabilities'
p877
(lp878
sS'psp-discid'
p879
NsS'tizen-dist2-password'
p880
NsS'ws8-ext-sdk-ref'
p881
(lp882
sS'iphone-extra-string'
p883
(lp884
sS'version-string'
p885
NsS'iphone-icon-high-res-ios7'
p886
NsS'blackberry-permissions-record-audio'
p887
NsS'ws8-certificate-end-date'
p888
NsS'tizen-so'
p889
(lp890
sS'wp8-tile-fliptemplate-small-image'
p891
NsS'pkguid-as-uid'
p892
NsS'iphone-signing-identity'
p893
NsS'roku-persist-quota'
p894
NsS'nds-bannertitle-fr'
p895
NsS'ws8-distribution-pfx'
p896
NsS'ws8-publisher-display-name'
p897
NsS'brew-icon-small'
p898
NsS'psp-dlgpic2'
p899
NsS'psp-dlgpic0'
p900
NsS'psp-pic0'
p901
NsS'psp-pic1'
p902
NsS'psp-icon0'
p903
NsS'psp-icon1'
p904
NsS'ws81-identity-name'
p905
NsS'winmobile-icon'
p906
NsS'iphone-no-splash'
p907
NsS'iphone-splash'
p908
NsS'iphone-app-fonts'
p909
NsS'wp8-ext-native-dll'
p910
(lp911
S'c:/marmalade/7.2/extensions/s3ewebview/lib/wp8/s3eWebViewExtension.dll'
p912
aS'c:/marmalade/7.2/extensions/s3efacebook/lib/wp8/s3eFacebookExtension.dll'
p913
aS'c:/marmalade/7.2/extensions/s3eflurry/lib/wp8/s3eFlurryExtension.dll'
p914
asS'ws81-distribution-cer'
p915
NsS'uiq3-icon2'
p916
NsS'uiq3-icon3'
p917
NsS'uiq3-icon1'
p918
NsS'uiq3-icon1-format'
p919
NsS'ws8-logo-image50x50'
p920
NsS'iphone-icon-ipad-search'
p921
NsS'symbian-run-on-install'
p922
NsS'ws81-publisher-display-name'
p923
NsS'ws81-custom-manifest-fill'
p924
NsS'symbian-soundrecordsupport'
p925
NsS'nds-bannertitle-sp'
p926
NsS'psp-producer'
p927
NsS'iphone-apple-wwdr-cert'
p928
NsS'android-icon-nonstandard'
p929
NsS'win32-pref-processtitle'
p930
NsS'nds-bannertitle-hn'
p931
NsS'tizen-dist2-key'
p932
NsS'brew-depends'
p933
NsS'ws81-custom-manifest'
p934
NsS'iphone-icon-ipad-search-ios7'
p935
NsS'brew-icon-medium'
p936
NsS'iphone-bundle-url-name'
p937
S'com.yesornogames.countingstarts'
p938
sS'wp8-tile-fliptemplate-large-front-image'
p939
NsS'tizen-dist2-CA-root-path'
p940
NsS'ws81-description'
p941
NsS'uiq3-icon3-format'
p942
NsS'ws81-logo-image30x30'
p943
NsS'iphone-signing-host'
p944
NsS'tizen-icon'
p945
NsS'osx-info-plist'
p946
NsS'symbian-icon1-format'
p947
NsS'ws81-distribution-pfx'
p948
NsS'blackberry-authorid'
p949
NsS'ws81-publisher-id'
p950
NsS'ws81-ext-sdk-ref'
p951
(lp952
sS'wp8-description'
p953
NsS'iphone-link-opts'
p954
(lp955
S'-F$MARMALADE_ROOT/extensions/s3eFacebook/source/iphone/facebook-ios-sdk -framework FacebookSDK -weak_framework AdSupport -weak_framework Accounts -weak_framework Social -lsqlite3'
p956
aS'-framework SystemConfiguration -framework Security'
p957
asS'roku-splash-min-time'
p958
NsS'wp8-tile-fliptemplate-medium-front-image'
p959
NsS'provider'
p960
NsS'playbook-keystore'
p961
NsS'tizen-appid'
p962
NsS'tizen-author-key'
p963
NsS'symbian-osexecsupport'
p964
NsS'android-install-location'
p965
NsS'nds-privatesavedatasize'
p966
NsS'playbook-storepass'
p967
NsS'android-icon-ldpi'
p968
NsS'manufacturer'
p969
NsS'itunes-artwork'
p970
NsS'iphone-extra-sections'
p971
NsS'ws81-product-name'
p972
NsS'ws81-ext-native-dll'
p973
(lp974
sS'iphone-info-plist'
p975
NsS'ws8-distribution-pfx-password'
p976
NsS'ws8-logo-image30x30'
p977
NsS'wp8-ext-managed-dll'
p978
(lp979
S'c:/marmalade/7.2/extensions/s3ewebview/lib/wp8/s3eWebViewManaged.dll'
p980
aS'c:/marmalade/7.2/extensions/s3efacebook/lib/wp8/s3eFacebookManaged.dll'
p981
aS'c:/marmalade/7.2/extensions/s3efacebook/facebook_wp8_lib/Facebook.Client.dll'
p982
aS'c:/marmalade/7.2/extensions/s3efacebook/facebook_wp8_lib/Facebook.dll'
p983
aS'c:/marmalade/7.2/extensions/s3eflurry/lib/wp8/FlurryWP8SDK.dll'
p984
aS'c:/marmalade/7.2/extensions/s3eflurry/lib/wp8/s3eFlurryManaged.dll'
p985
asS'iphone-splashscreen-landscape'
p986
NsS'nds-makercode'
p987
NsS'priv-sign-key'
p988
NsS'networking'
p989
NsS'android-icon'
p990
NsS'iphone-icon-settings'
p991
NsS'iphone-distribution-cert'
p992
NsS'android_extra_strings'
p993
NsS'nds-bannertitle-en'
p994
NsS'playbook-cskpass'
p995
NsS'android-so'
p996
(lp997
S'c:/marmalade/7.2/extensions/s3ewebview/lib/android/libs3eWebView.so'
p998
aS'c:/marmalade/7.2/extensions/s3efacebook/lib/android/libs3eFacebook.so'
p999
aS'c:/marmalade/7.2/extensions/s3eflurry/lib/android/libs3eFlurry.so'
p1000
asS'wp8-higher-mem'
p1001
NsS'roku-splash-screen-hd'
p1002
NsS'iphone-bundle-url-schemes'
p1003
S'fd<FACEBOOK_APP_ID>'
p1004
sS'roku-screensaver-private'
p1005
NsS'osx-extra-res'
p1006
(lp1007
sS'playbook-icon'
p1008
NsS'uid'
p1009
NsS'playbook-authorid'
p1010
NsS'win32-pref-windowtitle'
p1011
NsS'tizen-dist1-password'
p1012
NsS'roku-screensaver-title'
p1013
NsS'osx-minimum-osx-version'
p1014
NsS'symbian-cert'
p1015
NsS'iphone-icon'
p1016
NsS'ws81-ext-capabilities'
p1017
(lp1018
sS'ws8-distribution-cer'
p1019
NsS'playbook-access-shared'
p1020
NsS'iphone-icon-ipad-high-res-ios7'
p1021
NsS'iphone-link-libs'
p1022
(lp1023
sS'wp8-exclude-wvga'
p1024
NsS'assets'
p1025
NsS'wp8-tile-fliptemplate-large-back-image'
p1026
NsS'wp8-custom-manifest-fill'
p1027
NsS'pub-sign-key'
p1028
NsS'android-extra-strings'
p1029
NsS'tizen-author-CA-path'
p1030
Nssg328
g603
sbssS'platform'
p1031
S'S3E'
p1032
sg62
S'1.0'
p1033
sS'arcade_platform'
p1034
g4
sS'extensions'
p1035
(dp1036
sS'source_groups_tree'
p1037
(dp1038
S'(libpng)'
p1039
(dp1040
S'h'
p1041
(dp1042
S'c:/marmalade/7.2/modules/third_party/libpng/h/png.h'
p1043
(lp1044
I1
a(dp1045
asS'c:/marmalade/7.2/modules/third_party/libpng/h/pngconf.h'
p1046
(lp1047
I1
ag1045
assS'c:/marmalade/7.2/modules/third_party/libpng/libpng.mkf'
p1048
(lp1049
I1
a(dp1050
assS'(libjpeg)'
p1051
(dp1052
g1041
(dp1053
S'c:/marmalade/7.2/modules/third_party/libjpeg/h/jinclude.h'
p1054
(lp1055
I1
a(dp1056
asS'c:/marmalade/7.2/modules/third_party/libjpeg/h/jconfig.h'
p1057
(lp1058
I1
ag1056
asS'c:/marmalade/7.2/modules/third_party/libjpeg/h/cdjpeg.h'
p1059
(lp1060
I1
ag1056
asS'c:/marmalade/7.2/modules/third_party/libjpeg/h/jpegint.h'
p1061
(lp1062
I1
ag1056
asS'c:/marmalade/7.2/modules/third_party/libjpeg/h/transupp.h'
p1063
(lp1064
I1
ag1056
asS'c:/marmalade/7.2/modules/third_party/libjpeg/h/jpeglib.h'
p1065
(lp1066
I1
ag1056
asS'c:/marmalade/7.2/modules/third_party/libjpeg/h/jversion.h'
p1067
(lp1068
I1
ag1056
asS'c:/marmalade/7.2/modules/third_party/libjpeg/h/jdct.h'
p1069
(lp1070
I1
ag1056
asS'c:/marmalade/7.2/modules/third_party/libjpeg/h/jdhuff.h'
p1071
(lp1072
I1
ag1056
asS'c:/marmalade/7.2/modules/third_party/libjpeg/h/jmemsys.h'
p1073
(lp1074
I1
ag1056
asS'c:/marmalade/7.2/modules/third_party/libjpeg/h/jmorecfg.h'
p1075
(lp1076
I1
ag1056
asS'c:/marmalade/7.2/modules/third_party/libjpeg/h/jerror.h'
p1077
(lp1078
I1
ag1056
asS'c:/marmalade/7.2/modules/third_party/libjpeg/h/jchuff.h'
p1079
(lp1080
I1
ag1056
asS'c:/marmalade/7.2/modules/third_party/libjpeg/h/cderror.h'
p1081
(lp1082
I1
ag1056
assS'c:/marmalade/7.2/modules/third_party/libjpeg/libjpeg.mkf'
p1083
(lp1084
I1
a(dp1085
assS'(tiniconv)'
p1086
(dp1087
S'c:/marmalade/7.2/modules/third_party/tiniconv/source/tiniconv.h'
p1088
(lp1089
I1
a(dp1090
asS'c:/marmalade/7.2/modules/third_party/tiniconv/source/tiniconv_int.h'
p1091
(lp1092
I1
ag1090
asS'c:/marmalade/7.2/modules/third_party/tiniconv/tiniconv.mkf'
p1093
(lp1094
I1
a(dp1095
assS'(SoundEngine)'
p1096
(dp1097
S'c:/users/vinicius/desktop/yes or no/stars_small/modules/soundengine/source/IwSoundPCM.cpp'
p1098
(lp1099
I1
a(dp1100
asS'c:/users/vinicius/desktop/yes or no/stars_small/modules/soundengine/h/IwSoundADPCM.h'
p1101
(lp1102
I1
ag1100
asS'c:/users/vinicius/desktop/yes or no/stars_small/modules/soundengine/h/IwSoundInst.h'
p1103
(lp1104
I1
ag1100
asS'c:/users/vinicius/desktop/yes or no/stars_small/modules/soundengine/h/IwSoundWAV.h'
p1105
(lp1106
I1
ag1100
asS'c:/users/vinicius/desktop/yes or no/stars_small/modules/soundengine/source/IwSoundGroup.cpp'
p1107
(lp1108
I1
ag1100
asS'c:/users/vinicius/desktop/yes or no/stars_small/modules/soundengine/h/IwSound.h'
p1109
(lp1110
I1
ag1100
asS'c:/users/vinicius/desktop/yes or no/stars_small/modules/soundengine/source/IwSoundInst.cpp'
p1111
(lp1112
I1
ag1100
asS'Docs'
p1113
(dp1114
S'c:/users/vinicius/desktop/yes or no/stars_small/modules/soundengine/docs/iwsound.config.txt'
p1115
(lp1116
I1
ag1100
assS'c:/users/vinicius/desktop/yes or no/stars_small/modules/soundengine/h/IwSoundGroup.h'
p1117
(lp1118
I1
ag1100
asS'c:/users/vinicius/desktop/yes or no/stars_small/modules/soundengine/h/IwSoundSpec.h'
p1119
(lp1120
I1
ag1100
asS'c:/users/vinicius/desktop/yes or no/stars_small/modules/soundengine/h/IwSoundPCM.h'
p1121
(lp1122
I1
ag1100
asS'c:/users/vinicius/desktop/yes or no/stars_small/modules/soundengine/source/IwSoundData.cpp'
p1123
(lp1124
I1
ag1100
asS'c:/users/vinicius/desktop/yes or no/stars_small/modules/soundengine/source/IwSoundSpec.cpp'
p1125
(lp1126
I1
ag1100
asS'c:/users/vinicius/desktop/yes or no/stars_small/modules/soundengine/h/IwResHandlerWAV.h'
p1127
(lp1128
I1
ag1100
asS'c:/users/vinicius/desktop/yes or no/stars_small/modules/soundengine/h/IwSoundData.h'
p1129
(lp1130
I1
ag1100
asS'c:/users/vinicius/desktop/yes or no/stars_small/modules/soundengine/source/IwSoundParams.cpp'
p1131
(lp1132
I1
ag1100
asS'c:/users/vinicius/desktop/yes or no/stars_small/modules/soundengine/source/IwSoundADPCM.cpp'
p1133
(lp1134
I1
ag1100
asS'c:/users/vinicius/desktop/yes or no/stars_small/modules/soundengine/h/IwSoundParams.h'
p1135
(lp1136
I1
ag1100
asS'c:/users/vinicius/desktop/yes or no/stars_small/modules/soundengine/soundengine.mkf'
p1137
(lp1138
I1
a(dp1139
asS'c:/users/vinicius/desktop/yes or no/stars_small/modules/soundengine/source/IwResHandlerWAV.cpp'
p1140
(lp1141
I1
ag1100
asS'c:/users/vinicius/desktop/yes or no/stars_small/modules/soundengine/source/IwSoundManager.cpp'
p1142
(lp1143
I1
ag1100
asS'c:/users/vinicius/desktop/yes or no/stars_small/modules/soundengine/h/IwSoundManager.h'
p1144
(lp1145
I1
ag1100
asS'c:/users/vinicius/desktop/yes or no/stars_small/modules/soundengine/source/IwSoundWAV.cpp'
p1146
(lp1147
I1
ag1100
assS'(template)'
p1148
(dp1149
S'managers'
p1150
(dp1151
S'c:/users/vinicius/desktop/yes or no/stars_small/modules/template/h/sceneManager.h'
p1152
(lp1153
I1
a(dp1154
asS'c:/users/vinicius/desktop/yes or no/stars_small/modules/template/source/sceneManager.cpp'
p1155
(lp1156
I1
ag1154
assS'scenes'
p1157
(dp1158
S'c:/users/vinicius/desktop/yes or no/stars_small/modules/template/h/options.h'
p1159
(lp1160
I1
ag1154
asS'c:/users/vinicius/desktop/yes or no/stars_small/modules/template/source/items.cpp'
p1161
(lp1162
I1
ag1154
asS'c:/users/vinicius/desktop/yes or no/stars_small/modules/template/source/gameplay.cpp'
p1163
(lp1164
I1
ag1154
asS'c:/users/vinicius/desktop/yes or no/stars_small/modules/template/source/options.cpp'
p1165
(lp1166
I1
ag1154
asS'c:/users/vinicius/desktop/yes or no/stars_small/modules/template/source/iap.cpp'
p1167
(lp1168
I1
ag1154
asS'c:/users/vinicius/desktop/yes or no/stars_small/modules/template/h/customize.h'
p1169
(lp1170
I1
ag1154
asS'c:/users/vinicius/desktop/yes or no/stars_small/modules/template/h/mainMenu.h'
p1171
(lp1172
I1
ag1154
asS'c:/users/vinicius/desktop/yes or no/stars_small/modules/template/h/items.h'
p1173
(lp1174
I1
ag1154
asS'c:/users/vinicius/desktop/yes or no/stars_small/modules/template/source/store.cpp'
p1175
(lp1176
I1
ag1154
asS'c:/users/vinicius/desktop/yes or no/stars_small/modules/template/source/mainMenu.cpp'
p1177
(lp1178
I1
ag1154
asS'c:/users/vinicius/desktop/yes or no/stars_small/modules/template/source/customize.cpp'
p1179
(lp1180
I1
ag1154
asS'c:/users/vinicius/desktop/yes or no/stars_small/modules/template/h/gameplay.h'
p1181
(lp1182
I1
ag1154
asS'c:/users/vinicius/desktop/yes or no/stars_small/modules/template/h/iap.h'
p1183
(lp1184
I1
ag1154
asS'c:/users/vinicius/desktop/yes or no/stars_small/modules/template/h/store.h'
p1185
(lp1186
I1
ag1154
assS'c:/users/vinicius/desktop/yes or no/stars_small/modules/template/h/template.h'
p1187
(lp1188
I1
ag1154
asS'c:/users/vinicius/desktop/yes or no/stars_small/modules/template/template.mkf'
p1189
(lp1190
I1
a(dp1191
assS"'Marmalade Studio'"
p1192
(dp1193
S'iw2dscenegraph'
p1194
(dp1195
S'c:/marmalade/7.2/modules/iw2dscenegraph/source/Iw2DSceneGraph.cpp'
p1196
(lp1197
I1
a(dp1198
asS'c:/marmalade/7.2/modules/iw2dscenegraph/iw2dscenegraph.mkf'
p1199
(lp1200
I1
a(dp1201
asS'c:/marmalade/7.2/modules/iw2dscenegraph/h/Iw2DSceneGraph.h'
p1202
(lp1203
I1
ag1198
asS'c:/marmalade/7.2/modules/iw2dscenegraph/docs/iw2dscenegraph.defines.txt'
p1204
(lp1205
I1
ag1198
assS'iwgl'
p1206
(dp1207
S'c:/marmalade/7.2/modules/iwgl/h/IwGL.h'
p1208
(lp1209
I1
a(dp1210
asS'c:/marmalade/7.2/modules/iwgl/iwgl.mkf'
p1211
(lp1212
I1
a(dp1213
asS'c:/marmalade/7.2/modules/iwgl/h/IwGLExt.h'
p1214
(lp1215
I1
ag1210
asS'c:/marmalade/7.2/modules/iwgl/docs/iwgl.config.txt'
p1216
(lp1217
I1
ag1210
assS'iw2d'
p1218
(dp1219
S'c:/marmalade/7.2/modules/iw2d/docs/iw2d_public.defines.txt'
p1220
(lp1221
I1
a(dp1222
asS'c:/marmalade/7.2/modules/iw2d/h/Iw2D.h'
p1223
(lp1224
I1
ag1222
asS'c:/marmalade/7.2/modules/iw2d/docs/iw2d.config.txt'
p1225
(lp1226
I1
ag1222
asS'c:/marmalade/7.2/modules/iw2d/iw2d.mkf'
p1227
(lp1228
I1
a(dp1229
assS'iwgxfont'
p1230
(dp1231
S'c:/marmalade/7.2/modules/iwgxfont/h/IwGxFont.h'
p1232
(lp1233
I1
a(dp1234
asS'c:/marmalade/7.2/modules/iwgxfont/h/IwGxFontPreparedData.h'
p1235
(lp1236
I1
ag1234
asS'c:/marmalade/7.2/modules/iwgxfont/h/IwGxFontContainer.h'
p1237
(lp1238
I1
ag1234
asS'c:/marmalade/7.2/modules/iwgxfont/docs/iwgxfont_public.defines.txt'
p1239
(lp1240
I1
ag1234
asS'c:/marmalade/7.2/modules/iwgxfont/h/IwGxFontGlyph.h'
p1241
(lp1242
I1
ag1234
asS'c:/marmalade/7.2/modules/iwgxfont/h/IwGxFontState.h'
p1243
(lp1244
I1
ag1234
asS'c:/marmalade/7.2/modules/iwgxfont/h/IwGxFontTypes.h'
p1245
(lp1246
I1
ag1234
asS'c:/marmalade/7.2/modules/iwgxfont/iwgxfont.mkf'
p1247
(lp1248
I1
a(dp1249
asS'c:/marmalade/7.2/modules/iwgxfont/docs/iwgxfont.config.txt'
p1250
(lp1251
I1
ag1234
assS'iwgeom'
p1252
(dp1253
S'c:/marmalade/7.2/modules/iwgeom/h/IwGeomFPlane.h'
p1254
(lp1255
I1
a(dp1256
asS'c:/marmalade/7.2/modules/iwgeom/h/IwGeomPlane.h'
p1257
(lp1258
I1
ag1256
asS'c:/marmalade/7.2/modules/iwgeom/h/IwGeomMat.h'
p1259
(lp1260
I1
ag1256
asS'c:/marmalade/7.2/modules/iwgeom/h/IwGeomMat2D.h'
p1261
(lp1262
I1
ag1256
asS'c:/marmalade/7.2/modules/iwgeom/h/IwGeomMenu.h'
p1263
(lp1264
I1
ag1256
asS'c:/marmalade/7.2/modules/iwgeom/h/IwGeomSqrt.h'
p1265
(lp1266
I1
ag1256
asS'c:/marmalade/7.2/modules/iwgeom/h/IwGeomFMat2D.h'
p1267
(lp1268
I1
ag1256
asS'c:/marmalade/7.2/modules/iwgeom/h/IwGeomCore.h'
p1269
(lp1270
I1
ag1256
asS'c:/marmalade/7.2/modules/iwgeom/h/IwGeomFVec3.h'
p1271
(lp1272
I1
ag1256
asS'c:/marmalade/7.2/modules/iwgeom/h/IwGeomFVec2.h'
p1273
(lp1274
I1
ag1256
asS'c:/marmalade/7.2/modules/iwgeom/h/IwGeom.h'
p1275
(lp1276
I1
ag1256
asS'c:/marmalade/7.2/modules/iwgeom/h/IwGeomSVec2.h'
p1277
(lp1278
I1
ag1256
asS'c:/marmalade/7.2/modules/iwgeom/h/IwGeomFVec4.h'
p1279
(lp1280
I1
ag1256
asS'c:/marmalade/7.2/modules/iwgeom/h/IwGeomSVec3.h'
p1281
(lp1282
I1
ag1256
asS'c:/marmalade/7.2/modules/iwgeom/h/IwGeomBBox.h'
p1283
(lp1284
I1
ag1256
asS'c:/marmalade/7.2/modules/iwgeom/h/IwGeomVec2.h'
p1285
(lp1286
I1
ag1256
asS'c:/marmalade/7.2/modules/iwgeom/h/IwGeomFMat.h'
p1287
(lp1288
I1
ag1256
asS'c:/marmalade/7.2/modules/iwgeom/h/IwGeomFQuat.h'
p1289
(lp1290
I1
ag1256
asS'c:/marmalade/7.2/modules/iwgeom/h/IwGeomVec3.h'
p1291
(lp1292
I1
ag1256
asS'c:/marmalade/7.2/modules/iwgeom/h/IwGeomSVec4.h'
p1293
(lp1294
I1
ag1256
asS'c:/marmalade/7.2/modules/iwgeom/docs/iwgeom.config.txt'
p1295
(lp1296
I1
ag1256
asS'c:/marmalade/7.2/modules/iwgeom/h/IwGeomFIntersect.h'
p1297
(lp1298
I1
ag1256
asS'c:/marmalade/7.2/modules/iwgeom/iwgeom.mkf'
p1299
(lp1300
I1
a(dp1301
asS'c:/marmalade/7.2/modules/iwgeom/h/IwGeomFSphere.h'
p1302
(lp1303
I1
ag1256
asS'c:/marmalade/7.2/modules/iwgeom/h/IwGeomVec.h'
p1304
(lp1305
I1
ag1256
asS'c:/marmalade/7.2/modules/iwgeom/h/IwGeomIntersect.h'
p1306
(lp1307
I1
ag1256
asS'c:/marmalade/7.2/modules/iwgeom/h/IwGeomSQuat.h'
p1308
(lp1309
I1
ag1256
asS'c:/marmalade/7.2/modules/iwgeom/h/IwGeomQuat.h'
p1310
(lp1311
I1
ag1256
asS'c:/marmalade/7.2/modules/iwgeom/h/IwGeomSphere.h'
p1312
(lp1313
I1
ag1256
asS'c:/marmalade/7.2/modules/iwgeom/h/IwGeomLegacy.h'
p1314
(lp1315
I1
ag1256
asS'c:/marmalade/7.2/modules/iwgeom/h/IwGeomVec4.h'
p1316
(lp1317
I1
ag1256
asS'c:/marmalade/7.2/modules/iwgeom/h/IwGeomFBBox.h'
p1318
(lp1319
I1
ag1256
assS'iwresmanager'
p1320
(dp1321
S'c:/marmalade/7.2/modules/iwresmanager/h/IwResHandlerGROUP.h'
p1322
(lp1323
I1
a(dp1324
asS'c:/marmalade/7.2/modules/iwresmanager/h/IwResHandler.h'
p1325
(lp1326
I1
ag1324
asS'c:/marmalade/7.2/modules/iwresmanager/iwresmanager.mkf'
p1327
(lp1328
I1
a(dp1329
asS'c:/marmalade/7.2/modules/iwresmanager/h/IwResGroup.h'
p1330
(lp1331
I1
ag1324
asS'c:/marmalade/7.2/modules/iwresmanager/h/IwResHandlerImage.h'
p1332
(lp1333
I1
ag1324
asS'c:/marmalade/7.2/modules/iwresmanager/docs/iwresmanager.config.txt'
p1334
(lp1335
I1
ag1324
asS'c:/marmalade/7.2/modules/iwresmanager/h/IwResManagerClass.h'
p1336
(lp1337
I1
ag1324
asS'c:/marmalade/7.2/modules/iwresmanager/h/IwResHandlerITX.h'
p1338
(lp1339
I1
ag1324
asS'c:/marmalade/7.2/modules/iwresmanager/h/IwResSerialise.h'
p1340
(lp1341
I1
ag1324
asS'c:/marmalade/7.2/modules/iwresmanager/h/IwResManager.h'
p1342
(lp1343
I1
ag1324
assS'iwgx'
p1344
(dp1345
S'c:/marmalade/7.2/modules/iwgx/h/IwTPage.h'
p1346
(lp1347
I1
a(dp1348
asS'c:/marmalade/7.2/modules/iwgx/h/IwGxStream.h'
p1349
(lp1350
I1
ag1348
asS'c:/marmalade/7.2/modules/iwgx/h/IwGxTransformSW.h'
p1351
(lp1352
I1
ag1348
asS'c:/marmalade/7.2/modules/iwgx/h/IwMaterial.h'
p1353
(lp1354
I1
ag1348
asS'c:/marmalade/7.2/modules/iwgx/h/IwMatAnim.h'
p1355
(lp1356
I1
ag1348
asS'c:/marmalade/7.2/modules/iwgx/docs/iwgx.config.txt'
p1357
(lp1358
I1
ag1348
asS'c:/marmalade/7.2/modules/iwgx/iwgx.mkf'
p1359
(lp1360
I1
a(dp1361
asS'c:/marmalade/7.2/modules/iwgx/h/IwResHandlerMTL.h'
p1362
(lp1363
I1
ag1348
asS'c:/marmalade/7.2/modules/iwgx/h/IwGxPrint.h'
p1364
(lp1365
I1
ag1348
asS'c:/marmalade/7.2/modules/iwgx/h/IwGxSurface.h'
p1366
(lp1367
I1
ag1348
asS'c:/marmalade/7.2/modules/iwgx/docs/iwgx_public.defines.txt'
p1368
(lp1369
I1
ag1348
asS'c:/marmalade/7.2/modules/iwgx/h/IwClip.h'
p1370
(lp1371
I1
ag1348
asS'c:/marmalade/7.2/modules/iwgx/h/IwGx.h'
p1372
(lp1373
I1
ag1348
asS'c:/marmalade/7.2/modules/iwgx/h/IwGxDebug.h'
p1374
(lp1375
I1
ag1348
asS'c:/marmalade/7.2/modules/iwgx/h/IwDebugPrim.h'
p1376
(lp1377
I1
ag1348
asS'c:/marmalade/7.2/modules/iwgx/h/IwGxMetrics.h'
p1378
(lp1379
I1
ag1348
asS'c:/marmalade/7.2/modules/iwgx/h/IwGxError.h'
p1380
(lp1381
I1
ag1348
asS'c:/marmalade/7.2/modules/iwgx/h/IwClip.inl'
p1382
(lp1383
I1
ag1348
asS'c:/marmalade/7.2/modules/iwgx/h/IwGxFuncTable.h'
p1384
(lp1385
I1
ag1348
asS'c:/marmalade/7.2/modules/iwgx/h/IwTexture.h'
p1386
(lp1387
I1
ag1348
asS'c:/marmalade/7.2/modules/iwgx/h/IwFColour.h'
p1388
(lp1389
I1
ag1348
asS'c:/marmalade/7.2/modules/iwgx/h/IwColour.h'
p1390
(lp1391
I1
ag1348
asS'c:/marmalade/7.2/modules/iwgx/h/IwGxShaderTechnique.h'
p1392
(lp1393
I1
ag1348
asS'c:/marmalade/7.2/modules/iwgx/h/IwGxTypes.h'
p1394
(lp1395
I1
ag1348
asS'c:/marmalade/7.2/modules/iwgx/h/IwGxState.h'
p1396
(lp1397
I1
ag1348
assS'iw2dscenegraphcore'
p1398
(dp1399
S'c:/marmalade/7.2/modules/iw2dscenegraphcore/iw2dscenegraphcore.mkf'
p1400
(lp1401
I1
a(dp1402
asS'c:/marmalade/7.2/modules/iw2dscenegraphcore/h/Iw2DSceneGraphCore.h'
p1403
(lp1404
I1
a(dp1405
asS'c:/marmalade/7.2/modules/iw2dscenegraphcore/source/Iw2DSceneGraphCore.cpp'
p1406
(lp1407
I1
ag1405
assS'iwutil'
p1408
(dp1409
S'c:/marmalade/7.2/modules/iwutil/h/IwCore.h'
p1410
(lp1411
I1
a(dp1412
asS'c:/marmalade/7.2/modules/iwutil/h/IwArray.h'
p1413
(lp1414
I1
ag1412
asS'c:/marmalade/7.2/modules/iwutil/h/IwResource.h'
p1415
(lp1416
I1
ag1412
asS'c:/marmalade/7.2/modules/iwutil/h/IwFibre.h'
p1417
(lp1418
I1
ag1412
asS'c:/marmalade/7.2/modules/iwutil/h/IwBuffer.h'
p1419
(lp1420
I1
ag1412
asS'c:/marmalade/7.2/modules/iwutil/h/IwRandom.h'
p1421
(lp1422
I1
ag1412
asS'c:/marmalade/7.2/modules/iwutil/h/IwManagedList.h'
p1423
(lp1424
I1
ag1412
asS'c:/marmalade/7.2/modules/iwutil/h/IwList.h'
p1425
(lp1426
I1
ag1412
asS'c:/marmalade/7.2/modules/iwutil/h/IwProfileMenu.h'
p1427
(lp1428
I1
ag1412
asS'c:/marmalade/7.2/modules/iwutil/h/IwMemory.h'
p1429
(lp1430
I1
ag1412
asS'c:/marmalade/7.2/modules/iwutil/h/IwMath.h'
p1431
(lp1432
I1
ag1412
asS'c:/marmalade/7.2/modules/iwutil/h/IwDivTable.h'
p1433
(lp1434
I1
ag1412
asS'c:/marmalade/7.2/modules/iwutil/h/IwTextParserITX.h'
p1435
(lp1436
I1
ag1412
asS'c:/marmalade/7.2/modules/iwutil/h/IwMenu.h'
p1437
(lp1438
I1
ag1412
asS'c:/marmalade/7.2/modules/iwutil/h/IwChar.h'
p1439
(lp1440
I1
ag1412
asS'c:/marmalade/7.2/modules/iwutil/h/IwEvent.h'
p1441
(lp1442
I1
ag1412
asS'c:/marmalade/7.2/modules/iwutil/h/IwTextParser.h'
p1443
(lp1444
I1
ag1412
asS'c:/marmalade/7.2/modules/iwutil/h/IwOptimiseSize.h'
p1445
(lp1446
I1
ag1412
asS'c:/marmalade/7.2/modules/iwutil/h/IwSingleton.h'
p1447
(lp1448
I1
ag1412
asS'c:/marmalade/7.2/modules/iwutil/h/IwImage.h'
p1449
(lp1450
I1
ag1412
asS'c:/marmalade/7.2/modules/iwutil/h/IwFile.h'
p1451
(lp1452
I1
ag1412
asS'c:/marmalade/7.2/modules/iwutil/h/IwString.h'
p1453
(lp1454
I1
ag1412
asS'c:/marmalade/7.2/modules/iwutil/h/IwVariableBitField.h'
p1455
(lp1456
I1
ag1412
asS'c:/marmalade/7.2/modules/iwutil/h/IwUncopyable.h'
p1457
(lp1458
I1
ag1412
asS'c:/marmalade/7.2/modules/iwutil/h/IwAllocator.h'
p1459
(lp1460
I1
ag1412
asS'c:/marmalade/7.2/modules/iwutil/h/IwTypes.h'
p1461
(lp1462
I1
ag1412
asS'c:/marmalade/7.2/modules/iwutil/h/IwManaged.h'
p1463
(lp1464
I1
ag1412
asS'c:/marmalade/7.2/modules/iwutil/h/IwRuntime.h'
p1465
(lp1466
I1
ag1412
asS'c:/marmalade/7.2/modules/iwutil/h/IwMemManagerDL.h'
p1467
(lp1468
I1
ag1412
asS'c:/marmalade/7.2/modules/iwutil/h/IwOptimiseThumb.h'
p1469
(lp1470
I1
ag1412
asS'c:/marmalade/7.2/modules/iwutil/h/IwUtil.h'
p1471
(lp1472
I1
ag1412
asS'c:/marmalade/7.2/modules/iwutil/docs/iwutil.config.txt'
p1473
(lp1474
I1
ag1412
asS'c:/marmalade/7.2/modules/iwutil/h/IwClassFactory.h'
p1475
(lp1476
I1
ag1412
asS'c:/marmalade/7.2/modules/iwutil/h/IwUtilInitTerm.h'
p1477
(lp1478
I1
ag1412
asS'c:/marmalade/7.2/modules/iwutil/h/IwAutoFile.h'
p1479
(lp1480
I1
ag1412
asS'c:/marmalade/7.2/modules/iwutil/h/IwUTF8.h'
p1481
(lp1482
I1
ag1412
asS'c:/marmalade/7.2/modules/iwutil/h/IwSerialise.h'
p1483
(lp1484
I1
ag1412
asS'c:/marmalade/7.2/modules/iwutil/h/IwPath.h'
p1485
(lp1486
I1
ag1412
asS'c:/marmalade/7.2/modules/iwutil/h/IwMemBucketHelpers.h'
p1487
(lp1488
I1
ag1412
asS'c:/marmalade/7.2/modules/iwutil/h/IwCopyingPtr.h'
p1489
(lp1490
I1
ag1412
asS'c:/marmalade/7.2/modules/iwutil/h/IwOptimiseARM.h'
p1491
(lp1492
I1
ag1412
asS'c:/marmalade/7.2/modules/iwutil/h/IwMemBucket.h'
p1493
(lp1494
I1
ag1412
asS'c:/marmalade/7.2/modules/iwutil/iwutil.mkf'
p1495
(lp1496
I1
a(dp1497
asS'c:/marmalade/7.2/modules/iwutil/h/IwKeymap.h'
p1498
(lp1499
I1
ag1412
asS'c:/marmalade/7.2/modules/iwutil/h/IwImageHelper.h'
p1500
(lp1501
I1
ag1412
asS'c:/marmalade/7.2/modules/iwutil/h/IwOptimiseSpeed.h'
p1502
(lp1503
I1
ag1412
asS'c:/marmalade/7.2/modules/iwutil/h/IwTextParseable.h'
p1504
(lp1505
I1
ag1412
asS'c:/marmalade/7.2/modules/iwutil/h/IwDebug.h'
p1506
(lp1507
I1
ag1412
asS'c:/marmalade/7.2/modules/iwutil/h/IwDivide.h'
p1508
(lp1509
I1
ag1412
asS'c:/marmalade/7.2/modules/iwutil/h/IwHashString.h'
p1510
(lp1511
I1
ag1412
asssS'Extensions'
p1512
(dp1513
S's3eWebView'
p1514
(dp1515
S'interface'
p1516
(dp1517
S'c:/marmalade/7.2/extensions/s3ewebview/interface/s3eWebView.defines.txt'
p1518
(lp1519
I1
a(dp1520
asS'c:/marmalade/7.2/extensions/s3ewebview/interface/s3eWebView_interface.cpp'
p1521
(lp1522
I1
ag1520
assS'c:/marmalade/7.2/extensions/s3ewebview/h/s3eWebView.h'
p1523
(lp1524
I1
ag1520
asS'c:/marmalade/7.2/extensions/s3ewebview/s3ewebview.mkf'
p1525
(lp1526
I1
a(dp1527
assS's3eFacebook'
p1528
(dp1529
S'interface'
p1530
(dp1531
S'c:/marmalade/7.2/extensions/s3efacebook/interface/s3eFacebook_interface.cpp'
p1532
(lp1533
I1
a(dp1534
asS'c:/marmalade/7.2/extensions/s3efacebook/interface/s3eFacebook.defines.txt'
p1535
(lp1536
I1
ag1534
assg1041
(dp1537
S'c:/marmalade/7.2/extensions/s3efacebook/h/s3eFacebook.h'
p1538
(lp1539
I1
ag1534
assS'c:/marmalade/7.2/extensions/s3efacebook/s3efacebook.mkf'
p1540
(lp1541
I1
a(dp1542
assS's3eFlurry'
p1543
(dp1544
S'interface'
p1545
(dp1546
S'c:/marmalade/7.2/extensions/s3eflurry/interface/s3eFlurry_interface.cpp'
p1547
(lp1548
I1
a(dp1549
asS'c:/marmalade/7.2/extensions/s3eflurry/interface/s3eFlurry.defines.txt'
p1550
(lp1551
I1
ag1549
assS'c:/marmalade/7.2/extensions/s3eflurry/h/s3eFlurry.h'
p1552
(lp1553
I1
ag1549
asS'c:/marmalade/7.2/extensions/s3eflurry/s3eflurry.mkf'
p1554
(lp1555
I1
a(dp1556
asssS'source'
p1557
(dp1558
S'entities'
p1559
(dp1560
S'c:/Users/Vinicius/Desktop/Yes or No/Stars_Small/source/gameObject.cpp'
p1561
(lp1562
I1
a(dp1563
asS'c:/Users/Vinicius/Desktop/Yes or No/Stars_Small/source/gameObject.h'
p1564
(lp1565
I1
ag1563
asS'c:/Users/Vinicius/Desktop/Yes or No/Stars_Small/source/player.cpp'
p1566
(lp1567
I1
ag1563
asS'c:/Users/Vinicius/Desktop/Yes or No/Stars_Small/source/player.h'
p1568
(lp1569
I1
ag1563
assS'init'
p1570
(dp1571
S'c:/Users/Vinicius/Desktop/Yes or No/Stars_Small/source/main.cpp'
p1572
(lp1573
I1
ag1563
asS'c:/Users/Vinicius/Desktop/Yes or No/Stars_Small/source/game.h'
p1574
(lp1575
I1
ag1563
asS'c:/Users/Vinicius/Desktop/Yes or No/Stars_Small/source/game.cpp'
p1576
(lp1577
I1
ag1563
asS'c:/Users/Vinicius/Desktop/Yes or No/Stars_Small/source/header.h'
p1578
(lp1579
I1
ag1563
assS'managers'
p1580
(dp1581
S'c:/Users/Vinicius/Desktop/Yes or No/Stars_Small/source/triggersManager.cpp'
p1582
(lp1583
I1
ag1563
asS'c:/Users/Vinicius/Desktop/Yes or No/Stars_Small/source/triggersManager.h'
p1584
(lp1585
I1
ag1563
asssS'(core)'
p1586
(dp1587
S'c:/users/vinicius/desktop/yes or no/stars_small/modules/core/core.mkf'
p1588
(lp1589
I1
a(dp1590
asS'utils'
p1591
(dp1592
S'c:/users/vinicius/desktop/yes or no/stars_small/modules/core/source/utils.cpp'
p1593
(lp1594
I1
a(dp1595
asS'c:/users/vinicius/desktop/yes or no/stars_small/modules/core/h/utils.h'
p1596
(lp1597
I1
ag1595
asS'c:/users/vinicius/desktop/yes or no/stars_small/modules/core/h/easyArray.h'
p1598
(lp1599
I1
ag1595
assS'c:/users/vinicius/desktop/yes or no/stars_small/modules/core/h/core.h'
p1600
(lp1601
I1
ag1595
asS'managers'
p1602
(dp1603
S'c:/users/vinicius/desktop/yes or no/stars_small/modules/core/h/timerManager.h'
p1604
(lp1605
I1
ag1595
asS'c:/users/vinicius/desktop/yes or no/stars_small/modules/core/h/audioManager.h'
p1606
(lp1607
I1
ag1595
asS'c:/users/vinicius/desktop/yes or no/stars_small/modules/core/source/resourceManager.cpp'
p1608
(lp1609
I1
ag1595
asS'c:/users/vinicius/desktop/yes or no/stars_small/modules/core/h/resourceManager.h'
p1610
(lp1611
I1
ag1595
asS'c:/users/vinicius/desktop/yes or no/stars_small/modules/core/source/audioManager.cpp'
p1612
(lp1613
I1
ag1595
asS'c:/users/vinicius/desktop/yes or no/stars_small/modules/core/h/savedataManager.h'
p1614
(lp1615
I1
ag1595
asS'c:/users/vinicius/desktop/yes or no/stars_small/modules/core/source/spriteManager.cpp'
p1616
(lp1617
I1
ag1595
asS'c:/users/vinicius/desktop/yes or no/stars_small/modules/core/source/timerManager.cpp'
p1618
(lp1619
I1
ag1595
asS'c:/users/vinicius/desktop/yes or no/stars_small/modules/core/h/spriteManager.h'
p1620
(lp1621
I1
ag1595
asS'c:/users/vinicius/desktop/yes or no/stars_small/modules/core/source/savedataManager.cpp'
p1622
(lp1623
I1
ag1595
asS'c:/users/vinicius/desktop/yes or no/stars_small/modules/core/h/inputManager.h'
p1624
(lp1625
I1
ag1595
asS'c:/users/vinicius/desktop/yes or no/stars_small/modules/core/source/parallaxManager.cpp'
p1626
(lp1627
I1
ag1595
asS'c:/users/vinicius/desktop/yes or no/stars_small/modules/core/h/parallaxManager.h'
p1628
(lp1629
I1
ag1595
asS'c:/users/vinicius/desktop/yes or no/stars_small/modules/core/source/inputManager.cpp'
p1630
(lp1631
I1
ag1595
asssS'(zlib)'
p1632
(dp1633
g1041
(dp1634
S'c:/marmalade/7.2/modules/third_party/zlib/h/zconf.h'
p1635
(lp1636
I1
a(dp1637
asS'c:/marmalade/7.2/modules/third_party/zlib/h/zlib.h'
p1638
(lp1639
I1
ag1637
assS'c:/marmalade/7.2/modules/third_party/zlib/zlib.mkf'
p1640
(lp1641
I1
a(dp1642
assS'(iwtween)'
p1643
(dp1644
S'c:/marmalade/7.2/modules/iwtween/iwtween.mkf'
p1645
(lp1646
I1
a(dp1647
asS'c:/marmalade/7.2/modules/iwtween/source/IwTween.cpp'
p1648
(lp1649
I1
a(dp1650
asS'c:/marmalade/7.2/modules/iwtween/h/IwTween.h'
p1651
(lp1652
I1
ag1650
asssS'files'
p1653
(dp1654
S'IwGxFontPreparedData.h'
p1655
g302
(cmkb_main
File
p1656
g304
Ntp1657
Rp1658
(dp1659
S'flags'
p1660
g1234
sS'group'
p1661
(lp1662
S"'Marmalade Studio'"
p1663
ag1230
asg328
g1235
sbsS'iterator'
p1664
g302
(g1656
g304
Ntp1665
Rp1666
(dp1667
g1660
(dp1668
sg1661
(lp1669
S"'Marmalade System (S3E)'"
p1670
aS'stdc headers'
p1671
aS'c++'
p1672
asg328
S'c:/marmalade/7.2/s3e/h/std/c++/iterator'
p1673
sbsS'IwGL.h'
p1674
g302
(g1656
g304
Ntp1675
Rp1676
(dp1677
g1660
g1210
sg1661
(lp1678
S"'Marmalade Studio'"
p1679
ag1206
asg328
g1208
sbsS's3e.h'
p1680
g302
(g1656
g304
Ntp1681
Rp1682
(dp1683
g1660
g1668
sg1661
(lp1684
g1670
asg328
S'c:/marmalade/7.2/s3e/h/s3e.h'
p1685
sbsS'errno.h'
p1686
g302
(g1656
g304
Ntp1687
Rp1688
(dp1689
g1660
g1668
sg1661
(lp1690
g1670
aS'stdc headers'
p1691
asg328
S'c:/marmalade/7.2/s3e/h/std/errno.h'
p1692
sbsS'utils.cpp'
p1693
g302
(g1656
g304
Ntp1694
Rp1695
(dp1696
g1660
g1595
sg1661
(lp1697
g1586
ag1591
asg328
g1593
sbsS'IwSingleton.h'
p1698
g302
(g1656
g304
Ntp1699
Rp1700
(dp1701
g1660
g1412
sg1661
(lp1702
S"'Marmalade Studio'"
p1703
ag1408
asg328
g1447
sbsS'spriteManager.cpp'
p1704
g302
(g1656
g304
Ntp1705
Rp1706
(dp1707
g1660
g1595
sg1661
(lp1708
g1586
ag1602
asg328
g1616
sbsS'dlfcn.h'
p1709
g302
(g1656
g304
Ntp1710
Rp1711
(dp1712
g1660
g1668
sg1661
g1690
sg328
S'c:/marmalade/7.2/s3e/h/std/dlfcn.h'
p1713
sbsS'IwSoundWAV.cpp'
p1714
g302
(g1656
g304
Ntp1715
Rp1716
(dp1717
g1660
g1100
sg1661
(lp1718
g1096
asg328
g1146
sbsS'sched.h'
p1719
g302
(g1656
g304
Ntp1720
Rp1721
(dp1722
g1660
g1668
sg1661
g1690
sg328
S'c:/marmalade/7.2/s3e/h/std/sched.h'
p1723
sbsS'IwSoundPCM.h'
p1724
g302
(g1656
g304
Ntp1725
Rp1726
(dp1727
g1660
g1100
sg1661
g1718
sg328
g1121
sbsS'IwGeomFMat2D.h'
p1728
g302
(g1656
g304
Ntp1729
Rp1730
(dp1731
g1660
g1256
sg1661
(lp1732
S"'Marmalade Studio'"
p1733
ag1252
asg328
g1267
sbsS'cassert'
p1734
g302
(g1656
g304
Ntp1735
Rp1736
(dp1737
g1660
g1668
sg1661
g1669
sg328
S'c:/marmalade/7.2/s3e/h/std/c++/cassert'
p1738
sbsS'grp.h'
p1739
g302
(g1656
g304
Ntp1740
Rp1741
(dp1742
g1660
g1668
sg1661
g1690
sg328
S'c:/marmalade/7.2/s3e/h/std/grp.h'
p1743
sbsS'list'
p1744
g302
(g1656
g304
Ntp1745
Rp1746
(dp1747
g1660
g1668
sg1661
g1669
sg328
S'c:/marmalade/7.2/s3e/h/std/c++/list'
p1748
sbsS'IwSoundSpec.cpp'
p1749
g302
(g1656
g304
Ntp1750
Rp1751
(dp1752
g1660
g1100
sg1661
g1718
sg328
g1125
sbsS'istream'
p1753
g302
(g1656
g304
Ntp1754
Rp1755
(dp1756
g1660
g1668
sg1661
g1669
sg328
S'c:/marmalade/7.2/s3e/h/std/c++/istream'
p1757
sbsS'jpeglib.h'
p1758
g302
(g1656
g304
Ntp1759
Rp1760
(dp1761
g1660
g1056
sg1661
(lp1762
g1051
ag1041
asg328
g1065
sbsS'iw2d_public.defines.txt'
p1763
g302
(g1656
g304
Ntp1764
Rp1765
(dp1766
g1660
g1222
sg1661
(lp1767
S"'Marmalade Studio'"
p1768
ag1218
asg328
g1220
sbsS'iostream.h'
p1769
g302
(g1656
g304
Ntp1770
Rp1771
(dp1772
g1660
g1668
sg1661
g1669
sg328
S'c:/marmalade/7.2/s3e/h/std/c++/iostream.h'
p1773
sbsS'IwSoundADPCM.h'
p1774
g302
(g1656
g304
Ntp1775
Rp1776
(dp1777
g1660
g1100
sg1661
g1718
sg328
g1101
sbsS'string'
p1778
g302
(g1656
g304
Ntp1779
Rp1780
(dp1781
g1660
g1668
sg1661
g1669
sg328
S'c:/marmalade/7.2/s3e/h/std/c++/string'
p1782
sbsS'IwMemory.h'
p1783
g302
(g1656
g304
Ntp1784
Rp1785
(dp1786
g1660
g1412
sg1661
g1702
sg328
g1429
sbsS'IwGeomPlane.h'
p1787
g302
(g1656
g304
Ntp1788
Rp1789
(dp1790
g1660
g1256
sg1661
g1732
sg328
g1257
sbsS'items.h'
p1791
g302
(g1656
g304
Ntp1792
Rp1793
(dp1794
g1660
g1154
sg1661
(lp1795
g1148
ag1157
asg328
g1173
sbsS'iw2d.config.txt'
p1796
g302
(g1656
g304
Ntp1797
Rp1798
(dp1799
g1660
g1222
sg1661
g1767
sg328
g1225
sbsS'iomanip'
p1800
g302
(g1656
g304
Ntp1801
Rp1802
(dp1803
g1660
g1668
sg1661
g1669
sg328
S'c:/marmalade/7.2/s3e/h/std/c++/iomanip'
p1804
sbsS'iwgeom.mkf'
p1805
g302
(g1656
g304
Ntp1806
Rp1807
(dp1808
g1660
g1301
sg1661
g1732
sg328
g1299
sbsS'IwGxError.h'
p1809
g302
(g1656
g304
Ntp1810
Rp1811
(dp1812
g1660
g1348
sg1661
(lp1813
S"'Marmalade Studio'"
p1814
ag1344
asg328
g1380
sbsS'IwGeom.h'
p1815
g302
(g1656
g304
Ntp1816
Rp1817
(dp1818
g1660
g1256
sg1661
g1732
sg328
g1275
sbsS'IwGeomVec4.h'
p1819
g302
(g1656
g304
Ntp1820
Rp1821
(dp1822
g1660
g1256
sg1661
g1732
sg328
g1316
sbsS'dir.h'
p1823
g302
(g1656
g304
Ntp1824
Rp1825
(dp1826
g1660
g1668
sg1661
(lp1827
g1670
aS'stdc headers'
p1828
aS'sys'
p1829
asg328
S'c:/marmalade/7.2/s3e/h/std/sys/dir.h'
p1830
sbsS'locale.h'
p1831
g302
(g1656
g304
Ntp1832
Rp1833
(dp1834
g1660
g1668
sg1661
g1690
sg328
S'c:/marmalade/7.2/s3e/h/std/locale.h'
p1835
sbsS'vector'
p1836
g302
(g1656
g304
Ntp1837
Rp1838
(dp1839
g1660
g1668
sg1661
g1669
sg328
S'c:/marmalade/7.2/s3e/h/std/c++/vector'
p1840
sbsS'gameplay.h'
p1841
g302
(g1656
g304
Ntp1842
Rp1843
(dp1844
g1660
g1154
sg1661
g1795
sg328
g1181
sbsS'IwManaged.h'
p1845
g302
(g1656
g304
Ntp1846
Rp1847
(dp1848
g1660
g1412
sg1661
g1702
sg328
g1463
sbsS's3eCompass.h'
p1849
g302
(g1656
g304
Ntp1850
Rp1851
(dp1852
g1660
g1668
sg1661
g1684
sg328
S'c:/marmalade/7.2/s3e/h/s3eCompass.h'
p1853
sbsS'cderror.h'
p1854
g302
(g1656
g304
Ntp1855
Rp1856
(dp1857
g1660
g1056
sg1661
g1762
sg328
g1081
sbsS'climits'
p1858
g302
(g1656
g304
Ntp1859
Rp1860
(dp1861
g1660
g1668
sg1661
g1669
sg328
S'c:/marmalade/7.2/s3e/h/std/c++/climits'
p1862
sbsS'easyArray.h'
p1863
g302
(g1656
g304
Ntp1864
Rp1865
(dp1866
g1660
g1595
sg1661
(lp1867
g1586
aS'utils'
p1868
asg328
g1598
sbsS's3eVibra.h'
p1869
g302
(g1656
g304
Ntp1870
Rp1871
(dp1872
g1660
g1668
sg1661
g1684
sg328
S'c:/marmalade/7.2/s3e/h/s3eVibra.h'
p1873
sbsS'jversion.h'
p1874
g302
(g1656
g304
Ntp1875
Rp1876
(dp1877
g1660
g1056
sg1661
g1762
sg328
g1067
sbsS'fnmatch.h'
p1878
g302
(g1656
g304
Ntp1879
Rp1880
(dp1881
g1660
g1668
sg1661
g1690
sg328
S'c:/marmalade/7.2/s3e/h/std/fnmatch.h'
p1882
sbsS'IwGxState.h'
p1883
g302
(g1656
g304
Ntp1884
Rp1885
(dp1886
g1660
g1348
sg1661
g1813
sg328
g1396
sbsS's3eAudio.h'
p1887
g302
(g1656
g304
Ntp1888
Rp1889
(dp1890
g1660
g1668
sg1661
g1684
sg328
S'c:/marmalade/7.2/s3e/h/s3eAudio.h'
p1891
sbsS'store.h'
p1892
g302
(g1656
g304
Ntp1893
Rp1894
(dp1895
g1660
g1154
sg1661
g1795
sg328
g1185
sbsS's3eSurface.h'
p1896
g302
(g1656
g304
Ntp1897
Rp1898
(dp1899
g1660
g1668
sg1661
g1684
sg328
S'c:/marmalade/7.2/s3e/h/s3eSurface.h'
p1900
sbsS'new'
p1901
g302
(g1656
g304
Ntp1902
Rp1903
(dp1904
g1660
g1668
sg1661
g1669
sg328
S'c:/marmalade/7.2/s3e/h/std/c++/new'
p1905
sbsS's3eWindow.h'
p1906
g302
(g1656
g304
Ntp1907
Rp1908
(dp1909
g1660
g1668
sg1661
(lp1910
g1670
aS'Extensions'
p1911
asg328
S'c:/marmalade/7.2/s3e/h/ext/s3eWindow.h'
p1912
sbsS'IwBuffer.h'
p1913
g302
(g1656
g304
Ntp1914
Rp1915
(dp1916
g1660
g1412
sg1661
g1702
sg328
g1419
sbsS's3eflurry.mkf'
p1917
g302
(g1656
g304
Ntp1918
Rp1919
(dp1920
g1660
g1556
sg1661
(lp1921
S'Extensions'
p1922
ag1543
asg328
g1554
sbsS'stdio_streambuf'
p1923
g302
(g1656
g304
Ntp1924
Rp1925
(dp1926
g1660
g1668
sg1661
g1669
sg328
S'c:/marmalade/7.2/s3e/h/std/c++/stdio_streambuf'
p1927
sbsS's3eOSExec.h'
p1928
g302
(g1656
g304
Ntp1929
Rp1930
(dp1931
g1660
g1668
sg1661
g1910
sg328
S'c:/marmalade/7.2/s3e/h/ext/s3eOSExec.h'
p1932
sbsS'IwGxTransformSW.h'
p1933
g302
(g1656
g304
Ntp1934
Rp1935
(dp1936
g1660
g1348
sg1661
g1813
sg328
g1351
sbsS'unistd.h'
p1937
g302
(g1656
g304
Ntp1938
Rp1939
(dp1940
g1660
g1668
sg1661
g1690
sg328
S'c:/marmalade/7.2/s3e/h/std/unistd.h'
p1941
sbsS'spriteManager.h'
p1942
g302
(g1656
g304
Ntp1943
Rp1944
(dp1945
g1660
g1595
sg1661
(lp1946
g1586
aS'managers'
p1947
asg328
g1620
sbsS'iwgxfont.config.txt'
p1948
g302
(g1656
g304
Ntp1949
Rp1950
(dp1951
g1660
g1234
sg1661
g1662
sg328
g1250
sbsS'gl2platform.h'
p1952
g302
(g1656
g304
Ntp1953
Rp1954
(dp1955
g1660
g1668
sg1661
(lp1956
g1670
aS'GL'
p1957
aS'GLES 2.0'
p1958
asg328
S'c:/marmalade/7.2/s3e/h/GLES2/gl2platform.h'
p1959
sbsS'IwResManagerClass.h'
p1960
g302
(g1656
g304
Ntp1961
Rp1962
(dp1963
g1660
g1324
sg1661
(lp1964
g1192
ag1320
asg328
g1336
sbsS'queue'
p1965
g302
(g1656
g304
Ntp1966
Rp1967
(dp1968
g1660
g1668
sg1661
g1669
sg328
S'c:/marmalade/7.2/s3e/h/std/c++/queue'
p1969
sbsS'time_1.h'
p1970
g302
(g1656
g304
Ntp1971
Rp1972
(dp1973
g1660
g1668
sg1661
g1827
sg328
S'c:/marmalade/7.2/s3e/h/std/sys/time.h'
p1974
sbsS'customize.cpp'
p1975
g302
(g1656
g304
Ntp1976
Rp1977
(dp1978
g1660
g1154
sg1661
(lp1979
g1148
aS'scenes'
p1980
asg328
g1179
sbsS'Iw2D.h'
p1981
g302
(g1656
g304
Ntp1982
Rp1983
(dp1984
g1660
g1222
sg1661
g1767
sg328
g1223
sbsS'IwGeomVec2.h'
p1985
g302
(g1656
g304
Ntp1986
Rp1987
(dp1988
g1660
g1256
sg1661
g1732
sg328
g1285
sbsS'sendfile.h'
p1989
g302
(g1656
g304
Ntp1990
Rp1991
(dp1992
g1660
g1668
sg1661
g1827
sg328
S'c:/marmalade/7.2/s3e/h/std/sys/sendfile.h'
p1993
sbsS'malloc.h'
p1994
g302
(g1656
g304
Ntp1995
Rp1996
(dp1997
g1660
g1668
sg1661
g1690
sg328
S'c:/marmalade/7.2/s3e/h/std/malloc.h'
p1998
sbsS'timerManager.h'
p1999
g302
(g1656
g304
Ntp2000
Rp2001
(dp2002
g1660
g1595
sg1661
g1946
sg328
g1604
sbsS'stdarg.h'
p2003
g302
(g1656
g304
Ntp2004
Rp2005
(dp2006
g1660
g1668
sg1661
g1690
sg328
S'c:/marmalade/7.2/s3e/h/std/stdarg.h'
p2007
sbsS'IwGeomCore.h'
p2008
g302
(g1656
g304
Ntp2009
Rp2010
(dp2011
g1660
g1256
sg1661
g1732
sg328
g1269
sbsS'Iw2DSceneGraph.h'
p2012
g302
(g1656
g304
Ntp2013
Rp2014
(dp2015
g1660
g1198
sg1661
(lp2016
S"'Marmalade Studio'"
p2017
ag1194
asg328
g1202
sbsS'endian.h'
p2018
g302
(g1656
g304
Ntp2019
Rp2020
(dp2021
g1660
g1668
sg1661
g1690
sg328
S'c:/marmalade/7.2/s3e/h/std/endian.h'
p2022
sbsS'glob.h'
p2023
g302
(g1656
g304
Ntp2024
Rp2025
(dp2026
g1660
g1668
sg1661
g1690
sg328
S'c:/marmalade/7.2/s3e/h/std/glob.h'
p2027
sbsS'fstream'
p2028
g302
(g1656
g304
Ntp2029
Rp2030
(dp2031
g1660
g1668
sg1661
g1669
sg328
S'c:/marmalade/7.2/s3e/h/std/c++/fstream'
p2032
sbsS's3eCamera.h'
p2033
g302
(g1656
g304
Ntp2034
Rp2035
(dp2036
g1660
g1668
sg1661
g1684
sg328
S'c:/marmalade/7.2/s3e/h/s3eCamera.h'
p2037
sbsS'jconfig.h'
p2038
g302
(g1656
g304
Ntp2039
Rp2040
(dp2041
g1660
g1056
sg1661
g1762
sg328
g1057
sbsS'memory'
p2042
g302
(g1656
g304
Ntp2043
Rp2044
(dp2045
g1660
g1668
sg1661
g1669
sg328
S'c:/marmalade/7.2/s3e/h/std/c++/memory'
p2046
sbsS'strstream'
p2047
g302
(g1656
g304
Ntp2048
Rp2049
(dp2050
g1660
g1668
sg1661
g1669
sg328
S'c:/marmalade/7.2/s3e/h/std/c++/strstream'
p2051
sbsS'pthread.h'
p2052
g302
(g1656
g304
Ntp2053
Rp2054
(dp2055
g1660
g1668
sg1661
g1690
sg328
S'c:/marmalade/7.2/s3e/h/std/pthread.h'
p2056
sbsS'egl_1.h'
p2057
g302
(g1656
g304
Ntp2058
Rp2059
(dp2060
g1660
g1668
sg1661
(lp2061
g1670
aS'GL'
p2062
aS'GLES 1.x'
p2063
asg328
S'c:/marmalade/7.2/s3e/h/GLES/egl.h'
p2064
sbsS'IwMemManagerDL.h'
p2065
g302
(g1656
g304
Ntp2066
Rp2067
(dp2068
g1660
g1412
sg1661
g1702
sg328
g1467
sbsS'deque'
p2069
g302
(g1656
g304
Ntp2070
Rp2071
(dp2072
g1660
g1668
sg1661
g1669
sg328
S'c:/marmalade/7.2/s3e/h/std/c++/deque'
p2073
sbsS'IwString.h'
p2074
g302
(g1656
g304
Ntp2075
Rp2076
(dp2077
g1660
g1412
sg1661
g1702
sg328
g1453
sbsS'cwchar'
p2078
g302
(g1656
g304
Ntp2079
Rp2080
(dp2081
g1660
g1668
sg1661
g1669
sg328
S'c:/marmalade/7.2/s3e/h/std/c++/cwchar'
p2082
sbsS'core.h'
p2083
g302
(g1656
g304
Ntp2084
Rp2085
(dp2086
g1660
g1595
sg1661
(lp2087
g1586
asg328
g1600
sbsS'iwutil.mkf'
p2088
g302
(g1656
g304
Ntp2089
Rp2090
(dp2091
g1660
g1497
sg1661
g1702
sg328
g1495
sbsS'csignal'
p2092
g302
(g1656
g304
Ntp2093
Rp2094
(dp2095
g1660
g1668
sg1661
g1669
sg328
S'c:/marmalade/7.2/s3e/h/std/c++/csignal'
p2096
sbsS'float.h'
p2097
g302
(g1656
g304
Ntp2098
Rp2099
(dp2100
g1660
g1668
sg1661
g1690
sg328
S'c:/marmalade/7.2/s3e/h/std/float.h'
p2101
sbsS'pthread_alloc'
p2102
g302
(g1656
g304
Ntp2103
Rp2104
(dp2105
g1660
g1668
sg1661
g1669
sg328
S'c:/marmalade/7.2/s3e/h/std/c++/pthread_alloc'
p2106
sbsS'getopt.h'
p2107
g302
(g1656
g304
Ntp2108
Rp2109
(dp2110
g1660
g1668
sg1661
g1690
sg328
S'c:/marmalade/7.2/s3e/h/std/getopt.h'
p2111
sbsS'IwOptimiseARM.h'
p2112
g302
(g1656
g304
Ntp2113
Rp2114
(dp2115
g1660
g1412
sg1661
g1702
sg328
g1491
sbsS'times.h'
p2116
g302
(g1656
g304
Ntp2117
Rp2118
(dp2119
g1660
g1668
sg1661
g1827
sg328
S'c:/marmalade/7.2/s3e/h/std/sys/times.h'
p2120
sbsS'IwGeomFSphere.h'
p2121
g302
(g1656
g304
Ntp2122
Rp2123
(dp2124
g1660
g1256
sg1661
g1732
sg328
g1302
sbsS'game.h'
p2125
g302
(g1656
g304
Ntp2126
Rp2127
(dp2128
g1660
g1563
sg1661
(lp2129
g1557
ag1570
asg328
g1574
sbsS'functional'
p2130
g302
(g1656
g304
Ntp2131
Rp2132
(dp2133
g1660
g1668
sg1661
g1669
sg328
S'c:/marmalade/7.2/s3e/h/std/c++/functional'
p2134
sbsS'IwTypes.h'
p2135
g302
(g1656
g304
Ntp2136
Rp2137
(dp2138
g1660
g1412
sg1661
g1702
sg328
g1461
sbsS'IwGxMetrics.h'
p2139
g302
(g1656
g304
Ntp2140
Rp2141
(dp2142
g1660
g1348
sg1661
g1813
sg328
g1378
sbsS's3eCompression.h'
p2143
g302
(g1656
g304
Ntp2144
Rp2145
(dp2146
g1660
g1668
sg1661
g1684
sg328
S'c:/marmalade/7.2/s3e/h/s3eCompression.h'
p2147
sbsS'langinfo.h'
p2148
g302
(g1656
g304
Ntp2149
Rp2150
(dp2151
g1660
g1668
sg1661
g1690
sg328
S'c:/marmalade/7.2/s3e/h/std/langinfo.h'
p2152
sbsS's3edebugHeap.h'
p2153
g302
(g1656
g304
Ntp2154
Rp2155
(dp2156
g1660
g1668
sg1661
g1910
sg328
S'c:/marmalade/7.2/s3e/h/ext/s3edebugHeap.h'
p2157
sbsS'AirplayVersion.h'
p2158
g302
(g1656
g304
Ntp2159
Rp2160
(dp2161
g1660
g1668
sg1661
g1684
sg328
S'c:/marmalade/7.2/s3e/h/AirplayVersion.h'
p2162
sbsS'gl2extimg.h'
p2163
g302
(g1656
g304
Ntp2164
Rp2165
(dp2166
g1660
g1668
sg1661
g1956
sg328
S'c:/marmalade/7.2/s3e/h/GLES2/gl2extimg.h'
p2167
sbsS'app.config.txt'
p2168
g302
(g1656
g304
Ntp2169
Rp2170
(dp2171
g1660
(dp2172
sg1661
g4
sg328
S'c:/Users/Vinicius/Desktop/Yes or No/Stars_Small/data/app.config.txt'
p2173
sbsS'IwGeomSqrt.h'
p2174
g302
(g1656
g304
Ntp2175
Rp2176
(dp2177
g1660
g1256
sg1661
g1732
sg328
g1265
sbsS'tiniconv_int.h'
p2178
g302
(g1656
g304
Ntp2179
Rp2180
(dp2181
g1660
g1090
sg1661
(lp2182
g1086
asg328
g1091
sbsS'syslog.h'
p2183
g302
(g1656
g304
Ntp2184
Rp2185
(dp2186
g1660
g1668
sg1661
g1690
sg328
S'c:/marmalade/7.2/s3e/h/std/syslog.h'
p2187
sbsS'IwGxFontTypes.h'
p2188
g302
(g1656
g304
Ntp2189
Rp2190
(dp2191
g1660
g1234
sg1661
g1662
sg328
g1245
sbsS'IwGeomFIntersect.h'
p2192
g302
(g1656
g304
Ntp2193
Rp2194
(dp2195
g1660
g1256
sg1661
g1732
sg328
g1297
sbsS'hash_map'
p2196
g302
(g1656
g304
Ntp2197
Rp2198
(dp2199
g1660
g1668
sg1661
g1669
sg328
S'c:/marmalade/7.2/s3e/h/std/c++/hash_map'
p2200
sbsS's3e.mkf'
p2201
g302
(g1656
g304
Ntp2202
Rp2203
(dp2204
g1660
(dp2205
sg1661
g1684
sg328
S'c:/marmalade/7.2/s3e/s3e.mkf'
p2206
sbsS's3eOSReadString.h'
p2207
g302
(g1656
g304
Ntp2208
Rp2209
(dp2210
g1660
g1668
sg1661
g1910
sg328
S'c:/marmalade/7.2/s3e/h/ext/s3eOSReadString.h'
p2211
sbsS'player.cpp'
p2212
g302
(g1656
g304
Ntp2213
Rp2214
(dp2215
g1660
g1563
sg1661
(lp2216
S'source'
p2217
ag1559
asg328
g1566
sbsS'IwSound.h'
p2218
g302
(g1656
g304
Ntp2219
Rp2220
(dp2221
g1660
g1100
sg1661
g1718
sg328
g1109
sbsS'map'
p2222
g302
(g1656
g304
Ntp2223
Rp2224
(dp2225
g1660
g1668
sg1661
g1669
sg328
S'c:/marmalade/7.2/s3e/h/std/c++/map'
p2226
sbsS'iwtween.mkf'
p2227
g302
(g1656
g304
Ntp2228
Rp2229
(dp2230
g1660
g1647
sg1661
(lp2231
g1643
asg328
g1645
sbsS'IwOptimiseSpeed.h'
p2232
g302
(g1656
g304
Ntp2233
Rp2234
(dp2235
g1660
g1412
sg1661
g1702
sg328
g1502
sbsS'inputManager.h'
p2236
g302
(g1656
g304
Ntp2237
Rp2238
(dp2239
g1660
g1595
sg1661
g1946
sg328
g1624
sbsS'ostream'
p2240
g302
(g1656
g304
Ntp2241
Rp2242
(dp2243
g1660
g1668
sg1661
g1669
sg328
S'c:/marmalade/7.2/s3e/h/std/c++/ostream'
p2244
sbsS'msl_string.h'
p2245
g302
(g1656
g304
Ntp2246
Rp2247
(dp2248
g1660
g1668
sg1661
g1669
sg328
S'c:/marmalade/7.2/s3e/h/std/c++/msl_string.h'
p2249
sbsS'sigcontext.h'
p2250
g302
(g1656
g304
Ntp2251
Rp2252
(dp2253
g1660
g1668
sg1661
g1690
sg328
S'c:/marmalade/7.2/s3e/h/std/sigcontext.h'
p2254
sbsS'select.h'
p2255
g302
(g1656
g304
Ntp2256
Rp2257
(dp2258
g1660
g1668
sg1661
g1827
sg328
S'c:/marmalade/7.2/s3e/h/std/sys/select.h'
p2259
sbsS'zlib.mkf'
p2260
g302
(g1656
g304
Ntp2261
Rp2262
(dp2263
g1660
g1642
sg1661
(lp2264
g1632
asg328
g1640
sbsS'signal.h'
p2265
g302
(g1656
g304
Ntp2266
Rp2267
(dp2268
g1660
g1668
sg1661
g1690
sg328
S'c:/marmalade/7.2/s3e/h/std/signal.h'
p2269
sbsS's3eLibrary.h'
p2270
g302
(g1656
g304
Ntp2271
Rp2272
(dp2273
g1660
g1668
sg1661
g1910
sg328
S'c:/marmalade/7.2/s3e/h/ext/s3eLibrary.h'
p2274
sbsS'libpng.mkf'
p2275
g302
(g1656
g304
Ntp2276
Rp2277
(dp2278
g1660
g1050
sg1661
(lp2279
g1039
asg328
g1048
sbsS'gameObject.h'
p2280
g302
(g1656
g304
Ntp2281
Rp2282
(dp2283
g1660
g1563
sg1661
g2216
sg328
g1564
sbsS's3eClipboard.h'
p2284
g302
(g1656
g304
Ntp2285
Rp2286
(dp2287
g1660
g1668
sg1661
g1684
sg328
S'c:/marmalade/7.2/s3e/h/s3eClipboard.h'
p2288
sbsS'IwGxFuncTable.h'
p2289
g302
(g1656
g304
Ntp2290
Rp2291
(dp2292
g1660
g1348
sg1661
g1813
sg328
g1384
sbsS'IwResHandlerGROUP.h'
p2293
g302
(g1656
g304
Ntp2294
Rp2295
(dp2296
g1660
g1324
sg1661
g1964
sg328
g1322
sbsS's3eDebug.h'
p2297
g302
(g1656
g304
Ntp2298
Rp2299
(dp2300
g1660
g1668
sg1661
g1684
sg328
S'c:/marmalade/7.2/s3e/h/s3eDebug.h'
p2301
sbsS'socket.h'
p2302
g302
(g1656
g304
Ntp2303
Rp2304
(dp2305
g1660
g1668
sg1661
g1827
sg328
S'c:/marmalade/7.2/s3e/h/std/sys/socket.h'
p2306
sbsS'glext.h'
p2307
g302
(g1656
g304
Ntp2308
Rp2309
(dp2310
g1660
g1668
sg1661
g2061
sg328
S'c:/marmalade/7.2/s3e/h/GLES/glext.h'
p2311
sbsS'typeinfo.h'
p2312
g302
(g1656
g304
Ntp2313
Rp2314
(dp2315
g1660
g1668
sg1661
g1669
sg328
S'c:/marmalade/7.2/s3e/h/std/c++/typeinfo.h'
p2316
sbsS'typeinfo'
p2317
g302
(g1656
g304
Ntp2318
Rp2319
(dp2320
g1660
g1668
sg1661
g1669
sg328
S'c:/marmalade/7.2/s3e/h/std/c++/typeinfo'
p2321
sbsS'iwsound.config.txt'
p2322
g302
(g1656
g304
Ntp2323
Rp2324
(dp2325
g1660
g1100
sg1661
(lp2326
g1096
ag1113
asg328
g1115
sbsS'fstream.h'
p2327
g302
(g1656
g304
Ntp2328
Rp2329
(dp2330
g1660
g1668
sg1661
g1669
sg328
S'c:/marmalade/7.2/s3e/h/std/c++/fstream.h'
p2331
sbsS'mainMenu.cpp'
p2332
g302
(g1656
g304
Ntp2333
Rp2334
(dp2335
g1660
g1154
sg1661
g1979
sg328
g1177
sbsS's3ePointer.h'
p2336
g302
(g1656
g304
Ntp2337
Rp2338
(dp2339
g1660
g1668
sg1661
g1684
sg328
S'c:/marmalade/7.2/s3e/h/s3ePointer.h'
p2340
sbsS'iw2d.mkf'
p2341
g302
(g1656
g304
Ntp2342
Rp2343
(dp2344
g1660
g1229
sg1661
g1767
sg328
g1227
sbsS'header.h'
p2345
g302
(g1656
g304
Ntp2346
Rp2347
(dp2348
g1660
g1563
sg1661
g2129
sg328
g1578
sbsS's3eGL.h'
p2349
g302
(g1656
g304
Ntp2350
Rp2351
(dp2352
g1660
g1668
sg1661
g1684
sg328
S'c:/marmalade/7.2/s3e/h/s3eGL.h'
p2353
sbsS'IwGeomFVec2.h'
p2354
g302
(g1656
g304
Ntp2355
Rp2356
(dp2357
g1660
g1256
sg1661
g1732
sg328
g1273
sbsS'IwGeomSVec4.h'
p2358
g302
(g1656
g304
Ntp2359
Rp2360
(dp2361
g1660
g1256
sg1661
g1732
sg328
g1293
sbsS'poll.h'
p2362
g302
(g1656
g304
Ntp2363
Rp2364
(dp2365
g1660
g1668
sg1661
g1690
sg328
S'c:/marmalade/7.2/s3e/h/std/poll.h'
p2366
sbsS'IwMatAnim.h'
p2367
g302
(g1656
g304
Ntp2368
Rp2369
(dp2370
g1660
g1348
sg1661
g1813
sg328
g1355
sbsS'IwGeomFVec4.h'
p2371
g302
(g1656
g304
Ntp2372
Rp2373
(dp2374
g1660
g1256
sg1661
g1732
sg328
g1279
sbsS'IwGx.h'
p2375
g302
(g1656
g304
Ntp2376
Rp2377
(dp2378
g1660
g1348
sg1661
g1813
sg328
g1372
sbsS'valarray'
p2379
g302
(g1656
g304
Ntp2380
Rp2381
(dp2382
g1660
g1668
sg1661
g1669
sg328
S'c:/marmalade/7.2/s3e/h/std/c++/valarray'
p2383
sbsS'iosfwd'
p2384
g302
(g1656
g304
Ntp2385
Rp2386
(dp2387
g1660
g1668
sg1661
g1669
sg328
S'c:/marmalade/7.2/s3e/h/std/c++/iosfwd'
p2388
sbsS'gl2.h'
p2389
g302
(g1656
g304
Ntp2390
Rp2391
(dp2392
g1660
g1668
sg1661
g1956
sg328
S'c:/marmalade/7.2/s3e/h/GLES2/gl2.h'
p2393
sbsS'jpegint.h'
p2394
g302
(g1656
g304
Ntp2395
Rp2396
(dp2397
g1660
g1056
sg1661
g1762
sg328
g1061
sbsS'stdiostream.h'
p2398
g302
(g1656
g304
Ntp2399
Rp2400
(dp2401
g1660
g1668
sg1661
g1669
sg328
S'c:/marmalade/7.2/s3e/h/std/c++/stdiostream.h'
p2402
sbsS'mem.h'
p2403
g302
(g1656
g304
Ntp2404
Rp2405
(dp2406
g1660
g1668
sg1661
g1669
sg328
S'c:/marmalade/7.2/s3e/h/std/c++/mem.h'
p2407
sbsS'main.cpp'
p2408
g302
(g1656
g304
Ntp2409
Rp2410
(dp2411
g1660
g1563
sg1661
g2129
sg328
g1572
sbsS'zconf.h'
p2412
g302
(g1656
g304
Ntp2413
Rp2414
(dp2415
g1660
g1637
sg1661
(lp2416
g1632
ag1041
asg328
g1635
sbsS's3e.config.txt'
p2417
g302
(g1656
g304
Ntp2418
Rp2419
(dp2420
g1660
g1668
sg1661
g1684
sg328
S'c:/marmalade/7.2/s3e/s3e.config.txt'
p2421
sbsS'numeric'
p2422
g302
(g1656
g304
Ntp2423
Rp2424
(dp2425
g1660
g1668
sg1661
g1669
sg328
S'c:/marmalade/7.2/s3e/h/std/c++/numeric'
p2426
sbsS'utime.h'
p2427
g302
(g1656
g304
Ntp2428
Rp2429
(dp2430
g1660
g1668
sg1661
g1690
sg328
S'c:/marmalade/7.2/s3e/h/std/utime.h'
p2431
sbsS'jdhuff.h'
p2432
g302
(g1656
g304
Ntp2433
Rp2434
(dp2435
g1660
g1056
sg1661
g1762
sg328
g1071
sbsS'IwResHandlerWAV.cpp'
p2436
g302
(g1656
g304
Ntp2437
Rp2438
(dp2439
g1660
g1100
sg1661
g1718
sg328
g1140
sbsS'un.h'
p2440
g302
(g1656
g304
Ntp2441
Rp2442
(dp2443
g1660
g1668
sg1661
g1827
sg328
S'c:/marmalade/7.2/s3e/h/std/sys/un.h'
p2444
sbsS'resourceManager.h'
p2445
g302
(g1656
g304
Ntp2446
Rp2447
(dp2448
g1660
g1595
sg1661
g1946
sg328
g1610
sbsS'IwImage.h'
p2449
g302
(g1656
g304
Ntp2450
Rp2451
(dp2452
g1660
g1412
sg1661
g1702
sg328
g1449
sbsS's3eImagePicker.h'
p2453
g302
(g1656
g304
Ntp2454
Rp2455
(dp2456
g1660
g1668
sg1661
g1910
sg328
S'c:/marmalade/7.2/s3e/h/ext/s3eImagePicker.h'
p2457
sbsS's3eWebView.defines.txt'
p2458
g302
(g1656
g304
Ntp2459
Rp2460
(dp2461
g1660
g1520
sg1661
(lp2462
S'Extensions'
p2463
ag1514
ag1516
asg328
g1518
sbsS'stdlib.h'
p2464
g302
(g1656
g304
Ntp2465
Rp2466
(dp2467
g1660
g1668
sg1661
g1690
sg328
S'c:/marmalade/7.2/s3e/h/std/stdlib.h'
p2468
sbsS'IwCopyingPtr.h'
p2469
g302
(g1656
g304
Ntp2470
Rp2471
(dp2472
g1660
g1412
sg1661
g1702
sg328
g1489
sbsS'iostream'
p2473
g302
(g1656
g304
Ntp2474
Rp2475
(dp2476
g1660
g1668
sg1661
g1669
sg328
S'c:/marmalade/7.2/s3e/h/std/c++/iostream'
p2477
sbsS'png.h'
p2478
g302
(g1656
g304
Ntp2479
Rp2480
(dp2481
g1660
g1045
sg1661
(lp2482
g1039
ag1041
asg328
g1043
sbsS'stddef.h'
p2483
g302
(g1656
g304
Ntp2484
Rp2485
(dp2486
g1660
g1668
sg1661
g1690
sg328
S'c:/marmalade/7.2/s3e/h/std/stddef.h'
p2487
sbsS'setjmp_win32.h'
p2488
g302
(g1656
g304
Ntp2489
Rp2490
(dp2491
g1660
g1668
sg1661
g1690
sg328
S'c:/marmalade/7.2/s3e/h/std/setjmp_win32.h'
p2492
sbsS'IwGxPrint.h'
p2493
g302
(g1656
g304
Ntp2494
Rp2495
(dp2496
g1660
g1348
sg1661
g1813
sg328
g1364
sbsS'iwgx_public.defines.txt'
p2497
g302
(g1656
g304
Ntp2498
Rp2499
(dp2500
g1660
g1348
sg1661
g1813
sg328
g1368
sbsS'streambuf.h'
p2501
g302
(g1656
g304
Ntp2502
Rp2503
(dp2504
g1660
g1668
sg1661
g1669
sg328
S'c:/marmalade/7.2/s3e/h/std/c++/streambuf.h'
p2505
sbsS'IwGeomFPlane.h'
p2506
g302
(g1656
g304
Ntp2507
Rp2508
(dp2509
g1660
g1256
sg1661
g1732
sg328
g1254
sbsS'wchar.h'
p2510
g302
(g1656
g304
Ntp2511
Rp2512
(dp2513
g1660
g1668
sg1661
g1690
sg328
S'c:/marmalade/7.2/s3e/h/std/wchar.h'
p2514
sbsS's3eCameraCapture.h'
p2515
g302
(g1656
g304
Ntp2516
Rp2517
(dp2518
g1660
g1668
sg1661
g1910
sg328
S'c:/marmalade/7.2/s3e/h/ext/s3eCameraCapture.h'
p2519
sbsS'eglext.h'
p2520
g302
(g1656
g304
Ntp2521
Rp2522
(dp2523
g1660
g1668
sg1661
(lp2524
g1670
aS'GL'
p2525
aS'EGL'
p2526
asg328
S'c:/marmalade/7.2/s3e/h/EGL/eglext.h'
p2527
sbsS'IwResHandlerImage.h'
p2528
g302
(g1656
g304
Ntp2529
Rp2530
(dp2531
g1660
g1324
sg1661
g1964
sg328
g1332
sbsS'strstream.h'
p2532
g302
(g1656
g304
Ntp2533
Rp2534
(dp2535
g1660
g1668
sg1661
g1669
sg328
S'c:/marmalade/7.2/s3e/h/std/c++/strstream.h'
p2536
sbsS'tiniconv.h'
p2537
g302
(g1656
g304
Ntp2538
Rp2539
(dp2540
g1660
g1090
sg1661
g2182
sg328
g1088
sbsS'IwGLExt.h'
p2541
g302
(g1656
g304
Ntp2542
Rp2543
(dp2544
g1660
g1210
sg1661
g1678
sg328
g1214
sbsS'app.icf'
p2545
g302
(g1656
g304
Ntp2546
Rp2547
(dp2548
g1660
(dp2549
sg1661
g4
sg328
S'c:/Users/Vinicius/Desktop/Yes or No/Stars_Small/data/app.icf'
p2550
sbsS'IwClassFactory.h'
p2551
g302
(g1656
g304
Ntp2552
Rp2553
(dp2554
g1660
g1412
sg1661
g1702
sg328
g1475
sbsS'file.h'
p2555
g302
(g1656
g304
Ntp2556
Rp2557
(dp2558
g1660
g1668
sg1661
g1827
sg328
S'c:/marmalade/7.2/s3e/h/std/sys/file.h'
p2559
sbsS'cstring'
p2560
g302
(g1656
g304
Ntp2561
Rp2562
(dp2563
g1660
g1668
sg1661
g1669
sg328
S'c:/marmalade/7.2/s3e/h/std/c++/cstring'
p2564
sbsS'core.mkf'
p2565
g302
(g1656
g304
Ntp2566
Rp2567
(dp2568
g1660
g1590
sg1661
g2087
sg328
g1588
sbsS'IwSoundInst.cpp'
p2569
g302
(g1656
g304
Ntp2570
Rp2571
(dp2572
g1660
g1100
sg1661
g1718
sg328
g1111
sbsS'sceneManager.h'
p2573
g302
(g1656
g304
Ntp2574
Rp2575
(dp2576
g1660
g1154
sg1661
(lp2577
g1148
ag1150
asg328
g1152
sbsS'iwutil.config.txt'
p2578
g302
(g1656
g304
Ntp2579
Rp2580
(dp2581
g1660
g1412
sg1661
g1702
sg328
g1473
sbsS's3eSMS.h'
p2582
g302
(g1656
g304
Ntp2583
Rp2584
(dp2585
g1660
g1668
sg1661
g1910
sg328
S'c:/marmalade/7.2/s3e/h/ext/s3eSMS.h'
p2586
sbsS'limits.h'
p2587
g302
(g1656
g304
Ntp2588
Rp2589
(dp2590
g1660
g1668
sg1661
g1690
sg328
S'c:/marmalade/7.2/s3e/h/std/limits.h'
p2591
sbsS'iwgl.config.txt'
p2592
g302
(g1656
g304
Ntp2593
Rp2594
(dp2595
g1660
g1210
sg1661
g1678
sg328
g1216
sbsS'savedataManager.cpp'
p2596
g302
(g1656
g304
Ntp2597
Rp2598
(dp2599
g1660
g1595
sg1661
g1708
sg328
g1622
sbsS'IwMaterial.h'
p2600
g302
(g1656
g304
Ntp2601
Rp2602
(dp2603
g1660
g1348
sg1661
g1813
sg328
g1353
sbsS's3eFlurry.defines.txt'
p2604
g302
(g1656
g304
Ntp2605
Rp2606
(dp2607
g1660
g1549
sg1661
(lp2608
g1922
ag1543
ag1545
asg328
g1550
sbsS'IwGxSurface.h'
p2609
g302
(g1656
g304
Ntp2610
Rp2611
(dp2612
g1660
g1348
sg1661
g1813
sg328
g1366
sbsS's3eSocket.h'
p2613
g302
(g1656
g304
Ntp2614
Rp2615
(dp2616
g1660
g1668
sg1661
g1684
sg328
S'c:/marmalade/7.2/s3e/h/s3eSocket.h'
p2617
sbsS'IwAutoFile.h'
p2618
g302
(g1656
g304
Ntp2619
Rp2620
(dp2621
g1660
g1412
sg1661
g1702
sg328
g1479
sbsS'ipc.h'
p2622
g302
(g1656
g304
Ntp2623
Rp2624
(dp2625
g1660
g1668
sg1661
g1827
sg328
S'c:/marmalade/7.2/s3e/h/std/sys/ipc.h'
p2626
sbsS'poll_1.h'
p2627
g302
(g1656
g304
Ntp2628
Rp2629
(dp2630
g1660
g1668
sg1661
g1827
sg328
S'c:/marmalade/7.2/s3e/h/std/sys/poll.h'
p2631
sbsS's3eThread.h'
p2632
g302
(g1656
g304
Ntp2633
Rp2634
(dp2635
g1660
g1668
sg1661
g1684
sg328
S'c:/marmalade/7.2/s3e/h/s3eThread.h'
p2636
sbsS'ucontext.h'
p2637
g302
(g1656
g304
Ntp2638
Rp2639
(dp2640
g1660
g1668
sg1661
g1690
sg328
S'c:/marmalade/7.2/s3e/h/std/ucontext.h'
p2641
sbsS'time.h'
p2642
g302
(g1656
g304
Ntp2643
Rp2644
(dp2645
g1660
g1668
sg1661
g1690
sg328
S'c:/marmalade/7.2/s3e/h/std/time.h'
p2646
sbsS'jchuff.h'
p2647
g302
(g1656
g304
Ntp2648
Rp2649
(dp2650
g1660
g1056
sg1661
g1762
sg328
g1079
sbsS'IwSoundPCM.cpp'
p2651
g302
(g1656
g304
Ntp2652
Rp2653
(dp2654
g1660
g1100
sg1661
g1718
sg328
g1098
sbsS's3eSoundRecord.h'
p2655
g302
(g1656
g304
Ntp2656
Rp2657
(dp2658
g1660
g1668
sg1661
g1684
sg328
S'c:/marmalade/7.2/s3e/h/s3eSoundRecord.h'
p2659
sbsS'IwFibre.h'
p2660
g302
(g1656
g304
Ntp2661
Rp2662
(dp2663
g1660
g1412
sg1661
g1702
sg328
g1417
sbsS'strings.h'
p2664
g302
(g1656
g304
Ntp2665
Rp2666
(dp2667
g1660
g1668
sg1661
g1690
sg328
S'c:/marmalade/7.2/s3e/h/std/strings.h'
p2668
sbsS's3eVersion.h'
p2669
g302
(g1656
g304
Ntp2670
Rp2671
(dp2672
g1660
g1668
sg1661
g1684
sg328
S'c:/marmalade/7.2/s3e/h/s3eVersion.h'
p2673
sbsS'IwSoundGroup.h'
p2674
g302
(g1656
g304
Ntp2675
Rp2676
(dp2677
g1660
g1100
sg1661
g1718
sg328
g1117
sbsS'triggersManager.cpp'
p2678
g302
(g1656
g304
Ntp2679
Rp2680
(dp2681
g1660
g1563
sg1661
(lp2682
S'source'
p2683
ag1580
asg328
g1582
sbsS'IwSoundWAV.h'
p2684
g302
(g1656
g304
Ntp2685
Rp2686
(dp2687
g1660
g1100
sg1661
g1718
sg328
g1105
sbsS'IwGxFontGlyph.h'
p2688
g302
(g1656
g304
Ntp2689
Rp2690
(dp2691
g1660
g1234
sg1661
g1662
sg328
g1241
sbsS's3eTypes.h'
p2692
g302
(g1656
g304
Ntp2693
Rp2694
(dp2695
g1660
g1668
sg1661
g1684
sg328
S'c:/marmalade/7.2/s3e/h/s3eTypes.h'
p2696
sbsS'IwSoundSpec.h'
p2697
g302
(g1656
g304
Ntp2698
Rp2699
(dp2700
g1660
g1100
sg1661
g1718
sg328
g1119
sbsS'signal_2.h'
p2701
g302
(g1656
g304
Ntp2702
Rp2703
(dp2704
g1660
g1668
sg1661
g1669
sg328
S'c:/marmalade/7.2/s3e/h/std/c++/signal.h'
p2705
sbsS'termios.h'
p2706
g302
(g1656
g304
Ntp2707
Rp2708
(dp2709
g1660
g1668
sg1661
g1690
sg328
S'c:/marmalade/7.2/s3e/h/std/termios.h'
p2710
sbsS'iw2dscenegraph.mkf'
p2711
g302
(g1656
g304
Ntp2712
Rp2713
(dp2714
g1660
g1201
sg1661
g2016
sg328
g1199
sbsS'slist'
p2715
g302
(g1656
g304
Ntp2716
Rp2717
(dp2718
g1660
g1668
sg1661
g1669
sg328
S'c:/marmalade/7.2/s3e/h/std/c++/slist'
p2719
sbsS'cstdlib'
p2720
g302
(g1656
g304
Ntp2721
Rp2722
(dp2723
g1660
g1668
sg1661
g1669
sg328
S'c:/marmalade/7.2/s3e/h/std/c++/cstdlib'
p2724
sbsS's3eLocation.h'
p2725
g302
(g1656
g304
Ntp2726
Rp2727
(dp2728
g1660
g1668
sg1661
g1684
sg328
S'c:/marmalade/7.2/s3e/h/s3eLocation.h'
p2729
sbsS'IwMemBucketHelpers.h'
p2730
g302
(g1656
g304
Ntp2731
Rp2732
(dp2733
g1660
g1412
sg1661
g1702
sg328
g1487
sbsS's3eHash.h'
p2734
g302
(g1656
g304
Ntp2735
Rp2736
(dp2737
g1660
g1668
sg1661
g1684
sg328
S'c:/marmalade/7.2/s3e/h/s3eHash.h'
p2738
sbsS'IwSoundGroup.cpp'
p2739
g302
(g1656
g304
Ntp2740
Rp2741
(dp2742
g1660
g1100
sg1661
g1718
sg328
g1107
sbsS'IwGeomFMat.h'
p2743
g302
(g1656
g304
Ntp2744
Rp2745
(dp2746
g1660
g1256
sg1661
g1732
sg328
g1287
sbsS'type_traits.h'
p2747
g302
(g1656
g304
Ntp2748
Rp2749
(dp2750
g1660
g1668
sg1661
g1669
sg328
S'c:/marmalade/7.2/s3e/h/std/c++/type_traits.h'
p2751
sbsS'IwMenu.h'
p2752
g302
(g1656
g304
Ntp2753
Rp2754
(dp2755
g1660
g1412
sg1661
g1702
sg328
g1437
sbsS'IwResHandlerITX.h'
p2756
g302
(g1656
g304
Ntp2757
Rp2758
(dp2759
g1660
g1324
sg1661
g1964
sg328
g1338
sbsS'IwSoundData.h'
p2760
g302
(g1656
g304
Ntp2761
Rp2762
(dp2763
g1660
g1100
sg1661
g1718
sg328
g1129
sbsS'IwArray.h'
p2764
g302
(g1656
g304
Ntp2765
Rp2766
(dp2767
g1660
g1412
sg1661
g1702
sg328
g1413
sbsS'IwUTF8.h'
p2768
g302
(g1656
g304
Ntp2769
Rp2770
(dp2771
g1660
g1412
sg1661
g1702
sg328
g1481
sbsS'math_rvct.h'
p2772
g302
(g1656
g304
Ntp2773
Rp2774
(dp2775
g1660
g1668
sg1661
g1690
sg328
S'c:/marmalade/7.2/s3e/h/std/math_rvct.h'
p2776
sbsS'IwUtil.h'
p2777
g302
(g1656
g304
Ntp2778
Rp2779
(dp2780
g1660
g1412
sg1661
g1702
sg328
g1471
sbsS'IwFColour.h'
p2781
g302
(g1656
g304
Ntp2782
Rp2783
(dp2784
g1660
g1348
sg1661
g1813
sg328
g1388
sbsS'wctype.h'
p2785
g302
(g1656
g304
Ntp2786
Rp2787
(dp2788
g1660
g1668
sg1661
g1690
sg328
S'c:/marmalade/7.2/s3e/h/std/wctype.h'
p2789
sbsS'mainMenu.h'
p2790
g302
(g1656
g304
Ntp2791
Rp2792
(dp2793
g1660
g1154
sg1661
g1795
sg328
g1171
sbsS'cstddef'
p2794
g302
(g1656
g304
Ntp2795
Rp2796
(dp2797
g1660
g1668
sg1661
g1669
sg328
S'c:/marmalade/7.2/s3e/h/std/c++/cstddef'
p2798
sbsS'assert.h'
p2799
g302
(g1656
g304
Ntp2800
Rp2801
(dp2802
g1660
g1668
sg1661
g1690
sg328
S'c:/marmalade/7.2/s3e/h/std/assert.h'
p2803
sbsS'mman.h'
p2804
g302
(g1656
g304
Ntp2805
Rp2806
(dp2807
g1660
g1668
sg1661
g1827
sg328
S'c:/marmalade/7.2/s3e/h/std/sys/mman.h'
p2808
sbsS'IwRandom.h'
p2809
g302
(g1656
g304
Ntp2810
Rp2811
(dp2812
g1660
g1412
sg1661
g1702
sg328
g1421
sbsS'libgen.h'
p2813
g302
(g1656
g304
Ntp2814
Rp2815
(dp2816
g1660
g1668
sg1661
g1690
sg328
S'c:/marmalade/7.2/s3e/h/std/libgen.h'
p2817
sbsS'utsname.h'
p2818
g302
(g1656
g304
Ntp2819
Rp2820
(dp2821
g1660
g1668
sg1661
g1827
sg328
S'c:/marmalade/7.2/s3e/h/std/sys/utsname.h'
p2822
sbsS'iap.h'
p2823
g302
(g1656
g304
Ntp2824
Rp2825
(dp2826
g1660
g1154
sg1661
g1795
sg328
g1183
sbsS'wait.h'
p2827
g302
(g1656
g304
Ntp2828
Rp2829
(dp2830
g1660
g1668
sg1661
g1827
sg328
S'c:/marmalade/7.2/s3e/h/std/sys/wait.h'
p2831
sbsS'param.h'
p2832
g302
(g1656
g304
Ntp2833
Rp2834
(dp2835
g1660
g1668
sg1661
g1827
sg328
S'c:/marmalade/7.2/s3e/h/std/sys/param.h'
p2836
sbsS'IwDivide.h'
p2837
g302
(g1656
g304
Ntp2838
Rp2839
(dp2840
g1660
g1412
sg1661
g1702
sg328
g1508
sbsS'Iw2DSceneGraphCore.cpp'
p2841
g302
(g1656
g304
Ntp2842
Rp2843
(dp2844
g1660
g1405
sg1661
(lp2845
S"'Marmalade Studio'"
p2846
ag1398
asg328
g1406
sbsS'IwResManager.h'
p2847
g302
(g1656
g304
Ntp2848
Rp2849
(dp2850
g1660
g1324
sg1661
g1964
sg328
g1342
sbsS'IwSoundManager.h'
p2851
g302
(g1656
g304
Ntp2852
Rp2853
(dp2854
g1660
g1100
sg1661
g1718
sg328
g1144
sbsS'cwctype'
p2855
g302
(g1656
g304
Ntp2856
Rp2857
(dp2858
g1660
g1668
sg1661
g1669
sg328
S'c:/marmalade/7.2/s3e/h/std/c++/cwctype'
p2859
sbsS'set'
p2860
g302
(g1656
g304
Ntp2861
Rp2862
(dp2863
g1660
g1668
sg1661
g1669
sg328
S'c:/marmalade/7.2/s3e/h/std/c++/set'
p2864
sbsS'IwGeomSQuat.h'
p2865
g302
(g1656
g304
Ntp2866
Rp2867
(dp2868
g1660
g1256
sg1661
g1732
sg328
g1308
sbsS'locale'
p2869
g302
(g1656
g304
Ntp2870
Rp2871
(dp2872
g1660
g1668
sg1661
g1669
sg328
S'c:/marmalade/7.2/s3e/h/std/c++/locale'
p2873
sbsS'cstdio'
p2874
g302
(g1656
g304
Ntp2875
Rp2876
(dp2877
g1660
g1668
sg1661
g1669
sg328
S'c:/marmalade/7.2/s3e/h/std/c++/cstdio'
p2878
sbsS'cdjpeg.h'
p2879
g302
(g1656
g304
Ntp2880
Rp2881
(dp2882
g1660
g1056
sg1661
g1762
sg328
g1059
sbsS'IwList.h'
p2883
g302
(g1656
g304
Ntp2884
Rp2885
(dp2886
g1660
g1412
sg1661
g1702
sg328
g1425
sbsS's3eWebView_interface.cpp'
p2887
g302
(g1656
g304
Ntp2888
Rp2889
(dp2890
g1660
g1520
sg1661
g2462
sg328
g1521
sbsS'inttypes.h'
p2891
g302
(g1656
g304
Ntp2892
Rp2893
(dp2894
g1660
g1668
sg1661
g1690
sg328
S'c:/marmalade/7.2/s3e/h/std/inttypes.h'
p2895
sbsS'dirent.h'
p2896
g302
(g1656
g304
Ntp2897
Rp2898
(dp2899
g1660
g1668
sg1661
g1690
sg328
S'c:/marmalade/7.2/s3e/h/std/dirent.h'
p2900
sbsS'IwGeomVec3.h'
p2901
g302
(g1656
g304
Ntp2902
Rp2903
(dp2904
g1660
g1256
sg1661
g1732
sg328
g1291
sbsS'transupp.h'
p2905
g302
(g1656
g304
Ntp2906
Rp2907
(dp2908
g1660
g1056
sg1661
g1762
sg328
g1063
sbsS'IwMath.h'
p2909
g302
(g1656
g304
Ntp2910
Rp2911
(dp2912
g1660
g1412
sg1661
g1702
sg328
g1431
sbsS'IwGeomQuat.h'
p2913
g302
(g1656
g304
Ntp2914
Rp2915
(dp2916
g1660
g1256
sg1661
g1732
sg328
g1310
sbsS'glplatform.h'
p2917
g302
(g1656
g304
Ntp2918
Rp2919
(dp2920
g1660
g1668
sg1661
g2061
sg328
S'c:/marmalade/7.2/s3e/h/GLES/glplatform.h'
p2921
sbsS'bitset'
p2922
g302
(g1656
g304
Ntp2923
Rp2924
(dp2925
g1660
g1668
sg1661
g1669
sg328
S'c:/marmalade/7.2/s3e/h/std/c++/bitset'
p2926
sbsS'alloca.h'
p2927
g302
(g1656
g304
Ntp2928
Rp2929
(dp2930
g1660
g1668
sg1661
g1690
sg328
S'c:/marmalade/7.2/s3e/h/std/alloca.h'
p2931
sbsS'IwResHandler.h'
p2932
g302
(g1656
g304
Ntp2933
Rp2934
(dp2935
g1660
g1324
sg1661
g1964
sg328
g1325
sbsS'IwResHandlerMTL.h'
p2936
g302
(g1656
g304
Ntp2937
Rp2938
(dp2939
g1660
g1348
sg1661
g1813
sg328
g1362
sbsS'IwRuntime.h'
p2940
g302
(g1656
g304
Ntp2941
Rp2942
(dp2943
g1660
g1412
sg1661
g1702
sg328
g1465
sbsS's3eFlurry.h'
p2944
g302
(g1656
g304
Ntp2945
Rp2946
(dp2947
g1660
g1549
sg1661
g1921
sg328
g1552
sbsS'limits'
p2948
g302
(g1656
g304
Ntp2949
Rp2950
(dp2951
g1660
g1668
sg1661
g1669
sg328
S'c:/marmalade/7.2/s3e/h/std/c++/limits'
p2952
sbsS'IwGeomBBox.h'
p2953
g302
(g1656
g304
Ntp2954
Rp2955
(dp2956
g1660
g1256
sg1661
g1732
sg328
g1283
sbsS'audioManager.h'
p2957
g302
(g1656
g304
Ntp2958
Rp2959
(dp2960
g1660
g1595
sg1661
g1946
sg328
g1606
sbsS's3eContacts.h'
p2961
g302
(g1656
g304
Ntp2962
Rp2963
(dp2964
g1660
g1668
sg1661
g1684
sg328
S'c:/marmalade/7.2/s3e/h/s3eContacts.h'
p2965
sbsS's3eLicense.h'
p2966
g302
(g1656
g304
Ntp2967
Rp2968
(dp2969
g1660
g1668
sg1661
g1684
sg328
S'c:/marmalade/7.2/s3e/h/s3eLicense.h'
p2970
sbsS'iwgx.config.txt'
p2971
g302
(g1656
g304
Ntp2972
Rp2973
(dp2974
g1660
g1348
sg1661
g1813
sg328
g1357
sbsS'IwTextParser.h'
p2975
g302
(g1656
g304
Ntp2976
Rp2977
(dp2978
g1660
g1412
sg1661
g1702
sg328
g1443
sbsS's3eTimer.h'
p2979
g302
(g1656
g304
Ntp2980
Rp2981
(dp2982
g1660
g1668
sg1661
g1684
sg328
S'c:/marmalade/7.2/s3e/h/s3eTimer.h'
p2983
sbsS'IwGeomVec.h'
p2984
g302
(g1656
g304
Ntp2985
Rp2986
(dp2987
g1660
g1256
sg1661
g1732
sg328
g1304
sbsS'IwSerialise.h'
p2988
g302
(g1656
g304
Ntp2989
Rp2990
(dp2991
g1660
g1412
sg1661
g1702
sg328
g1483
sbsS'cstdarg'
p2992
g302
(g1656
g304
Ntp2993
Rp2994
(dp2995
g1660
g1668
sg1661
g1669
sg328
S'c:/marmalade/7.2/s3e/h/std/c++/cstdarg'
p2996
sbsS'gl2ext.h'
p2997
g302
(g1656
g304
Ntp2998
Rp2999
(dp3000
g1660
g1668
sg1661
g1956
sg328
S'c:/marmalade/7.2/s3e/h/GLES2/gl2ext.h'
p3001
sbsS'IwChar.h'
p3002
g302
(g1656
g304
Ntp3003
Rp3004
(dp3005
g1660
g1412
sg1661
g1702
sg328
g1439
sbsS's3eSound.h'
p3006
g302
(g1656
g304
Ntp3007
Rp3008
(dp3009
g1660
g1668
sg1661
g1684
sg328
S'c:/marmalade/7.2/s3e/h/s3eSound.h'
p3010
sbsS'gameObject.cpp'
p3011
g302
(g1656
g304
Ntp3012
Rp3013
(dp3014
g1660
g1563
sg1661
g2216
sg328
g1561
sbsS'IwOptimiseThumb.h'
p3015
g302
(g1656
g304
Ntp3016
Rp3017
(dp3018
g1660
g1412
sg1661
g1702
sg328
g1469
sbsS'exception.h'
p3019
g302
(g1656
g304
Ntp3020
Rp3021
(dp3022
g1660
g1668
sg1661
g1669
sg328
S'c:/marmalade/7.2/s3e/h/std/c++/exception.h'
p3023
sbsS'iap.cpp'
p3024
g302
(g1656
g304
Ntp3025
Rp3026
(dp3027
g1660
g1154
sg1661
g1979
sg328
g1167
sbsS'iwgeom.config.txt'
p3028
g302
(g1656
g304
Ntp3029
Rp3030
(dp3031
g1660
g1256
sg1661
g1732
sg328
g1295
sbsS'iwgx.mkf'
p3032
g302
(g1656
g304
Ntp3033
Rp3034
(dp3035
g1660
g1361
sg1661
g1813
sg328
g1359
sbsS'gl.h'
p3036
g302
(g1656
g304
Ntp3037
Rp3038
(dp3039
g1660
g1668
sg1661
g2061
sg328
S'c:/marmalade/7.2/s3e/h/GLES/gl.h'
p3040
sbsS'savedataManager.h'
p3041
g302
(g1656
g304
Ntp3042
Rp3043
(dp3044
g1660
g1595
sg1661
g1946
sg328
g1614
sbsS's3eFacebook.defines.txt'
p3045
g302
(g1656
g304
Ntp3046
Rp3047
(dp3048
g1660
g1534
sg1661
(lp3049
g1512
ag1528
ag1530
asg328
g1535
sbsS'iwgl.mkf'
p3050
g302
(g1656
g304
Ntp3051
Rp3052
(dp3053
g1660
g1213
sg1661
g1678
sg328
g1211
sbsS'audioManager.cpp'
p3054
g302
(g1656
g304
Ntp3055
Rp3056
(dp3057
g1660
g1595
sg1661
g1708
sg328
g1612
sbsS'IwColour.h'
p3058
g302
(g1656
g304
Ntp3059
Rp3060
(dp3061
g1660
g1348
sg1661
g1813
sg328
g1390
sbsS'types.h'
p3062
g302
(g1656
g304
Ntp3063
Rp3064
(dp3065
g1660
g1668
sg1661
g1827
sg328
S'c:/marmalade/7.2/s3e/h/std/sys/types.h'
p3066
sbsS'ifaddrs.h'
p3067
g302
(g1656
g304
Ntp3068
Rp3069
(dp3070
g1660
g1668
sg1661
g1690
sg328
S'c:/marmalade/7.2/s3e/h/std/ifaddrs.h'
p3071
sbsS'triggersManager.h'
p3072
g302
(g1656
g304
Ntp3073
Rp3074
(dp3075
g1660
g1563
sg1661
g2682
sg328
g1584
sbsS'inputManager.cpp'
p3076
g302
(g1656
g304
Ntp3077
Rp3078
(dp3079
g1660
g1595
sg1661
g1708
sg328
g1630
sbsS'IwTween.cpp'
p3080
g302
(g1656
g304
Ntp3081
Rp3082
(dp3083
g1660
g1650
sg1661
g2231
sg328
g1648
sbsS'exception'
p3084
g302
(g1656
g304
Ntp3085
Rp3086
(dp3087
g1660
g1668
sg1661
g1669
sg328
S'c:/marmalade/7.2/s3e/h/std/c++/exception'
p3088
sbsS's3eFacebook_interface.cpp'
p3089
g302
(g1656
g304
Ntp3090
Rp3091
(dp3092
g1660
g1534
sg1661
g3049
sg328
g1532
sbsS'rlocks.h'
p3093
g302
(g1656
g304
Ntp3094
Rp3095
(dp3096
g1660
g1668
sg1661
g1669
sg328
S'c:/marmalade/7.2/s3e/h/std/c++/rlocks.h'
p3097
sbsS'ioctl.h'
p3098
g302
(g1656
g304
Ntp3099
Rp3100
(dp3101
g1660
g1668
sg1661
g1827
sg328
S'c:/marmalade/7.2/s3e/h/std/sys/ioctl.h'
p3102
sbsS'rope'
p3103
g302
(g1656
g304
Ntp3104
Rp3105
(dp3106
g1660
g1668
sg1661
g1669
sg328
S'c:/marmalade/7.2/s3e/h/std/c++/rope'
p3107
sbsS'jinclude.h'
p3108
g302
(g1656
g304
Ntp3109
Rp3110
(dp3111
g1660
g1056
sg1661
g1762
sg328
g1054
sbsS's3eFlurry_interface.cpp'
p3112
g302
(g1656
g304
Ntp3113
Rp3114
(dp3115
g1660
g1549
sg1661
g2608
sg328
g1547
sbsS's3eWebView.h'
p3116
g302
(g1656
g304
Ntp3117
Rp3118
(dp3119
g1660
g1520
sg1661
(lp3120
g2463
ag1514
asg328
g1523
sbsS'IwEvent.h'
p3121
g302
(g1656
g304
Ntp3122
Rp3123
(dp3124
g1660
g1412
sg1661
g1702
sg328
g1441
sbsS'IwOptimiseSize.h'
p3125
g302
(g1656
g304
Ntp3126
Rp3127
(dp3128
g1660
g1412
sg1661
g1702
sg328
g1445
sbsS'iwgxfont_public.defines.txt'
p3129
g302
(g1656
g304
Ntp3130
Rp3131
(dp3132
g1660
g1234
sg1661
g1662
sg328
g1239
sbsS'iconv.h'
p3133
g302
(g1656
g304
Ntp3134
Rp3135
(dp3136
g1660
g1668
sg1661
g1690
sg328
S'c:/marmalade/7.2/s3e/h/std/iconv.h'
p3137
sbsS's3eDevice.h'
p3138
g302
(g1656
g304
Ntp3139
Rp3140
(dp3141
g1660
g1668
sg1661
g1684
sg328
S'c:/marmalade/7.2/s3e/h/s3eDevice.h'
p3142
sbsS'IwGeomSphere.h'
p3143
g302
(g1656
g304
Ntp3144
Rp3145
(dp3146
g1660
g1256
sg1661
g1732
sg328
g1312
sbsS'tiniconv.mkf'
p3147
g302
(g1656
g304
Ntp3148
Rp3149
(dp3150
g1660
g1095
sg1661
g2182
sg328
g1093
sbsS'iw2dscenegraph.defines.txt'
p3151
g302
(g1656
g304
Ntp3152
Rp3153
(dp3154
g1660
g1198
sg1661
g2016
sg328
g1204
sbsS'jdct.h'
p3155
g302
(g1656
g304
Ntp3156
Rp3157
(dp3158
g1660
g1056
sg1661
g1762
sg328
g1069
sbsS'cctype'
p3159
g302
(g1656
g304
Ntp3160
Rp3161
(dp3162
g1660
g1668
sg1661
g1669
sg328
S'c:/marmalade/7.2/s3e/h/std/c++/cctype'
p3163
sbsS'IwSoundADPCM.cpp'
p3164
g302
(g1656
g304
Ntp3165
Rp3166
(dp3167
g1660
g1100
sg1661
g1718
sg328
g1133
sbsS's3eConfig.h'
p3168
g302
(g1656
g304
Ntp3169
Rp3170
(dp3171
g1660
g1668
sg1661
g1684
sg328
S'c:/marmalade/7.2/s3e/h/s3eConfig.h'
p3172
sbsS'IwHashString.h'
p3173
g302
(g1656
g304
Ntp3174
Rp3175
(dp3176
g1660
g1412
sg1661
g1702
sg328
g1510
sbsS'stat.h'
p3177
g302
(g1656
g304
Ntp3178
Rp3179
(dp3180
g1660
g1668
sg1661
g1827
sg328
S'c:/marmalade/7.2/s3e/h/std/sys/stat.h'
p3181
sbsS'byteswap.h'
p3182
g302
(g1656
g304
Ntp3183
Rp3184
(dp3185
g1660
g1668
sg1661
g1690
sg328
S'c:/marmalade/7.2/s3e/h/std/byteswap.h'
p3186
sbsS'iwresmanager.mkf'
p3187
g302
(g1656
g304
Ntp3188
Rp3189
(dp3190
g1660
g1329
sg1661
g1964
sg328
g1327
sbsS'IwUtilInitTerm.h'
p3191
g302
(g1656
g304
Ntp3192
Rp3193
(dp3194
g1660
g1412
sg1661
g1702
sg328
g1477
sbsS'pthread_1.h'
p3195
g302
(g1656
g304
Ntp3196
Rp3197
(dp3198
g1660
g1668
sg1661
g1669
sg328
S'c:/marmalade/7.2/s3e/h/std/c++/pthread.h'
p3199
sbsS'IwMemBucket.h'
p3200
g302
(g1656
g304
Ntp3201
Rp3202
(dp3203
g1660
g1412
sg1661
g1702
sg328
g1493
sbsS'complex'
p3204
g302
(g1656
g304
Ntp3205
Rp3206
(dp3207
g1660
g1668
sg1661
g1669
sg328
S'c:/marmalade/7.2/s3e/h/std/c++/complex'
p3208
sbsS'game.cpp'
p3209
g302
(g1656
g304
Ntp3210
Rp3211
(dp3212
g1660
g1563
sg1661
g2129
sg328
g1576
sbsS'algorithm'
p3213
g302
(g1656
g304
Ntp3214
Rp3215
(dp3216
g1660
g1668
sg1661
g1669
sg328
S'c:/marmalade/7.2/s3e/h/std/c++/algorithm'
p3217
sbsS's3e.icf'
p3218
g302
(g1656
g304
Ntp3219
Rp3220
(dp3221
g1660
g1668
sg1661
g1684
sg328
S'c:/marmalade/7.2/s3e/s3e.icf'
p3222
sbsS'IwVariableBitField.h'
p3223
g302
(g1656
g304
Ntp3224
Rp3225
(dp3226
g1660
g1412
sg1661
g1702
sg328
g1455
sbsS'sem.h'
p3227
g302
(g1656
g304
Ntp3228
Rp3229
(dp3230
g1660
g1668
sg1661
g1827
sg328
S'c:/marmalade/7.2/s3e/h/std/sys/sem.h'
p3231
sbsS'IwGxFontState.h'
p3232
g302
(g1656
g304
Ntp3233
Rp3234
(dp3235
g1660
g1234
sg1661
g1662
sg328
g1243
sbsS'stdio.h'
p3236
g302
(g1656
g304
Ntp3237
Rp3238
(dp3239
g1660
g1668
sg1661
g1690
sg328
S'c:/marmalade/7.2/s3e/h/std/stdio.h'
p3240
sbsS'items.cpp'
p3241
g302
(g1656
g304
Ntp3242
Rp3243
(dp3244
g1660
g1154
sg1661
g1979
sg328
g1161
sbsS'jmemsys.h'
p3245
g302
(g1656
g304
Ntp3246
Rp3247
(dp3248
g1660
g1056
sg1661
g1762
sg328
g1073
sbsS'ios'
p3249
g302
(g1656
g304
Ntp3250
Rp3251
(dp3252
g1660
g1668
sg1661
g1669
sg328
S'c:/marmalade/7.2/s3e/h/std/c++/ios'
p3253
sbsS'IwTween.h'
p3254
g302
(g1656
g304
Ntp3255
Rp3256
(dp3257
g1660
g1650
sg1661
g2231
sg328
g1651
sbsS'stack'
p3258
g302
(g1656
g304
Ntp3259
Rp3260
(dp3261
g1660
g1668
sg1661
g1669
sg328
S'c:/marmalade/7.2/s3e/h/std/c++/stack'
p3262
sbsS'template.h'
p3263
g302
(g1656
g304
Ntp3264
Rp3265
(dp3266
g1660
g1154
sg1661
(lp3267
g1148
asg328
g1187
sbsS'template.mkf'
p3268
g302
(g1656
g304
Ntp3269
Rp3270
(dp3271
g1660
g1191
sg1661
g3267
sg328
g1189
sbsS'utils.h'
p3272
g302
(g1656
g304
Ntp3273
Rp3274
(dp3275
g1660
g1595
sg1661
g1867
sg328
g1596
sbsS'IwSoundParams.h'
p3276
g302
(g1656
g304
Ntp3277
Rp3278
(dp3279
g1660
g1100
sg1661
g1718
sg328
g1135
sbsS'new.h'
p3280
g302
(g1656
g304
Ntp3281
Rp3282
(dp3283
g1660
g1668
sg1661
g1669
sg328
S'c:/marmalade/7.2/s3e/h/std/c++/new.h'
p3284
sbsS's3eEMail.h'
p3285
g302
(g1656
g304
Ntp3286
Rp3287
(dp3288
g1660
g1668
sg1661
g1910
sg328
S'c:/marmalade/7.2/s3e/h/ext/s3eEMail.h'
p3289
sbsS's3eVideo.h'
p3290
g302
(g1656
g304
Ntp3291
Rp3292
(dp3293
g1660
g1668
sg1661
g1684
sg328
S'c:/marmalade/7.2/s3e/h/s3eVideo.h'
p3294
sbsS'pngconf.h'
p3295
g302
(g1656
g304
Ntp3296
Rp3297
(dp3298
g1660
g1045
sg1661
g2482
sg328
g1046
sbsS'pwd.h'
p3299
g302
(g1656
g304
Ntp3300
Rp3301
(dp3302
g1660
g1668
sg1661
g1690
sg328
S'c:/marmalade/7.2/s3e/h/std/pwd.h'
p3303
sbsS'IwClip.h'
p3304
g302
(g1656
g304
Ntp3305
Rp3306
(dp3307
g1660
g1348
sg1661
g1813
sg328
g1370
sbsS'IwSoundInst.h'
p3308
g302
(g1656
g304
Ntp3309
Rp3310
(dp3311
g1660
g1100
sg1661
g1718
sg328
g1103
sbsS'iwresmanager.config.txt'
p3312
g302
(g1656
g304
Ntp3313
Rp3314
(dp3315
g1660
g1324
sg1661
g1964
sg328
g1334
sbsS'IwGxShaderTechnique.h'
p3316
g302
(g1656
g304
Ntp3317
Rp3318
(dp3319
g1660
g1348
sg1661
g1813
sg328
g1392
sbsS'IwCore.h'
p3320
g302
(g1656
g304
Ntp3321
Rp3322
(dp3323
g1660
g1412
sg1661
g1702
sg328
g1410
sbsS'cfloat'
p3324
g302
(g1656
g304
Ntp3325
Rp3326
(dp3327
g1660
g1668
sg1661
g1669
sg328
S'c:/marmalade/7.2/s3e/h/std/c++/cfloat'
p3328
sbsS'IwGeomMat2D.h'
p3329
g302
(g1656
g304
Ntp3330
Rp3331
(dp3332
g1660
g1256
sg1661
g1732
sg328
g1261
sbsS'IwAllocator.h'
p3333
g302
(g1656
g304
Ntp3334
Rp3335
(dp3336
g1660
g1412
sg1661
g1702
sg328
g1459
sbsS'timerManager.cpp'
p3337
g302
(g1656
g304
Ntp3338
Rp3339
(dp3340
g1660
g1595
sg1661
g1708
sg328
g1618
sbsS'customize.h'
p3341
g302
(g1656
g304
Ntp3342
Rp3343
(dp3344
g1660
g1154
sg1661
g1795
sg328
g1169
sbsS'IwPath.h'
p3345
g302
(g1656
g304
Ntp3346
Rp3347
(dp3348
g1660
g1412
sg1661
g1702
sg328
g1485
sbsS'iwgxfont.mkf'
p3349
g302
(g1656
g304
Ntp3350
Rp3351
(dp3352
g1660
g1249
sg1661
g1662
sg328
g1247
sbsS'IwTexture.h'
p3353
g302
(g1656
g304
Ntp3354
Rp3355
(dp3356
g1660
g1348
sg1661
g1813
sg328
g1386
sbsS's3eAccelerometer.h'
p3357
g302
(g1656
g304
Ntp3358
Rp3359
(dp3360
g1660
g1668
sg1661
g1684
sg328
S'c:/marmalade/7.2/s3e/h/s3eAccelerometer.h'
p3361
sbsS'setjmp.h'
p3362
g302
(g1656
g304
Ntp3363
Rp3364
(dp3365
g1660
g1668
sg1661
g1690
sg328
S'c:/marmalade/7.2/s3e/h/std/setjmp.h'
p3366
sbsS's3eFacebook.h'
p3367
g302
(g1656
g304
Ntp3368
Rp3369
(dp3370
g1660
g1534
sg1661
(lp3371
g1512
ag1528
ag1041
asg328
g1538
sbsS'IwSoundParams.cpp'
p3372
g302
(g1656
g304
Ntp3373
Rp3374
(dp3375
g1660
g1100
sg1661
g1718
sg328
g1131
sbsS'IwFile.h'
p3376
g302
(g1656
g304
Ntp3377
Rp3378
(dp3379
g1660
g1412
sg1661
g1702
sg328
g1451
sbsS'IwTextParseable.h'
p3380
g302
(g1656
g304
Ntp3381
Rp3382
(dp3383
g1660
g1412
sg1661
g1702
sg328
g1504
sbsS'istream.h'
p3384
g302
(g1656
g304
Ntp3385
Rp3386
(dp3387
g1660
g1668
sg1661
g1669
sg328
S'c:/marmalade/7.2/s3e/h/std/c++/istream.h'
p3388
sbsS'stdint.h'
p3389
g302
(g1656
g304
Ntp3390
Rp3391
(dp3392
g1660
g1668
sg1661
g1690
sg328
S'c:/marmalade/7.2/s3e/h/std/stdint.h'
p3393
sbsS'semaphore.h'
p3394
g302
(g1656
g304
Ntp3395
Rp3396
(dp3397
g1660
g1668
sg1661
g1690
sg328
S'c:/marmalade/7.2/s3e/h/std/semaphore.h'
p3398
sbsS'ctime'
p3399
g302
(g1656
g304
Ntp3400
Rp3401
(dp3402
g1660
g1668
sg1661
g1669
sg328
S'c:/marmalade/7.2/s3e/h/std/c++/ctime'
p3403
sbsS'sstream'
p3404
g302
(g1656
g304
Ntp3405
Rp3406
(dp3407
g1660
g1668
sg1661
g1669
sg328
S'c:/marmalade/7.2/s3e/h/std/c++/sstream'
p3408
sbsS'IwGeomFBBox.h'
p3409
g302
(g1656
g304
Ntp3410
Rp3411
(dp3412
g1660
g1256
sg1661
g1732
sg328
g1318
sbsS'IwDebugPrim.h'
p3413
g302
(g1656
g304
Ntp3414
Rp3415
(dp3416
g1660
g1348
sg1661
g1813
sg328
g1376
sbsS'parallaxManager.cpp'
p3417
g302
(g1656
g304
Ntp3418
Rp3419
(dp3420
g1660
g1595
sg1661
g1708
sg328
g1626
sbsS'gameplay.cpp'
p3421
g302
(g1656
g304
Ntp3422
Rp3423
(dp3424
g1660
g1154
sg1661
g1979
sg328
g1163
sbsS'parallaxManager.h'
p3425
g302
(g1656
g304
Ntp3426
Rp3427
(dp3428
g1660
g1595
sg1661
g1946
sg328
g1628
sbsS'IwGxFontContainer.h'
p3429
g302
(g1656
g304
Ntp3430
Rp3431
(dp3432
g1660
g1234
sg1661
g1662
sg328
g1237
sbsS'player.h'
p3433
g302
(g1656
g304
Ntp3434
Rp3435
(dp3436
g1660
g1563
sg1661
g2216
sg328
g1568
sbsS'iw2dscenegraphcore.mkf'
p3437
g302
(g1656
g304
Ntp3438
Rp3439
(dp3440
g1660
g1402
sg1661
g2845
sg328
g1400
sbsS'resourceManager.cpp'
p3441
g302
(g1656
g304
Ntp3442
Rp3443
(dp3444
g1660
g1595
sg1661
g1708
sg328
g1608
sbsS's3eExt.h'
p3445
g302
(g1656
g304
Ntp3446
Rp3447
(dp3448
g1660
g1668
sg1661
g1684
sg328
S'c:/marmalade/7.2/s3e/h/s3eExt.h'
p3449
sbsS'IwGeomFVec3.h'
p3450
g302
(g1656
g304
Ntp3451
Rp3452
(dp3453
g1660
g1256
sg1661
g1732
sg328
g1271
sbsS'streambuf'
p3454
g302
(g1656
g304
Ntp3455
Rp3456
(dp3457
g1660
g1668
sg1661
g1669
sg328
S'c:/marmalade/7.2/s3e/h/std/c++/streambuf'
p3458
sbsS's3eMetrics.h'
p3459
g302
(g1656
g304
Ntp3460
Rp3461
(dp3462
g1660
g1668
sg1661
g1910
sg328
S'c:/marmalade/7.2/s3e/h/ext/s3eMetrics.h'
p3463
sbsS'IwGxFont.h'
p3464
g302
(g1656
g304
Ntp3465
Rp3466
(dp3467
g1660
g1234
sg1661
g1662
sg328
g1232
sbsS's3eSecureStorage.h'
p3468
g302
(g1656
g304
Ntp3469
Rp3470
(dp3471
g1660
g1668
sg1661
g1684
sg328
S'c:/marmalade/7.2/s3e/h/s3eSecureStorage.h'
p3472
sbsS'string.h'
p3473
g302
(g1656
g304
Ntp3474
Rp3475
(dp3476
g1660
g1668
sg1661
g1690
sg328
S'c:/marmalade/7.2/s3e/h/std/string.h'
p3477
sbsS'IwResource.h'
p3478
g302
(g1656
g304
Ntp3479
Rp3480
(dp3481
g1660
g1412
sg1661
g1702
sg328
g1415
sbsS'IwGeomSVec2.h'
p3482
g302
(g1656
g304
Ntp3483
Rp3484
(dp3485
g1660
g1256
sg1661
g1732
sg328
g1277
sbsS'libjpeg.mkf'
p3486
g302
(g1656
g304
Ntp3487
Rp3488
(dp3489
g1660
g1085
sg1661
(lp3490
g1051
asg328
g1083
sbsS'IwGxDebug.h'
p3491
g302
(g1656
g304
Ntp3492
Rp3493
(dp3494
g1660
g1348
sg1661
g1813
sg328
g1374
sbsS'pthread_types.h'
p3495
g302
(g1656
g304
Ntp3496
Rp3497
(dp3498
g1660
g1668
sg1661
g1690
sg328
S'c:/marmalade/7.2/s3e/h/std/pthread_types.h'
p3499
sbsS'iomanip.h'
p3500
g302
(g1656
g304
Ntp3501
Rp3502
(dp3503
g1660
g1668
sg1661
g1669
sg328
S'c:/marmalade/7.2/s3e/h/std/c++/iomanip.h'
p3504
sbsS'IwKeymap.h'
p3505
g302
(g1656
g304
Ntp3506
Rp3507
(dp3508
g1660
g1412
sg1661
g1702
sg328
g1498
sbsS'IwDebug.h'
p3509
g302
(g1656
g304
Ntp3510
Rp3511
(dp3512
g1660
g1412
sg1661
g1702
sg328
g1506
sbsS's3eIOSBackgroundAudio.h'
p3513
g302
(g1656
g304
Ntp3514
Rp3515
(dp3516
g1660
g1668
sg1661
g1910
sg328
S'c:/marmalade/7.2/s3e/h/ext/s3eIOSBackgroundAudio.h'
p3517
sbsS'IwGeomMenu.h'
p3518
g302
(g1656
g304
Ntp3519
Rp3520
(dp3521
g1660
g1256
sg1661
g1732
sg328
g1263
sbsS'IwDivTable.h'
p3522
g302
(g1656
g304
Ntp3523
Rp3524
(dp3525
g1660
g1412
sg1661
g1702
sg328
g1433
sbsS'ctype.h'
p3526
g302
(g1656
g304
Ntp3527
Rp3528
(dp3529
g1660
g1668
sg1661
g1690
sg328
S'c:/marmalade/7.2/s3e/h/std/ctype.h'
p3530
sbsS'IwGeomMat.h'
p3531
g302
(g1656
g304
Ntp3532
Rp3533
(dp3534
g1660
g1256
sg1661
g1732
sg328
g1259
sbsS'IwResGroup.h'
p3535
g302
(g1656
g304
Ntp3536
Rp3537
(dp3538
g1660
g1324
sg1661
g1964
sg328
g1330
sbsS'signal_1.h'
p3539
g302
(g1656
g304
Ntp3540
Rp3541
(dp3542
g1660
g1668
sg1661
g1827
sg328
S'c:/marmalade/7.2/s3e/h/std/sys/signal.h'
p3543
sbsS'IwSoundData.cpp'
p3544
g302
(g1656
g304
Ntp3545
Rp3546
(dp3547
g1660
g1100
sg1661
g1718
sg328
g1123
sbsS'jerror.h'
p3548
g302
(g1656
g304
Ntp3549
Rp3550
(dp3551
g1660
g1056
sg1661
g1762
sg328
g1077
sbsS'shm.h'
p3552
g302
(g1656
g304
Ntp3553
Rp3554
(dp3555
g1660
g1668
sg1661
g1827
sg328
S'c:/marmalade/7.2/s3e/h/std/sys/shm.h'
p3556
sbsS'IwManagedList.h'
p3557
g302
(g1656
g304
Ntp3558
Rp3559
(dp3560
g1660
g1412
sg1661
g1702
sg328
g1423
sbsS'prctl.h'
p3561
g302
(g1656
g304
Ntp3562
Rp3563
(dp3564
g1660
g1668
sg1661
g1827
sg328
S'c:/marmalade/7.2/s3e/h/std/sys/prctl.h'
p3565
sbsS'IwGxStream.h'
p3566
g302
(g1656
g304
Ntp3567
Rp3568
(dp3569
g1660
g1348
sg1661
g1813
sg328
g1349
sbsS'utility'
p3570
g302
(g1656
g304
Ntp3571
Rp3572
(dp3573
g1660
g1668
sg1661
g1669
sg328
S'c:/marmalade/7.2/s3e/h/std/c++/utility'
p3574
sbsS's3ewebview.mkf'
p3575
g302
(g1656
g304
Ntp3576
Rp3577
(dp3578
g1660
g1527
sg1661
g3120
sg328
g1525
sbsS'options.cpp'
p3579
g302
(g1656
g304
Ntp3580
Rp3581
(dp3582
g1660
g1154
sg1661
g1979
sg328
g1165
sbsS'IwGeomLegacy.h'
p3583
g302
(g1656
g304
Ntp3584
Rp3585
(dp3586
g1660
g1256
sg1661
g1732
sg328
g1314
sbsS'IwTPage.h'
p3587
g302
(g1656
g304
Ntp3588
Rp3589
(dp3590
g1660
g1348
sg1661
g1813
sg328
g1346
sbsS'IwResSerialise.h'
p3591
g302
(g1656
g304
Ntp3592
Rp3593
(dp3594
g1660
g1324
sg1661
g1964
sg328
g1340
sbsS's3eCrypto.h'
p3595
g302
(g1656
g304
Ntp3596
Rp3597
(dp3598
g1660
g1668
sg1661
g1684
sg328
S'c:/marmalade/7.2/s3e/h/s3eCrypto.h'
p3599
sbsS's3eKeyboard.h'
p3600
g302
(g1656
g304
Ntp3601
Rp3602
(dp3603
g1660
g1668
sg1661
g1684
sg328
S'c:/marmalade/7.2/s3e/h/s3eKeyboard.h'
p3604
sbsS'fcntl.h'
p3605
g302
(g1656
g304
Ntp3606
Rp3607
(dp3608
g1660
g1668
sg1661
g1690
sg328
S'c:/marmalade/7.2/s3e/h/std/fcntl.h'
p3609
sbsS'Iw2DSceneGraphCore.h'
p3610
g302
(g1656
g304
Ntp3611
Rp3612
(dp3613
g1660
g1405
sg1661
g2845
sg328
g1403
sbsS'memory.h'
p3614
g302
(g1656
g304
Ntp3615
Rp3616
(dp3617
g1660
g1668
sg1661
g1690
sg328
S'c:/marmalade/7.2/s3e/h/std/memory.h'
p3618
sbsS'egl.h'
p3619
g302
(g1656
g304
Ntp3620
Rp3621
(dp3622
g1660
g1668
sg1661
g2524
sg328
S'c:/marmalade/7.2/s3e/h/EGL/egl.h'
p3623
sbsS'IwGeomIntersect.h'
p3624
g302
(g1656
g304
Ntp3625
Rp3626
(dp3627
g1660
g1256
sg1661
g1732
sg328
g1306
sbsS'IwTextParserITX.h'
p3628
g302
(g1656
g304
Ntp3629
Rp3630
(dp3631
g1660
g1412
sg1661
g1702
sg328
g1435
sbsS'IwClip.inl'
p3632
g302
(g1656
g304
Ntp3633
Rp3634
(dp3635
g1660
g1348
sg1661
g1813
sg328
g1382
sbsS'sceneManager.cpp'
p3636
g302
(g1656
g304
Ntp3637
Rp3638
(dp3639
g1660
g1154
sg1661
(lp3640
g1148
aS'managers'
p3641
asg328
g1155
sbsS'Iw2DSceneGraph.cpp'
p3642
g302
(g1656
g304
Ntp3643
Rp3644
(dp3645
g1660
g1198
sg1661
g2016
sg328
g1196
sbsS'ostream.h'
p3646
g302
(g1656
g304
Ntp3647
Rp3648
(dp3649
g1660
g1668
sg1661
g1669
sg328
S'c:/marmalade/7.2/s3e/h/std/c++/ostream.h'
p3650
sbsS'stl_user_config.h'
p3651
g302
(g1656
g304
Ntp3652
Rp3653
(dp3654
g1660
g1668
sg1661
g1669
sg328
S'c:/marmalade/7.2/s3e/h/std/c++/stl_user_config.h'
p3655
sbsS'IwProfileMenu.h'
p3656
g302
(g1656
g304
Ntp3657
Rp3658
(dp3659
g1660
g1412
sg1661
g1702
sg328
g1427
sbsS'MarmaladeVersion.h'
p3660
g302
(g1656
g304
Ntp3661
Rp3662
(dp3663
g1660
g1668
sg1661
g1684
sg328
S'c:/marmalade/7.2/s3e/h/MarmaladeVersion.h'
p3664
sbsS'IwResHandlerWAV.h'
p3665
g302
(g1656
g304
Ntp3666
Rp3667
(dp3668
g1660
g1100
sg1661
g1718
sg328
g1127
sbsS'options.h'
p3669
g302
(g1656
g304
Ntp3670
Rp3671
(dp3672
g1660
g1154
sg1661
g1795
sg328
g1159
sbsS'ios.h'
p3673
g302
(g1656
g304
Ntp3674
Rp3675
(dp3676
g1660
g1668
sg1661
g1669
sg328
S'c:/marmalade/7.2/s3e/h/std/c++/ios.h'
p3677
sbsS'store.cpp'
p3678
g302
(g1656
g304
Ntp3679
Rp3680
(dp3681
g1660
g1154
sg1661
g1979
sg328
g1175
sbsS'IwImageHelper.h'
p3682
g302
(g1656
g304
Ntp3683
Rp3684
(dp3685
g1660
g1412
sg1661
g1702
sg328
g1500
sbsS'zlib.h'
p3686
g302
(g1656
g304
Ntp3687
Rp3688
(dp3689
g1660
g1637
sg1661
g2416
sg328
g1638
sbsS'hash_set'
p3690
g302
(g1656
g304
Ntp3691
Rp3692
(dp3693
g1660
g1668
sg1661
g1669
sg328
S'c:/marmalade/7.2/s3e/h/std/c++/hash_set'
p3694
sbsS'IwGeomFQuat.h'
p3695
g302
(g1656
g304
Ntp3696
Rp3697
(dp3698
g1660
g1256
sg1661
g1732
sg328
g1289
sbsS'jmorecfg.h'
p3699
g302
(g1656
g304
Ntp3700
Rp3701
(dp3702
g1660
g1056
sg1661
g1762
sg328
g1075
sbsS'eglplatform.h'
p3703
g302
(g1656
g304
Ntp3704
Rp3705
(dp3706
g1660
g1668
sg1661
g2524
sg328
S'c:/marmalade/7.2/s3e/h/EGL/eglplatform.h'
p3707
sbsS'cmath'
p3708
g302
(g1656
g304
Ntp3709
Rp3710
(dp3711
g1660
g1668
sg1661
g1669
sg328
S'c:/marmalade/7.2/s3e/h/std/c++/cmath'
p3712
sbsS'math_gcc.h'
p3713
g302
(g1656
g304
Ntp3714
Rp3715
(dp3716
g1660
g1668
sg1661
g1690
sg328
S'c:/marmalade/7.2/s3e/h/std/math_gcc.h'
p3717
sbsS's3eMemory.h'
p3718
g302
(g1656
g304
Ntp3719
Rp3720
(dp3721
g1660
g1668
sg1661
g1684
sg328
S'c:/marmalade/7.2/s3e/h/s3eMemory.h'
p3722
sbsS'IwGeomSVec3.h'
p3723
g302
(g1656
g304
Ntp3724
Rp3725
(dp3726
g1660
g1256
sg1661
g1732
sg328
g1281
sbsS's3eFile.h'
p3727
g302
(g1656
g304
Ntp3728
Rp3729
(dp3730
g1660
g1668
sg1661
g1684
sg328
S'c:/marmalade/7.2/s3e/h/s3eFile.h'
p3731
sbsS'IwGxTypes.h'
p3732
g302
(g1656
g304
Ntp3733
Rp3734
(dp3735
g1660
g1348
sg1661
g1813
sg328
g1394
sbsS'cerrno'
p3736
g302
(g1656
g304
Ntp3737
Rp3738
(dp3739
g1660
g1668
sg1661
g1669
sg328
S'c:/marmalade/7.2/s3e/h/std/c++/cerrno'
p3740
sbsS'IwSoundManager.cpp'
p3741
g302
(g1656
g304
Ntp3742
Rp3743
(dp3744
g1660
g1100
sg1661
g1718
sg328
g1142
sbsS'soundengine.mkf'
p3745
g302
(g1656
g304
Ntp3746
Rp3747
(dp3748
g1660
g1139
sg1661
g1718
sg328
g1137
sbsS'resource.h'
p3749
g302
(g1656
g304
Ntp3750
Rp3751
(dp3752
g1660
g1668
sg1661
g1827
sg328
S'c:/marmalade/7.2/s3e/h/std/sys/resource.h'
p3753
sbsS'clocale'
p3754
g302
(g1656
g304
Ntp3755
Rp3756
(dp3757
g1660
g1668
sg1661
g1669
sg328
S'c:/marmalade/7.2/s3e/h/std/c++/clocale'
p3758
sbsS'csetjmp'
p3759
g302
(g1656
g304
Ntp3760
Rp3761
(dp3762
g1660
g1668
sg1661
g1669
sg328
S'c:/marmalade/7.2/s3e/h/std/c++/csetjmp'
p3763
sbsS'netdb.h'
p3764
g302
(g1656
g304
Ntp3765
Rp3766
(dp3767
g1660
g1668
sg1661
g1690
sg328
S'c:/marmalade/7.2/s3e/h/std/netdb.h'
p3768
sbsS's3eAndroidJNI.h'
p3769
g302
(g1656
g304
Ntp3770
Rp3771
(dp3772
g1660
g1668
sg1661
g1910
sg328
S'c:/marmalade/7.2/s3e/h/ext/s3eAndroidJNI.h'
p3773
sbsS'stdexcept'
p3774
g302
(g1656
g304
Ntp3775
Rp3776
(dp3777
g1660
g1668
sg1661
g1669
sg328
S'c:/marmalade/7.2/s3e/h/std/c++/stdexcept'
p3778
sbsS'math.h'
p3779
g302
(g1656
g304
Ntp3780
Rp3781
(dp3782
g1660
g1668
sg1661
g1690
sg328
S'c:/marmalade/7.2/s3e/h/std/math.h'
p3783
sbsS'stdbool.h'
p3784
g302
(g1656
g304
Ntp3785
Rp3786
(dp3787
g1660
g1668
sg1661
g1690
sg328
S'c:/marmalade/7.2/s3e/h/std/stdbool.h'
p3788
sbsS'uio.h'
p3789
g302
(g1656
g304
Ntp3790
Rp3791
(dp3792
g1660
g1668
sg1661
g1827
sg328
S'c:/marmalade/7.2/s3e/h/std/sys/uio.h'
p3793
sbsS'IwUncopyable.h'
p3794
g302
(g1656
g304
Ntp3795
Rp3796
(dp3797
g1660
g1412
sg1661
g1702
sg328
g1457
sbsS's3efacebook.mkf'
p3798
g302
(g1656
g304
Ntp3799
Rp3800
(dp3801
g1660
g1542
sg1661
(lp3802
g1512
ag1528
asg328
g1540
sbssS'juice_build_type'
p3803
g4
sS'tests'
p3804
(lp3805
sS'project_name'
p3806
g310
sS'root_file'
p3807
g119
sS'current_root'
p3808
S'c:/Users/Vinicius/Desktop/Yes or No/Stars_Small'
p3809
sS'dependencies'
p3810
(lp3811
sS'include_paths'
p3812
(lp3813
S'c:/marmalade/7.2/extensions/s3ewebview/h'
p3814
aS'c:/marmalade/7.2/modules/iwutil/h'
p3815
aS'c:/marmalade/7.2/modules/third_party/libjpeg/h'
p3816
aS'c:/marmalade/7.2/modules/third_party/zlib/h'
p3817
aS'c:/marmalade/7.2/modules/third_party/libpng/h'
p3818
aS'c:/marmalade/7.2/extensions/s3efacebook/h'
p3819
aS'c:/marmalade/7.2/modules/iw2d/h'
p3820
aS'c:/marmalade/7.2/modules/iwgx/h'
p3821
aS'c:/marmalade/7.2/modules/iwgl/h'
p3822
aS'c:/marmalade/7.2/modules/iwgeom/h'
p3823
aS'c:/marmalade/7.2/modules/iwresmanager/h'
p3824
aS'c:/marmalade/7.2/modules/iwgxfont/h'
p3825
aS'c:/marmalade/7.2/modules/third_party/tiniconv/source'
p3826
aS'c:/marmalade/7.2/modules/iw2dscenegraph/h'
p3827
aS'c:/marmalade/7.2/modules/iw2dscenegraphcore/h'
p3828
aS'c:/marmalade/7.2/modules/iwtween/h'
p3829
aS'c:/users/vinicius/desktop/yes or no/stars_small/modules/soundengine/h'
p3830
aS'c:/users/vinicius/desktop/yes or no/stars_small/modules/soundengine/source'
p3831
aS'c:/marmalade/7.2/extensions/s3eflurry/h'
p3832
aS'c:/users/vinicius/desktop/yes or no/stars_small/modules/core/h'
p3833
aS'c:/users/vinicius/desktop/yes or no/stars_small/modules/core/source'
p3834
aS'c:/users/vinicius/desktop/yes or no/stars_small/modules/template/h'
p3835
aS'c:/users/vinicius/desktop/yes or no/stars_small/modules/template/source'
p3836
aS'c:/marmalade/7.2/s3e/h'
p3837
aS'c:/marmalade/7.2/s3e/h/ext'
p3838
aS'c:/marmalade/7.2/s3e/h/std'
p3839
aS'c:/marmalade/7.2/s3e/h/std/c++'
p3840
aS'c:/marmalade/7.2/s3e/h/ext_legacy'
p3841
aS'c:/marmalade/7.2/s3e/h/legacy'
p3842
asS'weak_frameworks'
p3843
(lp3844
sS'extprojects'
p3845
(dp3846
sg609
(dp3847
g603
(lp3848
(S'c:/Users/Vinicius/Desktop/Yes or No/Stars_Small/data/audio'
p3849
S'audio'
p3850
I0
tp3851
a(S'c:/Users/Vinicius/Desktop/Yes or No/Stars_Small/data/textures'
p3852
S'textures'
p3853
I0
tp3854
a(S'c:/Users/Vinicius/Desktop/Yes or No/Stars_Small/data-ram/data-gles1,c:/Users/Vinicius/Desktop/Yes or No/Stars_Small/data'
p3855
S'.'
p3856
I0
tp3857
a(S'c:/marmalade/7.2/extensions/s3ewebview/s3eWebView.js'
p3858
S's3eWebView.js'
p3859
I0
tp3860
a(S'c:/marmalade/7.2/extensions/s3efacebook/source/iphone/facebook-ios-sdk/FacebookSDK.framework/Versions/A/Resources/FacebookSDKResources.bundle/FBDialog/images/fbicon.png'
p3861
S'FacebookSDKResources.bundle/FBDialog/images/fbicon.png'
p3862
I0
tp3863
a(S'c:/marmalade/7.2/extensions/s3efacebook/source/iphone/facebook-ios-sdk/FacebookSDK.framework/Versions/A/Resources/FacebookSDKResources.bundle/FBDialog/images/close.png'
p3864
S'FacebookSDKResources.bundle/FBDialog/images/close.png'
p3865
I0
tp3866
a(S'c:/marmalade/7.2/extensions/s3efacebook/source/iphone/facebook-ios-sdk/FacebookSDK.framework/Versions/A/Resources/FacebookSDKResources.bundle/FBDialog/images/close@2x.png'
p3867
S'FacebookSDKResources.bundle/FBDialog/images/close@2x.png'
p3868
I0
tp3869
a(S'c:/marmalade/7.2/extensions/s3efacebook/facebook-winclient-sdk-master/Source/Facebook.Client-WindowsStore/FacebookDialogPage.xaml'
p3870
S'FacebookDialogPage.xaml'
p3871
I0
tp3872
asS'WebView32Assets'
p3873
(lp3874
(S'c:/marmalade/7.2/extensions/s3ewebview/lib/win32/locales'
p3875
S'locales'
p3876
I0
tp3877
a(S'c:/marmalade/7.2/extensions/s3ewebview/lib/win32/avcodec-53.dll'
p3878
S'avcodec-53.dll'
p3879
I0
tp3880
a(S'c:/marmalade/7.2/extensions/s3ewebview/lib/win32/avformat-53.dll'
p3881
S'avformat-53.dll'
p3882
I0
tp3883
a(S'c:/marmalade/7.2/extensions/s3ewebview/lib/win32/avutil-51.dll'
p3884
S'avutil-51.dll'
p3885
I0
tp3886
a(S'c:/marmalade/7.2/extensions/s3ewebview/lib/win32/chrome.pak'
p3887
S'chrome.pak'
p3888
I0
tp3889
a(S'c:/marmalade/7.2/extensions/s3ewebview/lib/win32/d3dcompiler_43.dll'
p3890
S'd3dcompiler_43.dll'
p3891
I0
tp3892
a(S'c:/marmalade/7.2/extensions/s3ewebview/lib/win32/d3dx9_43.dll'
p3893
S'd3dx9_43.dll'
p3894
I0
tp3895
a(S'c:/marmalade/7.2/extensions/s3ewebview/lib/win32/icudt.dll'
p3896
S'icudt.dll'
p3897
I0
tp3898
a(S'c:/marmalade/7.2/extensions/s3ewebview/lib/win32/libcef.dll'
p3899
S'libcef.dll'
p3900
I0
tp3901
a(S'c:/marmalade/7.2/extensions/s3ewebview/lib/win32/libEGL.dll'
p3902
S'libEGL.dll'
p3903
I0
tp3904
a(S'c:/marmalade/7.2/extensions/s3ewebview/lib/win32/libGLESv2.dll'
p3905
S'libGLESv2.dll'
p3906
I0
tp3907
assS'macro_types'
p3908
(dp3909
g528
I0
sg530
I0
sg531
I0
sg532
I0
sg534
I1
sg535
I0
sg536
I0
sg537
I0
sg538
I0
sg539
I0
sg540
I0
sg541
I0
sg543
I0
sg544
I0
sg545
I0
sg546
I0
sg547
I0
sg548
I0
sg550
I0
sg551
I0
sg552
I0
sg553
I0
sg554
I0
sg555
I0
sg556
I0
sg557
I0
sg558
I1
sg559
I0
sg560
I0
sg561
I0
sg562
I0
sg563
I0
sg564
I0
sg565
I0
sg566
I01
sg567
I1
sg568
I0
sg569
I0
sg570
I0
sg571
I0
sg572
I0
sg573
I0
sg574
I0
sg575
I0
sg576
I0
ssS'commands'
p3910
(lp3911
sg611
(g1032
S'VC12X'
p3912
S'X86ARM'
p3913
tp3914
sS'build_libs'
p3915
(dp3916
sg613
g0
sS'frameworks'
p3917
(lp3918
sS'environ'
p3919
(dp3920
sS'target_name_debug'
p3921
g310
sS'builders'
p3922
(dp3923
g603
(dp3924
S'.S'
p3925
(dp3926
S'rvct'
p3927
(lp3928
S'.obj'
p3929
aS'echo ARM Assembling(RVCT) ${SOURCE}...'
p3930
aS'c:/marmalade/7.2/s3e\\rvct\\bin\\armasm -o ${TARGET} ${SOURCE}'
p3931
asS'gcc'
p3932
(lp3933
g3929
aS'echo ARM Assembling(GCC) ${SOURCE}...'
p3934
aS'c:/marmalade/7.2/s3e\\gcc\\bin\\arm-none-eabi-gcc -c -o ${TARGET} ${SOURCE}'
p3935
asS'ppu'
p3936
(lp3937
S'.a'
p3938
aS'echo PPU Assembling(SNC) ${SOURCE}...'
p3939
aS'c:/marmalade/7.2/s3e\\rvct\\bin\\armasm -o ${TARGET} ${SOURCE}'
p3940
assS'.s'
p3941
g3926
sS'.vp'
p3942
(lp3943
NaS'"C:/Marmalade/7.2/s3e/python/python.exe" "c:/marmalade/7.2/modules/iwgx/tools/compile_shaders.py" ${SOURCE}'
p3944
asssS'extproject_names'
p3945
(lp3946
sbtp3947
.