((dp0
S'arm_dbg_args'
p1
S'-via:"c:\\Users\\Vinicius\\Desktop\\Yes or No\\Stars\\build_stars_vc12x\\Stars_vc12x_arm_debug.via" -qemu'
p2
sS'game-icf'
p3
S''
p4
sS'dist'
p5
NsS'csproj'
p6
g4
sS'module_path_append'
p7
NsS'global_path'
p8
S'c:\\users\\vinicius\\desktop\\yes or no'
p9
sS'system_path'
p10
S'c:\\marmalade\\7.2\\s3e\\makefile_builder'
p11
sS'android_x86_dbg_args'
p12
S'../../tools/DeployTool/DeployTool.exe --dir "c:\\Users\\Vinicius\\Desktop\\Yes or No\\Stars\\build_stars_vc12x"'
p13
sS'use_prebuilt'
p14
NsS'arm_rel_rtsm_args'
p15
S'-via:"c:\\Users\\Vinicius\\Desktop\\Yes or No\\Stars\\build_stars_vc12x\\Stars_vc12x_arm_release.via" -qemu'
p16
sS'amd64'
p17
NsS'line-width'
p18
I80
sS'gcc_dbg_args'
p19
S'-via:"c:\\Users\\Vinicius\\Desktop\\Yes or No\\Stars\\build_stars_vc12x\\Stars_vc12x_gcc_debug.via" -qemu'
p20
sS'android-x86'
p21
NsS'x86_dbg_exe'
p22
S'c:/marmalade/7.2/s3e\\win32\\s3e_simulator_debug.exe'
p23
sS'disable-runtime-checks'
p24
NsS'release'
p25
NsS'no-make'
p26
NsS'optimise-size'
p27
NsS'output-name-debug'
p28
g4
sS'arm-fpu'
p29
S'vfp'
p30
sS'proj_name'
p31
S'Stars_vc12x'
p32
sS'rvct-version'
p33
S'none'
p34
sS'compiler'
p35
g4
sS'execute'
p36
NsS'compile-static'
p37
NsS'msvc-project'
p38
NsS'buildenv'
p39
S'VC12X'
p40
sS'quick'
p41
NsS'module_path'
p42
(lp43
S'c:/Users/Vinicius/Desktop/Yes or No/Stars/modules'
p44
asS'use-release-std-libs'
p45
NsS'using_perforce'
p46
I00
sS'tizen-x86'
p47
NsS'mips-s3e'
p48
NsS'ios-no-pic'
p49
NsS'shared-arm-lib'
p50
NsS'arm-cpu'
p51
g4
sS'compile-thumb'
p52
NsS'no-ide'
p53
NsS'msvc-version'
p54
S'6.0'
p55
sS'arm'
p56
NsS'builddir'
p57
g4
sS'compile-debug-as-release'
p58
I0
sS'brief'
p59
NsS'dll'
p60
NsS'buildenv-toolset'
p61
g4
sS'version'
p62
NsS'ccache'
p63
I0
sS'offline'
p64
NsS'ios-version'
p65
g4
sS'hub_data'
p66
g4
sS'fake_vc_call'
p67
I01
sS'jobs'
p68
I0
sS'linkflags'
p69
NsS'tizen-x86-toolsroot'
p70
S'c:/marmalade/7.2/s3e\\..\\tools\\gcc\\x86\\tizen_windows'
p71
sS'debug'
p72
NsS'xcode-build-order'
p73
g4
sS'gcc_rel_rtsm_args'
p74
S'-via:"c:\\Users\\Vinicius\\Desktop\\Yes or No\\Stars\\build_stars_vc12x\\Stars_vc12x_gcc_release.via" -qemu'
p75
sS'done_defaults'
p76
I1
sS'path'
p77
NsS's3e-data-dir'
p78
S'c:/Users/Vinicius/Desktop/Yes or No/Stars\\data'
p79
sS'enable-exceptions'
p80
NsS'osx-dll'
p81
NsS'extension'
p82
g4
sS'no-vc6'
p83
NsS'non-interactive'
p84
NsS'win32-console'
p85
NsS'dist-format'
p86
g4
sS's3e-force-arch'
p87
NsS'dump_defines'
p88
NsS'verbose'
p89
I0
sS'gcc-version'
p90
g4
sS'x86_dbg_args'
p91
S'-via:"c:\\Users\\Vinicius\\Desktop\\Yes or No\\Stars\\build_stars_vc12x\\Stars_vc12x_debug.via"'
p92
sS'tizen_x86_dbg_args'
p93
g13
sS'arm-debugger'
p94
g4
sS'use_temp_extension'
p95
NsS'log'
p96
NsS'no-strip'
p97
NsS'rebuild'
p98
NsS'win32-simulator-dll'
p99
NsS'strict'
p100
NsS'mips_dbg_args'
p101
g13
sS'enable-global-path'
p102
NsS'cflags'
p103
NsS'dist-dir'
p104
g4
sS'jflags'
p105
NsS'csprojSDKRefs'
p106
g4
sS'tizen_x86_rel_exe'
p107
S'c:\\marmalade\\7.2\\s3e\\makefile_builder\\tool_launcher.exe'
p108
sS'test-assets'
p109
g4
sS'distcc'
p110
NsS'external-compiler'
p111
NsS'no-distcc'
p112
NsS'preinclude'
p113
NsS'using_sdk'
p114
I01
sS'nologo'
p115
NsS'warn-level'
p116
I2
sS'mips_dbg_exe'
p117
g108
sS'mkb_in'
p118
S'c:/Users/Vinicius/Desktop/Yes or No/Stars/Stars.mkb'
p119
sS'tizen_x86_dbg_exe'
p120
g108
sS'arm_dbg_exe'
p121
S'c:/marmalade/7.2/s3e\\bin\\armdebug.exe'
p122
sS'csprojDLLRef'
p123
NsS'tizen_x86_rel_args'
p124
g13
sS'android_x86_dbg_exe'
p125
g108
sS'test-config'
p126
g4
sS'list-targets'
p127
NsS'arm_rel_exe'
p128
g108
sS'arm_rel_args'
p129
g13
sS'makedeps'
p130
NsS'android_x86_rel_exe'
p131
g108
sS'default-buildenv'
p132
S'VC12X'
p133
sS'x86_rel_exe'
p134
g23
sS'preprocess-java'
p135
NsS'mips_rel_args'
p136
g13
sS'defines'
p137
NsS'lib'
p138
NsS'global_argv'
p139
(lp140
S'C:\\Marmalade\\7.2\\s3e\\makefile_builder\\mkb.py'
p141
aS'C:/Users/Vinicius/Desktop/Yes or No/Stars/Stars.mkb'
p142
aS'--buildenv=VC12X'
p143
aS'--fake-vc-call'
p144
asS'make'
p145
NsS'optimise-speed'
p146
NsS'internal'
p147
NsS'enable-stdinc'
p148
NsS'deploy-only'
p149
NsS'x86'
p150
NsS'deploy'
p151
g4
sS'x86_run_exe'
p152
S'c:/marmalade/7.2/s3e\\win32\\s3e_console.exe'
p153
sS'x86_rel_args'
p154
S'-via:"c:\\Users\\Vinicius\\Desktop\\Yes or No\\Stars\\build_stars_vc12x\\Stars_vc12x_release.via"'
p155
sS'gcc_rel_args'
p156
g13
sS'mips'
p157
NsS'xcode-build-settings'
p158
g4
sS'incredibuild'
p159
NsS'strict-compile'
p160
NsS'use-auto-subdirs'
p161
NsS'mips_rel_exe'
p162
g108
sS'android_x86_rel_args'
p163
g13
sS'app-icf'
p164
g4
sS'deployargs'
p165
NsS'iosnativedebug'
p166
NsS'mkf_in'
p167
(lp168
S'c:\\marmalade\\7.2\\extensions\\s3ewebview\\s3ewebview.mkf'
p169
aS'c:\\marmalade\\7.2\\modules\\iwutil\\iwutil.mkf'
p170
aS'c:\\marmalade\\7.2\\modules\\third_party\\libjpeg\\libjpeg.mkf'
p171
aS'c:\\marmalade\\7.2\\modules\\third_party\\libpng\\libpng.mkf'
p172
aS'c:\\marmalade\\7.2\\modules\\third_party\\zlib\\zlib.mkf'
p173
aS'c:\\marmalade\\7.2\\extensions\\s3efacebook\\s3efacebook.mkf'
p174
aS'c:\\marmalade\\7.2\\modules\\iw2d\\iw2d.mkf'
p175
aS'c:\\marmalade\\7.2\\modules\\iwgx\\iwgx.mkf'
p176
aS'c:\\marmalade\\7.2\\modules\\iwgl\\iwgl.mkf'
p177
aS'c:\\marmalade\\7.2\\modules\\iwgeom\\iwgeom.mkf'
p178
aS'c:\\marmalade\\7.2\\modules\\iwresmanager\\iwresmanager.mkf'
p179
aS'c:\\marmalade\\7.2\\modules\\iwgxfont\\iwgxfont.mkf'
p180
aS'c:\\marmalade\\7.2\\modules\\third_party\\tiniconv\\tiniconv.mkf'
p181
aS'c:\\marmalade\\7.2\\modules\\iw2dscenegraph\\iw2dscenegraph.mkf'
p182
aS'c:\\marmalade\\7.2\\modules\\iw2dscenegraphcore\\iw2dscenegraphcore.mkf'
p183
aS'c:\\marmalade\\7.2\\modules\\iwtween\\iwtween.mkf'
p184
aS'c:\\users\\vinicius\\desktop\\yes or no\\stars\\modules\\soundengine\\soundengine.mkf'
p185
aS'c:\\marmalade\\7.2\\extensions\\s3eflurry\\s3eflurry.mkf'
p186
asS'strict-mkb'
p187
NsS'executeargs'
p188
NsS'clean'
p189
NsS'no-asm'
p190
NsS'output-name'
p191
g4
sS'no-modules'
p192
NsS'find_define'
p193
g4
s(dp194
S'c:\\marmalade\\7.2\\s3e\\makefile_builder\\templates\\ws8_sln.pyc'
p195
F1396656910.0
sS'c:\\marmalade\\7.2\\s3e\\makefile_builder\\plugins\\java.pyc'
p196
F1396656908.0
sS'c:\\marmalade\\7.2\\s3e\\makefile_builder\\plugins\\S3EEmitter.pyc'
p197
F1396656908.0
sS'c:\\marmalade\\7.2\\s3e\\makefile_builder\\templates\\win32_vcxproj_filters.pyc'
p198
F1396656910.0
sS'c:\\marmalade\\7.2\\s3e\\makefile_builder\\plugins\\xcode4_schememanagement.py'
p199
F1396655700.0
sS'c:\\marmalade\\7.2\\s3e\\makefile_builder\\plugins\\linux_scons.pyc'
p200
F1396656910.0
sS'c:\\marmalade\\7.2\\s3e\\makefile_builder\\templates\\wp8_sln.pyc'
p201
F1396656910.0
sS'c:\\marmalade\\7.2\\s3e\\makefile_builder\\templates\\ws8_ext_sln.pyc'
p202
F1396656910.0
sS'c:\\marmalade\\7.2\\s3e\\makefile_builder\\templates\\MainWindow.xib'
p203
F1396655700.0
sS'c:\\marmalade\\7.2\\s3e\\makefile_builder\\templates\\ws81_ext_sln.pyc'
p204
F1396656910.0
sS'c:\\marmalade\\7.2\\s3e\\makefile_builder\\plugins\\Win8Emitter.pyc'
p205
F1396656910.0
sS'c:\\marmalade\\7.2\\s3e\\makefile_builder\\templates\\win8_ext_csproj.pyc'
p206
F1396656910.0
sS'c:\\marmalade\\7.2\\s3e\\makefile_builder\\templates\\rvct_linker_script'
p207
F1396655702.0
sS'c:\\marmalade\\7.2\\s3e\\makefile_builder\\templates\\win8_sln.pyc'
p208
F1396656910.0
sS'c:\\marmalade\\7.2\\s3e\\makefile_builder\\templates\\ws8_ext_csproj.pyc'
p209
F1396656910.0
sS'c:\\marmalade\\7.2\\s3e\\makefile_builder\\plugins\\s3e_make.pyc'
p210
F1396656908.0
sS'c:\\marmalade\\7.2\\s3e\\makefile_builder\\templates\\wp8_csproj_user.pyc'
p211
F1396656910.0
sS'c:\\marmalade\\7.2\\s3e\\makefile_builder\\plugins\\s3e_scons.pyc'
p212
F1396656908.0
sS'c:\\marmalade\\7.2\\s3e\\makefile_builder\\plugins\\s3e_qmake.py'
p213
F1396655700.0
sS'c:\\marmalade\\7.2\\s3e\\makefile_builder\\docs\\deprecated.options.txt'
p214
F1396655698.0
sS'c:\\marmalade\\7.2\\s3e\\makefile_builder\\plugins\\ws8_ws8.pyc'
p215
F1396656910.0
sS'c:\\marmalade\\7.2\\s3e\\makefile_builder\\templates\\ws81_sln.pyc'
p216
F1396656910.0
sS'c:\\marmalade\\7.2\\s3e\\makefile_builder\\templates\\ws81_ext_csproj.pyc'
p217
F1396656910.0
sS'c:\\marmalade\\7.2\\s3e\\makefile_builder\\templates\\wp8_vcxproj.pyc'
p218
F1396656910.0
sS'c:\\marmalade\\7.2\\s3e\\makefile_builder\\templates\\vc6_opt.pyc'
p219
F1396656910.0
sS'c:\\marmalade\\7.2\\s3e\\makefile_builder\\plugins\\deploy.pyc'
p220
F1396656908.0
sS'c:\\marmalade\\7.2\\s3e\\makefile_builder\\templates\\scons.pyc'
p221
F1396656910.0
sS'c:\\marmalade\\7.2\\s3e\\makefile_builder\\templates\\win32_vcproj.pyc'
p222
F1396656910.0
sS'c:\\marmalade\\7.2\\s3e\\makefile_builder\\templates\\win8_csproj.pyc'
p223
F1396656910.0
sS'c:\\marmalade\\7.2\\s3e\\makefile_builder\\extensions\\make_dist.py'
p224
F1396655698.0
sS'c:\\marmalade\\7.2\\s3e\\makefile_builder\\templates\\gdb_start.txt'
p225
F1396655702.0
sS'c:\\marmalade\\7.2\\s3e\\makefile_builder\\templates\\vc8_user.pyc'
p226
F1396656910.0
sS'c:\\marmalade\\7.2\\s3e\\makefile_builder\\plugins\\s3e_win8.pyc'
p227
F1396656910.0
sS'c:\\marmalade\\7.2\\s3e\\makefile_builder\\templates\\win32_sln.pyc'
p228
F1396656910.0
sS'c:\\marmalade\\7.2\\s3e\\makefile_builder\\docs\\options.txt'
p229
F1396655698.0
sS'c:\\marmalade\\7.2\\s3e\\makefile_builder\\mkb.py'
p230
F1396655698.0
sS'c:\\marmalade\\7.2\\s3e\\makefile_builder\\templates\\Info.plist'
p231
F1396655700.0
sS'c:\\marmalade\\7.2\\s3e\\makefile_builder\\docs\\parse_options.pyc'
p232
F1396656912.0
sS'c:\\marmalade\\7.2\\s3e\\makefile_builder\\templates\\ws8_csproj.pyc'
p233
F1396656910.0
sS'c:\\marmalade\\7.2\\s3e\\makefile_builder\\templates\\ws81_csproj.pyc'
p234
F1396656910.0
sS'c:\\marmalade\\7.2\\s3e\\makefile_builder\\plugins\\osx_xcode.pyc'
p235
F1396656910.0
sS'c:\\marmalade\\7.2\\s3e\\makefile_builder\\plugins\\s3e_xcode.pyc'
p236
F1397674110.1375155
sS'c:\\marmalade\\7.2\\s3e\\makefile_builder\\plugins\\xcode4_schememanagement.pyc'
p237
F1397674109.1068296
sS'c:\\marmalade\\7.2\\s3e\\makefile_builder\\templates\\xcode4.xcscheme'
p238
F1396655704.0
sS'c:\\marmalade\\7.2\\s3e\\makefile_builder\\plugins\\Emitter.pyc'
p239
F1396656908.0
sS'c:\\marmalade\\7.2\\s3e\\makefile_builder\\templates\\mips_linker_script'
p240
F1396655702.0
sS'c:\\marmalade\\7.2\\s3e\\makefile_builder\\templates\\ws8_vcxproj.pyc'
p241
F1396656910.0
sS'c:\\marmalade\\7.2\\s3e\\makefile_builder\\plugins\\win32_vc6.pyc'
p242
F1396656910.0
sS'c:\\marmalade\\7.2\\s3e\\makefile_builder\\mkb_parser.pyc'
p243
F1396656908.0
sS'c:\\marmalade\\7.2\\s3e\\makefile_builder\\templates\\ws81_csproj_user.pyc'
p244
F1396656910.0
sS'c:\\marmalade\\7.2\\s3e\\makefile_builder\\templates\\linker_script'
p245
F1396655702.0
sS'c:\\marmalade\\7.2\\s3e\\makefile_builder\\docs\\deprecated.defines.txt'
p246
F1396655698.0
sS'c:\\marmalade\\7.2\\s3e\\makefile_builder\\templates\\template.suo'
p247
F1396655702.0
sS'c:\\marmalade\\7.2\\s3e\\makefile_builder\\templates\\make.py'
p248
F1396655702.0
sS'c:\\marmalade\\7.2\\s3e\\makefile_builder\\extensions'
p249
F1397673792.7230873
sS'c:\\marmalade\\7.2\\s3e\\makefile_builder\\templates\\win32_dsp.pyc'
p250
F1396656910.0
sS'c:\\marmalade\\7.2\\s3e\\makefile_builder\\templates\\wp8_ext_csproj.pyc'
p251
F1396656910.0
sS'c:\\marmalade\\7.2\\s3e\\makefile_builder\\plugins\\MakeEmitter.pyc'
p252
F1396656908.0
sS'c:\\marmalade\\7.2\\s3e\\makefile_builder\\plugins\\XcodeEmitter.pyc'
p253
F1397674109.0167696
sS'c:\\marmalade\\7.2\\s3e\\makefile_builder\\templates\\win32_dsw.pyc'
p254
F1396656910.0
sS'c:\\marmalade\\7.2\\s3e\\makefile_builder\\docs\\mkb.defines.txt'
p255
F1396655698.0
sS'c:\\marmalade\\7.2\\s3e\\makefile_builder\\docs\\deployment_options.txt'
p256
F1396655698.0
sS'c:\\marmalade\\7.2\\s3e\\makefile_builder\\plugins\\s3e_qmake.pyc'
p257
F1397674109.7792768
sS'c:\\marmalade\\7.2\\s3e\\makefile_builder\\plugins\\ws81_ws81.pyc'
p258
F1396656910.0
sS'c:\\marmalade\\7.2\\s3e\\makefile_builder\\templates\\win32_vcxproj.pyc'
p259
F1396656910.0
sS'c:\\marmalade\\7.2\\s3e\\makefile_builder\\docs'
p260
F1397673793.1573761
sS'c:\\marmalade\\7.2\\s3e\\makefile_builder\\plugins\\XcodeEmitter.py'
p261
F1396655698.0
sS'c:\\marmalade\\7.2\\s3e\\makefile_builder\\templates\\template.opt'
p262
F1396655702.0
sS'c:\\marmalade\\7.2\\s3e\\makefile_builder\\tool_launcher.exe'
p263
F1396656088.0
sS'c:\\marmalade\\7.2\\s3e\\makefile_builder\\templates\\xcode.py'
p264
F1396655702.0
sS'c:\\marmalade\\7.2\\s3e\\makefile_builder\\plugins\\VisualStudioEmitter.pyc'
p265
F1396656908.0
sS'c:\\marmalade\\7.2\\s3e\\makefile_builder\\plugins\\osx_scons.pyc'
p266
F1396656910.0
sS'c:\\marmalade\\7.2\\s3e\\makefile_builder\\templates'
p267
F1397673792.65204
sS'c:\\marmalade\\7.2\\s3e\\makefile_builder\\templates\\ws81_vcxproj.pyc'
p268
F1396656910.0
sS'c:\\marmalade\\7.2\\s3e\\makefile_builder\\templates\\win8_vcxproj.pyc'
p269
F1396656910.0
sS'c:\\marmalade\\7.2\\s3e\\makefile_builder\\plugins\\s3e_ws8.pyc'
p270
F1396656910.0
sS'c:\\marmalade\\7.2\\s3e\\makefile_builder\\templates\\wp8_csproj.pyc'
p271
F1396656910.0
sS'c:\\marmalade\\7.2\\s3e\\makefile_builder\\templates\\vc7_suo.pyc'
p272
F1396656910.0
sS'c:\\marmalade\\7.2\\s3e\\makefile_builder\\plugins\\SConsEmitter.pyc'
p273
F1396656908.0
sS'c:\\marmalade\\7.2\\s3e\\makefile_builder\\mkb_option.pyc'
p274
F1396656908.0
sS'c:\\marmalade\\7.2\\s3e\\makefile_builder\\templates\\ws8_csproj_user.pyc'
p275
F1396656910.0
sS'c:\\marmalade\\7.2\\s3e\\makefile_builder\\mkb_main.pyc'
p276
F1396656908.0
sS'c:\\marmalade\\7.2\\s3e\\makefile_builder\\plugins'
p277
F1397674110.1315114
sS'c:\\marmalade\\7.2\\s3e\\makefile_builder\\plugins\\s3e_web.pyc'
p278
F1396656908.0
sS'c:\\marmalade\\7.2\\s3e\\makefile_builder\\plugins\\s3e_ws81.pyc'
p279
F1396656910.0
sS'c:\\marmalade\\7.2\\s3e\\makefile_builder\\mkb_globals.pyc'
p280
F1396656908.0
sS'c:\\marmalade\\7.2\\s3e\\makefile_builder\\plugins\\iphone.pyc'
p281
F1396656910.0
sS'c:\\marmalade\\7.2\\s3e\\makefile_builder\\mkb_launcher.exe'
p282
F1396656088.0
sS'c:\\marmalade\\7.2\\s3e\\makefile_builder\\plugins\\vc7_utils.pyc'
p283
F1396656908.0
sS'c:\\marmalade\\7.2\\s3e\\makefile_builder\\plugins\\s3e_wp8.pyc'
p284
F1396656910.0
sS'c:\\marmalade\\7.2\\s3e\\makefile_builder\\plugins\\vc6_utils.pyc'
p285
F1396656908.0
sS'c:\\marmalade\\7.2\\s3e\\makefile_builder\\deployment.pyc'
p286
F1396656908.0
sS'c:\\marmalade\\7.2\\s3e\\makefile_builder\\plugins\\s3e_vc6.pyc'
p287
F1396656908.0
sS'c:\\marmalade\\7.2\\s3e\\makefile_builder\\plugins\\null.pyc'
p288
F1396656908.0
sS'c:\\marmalade\\7.2\\s3e\\makefile_builder\\templates\\qmake.py'
p289
F1396655702.0
sS'c:\\marmalade\\7.2\\s3e\\makefile_builder\\templates\\xcode4_DeployTool.xcscheme'
p290
F1396655704.0
sS'c:\\marmalade\\7.2\\s3e\\makefile_builder\\templates\\win8_csproj_user.pyc'
p291
F1396656910.0
sS'c:\\marmalade\\7.2\\s3e\\makefile_builder\\plugins\\win8_utils.pyc'
p292
F1396656908.0
sS'c:\\marmalade\\7.2\\s3e\\makefile_builder\\mkb_util.pyc'
p293
F1396656908.0
sS'c:\\marmalade\\7.2\\s3e\\makefile_builder\\plugins\\wp8_wp8.pyc'
p294
F1396656910.0
sS'c:\\marmalade\\7.2\\s3e\\makefile_builder\\plugins\\s3e_xcode.py'
p295
F1396655700.0
sS'c:\\marmalade\\7.2\\s3e\\makefile_builder\\templates\\vc10_user.pyc'
p296
F1396656910.0
sS'c:\\marmalade\\7.2\\s3e\\makefile_builder\\templates\\qmake_user.py'
p297
F1396655702.0
sS'c:\\marmalade\\7.2\\s3e\\makefile_builder\\templates\\xcode_pbxuser.py'
p298
F1396655704.0
sccopy_reg
_reconstructor
p299
(cmkb_main
MkbFile
p300
c__builtin__
object
p301
Ntp302
Rp303
(dp304
g5
(lp305
sS'target_name'
p306
S'Stars'
p307
sS'current_file'
p308
g119
sS'package_path'
p309
(lp310
sS'post_build'
p311
(lp312
(lp313
S'c:/marmalade/7.2/s3e/tools'
p314
aS'C:\\Marmalade\\7.2\\s3e\\python\\python.exe .\\process_map.py "$(TargetPath)"'
p315
aa(S'c:\\marmalade\\7.2\\s3e\\bin'
p316
S'"s3e_plink" -l "$(TargetPath)" '
p317
g150
tp318
asS'librarys'
p319
(lp320
g299
(cmkb_main
Library
p321
g301
Ntp322
Rp323
(dp324
S'name'
p325
S'vc6_compat.lib'
p326
sS'expand_name'
p327
I00
sS'include_spec_rvct_objs'
p328
(lp329
sS'include_all_objs'
p330
I00
sS'share_arm'
p331
I00
sS'arch'
p332
S'x86'
p333
sS'nodebug'
p334
I00
sg35
Nsbag299
(g321
g301
Ntp335
Rp336
(dp337
g325
S'iwutil'
p338
sg327
I01
sg328
(lp339
sg330
Nsg331
Nsg332
Nsg334
I00
sg35
Nsbag299
(g321
g301
Ntp340
Rp341
(dp342
g325
S'jpeg'
p343
sg327
I01
sg328
g339
sg330
Nsg331
Nsg332
Nsg334
I00
sg35
Nsbag299
(g321
g301
Ntp344
Rp345
(dp346
g325
S'z'
p347
sg327
I01
sg328
g339
sg330
Nsg331
Nsg332
Nsg334
I00
sg35
Nsbag299
(g321
g301
Ntp348
Rp349
(dp350
g325
S'png'
p351
sg327
I01
sg328
g339
sg330
Nsg331
Nsg332
Nsg334
I00
sg35
Nsbag299
(g321
g301
Ntp352
Rp353
(dp354
g325
S'iw2d'
p355
sg327
I01
sg328
g339
sg330
Nsg331
Nsg332
Nsg334
I00
sg35
Nsbag299
(g321
g301
Ntp356
Rp357
(dp358
g325
S'ATI_Compress_MT_VC7.lib'
p359
sg327
I00
sg328
g339
sg330
Nsg331
Nsg332
S'x86'
p360
sg334
I00
sg35
Nsbag299
(g321
g301
Ntp361
Rp362
(dp363
g325
S'iwgx'
p364
sg327
I01
sg328
g339
sg330
Nsg331
Nsg332
Nsg334
I00
sg35
Nsbag299
(g321
g301
Ntp365
Rp366
(dp367
g325
S'iwgl'
p368
sg327
I01
sg328
g339
sg330
Nsg331
Nsg332
Nsg334
I00
sg35
Nsbag299
(g321
g301
Ntp369
Rp370
(dp371
g325
S'iwgeom'
p372
sg327
I01
sg328
g339
sg330
Nsg331
Nsg332
Nsg334
I00
sg35
Nsbag299
(g321
g301
Ntp373
Rp374
(dp375
g325
S'iwresmanager'
p376
sg327
I01
sg328
g339
sg330
Nsg331
Nsg332
Nsg334
I00
sg35
Nsbag299
(g321
g301
Ntp377
Rp378
(dp379
g325
S'iwgxfont'
p380
sg327
I01
sg328
g339
sg330
Nsg331
Nsg332
Nsg334
I00
sg35
Nsbag299
(g321
g301
Ntp381
Rp382
(dp383
g325
S'tiniconv'
p384
sg327
I01
sg328
g339
sg330
Nsg331
Nsg332
Nsg334
I00
sg35
Nsbag299
(g321
g301
Ntp385
Rp386
(dp387
g325
S's3e_cpp'
p388
sg327
I01
sg328
g329
sg330
I00
sg331
I00
sg332
Nsg334
I00
sg35
Nsbag299
(g321
g301
Ntp389
Rp390
(dp391
g325
S's3e'
p392
sg327
I01
sg328
(lp393
S'iwcrt.o'
p394
asg330
I00
sg331
I00
sg332
Nsg334
I00
sg35
Nsbag299
(g321
g301
Ntp395
Rp396
(dp397
g325
S's3e_api'
p398
sg327
I01
sg328
g329
sg330
I00
sg331
I00
sg332
S'x86'
p399
sg334
I01
sg35
Nsbag299
(g321
g301
Ntp400
Rp401
(dp402
g325
S's3e_api'
p403
sg327
I01
sg328
g329
sg330
I00
sg331
I00
sg332
S'!x86'
p404
sg334
I01
sg35
Nsbag299
(g321
g301
Ntp405
Rp406
(dp407
g325
S'stdc++'
p408
sg327
I00
sg328
g329
sg330
I00
sg331
I00
sg332
S'mips'
p409
sg334
I00
sg35
Nsbag299
(g321
g301
Ntp410
Rp411
(dp412
g325
S'c'
p413
sg327
I00
sg328
g329
sg330
I00
sg331
I00
sg332
S'mips'
p414
sg334
I00
sg35
Nsbag299
(g321
g301
Ntp415
Rp416
(dp417
g325
S'm'
p418
sg327
I00
sg328
g329
sg330
I00
sg331
I00
sg332
S'mips'
p419
sg334
I00
sg35
Nsbag299
(g321
g301
Ntp420
Rp421
(dp422
g325
S'gcc'
p423
sg327
I00
sg328
g329
sg330
I00
sg331
I00
sg332
S'mips'
p424
sg334
I00
sg35
Nsbag299
(g321
g301
Ntp425
Rp426
(dp427
g325
S'stdc++'
p428
sg327
I00
sg328
g329
sg330
I00
sg331
I00
sg332
S'gcc_x86_tizen'
p429
sg334
I00
sg35
Nsbag299
(g321
g301
Ntp430
Rp431
(dp432
g325
g413
sg327
I00
sg328
g329
sg330
I00
sg331
I00
sg332
S'gcc_x86_tizen'
p433
sg334
I00
sg35
Nsbag299
(g321
g301
Ntp434
Rp435
(dp436
g325
g418
sg327
I00
sg328
g329
sg330
I00
sg331
I00
sg332
S'gcc_x86_tizen'
p437
sg334
I00
sg35
Nsbag299
(g321
g301
Ntp438
Rp439
(dp440
g325
S'gcc'
p441
sg327
I00
sg328
g329
sg330
I00
sg331
I00
sg332
S'gcc_x86_tizen'
p442
sg334
I00
sg35
Nsbag299
(g321
g301
Ntp443
Rp444
(dp445
g325
S'gcc_eh'
p446
sg327
I00
sg328
g329
sg330
I00
sg331
I00
sg332
S'gcc_x86_tizen'
p447
sg334
I00
sg35
Nsbag299
(g321
g301
Ntp448
Rp449
(dp450
g325
S'stdc++'
p451
sg327
I00
sg328
g329
sg330
I00
sg331
I00
sg332
S'gcc_x86_android'
p452
sg334
I00
sg35
Nsbag299
(g321
g301
Ntp453
Rp454
(dp455
g325
g413
sg327
I00
sg328
g329
sg330
I00
sg331
I00
sg332
S'gcc_x86_android'
p456
sg334
I00
sg35
Nsbag299
(g321
g301
Ntp457
Rp458
(dp459
g325
g418
sg327
I00
sg328
g329
sg330
I00
sg331
I00
sg332
S'gcc_x86_android'
p460
sg334
I00
sg35
Nsbag299
(g321
g301
Ntp461
Rp462
(dp463
g325
S'gcc'
p464
sg327
I00
sg328
g329
sg330
I00
sg331
I00
sg332
S'gcc_x86_android'
p465
sg334
I00
sg35
NsbasS'library_paths'
p466
(lp467
g299
(cmkb_main
LibraryPath
p468
g301
Ntp469
Rp470
(dp471
S'expand_path'
p472
I01
sS'add_cpu_variant'
p473
I00
sg325
S'c:/marmalade/7.2/modules/iwutil'
p474
sbag299
(g468
g301
Ntp475
Rp476
(dp477
g472
I01
sg473
I00
sg325
S'c:/marmalade/7.2/modules/third_party/libjpeg'
p478
sbag299
(g468
g301
Ntp479
Rp480
(dp481
g472
I01
sg473
I00
sg325
S'c:/marmalade/7.2/modules/third_party/zlib'
p482
sbag299
(g468
g301
Ntp483
Rp484
(dp485
g472
I01
sg473
I00
sg325
S'c:/marmalade/7.2/modules/third_party/libpng'
p486
sbag299
(g468
g301
Ntp487
Rp488
(dp489
g472
I01
sg473
I00
sg325
S'c:/marmalade/7.2/modules/iw2d'
p490
sbag299
(g468
g301
Ntp491
Rp492
(dp493
g472
I00
sg473
I00
sg325
S'c:/marmalade/7.2/modules/iwgx/atitools'
p494
sbag299
(g468
g301
Ntp495
Rp496
(dp497
g472
I01
sg473
I00
sg325
S'c:/marmalade/7.2/modules/iwgx'
p498
sbag299
(g468
g301
Ntp499
Rp500
(dp501
g472
I01
sg473
I00
sg325
S'c:/marmalade/7.2/modules/iwgl'
p502
sbag299
(g468
g301
Ntp503
Rp504
(dp505
g472
I01
sg473
I00
sg325
S'c:/marmalade/7.2/modules/iwgeom'
p506
sbag299
(g468
g301
Ntp507
Rp508
(dp509
g472
I01
sg473
I00
sg325
S'c:/marmalade/7.2/modules/iwresmanager'
p510
sbag299
(g468
g301
Ntp511
Rp512
(dp513
g472
I01
sg473
I00
sg325
S'c:/marmalade/7.2/modules/iwgxfont'
p514
sbag299
(g468
g301
Ntp515
Rp516
(dp517
g472
I01
sg473
I00
sg325
S'c:/marmalade/7.2/modules/third_party/tiniconv'
p518
sbag299
(g468
g301
Ntp519
Rp520
(dp521
g472
I01
sg473
I00
sg325
S'c:/marmalade/7.2/s3e'
p522
sbasS'macros'
p523
(dp524
S'IW_TRACE_CHANNEL_WEBVIEW_VERBOSE'
p525
S'2'
p526
sS'IW_MKF_S3EFACEBOOK'
p527
NsS'I3D_PLATFORM_S3E'
p528
NsS'IW_TRACE_CHANNEL_FLURRY'
p529
S'1'
p530
sS'IW_USE_CALLSTACK'
p531
NsS'__S3E__'
p532
NsS'IW_TRACE_CHANNEL_WEBVIEW'
p533
g530
sS'IW_MKF_LIBJPEG'
p534
NsS'I3D_OS_S3E'
p535
NsS'IW_ASSERTION_CHANNEL_FLURRY'
p536
g530
sS'IW_MKF_TINICONV'
p537
NsS'IW_APP_VERSION'
p538
S'"1.0"'
p539
sS'IW_MKF_IWRESMANAGER'
p540
NsS'IW_MKF_IWUTIL'
p541
NsS'IW_PLATFORM_S3E'
p542
NsS'IW_ASSERTION_CHANNEL_2D'
p543
g530
sS'IW_APP_NAME'
p544
S'"Stars"'
p545
sS'IW_MKF_IWGXFONT'
p546
NsS'IW_MKF_IWTWEEN'
p547
NsS'IW_MKF_S3EFLURRY'
p548
NsS'IW_MKF_ZLIB'
p549
NsS'IW_MKF_IWGX'
p550
NsS'IW_MKF_IW2DSCENEGRAPH'
p551
NsS'IW_MKF_SOUNDENGINE'
p552
NsS'IW_ASSERTION_CHANNEL_WEBVIEW'
p553
g530
sS'IW_USE_ASSERTIONS'
p554
NsS'_CRT_SECURE_NO_DEPRECATE'
p555
NsS'IW_MKF_IWGL'
p556
NsS'IW_MKF_LIBPNG'
p557
NsS'IW_MKF_S3EWEBVIEW'
p558
NsS'IW_TRACE_CHANNEL_IW_2DSCENEGRAPH'
p559
g530
sS'IW_ASSERTION_CHANNEL_FACEBOOK'
p560
g530
sS'IW_TRACE_CHANNEL_FACEBOOK_VERBOSE'
p561
g526
sS'IW_DEBUG'
p562
NsS'IW_USE_TRACING'
p563
NsS'IW_ASSERTION_CHANNEL_IW_2DSCENEGRAPH'
p564
g530
sS'IW_SDK'
p565
NsS'S3E_INCLUDE_LEGACY'
p566
NsS'IW_MKF_IW2DSCENEGRAPHCORE'
p567
NsS'IW_TRACE_CHANNEL_FACEBOOK'
p568
g530
sS'IW_TRACE_CHANNEL_FLURRY_VERBOSE'
p569
g526
sS'IW_MKF_IW2D'
p570
NsS'IW_MKF_IWGEOM'
p571
NssS'done_warnings'
p572
(dp573
sS'subprojects'
p574
(dp575
g180
S'iwgxfont'
p576
sg174
S's3eFacebook'
p577
sg169
S's3eWebView'
p578
sg170
S'iwutil'
p579
sg176
S'iwgx'
p580
sg183
S'../iw2dscenegraphcore'
p581
sg171
S'libjpeg'
p582
sg172
S'libpng'
p583
sg177
S'iwgl'
p584
sg184
S'iwtween'
p585
sg182
S'iw2dscenegraph'
p586
sg175
S'iw2d'
p587
sg178
S'iwgeom'
p588
sg181
S'tiniconv'
p589
sg173
S'zlib'
p590
sg185
S'SoundEngine'
p591
sg179
S'iwresmanager'
p592
sg186
S's3eFlurry'
p593
ssS'deployments'
p594
(dp595
S'Default'
p596
g299
(cdeployment
Deployment
p597
g301
Ntp598
Rp599
(dp600
S'got_version'
p601
I0
sS'assets'
p602
g596
sS'mkb'
p603
g303
sS'target'
p604
Nsg332
(lp605
sS'options'
p606
(dp607
S'iphone-link-lib'
p608
(lp609
S's3eWebView'
p610
aS's3eFacebook'
p611
aS'FlurryAnalytics'
p612
aS's3eFlurry'
p613
asS'game-icf'
p614
NsS'winmobile-icon32'
p615
NsS'ws8-logo-image150x150'
p616
NsS'ws81-product-version'
p617
NsS'osx-ext-dll'
p618
(lp619
S'c:/marmalade/7.2/extensions/s3ewebview/lib/osx/libs3eWebView.dylib'
p620
aS'c:/marmalade/7.2/extensions/s3eflurry/lib/osx/libs3eFlurry.dylib'
p621
asS'iphone-provisioning-profile'
p622
NsS'ws8-splash-screen-image620x300'
p623
NsS'ws8-ext-capabilities'
p624
(lp625
sS'android-icon-hdpi'
p626
NsS'brew-icon-large'
p627
NsS'iphone-splash-full-orient'
p628
NsS'wp8-tile-fliptemplate-supports-large'
p629
NsS'iphone-show-status-bar'
p630
NsS'roku-requires-mkv'
p631
NsS'long-caption'
p632
NsS'android-pkgname'
p633
NsS'blackberry-permissions-read-device-identifying-information'
p634
NsS'ws81-certificate-end-date'
p635
NsS'psp-dlgcontentid'
p636
NsS'target-folder'
p637
NsS'tizen-dist1-CA-path'
p638
NsS'symbian-icon2-format'
p639
NsS'iphone-region'
p640
NsS'uiq3-icon3-mask'
p641
NsS'brew-encoding'
p642
NsS'android-x86'
p643
NsS'nds-initialcode'
p644
NsS'iphone-persistent-wifi'
p645
NsS'psp-snd0'
p646
NsS'osx-signing-identity-inst'
p647
NsS'winmobile-install-folder'
p648
NsS'android-external-res'
p649
(lp650
S'c:/marmalade/7.2/extensions/s3efacebook/facebook-android-sdk/facebook/res'
p651
asS'ws8-product-version'
p652
NsS'brew-priviledges'
p653
NsS'symbian-icon2-mask-black'
p654
NsS'iphone-icon-ipad'
p655
NsS'roku-hidden'
p656
NsS'psp-titlename'
p657
NsS'symbian-icon1-mask'
p658
NsS'psp-parentallevel'
p659
NsS'splashscreen-use-all'
p660
NsS'wp8-author'
p661
NsS'symbian-disable-ecompxl'
p662
NsS'splashscreen-auto-onblack'
p663
NsS'win32-ext-dll'
p664
(lp665
S'c:/marmalade/7.2/extensions/s3ewebview/lib/win32/s3eWebView.dll'
p666
aS'c:/marmalade/7.2/extensions/s3eflurry/lib/win32/s3eFlurry.dll'
p667
asS'iphone-development-key'
p668
NsS'winmobile-icon48'
p669
NsS'android-unsigned'
p670
NsS'osx-appstore-category'
p671
NsS'version-revision'
p672
NsS'roku-icon-focus-sd'
p673
NsS'android-keystore'
p674
NsS'winmobile-png90'
p675
NsS'iphone-icon-ipad-high-res'
p676
NsS'iphone-disable-ipad'
p677
NsS'wp8-product-id'
p678
NsS'wp8-ext-capabilities'
p679
(lp680
sS'iphone-ipad-only'
p681
NsS'symbian-icon1-mask-black'
p682
NsS'iphone-bundle-localisations'
p683
NsS'winmobile-png60'
p684
NsS'blackberry-permissions-access-shared'
p685
NsS'blackberry-author'
p686
NsS'android-icon-xxxhdpi'
p687
NsS'olddeploytoolstyle'
p688
NsS'android_icon_gallery'
p689
NsS'winmobile-cab-compress'
p690
NsS'ws81-ext-managed-dll'
p691
(lp692
sS'win32-icon'
p693
NsS'symbian-key'
p694
NsS'app-icf'
p695
NsS'blackberry-storepass'
p696
NsS'wp8-tile-fliptemplate-back-title'
p697
NsS'brew-compress-loader'
p698
NsS'win32-pref-windowposy'
p699
NsS'win32-pref-windowposx'
p700
NsS'roku-requires-audiometadata'
p701
NsS'wp8-exclude-low-mem'
p702
NsS'wp8-tile-fliptemplate-title'
p703
NsS'iphone-icon-ipad-search-high-res'
p704
NsS'iphone-link-libdir'
p705
(lp706
S'c:/marmalade/7.2/extensions/s3ewebview/lib/iphone'
p707
aS'c:/marmalade/7.2/extensions/s3efacebook/lib/iphone'
p708
aS'c:/marmalade/7.2/extensions/s3eflurry/lib/iphone'
p709
asS'blackberry-permissions-read-geolocation'
p710
NsS'winmobile-nouninstall'
p711
NsS'tizen-signed'
p712
NsS'android-extra-application-manifest'
p713
(lp714
S'c:/marmalade/7.2/extensions/s3efacebook/source/android/extra_app_manifest.xml'
p715
asS'ws8-ext-native-dll'
p716
(lp717
sS'symbian-icon2-mask'
p718
NsS'iphone-backgroundmode-audio'
p719
NsS'webos-memory'
p720
NsS'android-keypass'
p721
NsS'name'
p722
NsS'uiq3-icon2-format'
p723
NsS'roku-splash-screen-sd'
p724
NsS'auto-derbh'
p725
NsS'roku-icon-side-sd'
p726
NsS'symbian-maxheapsize'
p727
NsS'nds-publicsavedatasize'
p728
NsS'splashscreen'
p729
NsS'brew-mif'
p730
NsS'iphone-icon-settings-high-res'
p731
NsS'android-manifest'
p732
NsS'ws81-splash-screen-image620x300'
p733
NsS's3e-compression'
p734
NsS'tizen-author-password'
p735
NsS'wp8-tile-fliptemplate-back-content'
p736
NsS'symbian-icon1'
p737
NsS'symbian-icon2'
p738
NsS'android-extra-styles-file'
p739
NsS'nds-bannertitle-jp'
p740
NsS'osx-sign-for-store'
p741
NsS'symbian7-uid'
p742
NsS'wp8-tile-fliptemplate-large-back-content'
p743
NsS'nds-bannertitle-cn'
p744
NsS'iphone-distribution-key'
p745
NsS'android-icon-gallery'
p746
NsS'blackberry-keystore'
p747
NsS'iphone-nosign'
p748
NsS'caption'
p749
NsS'android-extra-manifest'
p750
(lp751
sS'android-icon-xxhdpi'
p752
NsS'version-minor'
p753
NsS'iphone-link-libdirs'
p754
(lp755
sS'iphone-icon-large'
p756
NsS'symbian-keypwd'
p757
NsS'symbian8-uid'
p758
NsS'symbian-cert-key'
p759
NsS'winmobile-ampd-part-number'
p760
NsS'arch'
p761
NsS'nds-romheadertemplate'
p762
NsS'webos-icon'
p763
NsS'psp-dlgprotectdocument'
p764
NsS'android-icon-mdpi'
p765
NsS'nds-icon'
p766
NsS'ws8-custom-manifest-fill'
p767
NsS'iphone-development-cert'
p768
NsS'blackberry-phone-icon'
p769
NsS'iphone-enable-4inch-retina'
p770
NsS'ws8-custom-manifest'
p771
NsS'version-major'
p772
NsS'wp8-genre-isgame'
p773
NsS'uiq3-uid'
p774
NsS'iphone-splash-retina-generate'
p775
NsS'tizen-hw-acceleration'
p776
NsS'iphone_bundle_localisations'
p777
NsS'tizen-dist1-key'
p778
NsS'wp8-custom-manifest'
p779
NsS'nds-bannertitle-ge'
p780
NsS'iphone-sign-for-distribution'
p781
NsS'wp8-tile-fliptemplate-medium-back-image'
p782
NsS'wp8-publisher-id'
p783
NsS'icon'
p784
NsS'wp8-exclude-wxga'
p785
NsS'uiq3-icon2-mask'
p786
NsS'iphone-splashscreen-portrait'
p787
NsS'iphone-icon-high-res'
p788
NsS'ws81-distribution-pfx-password'
p789
NsS'playbook-author'
p790
NsS'android-icon-xhdpi'
p791
NsS'linux-ext-lib'
p792
(lp793
sS'blackberry-permissions-access-internet'
p794
NsS'wp8-exclude-720p'
p795
NsS'lgtv-use-drm'
p796
NsS'symbian-platsecflags'
p797
NsS'ws8-description'
p798
NsS'blackberry-playbook-icon'
p799
NsS'copyright'
p800
NsS'version'
p801
NsS'ws81-logo-image150x150'
p802
NsS'osx-signing-identity-app'
p803
NsS'tizen-project-url'
p804
NsS'symbian-icon-svg'
p805
NsS'android-aliasname'
p806
NsS'psp-dlgmanual'
p807
NsS'brew-uid'
p808
NsS'symbian-locationsupport'
p809
NsS'ws8-ext-managed-dll'
p810
(lp811
sS'nds-bannertitle-it'
p812
NsS'ws8-ext-sdk-manifest-part'
p813
(lp814
sS'uiq3-icon1-mask'
p815
NsS'winmobile-icon16'
p816
NsS'ws8-product-name'
p817
NsS'blackberry-cskpass'
p818
NsS'winmobile-start-menu-folder'
p819
NsS'brew-clsid'
p820
NsS'roku-requires-bluetooth'
p821
NsS'ws8-ext-device-capabilities'
p822
(lp823
sS'blackberry-permissions-use-camera'
p824
NsS'iphone-prerendered-icon'
p825
NsS'iphone-appid'
p826
S'com.yesornogames.countingstarts'
p827
sS'ws8-identity-name'
p828
NsS'tizen-dist2-CA-path'
p829
NsS'winmobile-icon64'
p830
NsS'blackberry-permissions-post-notification'
p831
NsS'winmobile-setup-dll'
p832
NsS'android-external-jars'
p833
(lp834
S'c:/marmalade/7.2/extensions/s3ewebview/lib/android/s3eWebView.jar'
p835
aS'c:/marmalade/7.2/extensions/s3efacebook/lib/android/s3eFacebook.jar'
p836
aS'c:/marmalade/7.2/extensions/s3efacebook/facebook-android-sdk/libs/android-support-v4.jar'
p837
aS'c:/marmalade/7.2/extensions/s3efacebook/lib/android/annotations-4.1.1.4.jar'
p838
aS'c:/marmalade/7.2/extensions/s3eflurry/lib/android/s3eFlurry.jar'
p839
aS'c:/marmalade/7.2/extensions/s3eflurry/lib/android/FlurryAgent.jar'
p840
asS'symbian9-uid'
p841
NsS'iphone-icon-ipad-ios7'
p842
NsS'winmobile-trace-file'
p843
NsS'roku-splash-color'
p844
NsS'psp-appversion'
p845
NsS'ws8-publisher-id'
p846
NsS'android-supports-gl-texture'
p847
(lp848
sS'winmobile-png45'
p849
NsS'android-storepass'
p850
NsS'roku-icon-focus-hd'
p851
NsS'android-custom-activity'
p852
NsS'psp-discversion'
p853
NsS'psp-copyright'
p854
NsS'embed-icf'
p855
NsS'tizen-manifest'
p856
NsS'osx-icon'
p857
NsS'webos-appinfo'
p858
NsS'psp-dlghealthwarning'
p859
NsS'webos-appid'
p860
NsS'roku-icon-side-hd'
p861
NsS'iphone-icon-ipad-search-high-res-ios7'
p862
NsS'ws81-ext-sdk-manifest-part'
p863
(lp864
sS'loader_name_prefix'
p865
NsS'nds-titlename'
p866
NsS'ws81-logo-image50x50'
p867
NsS'osx-entitlements-plist'
p868
NsS'psp-dlgicon0'
p869
NsS'ws81-ext-device-capabilities'
p870
(lp871
sS'psp-discid'
p872
NsS'tizen-dist2-password'
p873
NsS'ws8-ext-sdk-ref'
p874
(lp875
sS'iphone-extra-string'
p876
(lp877
sS'version-string'
p878
NsS'iphone-icon-high-res-ios7'
p879
NsS'blackberry-permissions-record-audio'
p880
NsS'ws8-certificate-end-date'
p881
NsS'tizen-so'
p882
(lp883
sS'wp8-tile-fliptemplate-small-image'
p884
NsS'pkguid-as-uid'
p885
NsS'iphone-signing-identity'
p886
NsS'roku-persist-quota'
p887
NsS'nds-bannertitle-fr'
p888
NsS'ws8-distribution-pfx'
p889
NsS'ws8-publisher-display-name'
p890
NsS'brew-icon-small'
p891
NsS'psp-dlgpic2'
p892
NsS'psp-dlgpic0'
p893
NsS'psp-pic0'
p894
NsS'psp-pic1'
p895
NsS'psp-icon0'
p896
NsS'psp-icon1'
p897
NsS'ws81-identity-name'
p898
NsS'winmobile-icon'
p899
NsS'iphone-no-splash'
p900
NsS'iphone-splash'
p901
NsS'iphone-app-fonts'
p902
NsS'wp8-ext-native-dll'
p903
(lp904
S'c:/marmalade/7.2/extensions/s3ewebview/lib/wp8/s3eWebViewExtension.dll'
p905
aS'c:/marmalade/7.2/extensions/s3efacebook/lib/wp8/s3eFacebookExtension.dll'
p906
aS'c:/marmalade/7.2/extensions/s3eflurry/lib/wp8/s3eFlurryExtension.dll'
p907
asS'ws81-distribution-cer'
p908
NsS'uiq3-icon2'
p909
NsS'uiq3-icon3'
p910
NsS'uiq3-icon1'
p911
NsS'uiq3-icon1-format'
p912
NsS'ws8-logo-image50x50'
p913
NsS'iphone-icon-ipad-search'
p914
NsS'symbian-run-on-install'
p915
NsS'ws81-publisher-display-name'
p916
NsS'ws81-custom-manifest-fill'
p917
NsS'symbian-soundrecordsupport'
p918
NsS'nds-bannertitle-sp'
p919
NsS'psp-producer'
p920
NsS'iphone-apple-wwdr-cert'
p921
NsS'android-icon-nonstandard'
p922
NsS'win32-pref-processtitle'
p923
NsS'nds-bannertitle-hn'
p924
NsS'tizen-dist2-key'
p925
NsS'brew-depends'
p926
NsS'ws81-custom-manifest'
p927
NsS'iphone-icon-ipad-search-ios7'
p928
NsS'brew-icon-medium'
p929
NsS'iphone-bundle-url-name'
p930
S'ADD_YOUR_OWN_APP_ID'
p931
sS'wp8-tile-fliptemplate-large-front-image'
p932
NsS'tizen-dist2-CA-root-path'
p933
NsS'ws81-description'
p934
NsS'uiq3-icon3-format'
p935
NsS'ws81-logo-image30x30'
p936
NsS'iphone-signing-host'
p937
NsS'tizen-icon'
p938
NsS'osx-info-plist'
p939
NsS'symbian-icon1-format'
p940
NsS'ws81-distribution-pfx'
p941
NsS'blackberry-authorid'
p942
NsS'ws81-publisher-id'
p943
NsS'ws81-ext-sdk-ref'
p944
(lp945
sS'wp8-description'
p946
NsS'iphone-link-opts'
p947
(lp948
S'-F$MARMALADE_ROOT/extensions/s3eFacebook/source/iphone/facebook-ios-sdk -framework FacebookSDK -weak_framework AdSupport -weak_framework Accounts -weak_framework Social -lsqlite3'
p949
aS'-framework SystemConfiguration -framework Security'
p950
asS'roku-splash-min-time'
p951
NsS'wp8-tile-fliptemplate-medium-front-image'
p952
NsS'provider'
p953
NsS'playbook-keystore'
p954
NsS'tizen-appid'
p955
NsS'tizen-author-key'
p956
NsS'symbian-osexecsupport'
p957
NsS'android-install-location'
p958
NsS'nds-privatesavedatasize'
p959
NsS'playbook-storepass'
p960
NsS'android-icon-ldpi'
p961
NsS'manufacturer'
p962
NsS'itunes-artwork'
p963
NsS'iphone-extra-sections'
p964
NsS'ws81-product-name'
p965
NsS'ws81-ext-native-dll'
p966
(lp967
sS'iphone-info-plist'
p968
NsS'ws8-distribution-pfx-password'
p969
NsS'ws8-logo-image30x30'
p970
NsS'wp8-ext-managed-dll'
p971
(lp972
S'c:/marmalade/7.2/extensions/s3ewebview/lib/wp8/s3eWebViewManaged.dll'
p973
aS'c:/marmalade/7.2/extensions/s3efacebook/lib/wp8/s3eFacebookManaged.dll'
p974
aS'c:/marmalade/7.2/extensions/s3efacebook/facebook_wp8_lib/Facebook.Client.dll'
p975
aS'c:/marmalade/7.2/extensions/s3efacebook/facebook_wp8_lib/Facebook.dll'
p976
aS'c:/marmalade/7.2/extensions/s3eflurry/lib/wp8/FlurryWP8SDK.dll'
p977
aS'c:/marmalade/7.2/extensions/s3eflurry/lib/wp8/s3eFlurryManaged.dll'
p978
asS'iphone-splashscreen-landscape'
p979
NsS'nds-makercode'
p980
NsS'priv-sign-key'
p981
NsS'networking'
p982
NsS'android-icon'
p983
NsS'iphone-icon-settings'
p984
NsS'iphone-distribution-cert'
p985
NsS'android_extra_strings'
p986
NsS'nds-bannertitle-en'
p987
NsS'playbook-cskpass'
p988
NsS'android-so'
p989
(lp990
S'c:/marmalade/7.2/extensions/s3ewebview/lib/android/libs3eWebView.so'
p991
aS'c:/marmalade/7.2/extensions/s3efacebook/lib/android/libs3eFacebook.so'
p992
aS'c:/marmalade/7.2/extensions/s3eflurry/lib/android/libs3eFlurry.so'
p993
asS'wp8-higher-mem'
p994
NsS'roku-splash-screen-hd'
p995
NsS'iphone-bundle-url-schemes'
p996
S'fd<FACEBOOK_APP_ID>'
p997
sS'roku-screensaver-private'
p998
NsS'osx-extra-res'
p999
(lp1000
sS'playbook-icon'
p1001
NsS'uid'
p1002
NsS'playbook-authorid'
p1003
NsS'win32-pref-windowtitle'
p1004
NsS'tizen-dist1-password'
p1005
NsS'roku-screensaver-title'
p1006
NsS'osx-minimum-osx-version'
p1007
NsS'symbian-cert'
p1008
NsS'iphone-icon'
p1009
NsS'ws81-ext-capabilities'
p1010
(lp1011
sS'ws8-distribution-cer'
p1012
NsS'playbook-access-shared'
p1013
NsS'iphone-icon-ipad-high-res-ios7'
p1014
NsS'iphone-link-libs'
p1015
(lp1016
sS'wp8-exclude-wvga'
p1017
NsS'assets'
p1018
NsS'wp8-tile-fliptemplate-large-back-image'
p1019
NsS'wp8-custom-manifest-fill'
p1020
NsS'pub-sign-key'
p1021
NsS'android-extra-strings'
p1022
NsS'tizen-author-CA-path'
p1023
Nssg325
g596
sbssS'platform'
p1024
S'S3E'
p1025
sg62
S'1.0'
p1026
sS'arcade_platform'
p1027
g4
sS'extensions'
p1028
(dp1029
sS'source_groups_tree'
p1030
(dp1031
S'(libpng)'
p1032
(dp1033
S'h'
p1034
(dp1035
S'c:/marmalade/7.2/modules/third_party/libpng/h/png.h'
p1036
(lp1037
I1
a(dp1038
asS'c:/marmalade/7.2/modules/third_party/libpng/h/pngconf.h'
p1039
(lp1040
I1
ag1038
assS'c:/marmalade/7.2/modules/third_party/libpng/libpng.mkf'
p1041
(lp1042
I1
a(dp1043
assS'(libjpeg)'
p1044
(dp1045
g1034
(dp1046
S'c:/marmalade/7.2/modules/third_party/libjpeg/h/jinclude.h'
p1047
(lp1048
I1
a(dp1049
asS'c:/marmalade/7.2/modules/third_party/libjpeg/h/jconfig.h'
p1050
(lp1051
I1
ag1049
asS'c:/marmalade/7.2/modules/third_party/libjpeg/h/cdjpeg.h'
p1052
(lp1053
I1
ag1049
asS'c:/marmalade/7.2/modules/third_party/libjpeg/h/jpegint.h'
p1054
(lp1055
I1
ag1049
asS'c:/marmalade/7.2/modules/third_party/libjpeg/h/transupp.h'
p1056
(lp1057
I1
ag1049
asS'c:/marmalade/7.2/modules/third_party/libjpeg/h/jpeglib.h'
p1058
(lp1059
I1
ag1049
asS'c:/marmalade/7.2/modules/third_party/libjpeg/h/jversion.h'
p1060
(lp1061
I1
ag1049
asS'c:/marmalade/7.2/modules/third_party/libjpeg/h/jdct.h'
p1062
(lp1063
I1
ag1049
asS'c:/marmalade/7.2/modules/third_party/libjpeg/h/jdhuff.h'
p1064
(lp1065
I1
ag1049
asS'c:/marmalade/7.2/modules/third_party/libjpeg/h/jmemsys.h'
p1066
(lp1067
I1
ag1049
asS'c:/marmalade/7.2/modules/third_party/libjpeg/h/jmorecfg.h'
p1068
(lp1069
I1
ag1049
asS'c:/marmalade/7.2/modules/third_party/libjpeg/h/jerror.h'
p1070
(lp1071
I1
ag1049
asS'c:/marmalade/7.2/modules/third_party/libjpeg/h/jchuff.h'
p1072
(lp1073
I1
ag1049
asS'c:/marmalade/7.2/modules/third_party/libjpeg/h/cderror.h'
p1074
(lp1075
I1
ag1049
assS'c:/marmalade/7.2/modules/third_party/libjpeg/libjpeg.mkf'
p1076
(lp1077
I1
a(dp1078
assS'(tiniconv)'
p1079
(dp1080
S'c:/marmalade/7.2/modules/third_party/tiniconv/source/tiniconv.h'
p1081
(lp1082
I1
a(dp1083
asS'c:/marmalade/7.2/modules/third_party/tiniconv/source/tiniconv_int.h'
p1084
(lp1085
I1
ag1083
asS'c:/marmalade/7.2/modules/third_party/tiniconv/tiniconv.mkf'
p1086
(lp1087
I1
a(dp1088
assS'(SoundEngine)'
p1089
(dp1090
S'c:/users/vinicius/desktop/yes or no/stars/modules/soundengine/source/IwSoundManager.cpp'
p1091
(lp1092
I1
a(dp1093
asS'c:/users/vinicius/desktop/yes or no/stars/modules/soundengine/soundengine.mkf'
p1094
(lp1095
I1
a(dp1096
asS'c:/users/vinicius/desktop/yes or no/stars/modules/soundengine/source/IwSoundInst.cpp'
p1097
(lp1098
I1
ag1093
asS'c:/users/vinicius/desktop/yes or no/stars/modules/soundengine/source/IwSoundADPCM.cpp'
p1099
(lp1100
I1
ag1093
asS'c:/users/vinicius/desktop/yes or no/stars/modules/soundengine/h/IwSoundManager.h'
p1101
(lp1102
I1
ag1093
asS'c:/users/vinicius/desktop/yes or no/stars/modules/soundengine/source/IwSoundParams.cpp'
p1103
(lp1104
I1
ag1093
asS'c:/users/vinicius/desktop/yes or no/stars/modules/soundengine/source/IwSoundData.cpp'
p1105
(lp1106
I1
ag1093
asS'Docs'
p1107
(dp1108
S'c:/users/vinicius/desktop/yes or no/stars/modules/soundengine/docs/iwsound.config.txt'
p1109
(lp1110
I1
ag1093
assS'c:/users/vinicius/desktop/yes or no/stars/modules/soundengine/source/IwResHandlerWAV.cpp'
p1111
(lp1112
I1
ag1093
asS'c:/users/vinicius/desktop/yes or no/stars/modules/soundengine/h/IwSoundInst.h'
p1113
(lp1114
I1
ag1093
asS'c:/users/vinicius/desktop/yes or no/stars/modules/soundengine/h/IwSoundADPCM.h'
p1115
(lp1116
I1
ag1093
asS'c:/users/vinicius/desktop/yes or no/stars/modules/soundengine/source/IwSoundWAV.cpp'
p1117
(lp1118
I1
ag1093
asS'c:/users/vinicius/desktop/yes or no/stars/modules/soundengine/source/IwSoundGroup.cpp'
p1119
(lp1120
I1
ag1093
asS'c:/users/vinicius/desktop/yes or no/stars/modules/soundengine/h/IwSound.h'
p1121
(lp1122
I1
ag1093
asS'c:/users/vinicius/desktop/yes or no/stars/modules/soundengine/h/IwSoundWAV.h'
p1123
(lp1124
I1
ag1093
asS'c:/users/vinicius/desktop/yes or no/stars/modules/soundengine/source/IwSoundPCM.cpp'
p1125
(lp1126
I1
ag1093
asS'c:/users/vinicius/desktop/yes or no/stars/modules/soundengine/h/IwSoundSpec.h'
p1127
(lp1128
I1
ag1093
asS'c:/users/vinicius/desktop/yes or no/stars/modules/soundengine/h/IwSoundPCM.h'
p1129
(lp1130
I1
ag1093
asS'c:/users/vinicius/desktop/yes or no/stars/modules/soundengine/h/IwSoundGroup.h'
p1131
(lp1132
I1
ag1093
asS'c:/users/vinicius/desktop/yes or no/stars/modules/soundengine/h/IwResHandlerWAV.h'
p1133
(lp1134
I1
ag1093
asS'c:/users/vinicius/desktop/yes or no/stars/modules/soundengine/h/IwSoundParams.h'
p1135
(lp1136
I1
ag1093
asS'c:/users/vinicius/desktop/yes or no/stars/modules/soundengine/h/IwSoundData.h'
p1137
(lp1138
I1
ag1093
asS'c:/users/vinicius/desktop/yes or no/stars/modules/soundengine/source/IwSoundSpec.cpp'
p1139
(lp1140
I1
ag1093
assS'Extensions'
p1141
(dp1142
S's3eWebView'
p1143
(dp1144
S'interface'
p1145
(dp1146
S'c:/marmalade/7.2/extensions/s3ewebview/interface/s3eWebView.defines.txt'
p1147
(lp1148
I1
a(dp1149
asS'c:/marmalade/7.2/extensions/s3ewebview/interface/s3eWebView_interface.cpp'
p1150
(lp1151
I1
ag1149
assS'c:/marmalade/7.2/extensions/s3ewebview/h/s3eWebView.h'
p1152
(lp1153
I1
ag1149
asS'c:/marmalade/7.2/extensions/s3ewebview/s3ewebview.mkf'
p1154
(lp1155
I1
a(dp1156
assS's3eFacebook'
p1157
(dp1158
S'interface'
p1159
(dp1160
S'c:/marmalade/7.2/extensions/s3efacebook/interface/s3eFacebook_interface.cpp'
p1161
(lp1162
I1
a(dp1163
asS'c:/marmalade/7.2/extensions/s3efacebook/interface/s3eFacebook.defines.txt'
p1164
(lp1165
I1
ag1163
assg1034
(dp1166
S'c:/marmalade/7.2/extensions/s3efacebook/h/s3eFacebook.h'
p1167
(lp1168
I1
ag1163
assS'c:/marmalade/7.2/extensions/s3efacebook/s3efacebook.mkf'
p1169
(lp1170
I1
a(dp1171
assS's3eFlurry'
p1172
(dp1173
S'interface'
p1174
(dp1175
S'c:/marmalade/7.2/extensions/s3eflurry/interface/s3eFlurry_interface.cpp'
p1176
(lp1177
I1
a(dp1178
asS'c:/marmalade/7.2/extensions/s3eflurry/interface/s3eFlurry.defines.txt'
p1179
(lp1180
I1
ag1178
assS'c:/marmalade/7.2/extensions/s3eflurry/h/s3eFlurry.h'
p1181
(lp1182
I1
ag1178
asS'c:/marmalade/7.2/extensions/s3eflurry/s3eflurry.mkf'
p1183
(lp1184
I1
a(dp1185
asssS'stars'
p1186
(dp1187
S'main'
p1188
(dp1189
S'c:/Users/Vinicius/Desktop/Yes or No/Stars/source/main.h'
p1190
(lp1191
I1
a(dp1192
asS'c:/Users/Vinicius/Desktop/Yes or No/Stars/source/main.cpp'
p1193
(lp1194
I1
ag1192
asS'c:/Users/Vinicius/Desktop/Yes or No/Stars/source/include.h'
p1195
(lp1196
I1
ag1192
assS'managers'
p1197
(dp1198
S'c:/Users/Vinicius/Desktop/Yes or No/Stars/source/timerManager.cpp'
p1199
(lp1200
I1
ag1192
asS'c:/Users/Vinicius/Desktop/Yes or No/Stars/source/spriteManager.cpp'
p1201
(lp1202
I1
ag1192
asS'c:/Users/Vinicius/Desktop/Yes or No/Stars/source/inputManager.h'
p1203
(lp1204
I1
ag1192
asS'c:/Users/Vinicius/Desktop/Yes or No/Stars/source/sceneManager.cpp'
p1205
(lp1206
I1
ag1192
asS'c:/Users/Vinicius/Desktop/Yes or No/Stars/source/savedataManager.h'
p1207
(lp1208
I1
ag1192
asS'c:/Users/Vinicius/Desktop/Yes or No/Stars/source/timerManager.h'
p1209
(lp1210
I1
ag1192
asS'c:/Users/Vinicius/Desktop/Yes or No/Stars/source/sceneManager.h'
p1211
(lp1212
I1
ag1192
asS'c:/Users/Vinicius/Desktop/Yes or No/Stars/source/savedataManager.cpp'
p1213
(lp1214
I1
ag1192
asS'c:/Users/Vinicius/Desktop/Yes or No/Stars/source/audioManager.h'
p1215
(lp1216
I1
ag1192
asS'c:/Users/Vinicius/Desktop/Yes or No/Stars/source/inputManager.cpp'
p1217
(lp1218
I1
ag1192
asS'c:/Users/Vinicius/Desktop/Yes or No/Stars/source/audioManager.cpp'
p1219
(lp1220
I1
ag1192
asS'c:/Users/Vinicius/Desktop/Yes or No/Stars/source/spriteManager.h'
p1221
(lp1222
I1
ag1192
assS'scenes'
p1223
(dp1224
S'c:/Users/Vinicius/Desktop/Yes or No/Stars/source/items.cpp'
p1225
(lp1226
I1
ag1192
asS'c:/Users/Vinicius/Desktop/Yes or No/Stars/source/customize.h'
p1227
(lp1228
I1
ag1192
asS'c:/Users/Vinicius/Desktop/Yes or No/Stars/source/customize.cpp'
p1229
(lp1230
I1
ag1192
asS'c:/Users/Vinicius/Desktop/Yes or No/Stars/source/mainMenu.h'
p1231
(lp1232
I1
ag1192
asS'c:/Users/Vinicius/Desktop/Yes or No/Stars/source/getStars.h'
p1233
(lp1234
I1
ag1192
asS'c:/Users/Vinicius/Desktop/Yes or No/Stars/source/store.h'
p1235
(lp1236
I1
ag1192
asS'c:/Users/Vinicius/Desktop/Yes or No/Stars/source/options.h'
p1237
(lp1238
I1
ag1192
asS'c:/Users/Vinicius/Desktop/Yes or No/Stars/source/getStars.cpp'
p1239
(lp1240
I1
ag1192
asS'c:/Users/Vinicius/Desktop/Yes or No/Stars/source/mainMenu.cpp'
p1241
(lp1242
I1
ag1192
asS'c:/Users/Vinicius/Desktop/Yes or No/Stars/source/items.h'
p1243
(lp1244
I1
ag1192
asS'c:/Users/Vinicius/Desktop/Yes or No/Stars/source/store.cpp'
p1245
(lp1246
I1
ag1192
asS'c:/Users/Vinicius/Desktop/Yes or No/Stars/source/options.cpp'
p1247
(lp1248
I1
ag1192
asS'c:/Users/Vinicius/Desktop/Yes or No/Stars/source/game.h'
p1249
(lp1250
I1
ag1192
asS'c:/Users/Vinicius/Desktop/Yes or No/Stars/source/game.cpp'
p1251
(lp1252
I1
ag1192
asssS"'Marmalade Studio'"
p1253
(dp1254
S'iw2dscenegraph'
p1255
(dp1256
S'c:/marmalade/7.2/modules/iw2dscenegraph/source/Iw2DSceneGraph.cpp'
p1257
(lp1258
I1
a(dp1259
asS'c:/marmalade/7.2/modules/iw2dscenegraph/iw2dscenegraph.mkf'
p1260
(lp1261
I1
a(dp1262
asS'c:/marmalade/7.2/modules/iw2dscenegraph/h/Iw2DSceneGraph.h'
p1263
(lp1264
I1
ag1259
asS'c:/marmalade/7.2/modules/iw2dscenegraph/docs/iw2dscenegraph.defines.txt'
p1265
(lp1266
I1
ag1259
assS'iwgl'
p1267
(dp1268
S'c:/marmalade/7.2/modules/iwgl/h/IwGL.h'
p1269
(lp1270
I1
a(dp1271
asS'c:/marmalade/7.2/modules/iwgl/iwgl.mkf'
p1272
(lp1273
I1
a(dp1274
asS'c:/marmalade/7.2/modules/iwgl/h/IwGLExt.h'
p1275
(lp1276
I1
ag1271
asS'c:/marmalade/7.2/modules/iwgl/docs/iwgl.config.txt'
p1277
(lp1278
I1
ag1271
assS'iw2d'
p1279
(dp1280
S'c:/marmalade/7.2/modules/iw2d/docs/iw2d_public.defines.txt'
p1281
(lp1282
I1
a(dp1283
asS'c:/marmalade/7.2/modules/iw2d/h/Iw2D.h'
p1284
(lp1285
I1
ag1283
asS'c:/marmalade/7.2/modules/iw2d/docs/iw2d.config.txt'
p1286
(lp1287
I1
ag1283
asS'c:/marmalade/7.2/modules/iw2d/iw2d.mkf'
p1288
(lp1289
I1
a(dp1290
assS'iwgxfont'
p1291
(dp1292
S'c:/marmalade/7.2/modules/iwgxfont/h/IwGxFont.h'
p1293
(lp1294
I1
a(dp1295
asS'c:/marmalade/7.2/modules/iwgxfont/h/IwGxFontPreparedData.h'
p1296
(lp1297
I1
ag1295
asS'c:/marmalade/7.2/modules/iwgxfont/h/IwGxFontContainer.h'
p1298
(lp1299
I1
ag1295
asS'c:/marmalade/7.2/modules/iwgxfont/docs/iwgxfont_public.defines.txt'
p1300
(lp1301
I1
ag1295
asS'c:/marmalade/7.2/modules/iwgxfont/h/IwGxFontGlyph.h'
p1302
(lp1303
I1
ag1295
asS'c:/marmalade/7.2/modules/iwgxfont/h/IwGxFontState.h'
p1304
(lp1305
I1
ag1295
asS'c:/marmalade/7.2/modules/iwgxfont/h/IwGxFontTypes.h'
p1306
(lp1307
I1
ag1295
asS'c:/marmalade/7.2/modules/iwgxfont/iwgxfont.mkf'
p1308
(lp1309
I1
a(dp1310
asS'c:/marmalade/7.2/modules/iwgxfont/docs/iwgxfont.config.txt'
p1311
(lp1312
I1
ag1295
assS'iwgeom'
p1313
(dp1314
S'c:/marmalade/7.2/modules/iwgeom/h/IwGeomFPlane.h'
p1315
(lp1316
I1
a(dp1317
asS'c:/marmalade/7.2/modules/iwgeom/h/IwGeomPlane.h'
p1318
(lp1319
I1
ag1317
asS'c:/marmalade/7.2/modules/iwgeom/h/IwGeomMat.h'
p1320
(lp1321
I1
ag1317
asS'c:/marmalade/7.2/modules/iwgeom/h/IwGeomMat2D.h'
p1322
(lp1323
I1
ag1317
asS'c:/marmalade/7.2/modules/iwgeom/h/IwGeomMenu.h'
p1324
(lp1325
I1
ag1317
asS'c:/marmalade/7.2/modules/iwgeom/h/IwGeomSqrt.h'
p1326
(lp1327
I1
ag1317
asS'c:/marmalade/7.2/modules/iwgeom/h/IwGeomFMat2D.h'
p1328
(lp1329
I1
ag1317
asS'c:/marmalade/7.2/modules/iwgeom/h/IwGeomCore.h'
p1330
(lp1331
I1
ag1317
asS'c:/marmalade/7.2/modules/iwgeom/h/IwGeomFVec3.h'
p1332
(lp1333
I1
ag1317
asS'c:/marmalade/7.2/modules/iwgeom/h/IwGeomFVec2.h'
p1334
(lp1335
I1
ag1317
asS'c:/marmalade/7.2/modules/iwgeom/h/IwGeom.h'
p1336
(lp1337
I1
ag1317
asS'c:/marmalade/7.2/modules/iwgeom/h/IwGeomSVec2.h'
p1338
(lp1339
I1
ag1317
asS'c:/marmalade/7.2/modules/iwgeom/h/IwGeomFVec4.h'
p1340
(lp1341
I1
ag1317
asS'c:/marmalade/7.2/modules/iwgeom/h/IwGeomSVec3.h'
p1342
(lp1343
I1
ag1317
asS'c:/marmalade/7.2/modules/iwgeom/h/IwGeomBBox.h'
p1344
(lp1345
I1
ag1317
asS'c:/marmalade/7.2/modules/iwgeom/h/IwGeomVec2.h'
p1346
(lp1347
I1
ag1317
asS'c:/marmalade/7.2/modules/iwgeom/h/IwGeomFMat.h'
p1348
(lp1349
I1
ag1317
asS'c:/marmalade/7.2/modules/iwgeom/h/IwGeomFQuat.h'
p1350
(lp1351
I1
ag1317
asS'c:/marmalade/7.2/modules/iwgeom/h/IwGeomVec3.h'
p1352
(lp1353
I1
ag1317
asS'c:/marmalade/7.2/modules/iwgeom/h/IwGeomSVec4.h'
p1354
(lp1355
I1
ag1317
asS'c:/marmalade/7.2/modules/iwgeom/docs/iwgeom.config.txt'
p1356
(lp1357
I1
ag1317
asS'c:/marmalade/7.2/modules/iwgeom/h/IwGeomFIntersect.h'
p1358
(lp1359
I1
ag1317
asS'c:/marmalade/7.2/modules/iwgeom/iwgeom.mkf'
p1360
(lp1361
I1
a(dp1362
asS'c:/marmalade/7.2/modules/iwgeom/h/IwGeomFSphere.h'
p1363
(lp1364
I1
ag1317
asS'c:/marmalade/7.2/modules/iwgeom/h/IwGeomLegacy.h'
p1365
(lp1366
I1
ag1317
asS'c:/marmalade/7.2/modules/iwgeom/h/IwGeomIntersect.h'
p1367
(lp1368
I1
ag1317
asS'c:/marmalade/7.2/modules/iwgeom/h/IwGeomSQuat.h'
p1369
(lp1370
I1
ag1317
asS'c:/marmalade/7.2/modules/iwgeom/h/IwGeomQuat.h'
p1371
(lp1372
I1
ag1317
asS'c:/marmalade/7.2/modules/iwgeom/h/IwGeomSphere.h'
p1373
(lp1374
I1
ag1317
asS'c:/marmalade/7.2/modules/iwgeom/h/IwGeomVec.h'
p1375
(lp1376
I1
ag1317
asS'c:/marmalade/7.2/modules/iwgeom/h/IwGeomVec4.h'
p1377
(lp1378
I1
ag1317
asS'c:/marmalade/7.2/modules/iwgeom/h/IwGeomFBBox.h'
p1379
(lp1380
I1
ag1317
assS'iwresmanager'
p1381
(dp1382
S'c:/marmalade/7.2/modules/iwresmanager/h/IwResHandlerGROUP.h'
p1383
(lp1384
I1
a(dp1385
asS'c:/marmalade/7.2/modules/iwresmanager/h/IwResHandler.h'
p1386
(lp1387
I1
ag1385
asS'c:/marmalade/7.2/modules/iwresmanager/iwresmanager.mkf'
p1388
(lp1389
I1
a(dp1390
asS'c:/marmalade/7.2/modules/iwresmanager/h/IwResGroup.h'
p1391
(lp1392
I1
ag1385
asS'c:/marmalade/7.2/modules/iwresmanager/h/IwResHandlerImage.h'
p1393
(lp1394
I1
ag1385
asS'c:/marmalade/7.2/modules/iwresmanager/docs/iwresmanager.config.txt'
p1395
(lp1396
I1
ag1385
asS'c:/marmalade/7.2/modules/iwresmanager/h/IwResManagerClass.h'
p1397
(lp1398
I1
ag1385
asS'c:/marmalade/7.2/modules/iwresmanager/h/IwResHandlerITX.h'
p1399
(lp1400
I1
ag1385
asS'c:/marmalade/7.2/modules/iwresmanager/h/IwResSerialise.h'
p1401
(lp1402
I1
ag1385
asS'c:/marmalade/7.2/modules/iwresmanager/h/IwResManager.h'
p1403
(lp1404
I1
ag1385
assS'iwgx'
p1405
(dp1406
S'c:/marmalade/7.2/modules/iwgx/h/IwTPage.h'
p1407
(lp1408
I1
a(dp1409
asS'c:/marmalade/7.2/modules/iwgx/h/IwGxStream.h'
p1410
(lp1411
I1
ag1409
asS'c:/marmalade/7.2/modules/iwgx/h/IwGxTransformSW.h'
p1412
(lp1413
I1
ag1409
asS'c:/marmalade/7.2/modules/iwgx/h/IwMaterial.h'
p1414
(lp1415
I1
ag1409
asS'c:/marmalade/7.2/modules/iwgx/h/IwMatAnim.h'
p1416
(lp1417
I1
ag1409
asS'c:/marmalade/7.2/modules/iwgx/docs/iwgx.config.txt'
p1418
(lp1419
I1
ag1409
asS'c:/marmalade/7.2/modules/iwgx/iwgx.mkf'
p1420
(lp1421
I1
a(dp1422
asS'c:/marmalade/7.2/modules/iwgx/h/IwResHandlerMTL.h'
p1423
(lp1424
I1
ag1409
asS'c:/marmalade/7.2/modules/iwgx/h/IwGxPrint.h'
p1425
(lp1426
I1
ag1409
asS'c:/marmalade/7.2/modules/iwgx/h/IwGxSurface.h'
p1427
(lp1428
I1
ag1409
asS'c:/marmalade/7.2/modules/iwgx/docs/iwgx_public.defines.txt'
p1429
(lp1430
I1
ag1409
asS'c:/marmalade/7.2/modules/iwgx/h/IwClip.h'
p1431
(lp1432
I1
ag1409
asS'c:/marmalade/7.2/modules/iwgx/h/IwGx.h'
p1433
(lp1434
I1
ag1409
asS'c:/marmalade/7.2/modules/iwgx/h/IwGxDebug.h'
p1435
(lp1436
I1
ag1409
asS'c:/marmalade/7.2/modules/iwgx/h/IwDebugPrim.h'
p1437
(lp1438
I1
ag1409
asS'c:/marmalade/7.2/modules/iwgx/h/IwGxMetrics.h'
p1439
(lp1440
I1
ag1409
asS'c:/marmalade/7.2/modules/iwgx/h/IwGxError.h'
p1441
(lp1442
I1
ag1409
asS'c:/marmalade/7.2/modules/iwgx/h/IwClip.inl'
p1443
(lp1444
I1
ag1409
asS'c:/marmalade/7.2/modules/iwgx/h/IwGxFuncTable.h'
p1445
(lp1446
I1
ag1409
asS'c:/marmalade/7.2/modules/iwgx/h/IwTexture.h'
p1447
(lp1448
I1
ag1409
asS'c:/marmalade/7.2/modules/iwgx/h/IwFColour.h'
p1449
(lp1450
I1
ag1409
asS'c:/marmalade/7.2/modules/iwgx/h/IwColour.h'
p1451
(lp1452
I1
ag1409
asS'c:/marmalade/7.2/modules/iwgx/h/IwGxShaderTechnique.h'
p1453
(lp1454
I1
ag1409
asS'c:/marmalade/7.2/modules/iwgx/h/IwGxTypes.h'
p1455
(lp1456
I1
ag1409
asS'c:/marmalade/7.2/modules/iwgx/h/IwGxState.h'
p1457
(lp1458
I1
ag1409
assS'iw2dscenegraphcore'
p1459
(dp1460
S'c:/marmalade/7.2/modules/iw2dscenegraphcore/iw2dscenegraphcore.mkf'
p1461
(lp1462
I1
a(dp1463
asS'c:/marmalade/7.2/modules/iw2dscenegraphcore/h/Iw2DSceneGraphCore.h'
p1464
(lp1465
I1
a(dp1466
asS'c:/marmalade/7.2/modules/iw2dscenegraphcore/source/Iw2DSceneGraphCore.cpp'
p1467
(lp1468
I1
ag1466
assS'iwutil'
p1469
(dp1470
S'c:/marmalade/7.2/modules/iwutil/h/IwCore.h'
p1471
(lp1472
I1
a(dp1473
asS'c:/marmalade/7.2/modules/iwutil/h/IwArray.h'
p1474
(lp1475
I1
ag1473
asS'c:/marmalade/7.2/modules/iwutil/h/IwResource.h'
p1476
(lp1477
I1
ag1473
asS'c:/marmalade/7.2/modules/iwutil/h/IwFibre.h'
p1478
(lp1479
I1
ag1473
asS'c:/marmalade/7.2/modules/iwutil/h/IwBuffer.h'
p1480
(lp1481
I1
ag1473
asS'c:/marmalade/7.2/modules/iwutil/h/IwRandom.h'
p1482
(lp1483
I1
ag1473
asS'c:/marmalade/7.2/modules/iwutil/h/IwManagedList.h'
p1484
(lp1485
I1
ag1473
asS'c:/marmalade/7.2/modules/iwutil/h/IwList.h'
p1486
(lp1487
I1
ag1473
asS'c:/marmalade/7.2/modules/iwutil/h/IwProfileMenu.h'
p1488
(lp1489
I1
ag1473
asS'c:/marmalade/7.2/modules/iwutil/h/IwMemory.h'
p1490
(lp1491
I1
ag1473
asS'c:/marmalade/7.2/modules/iwutil/h/IwMath.h'
p1492
(lp1493
I1
ag1473
asS'c:/marmalade/7.2/modules/iwutil/h/IwDivTable.h'
p1494
(lp1495
I1
ag1473
asS'c:/marmalade/7.2/modules/iwutil/h/IwTextParserITX.h'
p1496
(lp1497
I1
ag1473
asS'c:/marmalade/7.2/modules/iwutil/h/IwMenu.h'
p1498
(lp1499
I1
ag1473
asS'c:/marmalade/7.2/modules/iwutil/h/IwChar.h'
p1500
(lp1501
I1
ag1473
asS'c:/marmalade/7.2/modules/iwutil/h/IwEvent.h'
p1502
(lp1503
I1
ag1473
asS'c:/marmalade/7.2/modules/iwutil/h/IwTextParser.h'
p1504
(lp1505
I1
ag1473
asS'c:/marmalade/7.2/modules/iwutil/h/IwOptimiseSize.h'
p1506
(lp1507
I1
ag1473
asS'c:/marmalade/7.2/modules/iwutil/h/IwSingleton.h'
p1508
(lp1509
I1
ag1473
asS'c:/marmalade/7.2/modules/iwutil/h/IwImage.h'
p1510
(lp1511
I1
ag1473
asS'c:/marmalade/7.2/modules/iwutil/h/IwFile.h'
p1512
(lp1513
I1
ag1473
asS'c:/marmalade/7.2/modules/iwutil/h/IwString.h'
p1514
(lp1515
I1
ag1473
asS'c:/marmalade/7.2/modules/iwutil/h/IwVariableBitField.h'
p1516
(lp1517
I1
ag1473
asS'c:/marmalade/7.2/modules/iwutil/h/IwUncopyable.h'
p1518
(lp1519
I1
ag1473
asS'c:/marmalade/7.2/modules/iwutil/h/IwAllocator.h'
p1520
(lp1521
I1
ag1473
asS'c:/marmalade/7.2/modules/iwutil/h/IwTypes.h'
p1522
(lp1523
I1
ag1473
asS'c:/marmalade/7.2/modules/iwutil/h/IwManaged.h'
p1524
(lp1525
I1
ag1473
asS'c:/marmalade/7.2/modules/iwutil/h/IwRuntime.h'
p1526
(lp1527
I1
ag1473
asS'c:/marmalade/7.2/modules/iwutil/h/IwMemManagerDL.h'
p1528
(lp1529
I1
ag1473
asS'c:/marmalade/7.2/modules/iwutil/h/IwOptimiseThumb.h'
p1530
(lp1531
I1
ag1473
asS'c:/marmalade/7.2/modules/iwutil/h/IwUtil.h'
p1532
(lp1533
I1
ag1473
asS'c:/marmalade/7.2/modules/iwutil/docs/iwutil.config.txt'
p1534
(lp1535
I1
ag1473
asS'c:/marmalade/7.2/modules/iwutil/h/IwClassFactory.h'
p1536
(lp1537
I1
ag1473
asS'c:/marmalade/7.2/modules/iwutil/h/IwUtilInitTerm.h'
p1538
(lp1539
I1
ag1473
asS'c:/marmalade/7.2/modules/iwutil/h/IwAutoFile.h'
p1540
(lp1541
I1
ag1473
asS'c:/marmalade/7.2/modules/iwutil/h/IwUTF8.h'
p1542
(lp1543
I1
ag1473
asS'c:/marmalade/7.2/modules/iwutil/h/IwSerialise.h'
p1544
(lp1545
I1
ag1473
asS'c:/marmalade/7.2/modules/iwutil/h/IwPath.h'
p1546
(lp1547
I1
ag1473
asS'c:/marmalade/7.2/modules/iwutil/h/IwMemBucketHelpers.h'
p1548
(lp1549
I1
ag1473
asS'c:/marmalade/7.2/modules/iwutil/h/IwCopyingPtr.h'
p1550
(lp1551
I1
ag1473
asS'c:/marmalade/7.2/modules/iwutil/h/IwOptimiseARM.h'
p1552
(lp1553
I1
ag1473
asS'c:/marmalade/7.2/modules/iwutil/h/IwMemBucket.h'
p1554
(lp1555
I1
ag1473
asS'c:/marmalade/7.2/modules/iwutil/iwutil.mkf'
p1556
(lp1557
I1
a(dp1558
asS'c:/marmalade/7.2/modules/iwutil/h/IwKeymap.h'
p1559
(lp1560
I1
ag1473
asS'c:/marmalade/7.2/modules/iwutil/h/IwImageHelper.h'
p1561
(lp1562
I1
ag1473
asS'c:/marmalade/7.2/modules/iwutil/h/IwOptimiseSpeed.h'
p1563
(lp1564
I1
ag1473
asS'c:/marmalade/7.2/modules/iwutil/h/IwTextParseable.h'
p1565
(lp1566
I1
ag1473
asS'c:/marmalade/7.2/modules/iwutil/h/IwDebug.h'
p1567
(lp1568
I1
ag1473
asS'c:/marmalade/7.2/modules/iwutil/h/IwDivide.h'
p1569
(lp1570
I1
ag1473
asS'c:/marmalade/7.2/modules/iwutil/h/IwHashString.h'
p1571
(lp1572
I1
ag1473
asssS'(zlib)'
p1573
(dp1574
g1034
(dp1575
S'c:/marmalade/7.2/modules/third_party/zlib/h/zconf.h'
p1576
(lp1577
I1
a(dp1578
asS'c:/marmalade/7.2/modules/third_party/zlib/h/zlib.h'
p1579
(lp1580
I1
ag1578
assS'c:/marmalade/7.2/modules/third_party/zlib/zlib.mkf'
p1581
(lp1582
I1
a(dp1583
assS'(iwtween)'
p1584
(dp1585
S'c:/marmalade/7.2/modules/iwtween/iwtween.mkf'
p1586
(lp1587
I1
a(dp1588
asS'c:/marmalade/7.2/modules/iwtween/source/IwTween.cpp'
p1589
(lp1590
I1
a(dp1591
asS'c:/marmalade/7.2/modules/iwtween/h/IwTween.h'
p1592
(lp1593
I1
ag1591
asssS'files'
p1594
(dp1595
S'IwGxFontPreparedData.h'
p1596
g299
(cmkb_main
File
p1597
g301
Ntp1598
Rp1599
(dp1600
S'flags'
p1601
g1295
sS'group'
p1602
(lp1603
S"'Marmalade Studio'"
p1604
ag1291
asg325
g1296
sbsS'iterator'
p1605
g299
(g1597
g301
Ntp1606
Rp1607
(dp1608
g1601
(dp1609
sg1602
(lp1610
S"'Marmalade System (S3E)'"
p1611
aS'stdc headers'
p1612
aS'c++'
p1613
asg325
S'c:/marmalade/7.2/s3e/h/std/c++/iterator'
p1614
sbsS'IwGL.h'
p1615
g299
(g1597
g301
Ntp1616
Rp1617
(dp1618
g1601
g1271
sg1602
(lp1619
S"'Marmalade Studio'"
p1620
ag1267
asg325
g1269
sbsS's3e.h'
p1621
g299
(g1597
g301
Ntp1622
Rp1623
(dp1624
g1601
g1609
sg1602
(lp1625
g1611
asg325
S'c:/marmalade/7.2/s3e/h/s3e.h'
p1626
sbsS'errno.h'
p1627
g299
(g1597
g301
Ntp1628
Rp1629
(dp1630
g1601
g1609
sg1602
(lp1631
g1611
aS'stdc headers'
p1632
asg325
S'c:/marmalade/7.2/s3e/h/std/errno.h'
p1633
sbsS'IwSingleton.h'
p1634
g299
(g1597
g301
Ntp1635
Rp1636
(dp1637
g1601
g1473
sg1602
(lp1638
S"'Marmalade Studio'"
p1639
ag1469
asg325
g1508
sbsS'spriteManager.cpp'
p1640
g299
(g1597
g301
Ntp1641
Rp1642
(dp1643
g1601
g1192
sg1602
(lp1644
S'stars'
p1645
ag1197
asg325
g1201
sbsS'dlfcn.h'
p1646
g299
(g1597
g301
Ntp1647
Rp1648
(dp1649
g1601
g1609
sg1602
g1631
sg325
S'c:/marmalade/7.2/s3e/h/std/dlfcn.h'
p1650
sbsS'IwSoundWAV.cpp'
p1651
g299
(g1597
g301
Ntp1652
Rp1653
(dp1654
g1601
g1093
sg1602
(lp1655
g1089
asg325
g1117
sbsS'sched.h'
p1656
g299
(g1597
g301
Ntp1657
Rp1658
(dp1659
g1601
g1609
sg1602
g1631
sg325
S'c:/marmalade/7.2/s3e/h/std/sched.h'
p1660
sbsS'customize.cpp'
p1661
g299
(g1597
g301
Ntp1662
Rp1663
(dp1664
g1601
g1192
sg1602
(lp1665
g1186
ag1223
asg325
g1229
sbsS'IwGeomFMat2D.h'
p1666
g299
(g1597
g301
Ntp1667
Rp1668
(dp1669
g1601
g1317
sg1602
(lp1670
S"'Marmalade Studio'"
p1671
ag1313
asg325
g1328
sbsS'cassert'
p1672
g299
(g1597
g301
Ntp1673
Rp1674
(dp1675
g1601
g1609
sg1602
g1610
sg325
S'c:/marmalade/7.2/s3e/h/std/c++/cassert'
p1676
sbsS'grp.h'
p1677
g299
(g1597
g301
Ntp1678
Rp1679
(dp1680
g1601
g1609
sg1602
g1631
sg325
S'c:/marmalade/7.2/s3e/h/std/grp.h'
p1681
sbsS'list'
p1682
g299
(g1597
g301
Ntp1683
Rp1684
(dp1685
g1601
g1609
sg1602
g1610
sg325
S'c:/marmalade/7.2/s3e/h/std/c++/list'
p1686
sbsS'IwSoundSpec.cpp'
p1687
g299
(g1597
g301
Ntp1688
Rp1689
(dp1690
g1601
g1093
sg1602
g1655
sg325
g1139
sbsS'istream'
p1691
g299
(g1597
g301
Ntp1692
Rp1693
(dp1694
g1601
g1609
sg1602
g1610
sg325
S'c:/marmalade/7.2/s3e/h/std/c++/istream'
p1695
sbsS'jpeglib.h'
p1696
g299
(g1597
g301
Ntp1697
Rp1698
(dp1699
g1601
g1049
sg1602
(lp1700
g1044
ag1034
asg325
g1058
sbsS'iw2d_public.defines.txt'
p1701
g299
(g1597
g301
Ntp1702
Rp1703
(dp1704
g1601
g1283
sg1602
(lp1705
S"'Marmalade Studio'"
p1706
ag1279
asg325
g1281
sbsS'iostream.h'
p1707
g299
(g1597
g301
Ntp1708
Rp1709
(dp1710
g1601
g1609
sg1602
g1610
sg325
S'c:/marmalade/7.2/s3e/h/std/c++/iostream.h'
p1711
sbsS'IwSoundADPCM.h'
p1712
g299
(g1597
g301
Ntp1713
Rp1714
(dp1715
g1601
g1093
sg1602
g1655
sg325
g1115
sbsS'string'
p1716
g299
(g1597
g301
Ntp1717
Rp1718
(dp1719
g1601
g1609
sg1602
g1610
sg325
S'c:/marmalade/7.2/s3e/h/std/c++/string'
p1720
sbsS'IwMemory.h'
p1721
g299
(g1597
g301
Ntp1722
Rp1723
(dp1724
g1601
g1473
sg1602
g1638
sg325
g1490
sbsS'IwGeomPlane.h'
p1725
g299
(g1597
g301
Ntp1726
Rp1727
(dp1728
g1601
g1317
sg1602
g1670
sg325
g1318
sbsS'items.h'
p1729
g299
(g1597
g301
Ntp1730
Rp1731
(dp1732
g1601
g1192
sg1602
g1665
sg325
g1243
sbsS'iw2d.config.txt'
p1733
g299
(g1597
g301
Ntp1734
Rp1735
(dp1736
g1601
g1283
sg1602
g1705
sg325
g1286
sbsS'iomanip'
p1737
g299
(g1597
g301
Ntp1738
Rp1739
(dp1740
g1601
g1609
sg1602
g1610
sg325
S'c:/marmalade/7.2/s3e/h/std/c++/iomanip'
p1741
sbsS'iwgeom.mkf'
p1742
g299
(g1597
g301
Ntp1743
Rp1744
(dp1745
g1601
g1362
sg1602
g1670
sg325
g1360
sbsS'IwGxError.h'
p1746
g299
(g1597
g301
Ntp1747
Rp1748
(dp1749
g1601
g1409
sg1602
(lp1750
S"'Marmalade Studio'"
p1751
ag1405
asg325
g1441
sbsS'IwGeom.h'
p1752
g299
(g1597
g301
Ntp1753
Rp1754
(dp1755
g1601
g1317
sg1602
g1670
sg325
g1336
sbsS'IwGeomVec4.h'
p1756
g299
(g1597
g301
Ntp1757
Rp1758
(dp1759
g1601
g1317
sg1602
g1670
sg325
g1377
sbsS'dir.h'
p1760
g299
(g1597
g301
Ntp1761
Rp1762
(dp1763
g1601
g1609
sg1602
(lp1764
g1611
aS'stdc headers'
p1765
aS'sys'
p1766
asg325
S'c:/marmalade/7.2/s3e/h/std/sys/dir.h'
p1767
sbsS'locale.h'
p1768
g299
(g1597
g301
Ntp1769
Rp1770
(dp1771
g1601
g1609
sg1602
g1631
sg325
S'c:/marmalade/7.2/s3e/h/std/locale.h'
p1772
sbsS'vector'
p1773
g299
(g1597
g301
Ntp1774
Rp1775
(dp1776
g1601
g1609
sg1602
g1610
sg325
S'c:/marmalade/7.2/s3e/h/std/c++/vector'
p1777
sbsS'IwManaged.h'
p1778
g299
(g1597
g301
Ntp1779
Rp1780
(dp1781
g1601
g1473
sg1602
g1638
sg325
g1524
sbsS's3eCompass.h'
p1782
g299
(g1597
g301
Ntp1783
Rp1784
(dp1785
g1601
g1609
sg1602
g1625
sg325
S'c:/marmalade/7.2/s3e/h/s3eCompass.h'
p1786
sbsS'cderror.h'
p1787
g299
(g1597
g301
Ntp1788
Rp1789
(dp1790
g1601
g1049
sg1602
g1700
sg325
g1074
sbsS'climits'
p1791
g299
(g1597
g301
Ntp1792
Rp1793
(dp1794
g1601
g1609
sg1602
g1610
sg325
S'c:/marmalade/7.2/s3e/h/std/c++/climits'
p1795
sbsS's3eVibra.h'
p1796
g299
(g1597
g301
Ntp1797
Rp1798
(dp1799
g1601
g1609
sg1602
g1625
sg325
S'c:/marmalade/7.2/s3e/h/s3eVibra.h'
p1800
sbsS'jversion.h'
p1801
g299
(g1597
g301
Ntp1802
Rp1803
(dp1804
g1601
g1049
sg1602
g1700
sg325
g1060
sbsS'fnmatch.h'
p1805
g299
(g1597
g301
Ntp1806
Rp1807
(dp1808
g1601
g1609
sg1602
g1631
sg325
S'c:/marmalade/7.2/s3e/h/std/fnmatch.h'
p1809
sbsS'IwGxState.h'
p1810
g299
(g1597
g301
Ntp1811
Rp1812
(dp1813
g1601
g1409
sg1602
g1750
sg325
g1457
sbsS's3eAudio.h'
p1814
g299
(g1597
g301
Ntp1815
Rp1816
(dp1817
g1601
g1609
sg1602
g1625
sg325
S'c:/marmalade/7.2/s3e/h/s3eAudio.h'
p1818
sbsS'store.h'
p1819
g299
(g1597
g301
Ntp1820
Rp1821
(dp1822
g1601
g1192
sg1602
g1665
sg325
g1235
sbsS's3eSurface.h'
p1823
g299
(g1597
g301
Ntp1824
Rp1825
(dp1826
g1601
g1609
sg1602
g1625
sg325
S'c:/marmalade/7.2/s3e/h/s3eSurface.h'
p1827
sbsS'new'
p1828
g299
(g1597
g301
Ntp1829
Rp1830
(dp1831
g1601
g1609
sg1602
g1610
sg325
S'c:/marmalade/7.2/s3e/h/std/c++/new'
p1832
sbsS's3eWindow.h'
p1833
g299
(g1597
g301
Ntp1834
Rp1835
(dp1836
g1601
g1609
sg1602
(lp1837
g1611
aS'Extensions'
p1838
asg325
S'c:/marmalade/7.2/s3e/h/ext/s3eWindow.h'
p1839
sbsS'IwBuffer.h'
p1840
g299
(g1597
g301
Ntp1841
Rp1842
(dp1843
g1601
g1473
sg1602
g1638
sg325
g1480
sbsS's3eflurry.mkf'
p1844
g299
(g1597
g301
Ntp1845
Rp1846
(dp1847
g1601
g1185
sg1602
(lp1848
g1141
ag1172
asg325
g1183
sbsS'stdio_streambuf'
p1849
g299
(g1597
g301
Ntp1850
Rp1851
(dp1852
g1601
g1609
sg1602
g1610
sg325
S'c:/marmalade/7.2/s3e/h/std/c++/stdio_streambuf'
p1853
sbsS's3eOSExec.h'
p1854
g299
(g1597
g301
Ntp1855
Rp1856
(dp1857
g1601
g1609
sg1602
g1837
sg325
S'c:/marmalade/7.2/s3e/h/ext/s3eOSExec.h'
p1858
sbsS'IwGxTransformSW.h'
p1859
g299
(g1597
g301
Ntp1860
Rp1861
(dp1862
g1601
g1409
sg1602
g1750
sg325
g1412
sbsS'unistd.h'
p1863
g299
(g1597
g301
Ntp1864
Rp1865
(dp1866
g1601
g1609
sg1602
g1631
sg325
S'c:/marmalade/7.2/s3e/h/std/unistd.h'
p1867
sbsS'spriteManager.h'
p1868
g299
(g1597
g301
Ntp1869
Rp1870
(dp1871
g1601
g1192
sg1602
g1644
sg325
g1221
sbsS'iwgxfont.config.txt'
p1872
g299
(g1597
g301
Ntp1873
Rp1874
(dp1875
g1601
g1295
sg1602
g1603
sg325
g1311
sbsS'gl2platform.h'
p1876
g299
(g1597
g301
Ntp1877
Rp1878
(dp1879
g1601
g1609
sg1602
(lp1880
g1611
aS'GL'
p1881
aS'GLES 2.0'
p1882
asg325
S'c:/marmalade/7.2/s3e/h/GLES2/gl2platform.h'
p1883
sbsS'IwResManagerClass.h'
p1884
g299
(g1597
g301
Ntp1885
Rp1886
(dp1887
g1601
g1385
sg1602
(lp1888
g1253
ag1381
asg325
g1397
sbsS'queue'
p1889
g299
(g1597
g301
Ntp1890
Rp1891
(dp1892
g1601
g1609
sg1602
g1610
sg325
S'c:/marmalade/7.2/s3e/h/std/c++/queue'
p1893
sbsS'time_1.h'
p1894
g299
(g1597
g301
Ntp1895
Rp1896
(dp1897
g1601
g1609
sg1602
g1764
sg325
S'c:/marmalade/7.2/s3e/h/std/sys/time.h'
p1898
sbsS'IwSoundPCM.h'
p1899
g299
(g1597
g301
Ntp1900
Rp1901
(dp1902
g1601
g1093
sg1602
g1655
sg325
g1129
sbsS'Iw2D.h'
p1903
g299
(g1597
g301
Ntp1904
Rp1905
(dp1906
g1601
g1283
sg1602
g1705
sg325
g1284
sbsS'IwGeomVec2.h'
p1907
g299
(g1597
g301
Ntp1908
Rp1909
(dp1910
g1601
g1317
sg1602
g1670
sg325
g1346
sbsS'sendfile.h'
p1911
g299
(g1597
g301
Ntp1912
Rp1913
(dp1914
g1601
g1609
sg1602
g1764
sg325
S'c:/marmalade/7.2/s3e/h/std/sys/sendfile.h'
p1915
sbsS'malloc.h'
p1916
g299
(g1597
g301
Ntp1917
Rp1918
(dp1919
g1601
g1609
sg1602
g1631
sg325
S'c:/marmalade/7.2/s3e/h/std/malloc.h'
p1920
sbsS'timerManager.h'
p1921
g299
(g1597
g301
Ntp1922
Rp1923
(dp1924
g1601
g1192
sg1602
g1644
sg325
g1209
sbsS'stdarg.h'
p1925
g299
(g1597
g301
Ntp1926
Rp1927
(dp1928
g1601
g1609
sg1602
g1631
sg325
S'c:/marmalade/7.2/s3e/h/std/stdarg.h'
p1929
sbsS'IwGeomCore.h'
p1930
g299
(g1597
g301
Ntp1931
Rp1932
(dp1933
g1601
g1317
sg1602
g1670
sg325
g1330
sbsS'Iw2DSceneGraph.h'
p1934
g299
(g1597
g301
Ntp1935
Rp1936
(dp1937
g1601
g1259
sg1602
(lp1938
S"'Marmalade Studio'"
p1939
ag1255
asg325
g1263
sbsS'endian.h'
p1940
g299
(g1597
g301
Ntp1941
Rp1942
(dp1943
g1601
g1609
sg1602
g1631
sg325
S'c:/marmalade/7.2/s3e/h/std/endian.h'
p1944
sbsS'glob.h'
p1945
g299
(g1597
g301
Ntp1946
Rp1947
(dp1948
g1601
g1609
sg1602
g1631
sg325
S'c:/marmalade/7.2/s3e/h/std/glob.h'
p1949
sbsS'fstream'
p1950
g299
(g1597
g301
Ntp1951
Rp1952
(dp1953
g1601
g1609
sg1602
g1610
sg325
S'c:/marmalade/7.2/s3e/h/std/c++/fstream'
p1954
sbsS'include.h'
p1955
g299
(g1597
g301
Ntp1956
Rp1957
(dp1958
g1601
g1192
sg1602
(lp1959
S'stars'
p1960
ag1188
asg325
g1195
sbsS'jconfig.h'
p1961
g299
(g1597
g301
Ntp1962
Rp1963
(dp1964
g1601
g1049
sg1602
g1700
sg325
g1050
sbsS'memory'
p1965
g299
(g1597
g301
Ntp1966
Rp1967
(dp1968
g1601
g1609
sg1602
g1610
sg325
S'c:/marmalade/7.2/s3e/h/std/c++/memory'
p1969
sbsS'strstream'
p1970
g299
(g1597
g301
Ntp1971
Rp1972
(dp1973
g1601
g1609
sg1602
g1610
sg325
S'c:/marmalade/7.2/s3e/h/std/c++/strstream'
p1974
sbsS'pthread.h'
p1975
g299
(g1597
g301
Ntp1976
Rp1977
(dp1978
g1601
g1609
sg1602
g1631
sg325
S'c:/marmalade/7.2/s3e/h/std/pthread.h'
p1979
sbsS'egl_1.h'
p1980
g299
(g1597
g301
Ntp1981
Rp1982
(dp1983
g1601
g1609
sg1602
(lp1984
g1611
aS'GL'
p1985
aS'GLES 1.x'
p1986
asg325
S'c:/marmalade/7.2/s3e/h/GLES/egl.h'
p1987
sbsS'IwMemManagerDL.h'
p1988
g299
(g1597
g301
Ntp1989
Rp1990
(dp1991
g1601
g1473
sg1602
g1638
sg325
g1528
sbsS'deque'
p1992
g299
(g1597
g301
Ntp1993
Rp1994
(dp1995
g1601
g1609
sg1602
g1610
sg325
S'c:/marmalade/7.2/s3e/h/std/c++/deque'
p1996
sbsS'IwString.h'
p1997
g299
(g1597
g301
Ntp1998
Rp1999
(dp2000
g1601
g1473
sg1602
g1638
sg325
g1514
sbsS'cwchar'
p2001
g299
(g1597
g301
Ntp2002
Rp2003
(dp2004
g1601
g1609
sg1602
g1610
sg325
S'c:/marmalade/7.2/s3e/h/std/c++/cwchar'
p2005
sbsS'iwutil.mkf'
p2006
g299
(g1597
g301
Ntp2007
Rp2008
(dp2009
g1601
g1558
sg1602
g1638
sg325
g1556
sbsS'csignal'
p2010
g299
(g1597
g301
Ntp2011
Rp2012
(dp2013
g1601
g1609
sg1602
g1610
sg325
S'c:/marmalade/7.2/s3e/h/std/c++/csignal'
p2014
sbsS'float.h'
p2015
g299
(g1597
g301
Ntp2016
Rp2017
(dp2018
g1601
g1609
sg1602
g1631
sg325
S'c:/marmalade/7.2/s3e/h/std/float.h'
p2019
sbsS'pthread_alloc'
p2020
g299
(g1597
g301
Ntp2021
Rp2022
(dp2023
g1601
g1609
sg1602
g1610
sg325
S'c:/marmalade/7.2/s3e/h/std/c++/pthread_alloc'
p2024
sbsS'getopt.h'
p2025
g299
(g1597
g301
Ntp2026
Rp2027
(dp2028
g1601
g1609
sg1602
g1631
sg325
S'c:/marmalade/7.2/s3e/h/std/getopt.h'
p2029
sbsS'IwOptimiseARM.h'
p2030
g299
(g1597
g301
Ntp2031
Rp2032
(dp2033
g1601
g1473
sg1602
g1638
sg325
g1552
sbsS'times.h'
p2034
g299
(g1597
g301
Ntp2035
Rp2036
(dp2037
g1601
g1609
sg1602
g1764
sg325
S'c:/marmalade/7.2/s3e/h/std/sys/times.h'
p2038
sbsS'IwGeomFSphere.h'
p2039
g299
(g1597
g301
Ntp2040
Rp2041
(dp2042
g1601
g1317
sg1602
g1670
sg325
g1363
sbsS'game.h'
p2043
g299
(g1597
g301
Ntp2044
Rp2045
(dp2046
g1601
g1192
sg1602
g1665
sg325
g1249
sbsS'functional'
p2047
g299
(g1597
g301
Ntp2048
Rp2049
(dp2050
g1601
g1609
sg1602
g1610
sg325
S'c:/marmalade/7.2/s3e/h/std/c++/functional'
p2051
sbsS'IwTypes.h'
p2052
g299
(g1597
g301
Ntp2053
Rp2054
(dp2055
g1601
g1473
sg1602
g1638
sg325
g1522
sbsS'IwGxMetrics.h'
p2056
g299
(g1597
g301
Ntp2057
Rp2058
(dp2059
g1601
g1409
sg1602
g1750
sg325
g1439
sbsS's3eCompression.h'
p2060
g299
(g1597
g301
Ntp2061
Rp2062
(dp2063
g1601
g1609
sg1602
g1625
sg325
S'c:/marmalade/7.2/s3e/h/s3eCompression.h'
p2064
sbsS'langinfo.h'
p2065
g299
(g1597
g301
Ntp2066
Rp2067
(dp2068
g1601
g1609
sg1602
g1631
sg325
S'c:/marmalade/7.2/s3e/h/std/langinfo.h'
p2069
sbsS's3edebugHeap.h'
p2070
g299
(g1597
g301
Ntp2071
Rp2072
(dp2073
g1601
g1609
sg1602
g1837
sg325
S'c:/marmalade/7.2/s3e/h/ext/s3edebugHeap.h'
p2074
sbsS'AirplayVersion.h'
p2075
g299
(g1597
g301
Ntp2076
Rp2077
(dp2078
g1601
g1609
sg1602
g1625
sg325
S'c:/marmalade/7.2/s3e/h/AirplayVersion.h'
p2079
sbsS'gl2extimg.h'
p2080
g299
(g1597
g301
Ntp2081
Rp2082
(dp2083
g1601
g1609
sg1602
g1880
sg325
S'c:/marmalade/7.2/s3e/h/GLES2/gl2extimg.h'
p2084
sbsS'app.config.txt'
p2085
g299
(g1597
g301
Ntp2086
Rp2087
(dp2088
g1601
(dp2089
sg1602
g4
sg325
S'c:/Users/Vinicius/Desktop/Yes or No/Stars/data/app.config.txt'
p2090
sbsS'IwGeomSqrt.h'
p2091
g299
(g1597
g301
Ntp2092
Rp2093
(dp2094
g1601
g1317
sg1602
g1670
sg325
g1326
sbsS'tiniconv_int.h'
p2095
g299
(g1597
g301
Ntp2096
Rp2097
(dp2098
g1601
g1083
sg1602
(lp2099
g1079
asg325
g1084
sbsS'syslog.h'
p2100
g299
(g1597
g301
Ntp2101
Rp2102
(dp2103
g1601
g1609
sg1602
g1631
sg325
S'c:/marmalade/7.2/s3e/h/std/syslog.h'
p2104
sbsS'IwGxFontTypes.h'
p2105
g299
(g1597
g301
Ntp2106
Rp2107
(dp2108
g1601
g1295
sg1602
g1603
sg325
g1306
sbsS'IwGeomFIntersect.h'
p2109
g299
(g1597
g301
Ntp2110
Rp2111
(dp2112
g1601
g1317
sg1602
g1670
sg325
g1358
sbsS'hash_map'
p2113
g299
(g1597
g301
Ntp2114
Rp2115
(dp2116
g1601
g1609
sg1602
g1610
sg325
S'c:/marmalade/7.2/s3e/h/std/c++/hash_map'
p2117
sbsS's3e.mkf'
p2118
g299
(g1597
g301
Ntp2119
Rp2120
(dp2121
g1601
(dp2122
sg1602
g1625
sg325
S'c:/marmalade/7.2/s3e/s3e.mkf'
p2123
sbsS's3eOSReadString.h'
p2124
g299
(g1597
g301
Ntp2125
Rp2126
(dp2127
g1601
g1609
sg1602
g1837
sg325
S'c:/marmalade/7.2/s3e/h/ext/s3eOSReadString.h'
p2128
sbsS'IwSound.h'
p2129
g299
(g1597
g301
Ntp2130
Rp2131
(dp2132
g1601
g1093
sg1602
g1655
sg325
g1121
sbsS'map'
p2133
g299
(g1597
g301
Ntp2134
Rp2135
(dp2136
g1601
g1609
sg1602
g1610
sg325
S'c:/marmalade/7.2/s3e/h/std/c++/map'
p2137
sbsS'iwtween.mkf'
p2138
g299
(g1597
g301
Ntp2139
Rp2140
(dp2141
g1601
g1588
sg1602
(lp2142
g1584
asg325
g1586
sbsS'IwOptimiseSpeed.h'
p2143
g299
(g1597
g301
Ntp2144
Rp2145
(dp2146
g1601
g1473
sg1602
g1638
sg325
g1563
sbsS'inputManager.h'
p2147
g299
(g1597
g301
Ntp2148
Rp2149
(dp2150
g1601
g1192
sg1602
g1644
sg325
g1203
sbsS'ostream'
p2151
g299
(g1597
g301
Ntp2152
Rp2153
(dp2154
g1601
g1609
sg1602
g1610
sg325
S'c:/marmalade/7.2/s3e/h/std/c++/ostream'
p2155
sbsS'msl_string.h'
p2156
g299
(g1597
g301
Ntp2157
Rp2158
(dp2159
g1601
g1609
sg1602
g1610
sg325
S'c:/marmalade/7.2/s3e/h/std/c++/msl_string.h'
p2160
sbsS'select.h'
p2161
g299
(g1597
g301
Ntp2162
Rp2163
(dp2164
g1601
g1609
sg1602
g1764
sg325
S'c:/marmalade/7.2/s3e/h/std/sys/select.h'
p2165
sbsS'zlib.mkf'
p2166
g299
(g1597
g301
Ntp2167
Rp2168
(dp2169
g1601
g1583
sg1602
(lp2170
g1573
asg325
g1581
sbsS'signal.h'
p2171
g299
(g1597
g301
Ntp2172
Rp2173
(dp2174
g1601
g1609
sg1602
g1631
sg325
S'c:/marmalade/7.2/s3e/h/std/signal.h'
p2175
sbsS'sigcontext.h'
p2176
g299
(g1597
g301
Ntp2177
Rp2178
(dp2179
g1601
g1609
sg1602
g1631
sg325
S'c:/marmalade/7.2/s3e/h/std/sigcontext.h'
p2180
sbsS'libpng.mkf'
p2181
g299
(g1597
g301
Ntp2182
Rp2183
(dp2184
g1601
g1043
sg1602
(lp2185
g1032
asg325
g1041
sbsS's3eClipboard.h'
p2186
g299
(g1597
g301
Ntp2187
Rp2188
(dp2189
g1601
g1609
sg1602
g1625
sg325
S'c:/marmalade/7.2/s3e/h/s3eClipboard.h'
p2190
sbsS'IwGxFuncTable.h'
p2191
g299
(g1597
g301
Ntp2192
Rp2193
(dp2194
g1601
g1409
sg1602
g1750
sg325
g1445
sbsS'IwResHandlerGROUP.h'
p2195
g299
(g1597
g301
Ntp2196
Rp2197
(dp2198
g1601
g1385
sg1602
g1888
sg325
g1383
sbsS's3eDebug.h'
p2199
g299
(g1597
g301
Ntp2200
Rp2201
(dp2202
g1601
g1609
sg1602
g1625
sg325
S'c:/marmalade/7.2/s3e/h/s3eDebug.h'
p2203
sbsS'socket.h'
p2204
g299
(g1597
g301
Ntp2205
Rp2206
(dp2207
g1601
g1609
sg1602
g1764
sg325
S'c:/marmalade/7.2/s3e/h/std/sys/socket.h'
p2208
sbsS'glext.h'
p2209
g299
(g1597
g301
Ntp2210
Rp2211
(dp2212
g1601
g1609
sg1602
g1984
sg325
S'c:/marmalade/7.2/s3e/h/GLES/glext.h'
p2213
sbsS'typeinfo.h'
p2214
g299
(g1597
g301
Ntp2215
Rp2216
(dp2217
g1601
g1609
sg1602
g1610
sg325
S'c:/marmalade/7.2/s3e/h/std/c++/typeinfo.h'
p2218
sbsS'typeinfo'
p2219
g299
(g1597
g301
Ntp2220
Rp2221
(dp2222
g1601
g1609
sg1602
g1610
sg325
S'c:/marmalade/7.2/s3e/h/std/c++/typeinfo'
p2223
sbsS'iwsound.config.txt'
p2224
g299
(g1597
g301
Ntp2225
Rp2226
(dp2227
g1601
g1093
sg1602
(lp2228
g1089
ag1107
asg325
g1109
sbsS'fstream.h'
p2229
g299
(g1597
g301
Ntp2230
Rp2231
(dp2232
g1601
g1609
sg1602
g1610
sg325
S'c:/marmalade/7.2/s3e/h/std/c++/fstream.h'
p2233
sbsS'IwGeomMat.h'
p2234
g299
(g1597
g301
Ntp2235
Rp2236
(dp2237
g1601
g1317
sg1602
g1670
sg325
g1320
sbsS's3ePointer.h'
p2238
g299
(g1597
g301
Ntp2239
Rp2240
(dp2241
g1601
g1609
sg1602
g1625
sg325
S'c:/marmalade/7.2/s3e/h/s3ePointer.h'
p2242
sbsS'IwMemBucket.h'
p2243
g299
(g1597
g301
Ntp2244
Rp2245
(dp2246
g1601
g1473
sg1602
g1638
sg325
g1554
sbsS'options.cpp'
p2247
g299
(g1597
g301
Ntp2248
Rp2249
(dp2250
g1601
g1192
sg1602
g1665
sg325
g1247
sbsS's3eGL.h'
p2251
g299
(g1597
g301
Ntp2252
Rp2253
(dp2254
g1601
g1609
sg1602
g1625
sg325
S'c:/marmalade/7.2/s3e/h/s3eGL.h'
p2255
sbsS'IwGeomFVec2.h'
p2256
g299
(g1597
g301
Ntp2257
Rp2258
(dp2259
g1601
g1317
sg1602
g1670
sg325
g1334
sbsS'IwGeomSVec4.h'
p2260
g299
(g1597
g301
Ntp2261
Rp2262
(dp2263
g1601
g1317
sg1602
g1670
sg325
g1354
sbsS'poll.h'
p2264
g299
(g1597
g301
Ntp2265
Rp2266
(dp2267
g1601
g1609
sg1602
g1631
sg325
S'c:/marmalade/7.2/s3e/h/std/poll.h'
p2268
sbsS'IwMatAnim.h'
p2269
g299
(g1597
g301
Ntp2270
Rp2271
(dp2272
g1601
g1409
sg1602
g1750
sg325
g1416
sbsS'IwGeomFVec4.h'
p2273
g299
(g1597
g301
Ntp2274
Rp2275
(dp2276
g1601
g1317
sg1602
g1670
sg325
g1340
sbsS'IwGx.h'
p2277
g299
(g1597
g301
Ntp2278
Rp2279
(dp2280
g1601
g1409
sg1602
g1750
sg325
g1433
sbsS'valarray'
p2281
g299
(g1597
g301
Ntp2282
Rp2283
(dp2284
g1601
g1609
sg1602
g1610
sg325
S'c:/marmalade/7.2/s3e/h/std/c++/valarray'
p2285
sbsS'iosfwd'
p2286
g299
(g1597
g301
Ntp2287
Rp2288
(dp2289
g1601
g1609
sg1602
g1610
sg325
S'c:/marmalade/7.2/s3e/h/std/c++/iosfwd'
p2290
sbsS'gl2.h'
p2291
g299
(g1597
g301
Ntp2292
Rp2293
(dp2294
g1601
g1609
sg1602
g1880
sg325
S'c:/marmalade/7.2/s3e/h/GLES2/gl2.h'
p2295
sbsS'jpegint.h'
p2296
g299
(g1597
g301
Ntp2297
Rp2298
(dp2299
g1601
g1049
sg1602
g1700
sg325
g1054
sbsS'stdiostream.h'
p2300
g299
(g1597
g301
Ntp2301
Rp2302
(dp2303
g1601
g1609
sg1602
g1610
sg325
S'c:/marmalade/7.2/s3e/h/std/c++/stdiostream.h'
p2304
sbsS'mem.h'
p2305
g299
(g1597
g301
Ntp2306
Rp2307
(dp2308
g1601
g1609
sg1602
g1610
sg325
S'c:/marmalade/7.2/s3e/h/std/c++/mem.h'
p2309
sbsS'main.cpp'
p2310
g299
(g1597
g301
Ntp2311
Rp2312
(dp2313
g1601
g1192
sg1602
g1959
sg325
g1193
sbsS'zconf.h'
p2314
g299
(g1597
g301
Ntp2315
Rp2316
(dp2317
g1601
g1578
sg1602
(lp2318
g1573
ag1034
asg325
g1576
sbsS's3e.config.txt'
p2319
g299
(g1597
g301
Ntp2320
Rp2321
(dp2322
g1601
g1609
sg1602
g1625
sg325
S'c:/marmalade/7.2/s3e/s3e.config.txt'
p2323
sbsS'numeric'
p2324
g299
(g1597
g301
Ntp2325
Rp2326
(dp2327
g1601
g1609
sg1602
g1610
sg325
S'c:/marmalade/7.2/s3e/h/std/c++/numeric'
p2328
sbsS'utime.h'
p2329
g299
(g1597
g301
Ntp2330
Rp2331
(dp2332
g1601
g1609
sg1602
g1631
sg325
S'c:/marmalade/7.2/s3e/h/std/utime.h'
p2333
sbsS'jdhuff.h'
p2334
g299
(g1597
g301
Ntp2335
Rp2336
(dp2337
g1601
g1049
sg1602
g1700
sg325
g1064
sbsS'IwResHandlerWAV.cpp'
p2338
g299
(g1597
g301
Ntp2339
Rp2340
(dp2341
g1601
g1093
sg1602
g1655
sg325
g1111
sbsS'IwGxStream.h'
p2342
g299
(g1597
g301
Ntp2343
Rp2344
(dp2345
g1601
g1409
sg1602
g1750
sg325
g1410
sbsS'IwImage.h'
p2346
g299
(g1597
g301
Ntp2347
Rp2348
(dp2349
g1601
g1473
sg1602
g1638
sg325
g1510
sbsS's3eImagePicker.h'
p2350
g299
(g1597
g301
Ntp2351
Rp2352
(dp2353
g1601
g1609
sg1602
g1837
sg325
S'c:/marmalade/7.2/s3e/h/ext/s3eImagePicker.h'
p2354
sbsS's3eWebView.defines.txt'
p2355
g299
(g1597
g301
Ntp2356
Rp2357
(dp2358
g1601
g1149
sg1602
(lp2359
S'Extensions'
p2360
ag1143
ag1145
asg325
g1147
sbsS'stdlib.h'
p2361
g299
(g1597
g301
Ntp2362
Rp2363
(dp2364
g1601
g1609
sg1602
g1631
sg325
S'c:/marmalade/7.2/s3e/h/std/stdlib.h'
p2365
sbsS'IwCopyingPtr.h'
p2366
g299
(g1597
g301
Ntp2367
Rp2368
(dp2369
g1601
g1473
sg1602
g1638
sg325
g1550
sbsS'iostream'
p2370
g299
(g1597
g301
Ntp2371
Rp2372
(dp2373
g1601
g1609
sg1602
g1610
sg325
S'c:/marmalade/7.2/s3e/h/std/c++/iostream'
p2374
sbsS'png.h'
p2375
g299
(g1597
g301
Ntp2376
Rp2377
(dp2378
g1601
g1038
sg1602
(lp2379
g1032
ag1034
asg325
g1036
sbsS'stddef.h'
p2380
g299
(g1597
g301
Ntp2381
Rp2382
(dp2383
g1601
g1609
sg1602
g1631
sg325
S'c:/marmalade/7.2/s3e/h/std/stddef.h'
p2384
sbsS'setjmp_win32.h'
p2385
g299
(g1597
g301
Ntp2386
Rp2387
(dp2388
g1601
g1609
sg1602
g1631
sg325
S'c:/marmalade/7.2/s3e/h/std/setjmp_win32.h'
p2389
sbsS'IwGxPrint.h'
p2390
g299
(g1597
g301
Ntp2391
Rp2392
(dp2393
g1601
g1409
sg1602
g1750
sg325
g1425
sbsS'iwgx_public.defines.txt'
p2394
g299
(g1597
g301
Ntp2395
Rp2396
(dp2397
g1601
g1409
sg1602
g1750
sg325
g1429
sbsS'streambuf.h'
p2398
g299
(g1597
g301
Ntp2399
Rp2400
(dp2401
g1601
g1609
sg1602
g1610
sg325
S'c:/marmalade/7.2/s3e/h/std/c++/streambuf.h'
p2402
sbsS'IwGeomFPlane.h'
p2403
g299
(g1597
g301
Ntp2404
Rp2405
(dp2406
g1601
g1317
sg1602
g1670
sg325
g1315
sbsS'un.h'
p2407
g299
(g1597
g301
Ntp2408
Rp2409
(dp2410
g1601
g1609
sg1602
g1764
sg325
S'c:/marmalade/7.2/s3e/h/std/sys/un.h'
p2411
sbsS'wchar.h'
p2412
g299
(g1597
g301
Ntp2413
Rp2414
(dp2415
g1601
g1609
sg1602
g1631
sg325
S'c:/marmalade/7.2/s3e/h/std/wchar.h'
p2416
sbsS's3eCameraCapture.h'
p2417
g299
(g1597
g301
Ntp2418
Rp2419
(dp2420
g1601
g1609
sg1602
g1837
sg325
S'c:/marmalade/7.2/s3e/h/ext/s3eCameraCapture.h'
p2421
sbsS'eglext.h'
p2422
g299
(g1597
g301
Ntp2423
Rp2424
(dp2425
g1601
g1609
sg1602
(lp2426
g1611
aS'GL'
p2427
aS'EGL'
p2428
asg325
S'c:/marmalade/7.2/s3e/h/EGL/eglext.h'
p2429
sbsS'IwResHandlerImage.h'
p2430
g299
(g1597
g301
Ntp2431
Rp2432
(dp2433
g1601
g1385
sg1602
g1888
sg325
g1393
sbsS'strstream.h'
p2434
g299
(g1597
g301
Ntp2435
Rp2436
(dp2437
g1601
g1609
sg1602
g1610
sg325
S'c:/marmalade/7.2/s3e/h/std/c++/strstream.h'
p2438
sbsS'tiniconv.h'
p2439
g299
(g1597
g301
Ntp2440
Rp2441
(dp2442
g1601
g1083
sg1602
g2099
sg325
g1081
sbsS'IwGLExt.h'
p2443
g299
(g1597
g301
Ntp2444
Rp2445
(dp2446
g1601
g1271
sg1602
g1619
sg325
g1275
sbsS'app.icf'
p2447
g299
(g1597
g301
Ntp2448
Rp2449
(dp2450
g1601
(dp2451
sg1602
g4
sg325
S'c:/Users/Vinicius/Desktop/Yes or No/Stars/data/app.icf'
p2452
sbsS'IwClassFactory.h'
p2453
g299
(g1597
g301
Ntp2454
Rp2455
(dp2456
g1601
g1473
sg1602
g1638
sg325
g1536
sbsS'file.h'
p2457
g299
(g1597
g301
Ntp2458
Rp2459
(dp2460
g1601
g1609
sg1602
g1764
sg325
S'c:/marmalade/7.2/s3e/h/std/sys/file.h'
p2461
sbsS'cstring'
p2462
g299
(g1597
g301
Ntp2463
Rp2464
(dp2465
g1601
g1609
sg1602
g1610
sg325
S'c:/marmalade/7.2/s3e/h/std/c++/cstring'
p2466
sbsS'IwSoundInst.cpp'
p2467
g299
(g1597
g301
Ntp2468
Rp2469
(dp2470
g1601
g1093
sg1602
g1655
sg325
g1097
sbsS'iwutil.config.txt'
p2471
g299
(g1597
g301
Ntp2472
Rp2473
(dp2474
g1601
g1473
sg1602
g1638
sg325
g1534
sbsS's3eSMS.h'
p2475
g299
(g1597
g301
Ntp2476
Rp2477
(dp2478
g1601
g1609
sg1602
g1837
sg325
S'c:/marmalade/7.2/s3e/h/ext/s3eSMS.h'
p2479
sbsS'limits.h'
p2480
g299
(g1597
g301
Ntp2481
Rp2482
(dp2483
g1601
g1609
sg1602
g1631
sg325
S'c:/marmalade/7.2/s3e/h/std/limits.h'
p2484
sbsS's3eLibrary.h'
p2485
g299
(g1597
g301
Ntp2486
Rp2487
(dp2488
g1601
g1609
sg1602
g1837
sg325
S'c:/marmalade/7.2/s3e/h/ext/s3eLibrary.h'
p2489
sbsS'savedataManager.cpp'
p2490
g299
(g1597
g301
Ntp2491
Rp2492
(dp2493
g1601
g1192
sg1602
g1644
sg325
g1213
sbsS'IwMaterial.h'
p2494
g299
(g1597
g301
Ntp2495
Rp2496
(dp2497
g1601
g1409
sg1602
g1750
sg325
g1414
sbsS's3eFlurry.defines.txt'
p2498
g299
(g1597
g301
Ntp2499
Rp2500
(dp2501
g1601
g1178
sg1602
(lp2502
g1141
ag1172
ag1174
asg325
g1179
sbsS'IwGxSurface.h'
p2503
g299
(g1597
g301
Ntp2504
Rp2505
(dp2506
g1601
g1409
sg1602
g1750
sg325
g1427
sbsS's3eSocket.h'
p2507
g299
(g1597
g301
Ntp2508
Rp2509
(dp2510
g1601
g1609
sg1602
g1625
sg325
S'c:/marmalade/7.2/s3e/h/s3eSocket.h'
p2511
sbsS'IwAutoFile.h'
p2512
g299
(g1597
g301
Ntp2513
Rp2514
(dp2515
g1601
g1473
sg1602
g1638
sg325
g1540
sbsS'ipc.h'
p2516
g299
(g1597
g301
Ntp2517
Rp2518
(dp2519
g1601
g1609
sg1602
g1764
sg325
S'c:/marmalade/7.2/s3e/h/std/sys/ipc.h'
p2520
sbsS'poll_1.h'
p2521
g299
(g1597
g301
Ntp2522
Rp2523
(dp2524
g1601
g1609
sg1602
g1764
sg325
S'c:/marmalade/7.2/s3e/h/std/sys/poll.h'
p2525
sbsS's3eThread.h'
p2526
g299
(g1597
g301
Ntp2527
Rp2528
(dp2529
g1601
g1609
sg1602
g1625
sg325
S'c:/marmalade/7.2/s3e/h/s3eThread.h'
p2530
sbsS'ucontext.h'
p2531
g299
(g1597
g301
Ntp2532
Rp2533
(dp2534
g1601
g1609
sg1602
g1631
sg325
S'c:/marmalade/7.2/s3e/h/std/ucontext.h'
p2535
sbsS'time.h'
p2536
g299
(g1597
g301
Ntp2537
Rp2538
(dp2539
g1601
g1609
sg1602
g1631
sg325
S'c:/marmalade/7.2/s3e/h/std/time.h'
p2540
sbsS'jchuff.h'
p2541
g299
(g1597
g301
Ntp2542
Rp2543
(dp2544
g1601
g1049
sg1602
g1700
sg325
g1072
sbsS'IwSoundPCM.cpp'
p2545
g299
(g1597
g301
Ntp2546
Rp2547
(dp2548
g1601
g1093
sg1602
g1655
sg325
g1125
sbsS's3eSoundRecord.h'
p2549
g299
(g1597
g301
Ntp2550
Rp2551
(dp2552
g1601
g1609
sg1602
g1625
sg325
S'c:/marmalade/7.2/s3e/h/s3eSoundRecord.h'
p2553
sbsS'IwFibre.h'
p2554
g299
(g1597
g301
Ntp2555
Rp2556
(dp2557
g1601
g1473
sg1602
g1638
sg325
g1478
sbsS's3eVersion.h'
p2558
g299
(g1597
g301
Ntp2559
Rp2560
(dp2561
g1601
g1609
sg1602
g1625
sg325
S'c:/marmalade/7.2/s3e/h/s3eVersion.h'
p2562
sbsS'IwSoundGroup.h'
p2563
g299
(g1597
g301
Ntp2564
Rp2565
(dp2566
g1601
g1093
sg1602
g1655
sg325
g1131
sbsS'IwSoundWAV.h'
p2567
g299
(g1597
g301
Ntp2568
Rp2569
(dp2570
g1601
g1093
sg1602
g1655
sg325
g1123
sbsS'IwGxFontGlyph.h'
p2571
g299
(g1597
g301
Ntp2572
Rp2573
(dp2574
g1601
g1295
sg1602
g1603
sg325
g1302
sbsS's3eTypes.h'
p2575
g299
(g1597
g301
Ntp2576
Rp2577
(dp2578
g1601
g1609
sg1602
g1625
sg325
S'c:/marmalade/7.2/s3e/h/s3eTypes.h'
p2579
sbsS'IwSoundSpec.h'
p2580
g299
(g1597
g301
Ntp2581
Rp2582
(dp2583
g1601
g1093
sg1602
g1655
sg325
g1127
sbsS'signal_2.h'
p2584
g299
(g1597
g301
Ntp2585
Rp2586
(dp2587
g1601
g1609
sg1602
g1610
sg325
S'c:/marmalade/7.2/s3e/h/std/c++/signal.h'
p2588
sbsS'termios.h'
p2589
g299
(g1597
g301
Ntp2590
Rp2591
(dp2592
g1601
g1609
sg1602
g1631
sg325
S'c:/marmalade/7.2/s3e/h/std/termios.h'
p2593
sbsS'iw2dscenegraph.mkf'
p2594
g299
(g1597
g301
Ntp2595
Rp2596
(dp2597
g1601
g1262
sg1602
g1938
sg325
g1260
sbsS'slist'
p2598
g299
(g1597
g301
Ntp2599
Rp2600
(dp2601
g1601
g1609
sg1602
g1610
sg325
S'c:/marmalade/7.2/s3e/h/std/c++/slist'
p2602
sbsS'cstdlib'
p2603
g299
(g1597
g301
Ntp2604
Rp2605
(dp2606
g1601
g1609
sg1602
g1610
sg325
S'c:/marmalade/7.2/s3e/h/std/c++/cstdlib'
p2607
sbsS's3eLocation.h'
p2608
g299
(g1597
g301
Ntp2609
Rp2610
(dp2611
g1601
g1609
sg1602
g1625
sg325
S'c:/marmalade/7.2/s3e/h/s3eLocation.h'
p2612
sbsS'IwMemBucketHelpers.h'
p2613
g299
(g1597
g301
Ntp2614
Rp2615
(dp2616
g1601
g1473
sg1602
g1638
sg325
g1548
sbsS's3eHash.h'
p2617
g299
(g1597
g301
Ntp2618
Rp2619
(dp2620
g1601
g1609
sg1602
g1625
sg325
S'c:/marmalade/7.2/s3e/h/s3eHash.h'
p2621
sbsS'IwSoundGroup.cpp'
p2622
g299
(g1597
g301
Ntp2623
Rp2624
(dp2625
g1601
g1093
sg1602
g1655
sg325
g1119
sbsS'IwGeomFMat.h'
p2626
g299
(g1597
g301
Ntp2627
Rp2628
(dp2629
g1601
g1317
sg1602
g1670
sg325
g1348
sbsS'type_traits.h'
p2630
g299
(g1597
g301
Ntp2631
Rp2632
(dp2633
g1601
g1609
sg1602
g1610
sg325
S'c:/marmalade/7.2/s3e/h/std/c++/type_traits.h'
p2634
sbsS'IwMenu.h'
p2635
g299
(g1597
g301
Ntp2636
Rp2637
(dp2638
g1601
g1473
sg1602
g1638
sg325
g1498
sbsS'IwResHandlerITX.h'
p2639
g299
(g1597
g301
Ntp2640
Rp2641
(dp2642
g1601
g1385
sg1602
g1888
sg325
g1399
sbsS'IwSoundData.h'
p2643
g299
(g1597
g301
Ntp2644
Rp2645
(dp2646
g1601
g1093
sg1602
g1655
sg325
g1137
sbsS'IwArray.h'
p2647
g299
(g1597
g301
Ntp2648
Rp2649
(dp2650
g1601
g1473
sg1602
g1638
sg325
g1474
sbsS'IwUTF8.h'
p2651
g299
(g1597
g301
Ntp2652
Rp2653
(dp2654
g1601
g1473
sg1602
g1638
sg325
g1542
sbsS'math_rvct.h'
p2655
g299
(g1597
g301
Ntp2656
Rp2657
(dp2658
g1601
g1609
sg1602
g1631
sg325
S'c:/marmalade/7.2/s3e/h/std/math_rvct.h'
p2659
sbsS'IwUtil.h'
p2660
g299
(g1597
g301
Ntp2661
Rp2662
(dp2663
g1601
g1473
sg1602
g1638
sg325
g1532
sbsS'IwFColour.h'
p2664
g299
(g1597
g301
Ntp2665
Rp2666
(dp2667
g1601
g1409
sg1602
g1750
sg325
g1449
sbsS'wctype.h'
p2668
g299
(g1597
g301
Ntp2669
Rp2670
(dp2671
g1601
g1609
sg1602
g1631
sg325
S'c:/marmalade/7.2/s3e/h/std/wctype.h'
p2672
sbsS'mainMenu.h'
p2673
g299
(g1597
g301
Ntp2674
Rp2675
(dp2676
g1601
g1192
sg1602
g1665
sg325
g1231
sbsS'cstddef'
p2677
g299
(g1597
g301
Ntp2678
Rp2679
(dp2680
g1601
g1609
sg1602
g1610
sg325
S'c:/marmalade/7.2/s3e/h/std/c++/cstddef'
p2681
sbsS'assert.h'
p2682
g299
(g1597
g301
Ntp2683
Rp2684
(dp2685
g1601
g1609
sg1602
g1631
sg325
S'c:/marmalade/7.2/s3e/h/std/assert.h'
p2686
sbsS'mman.h'
p2687
g299
(g1597
g301
Ntp2688
Rp2689
(dp2690
g1601
g1609
sg1602
g1764
sg325
S'c:/marmalade/7.2/s3e/h/std/sys/mman.h'
p2691
sbsS'IwRandom.h'
p2692
g299
(g1597
g301
Ntp2693
Rp2694
(dp2695
g1601
g1473
sg1602
g1638
sg325
g1482
sbsS'libgen.h'
p2696
g299
(g1597
g301
Ntp2697
Rp2698
(dp2699
g1601
g1609
sg1602
g1631
sg325
S'c:/marmalade/7.2/s3e/h/std/libgen.h'
p2700
sbsS'utsname.h'
p2701
g299
(g1597
g301
Ntp2702
Rp2703
(dp2704
g1601
g1609
sg1602
g1764
sg325
S'c:/marmalade/7.2/s3e/h/std/sys/utsname.h'
p2705
sbsS'wait.h'
p2706
g299
(g1597
g301
Ntp2707
Rp2708
(dp2709
g1601
g1609
sg1602
g1764
sg325
S'c:/marmalade/7.2/s3e/h/std/sys/wait.h'
p2710
sbsS'param.h'
p2711
g299
(g1597
g301
Ntp2712
Rp2713
(dp2714
g1601
g1609
sg1602
g1764
sg325
S'c:/marmalade/7.2/s3e/h/std/sys/param.h'
p2715
sbsS'IwDivide.h'
p2716
g299
(g1597
g301
Ntp2717
Rp2718
(dp2719
g1601
g1473
sg1602
g1638
sg325
g1569
sbsS'Iw2DSceneGraphCore.cpp'
p2720
g299
(g1597
g301
Ntp2721
Rp2722
(dp2723
g1601
g1466
sg1602
(lp2724
S"'Marmalade Studio'"
p2725
ag1459
asg325
g1467
sbsS'IwResManager.h'
p2726
g299
(g1597
g301
Ntp2727
Rp2728
(dp2729
g1601
g1385
sg1602
g1888
sg325
g1403
sbsS'IwSoundManager.h'
p2730
g299
(g1597
g301
Ntp2731
Rp2732
(dp2733
g1601
g1093
sg1602
g1655
sg325
g1101
sbsS'cwctype'
p2734
g299
(g1597
g301
Ntp2735
Rp2736
(dp2737
g1601
g1609
sg1602
g1610
sg325
S'c:/marmalade/7.2/s3e/h/std/c++/cwctype'
p2738
sbsS'set'
p2739
g299
(g1597
g301
Ntp2740
Rp2741
(dp2742
g1601
g1609
sg1602
g1610
sg325
S'c:/marmalade/7.2/s3e/h/std/c++/set'
p2743
sbsS'IwGeomSQuat.h'
p2744
g299
(g1597
g301
Ntp2745
Rp2746
(dp2747
g1601
g1317
sg1602
g1670
sg325
g1369
sbsS'locale'
p2748
g299
(g1597
g301
Ntp2749
Rp2750
(dp2751
g1601
g1609
sg1602
g1610
sg325
S'c:/marmalade/7.2/s3e/h/std/c++/locale'
p2752
sbsS'cstdio'
p2753
g299
(g1597
g301
Ntp2754
Rp2755
(dp2756
g1601
g1609
sg1602
g1610
sg325
S'c:/marmalade/7.2/s3e/h/std/c++/cstdio'
p2757
sbsS'cdjpeg.h'
p2758
g299
(g1597
g301
Ntp2759
Rp2760
(dp2761
g1601
g1049
sg1602
g1700
sg325
g1052
sbsS'IwList.h'
p2762
g299
(g1597
g301
Ntp2763
Rp2764
(dp2765
g1601
g1473
sg1602
g1638
sg325
g1486
sbsS's3eWebView_interface.cpp'
p2766
g299
(g1597
g301
Ntp2767
Rp2768
(dp2769
g1601
g1149
sg1602
g2359
sg325
g1150
sbsS'inttypes.h'
p2770
g299
(g1597
g301
Ntp2771
Rp2772
(dp2773
g1601
g1609
sg1602
g1631
sg325
S'c:/marmalade/7.2/s3e/h/std/inttypes.h'
p2774
sbsS'dirent.h'
p2775
g299
(g1597
g301
Ntp2776
Rp2777
(dp2778
g1601
g1609
sg1602
g1631
sg325
S'c:/marmalade/7.2/s3e/h/std/dirent.h'
p2779
sbsS'IwGeomVec3.h'
p2780
g299
(g1597
g301
Ntp2781
Rp2782
(dp2783
g1601
g1317
sg1602
g1670
sg325
g1352
sbsS'transupp.h'
p2784
g299
(g1597
g301
Ntp2785
Rp2786
(dp2787
g1601
g1049
sg1602
g1700
sg325
g1056
sbsS'IwMath.h'
p2788
g299
(g1597
g301
Ntp2789
Rp2790
(dp2791
g1601
g1473
sg1602
g1638
sg325
g1492
sbsS'IwGeomQuat.h'
p2792
g299
(g1597
g301
Ntp2793
Rp2794
(dp2795
g1601
g1317
sg1602
g1670
sg325
g1371
sbsS'glplatform.h'
p2796
g299
(g1597
g301
Ntp2797
Rp2798
(dp2799
g1601
g1609
sg1602
g1984
sg325
S'c:/marmalade/7.2/s3e/h/GLES/glplatform.h'
p2800
sbsS'iwgl.config.txt'
p2801
g299
(g1597
g301
Ntp2802
Rp2803
(dp2804
g1601
g1271
sg1602
g1619
sg325
g1277
sbsS'bitset'
p2805
g299
(g1597
g301
Ntp2806
Rp2807
(dp2808
g1601
g1609
sg1602
g1610
sg325
S'c:/marmalade/7.2/s3e/h/std/c++/bitset'
p2809
sbsS'alloca.h'
p2810
g299
(g1597
g301
Ntp2811
Rp2812
(dp2813
g1601
g1609
sg1602
g1631
sg325
S'c:/marmalade/7.2/s3e/h/std/alloca.h'
p2814
sbsS'IwResHandler.h'
p2815
g299
(g1597
g301
Ntp2816
Rp2817
(dp2818
g1601
g1385
sg1602
g1888
sg325
g1386
sbsS'IwResHandlerMTL.h'
p2819
g299
(g1597
g301
Ntp2820
Rp2821
(dp2822
g1601
g1409
sg1602
g1750
sg325
g1423
sbsS'IwRuntime.h'
p2823
g299
(g1597
g301
Ntp2824
Rp2825
(dp2826
g1601
g1473
sg1602
g1638
sg325
g1526
sbsS's3eFlurry.h'
p2827
g299
(g1597
g301
Ntp2828
Rp2829
(dp2830
g1601
g1178
sg1602
g1848
sg325
g1181
sbsS'limits'
p2831
g299
(g1597
g301
Ntp2832
Rp2833
(dp2834
g1601
g1609
sg1602
g1610
sg325
S'c:/marmalade/7.2/s3e/h/std/c++/limits'
p2835
sbsS'IwGeomBBox.h'
p2836
g299
(g1597
g301
Ntp2837
Rp2838
(dp2839
g1601
g1317
sg1602
g1670
sg325
g1344
sbsS'audioManager.h'
p2840
g299
(g1597
g301
Ntp2841
Rp2842
(dp2843
g1601
g1192
sg1602
g1644
sg325
g1215
sbsS's3eContacts.h'
p2844
g299
(g1597
g301
Ntp2845
Rp2846
(dp2847
g1601
g1609
sg1602
g1625
sg325
S'c:/marmalade/7.2/s3e/h/s3eContacts.h'
p2848
sbsS's3eLicense.h'
p2849
g299
(g1597
g301
Ntp2850
Rp2851
(dp2852
g1601
g1609
sg1602
g1625
sg325
S'c:/marmalade/7.2/s3e/h/s3eLicense.h'
p2853
sbsS'iwgx.config.txt'
p2854
g299
(g1597
g301
Ntp2855
Rp2856
(dp2857
g1601
g1409
sg1602
g1750
sg325
g1418
sbsS'IwTextParser.h'
p2858
g299
(g1597
g301
Ntp2859
Rp2860
(dp2861
g1601
g1473
sg1602
g1638
sg325
g1504
sbsS's3eTimer.h'
p2862
g299
(g1597
g301
Ntp2863
Rp2864
(dp2865
g1601
g1609
sg1602
g1625
sg325
S'c:/marmalade/7.2/s3e/h/s3eTimer.h'
p2866
sbsS'IwGeomVec.h'
p2867
g299
(g1597
g301
Ntp2868
Rp2869
(dp2870
g1601
g1317
sg1602
g1670
sg325
g1375
sbsS'IwSerialise.h'
p2871
g299
(g1597
g301
Ntp2872
Rp2873
(dp2874
g1601
g1473
sg1602
g1638
sg325
g1544
sbsS'cstdarg'
p2875
g299
(g1597
g301
Ntp2876
Rp2877
(dp2878
g1601
g1609
sg1602
g1610
sg325
S'c:/marmalade/7.2/s3e/h/std/c++/cstdarg'
p2879
sbsS'gl2ext.h'
p2880
g299
(g1597
g301
Ntp2881
Rp2882
(dp2883
g1601
g1609
sg1602
g1880
sg325
S'c:/marmalade/7.2/s3e/h/GLES2/gl2ext.h'
p2884
sbsS'IwChar.h'
p2885
g299
(g1597
g301
Ntp2886
Rp2887
(dp2888
g1601
g1473
sg1602
g1638
sg325
g1500
sbsS's3eSound.h'
p2889
g299
(g1597
g301
Ntp2890
Rp2891
(dp2892
g1601
g1609
sg1602
g1625
sg325
S'c:/marmalade/7.2/s3e/h/s3eSound.h'
p2893
sbsS's3eIOSBackgroundAudio.h'
p2894
g299
(g1597
g301
Ntp2895
Rp2896
(dp2897
g1601
g1609
sg1602
g1837
sg325
S'c:/marmalade/7.2/s3e/h/ext/s3eIOSBackgroundAudio.h'
p2898
sbsS'exception.h'
p2899
g299
(g1597
g301
Ntp2900
Rp2901
(dp2902
g1601
g1609
sg1602
g1610
sg325
S'c:/marmalade/7.2/s3e/h/std/c++/exception.h'
p2903
sbsS'getStars.cpp'
p2904
g299
(g1597
g301
Ntp2905
Rp2906
(dp2907
g1601
g1192
sg1602
g1665
sg325
g1239
sbsS'iwgeom.config.txt'
p2908
g299
(g1597
g301
Ntp2909
Rp2910
(dp2911
g1601
g1317
sg1602
g1670
sg325
g1356
sbsS'iwgx.mkf'
p2912
g299
(g1597
g301
Ntp2913
Rp2914
(dp2915
g1601
g1422
sg1602
g1750
sg325
g1420
sbsS'gl.h'
p2916
g299
(g1597
g301
Ntp2917
Rp2918
(dp2919
g1601
g1609
sg1602
g1984
sg325
S'c:/marmalade/7.2/s3e/h/GLES/gl.h'
p2920
sbsS'savedataManager.h'
p2921
g299
(g1597
g301
Ntp2922
Rp2923
(dp2924
g1601
g1192
sg1602
g1644
sg325
g1207
sbsS's3eFacebook.defines.txt'
p2925
g299
(g1597
g301
Ntp2926
Rp2927
(dp2928
g1601
g1163
sg1602
(lp2929
S'Extensions'
p2930
ag1157
ag1159
asg325
g1164
sbsS'iwgl.mkf'
p2931
g299
(g1597
g301
Ntp2932
Rp2933
(dp2934
g1601
g1274
sg1602
g1619
sg325
g1272
sbsS'audioManager.cpp'
p2935
g299
(g1597
g301
Ntp2936
Rp2937
(dp2938
g1601
g1192
sg1602
g1644
sg325
g1219
sbsS'IwColour.h'
p2939
g299
(g1597
g301
Ntp2940
Rp2941
(dp2942
g1601
g1409
sg1602
g1750
sg325
g1451
sbsS'types.h'
p2943
g299
(g1597
g301
Ntp2944
Rp2945
(dp2946
g1601
g1609
sg1602
g1764
sg325
S'c:/marmalade/7.2/s3e/h/std/sys/types.h'
p2947
sbsS'ifaddrs.h'
p2948
g299
(g1597
g301
Ntp2949
Rp2950
(dp2951
g1601
g1609
sg1602
g1631
sg325
S'c:/marmalade/7.2/s3e/h/std/ifaddrs.h'
p2952
sbsS'inputManager.cpp'
p2953
g299
(g1597
g301
Ntp2954
Rp2955
(dp2956
g1601
g1192
sg1602
g1644
sg325
g1217
sbsS'IwTween.cpp'
p2957
g299
(g1597
g301
Ntp2958
Rp2959
(dp2960
g1601
g1591
sg1602
g2142
sg325
g1589
sbsS'exception'
p2961
g299
(g1597
g301
Ntp2962
Rp2963
(dp2964
g1601
g1609
sg1602
g1610
sg325
S'c:/marmalade/7.2/s3e/h/std/c++/exception'
p2965
sbsS's3eFacebook_interface.cpp'
p2966
g299
(g1597
g301
Ntp2967
Rp2968
(dp2969
g1601
g1163
sg1602
g2929
sg325
g1161
sbsS'rlocks.h'
p2970
g299
(g1597
g301
Ntp2971
Rp2972
(dp2973
g1601
g1609
sg1602
g1610
sg325
S'c:/marmalade/7.2/s3e/h/std/c++/rlocks.h'
p2974
sbsS'ioctl.h'
p2975
g299
(g1597
g301
Ntp2976
Rp2977
(dp2978
g1601
g1609
sg1602
g1764
sg325
S'c:/marmalade/7.2/s3e/h/std/sys/ioctl.h'
p2979
sbsS'rope'
p2980
g299
(g1597
g301
Ntp2981
Rp2982
(dp2983
g1601
g1609
sg1602
g1610
sg325
S'c:/marmalade/7.2/s3e/h/std/c++/rope'
p2984
sbsS'jinclude.h'
p2985
g299
(g1597
g301
Ntp2986
Rp2987
(dp2988
g1601
g1049
sg1602
g1700
sg325
g1047
sbsS's3eFlurry_interface.cpp'
p2989
g299
(g1597
g301
Ntp2990
Rp2991
(dp2992
g1601
g1178
sg1602
g2502
sg325
g1176
sbsS's3eWebView.h'
p2993
g299
(g1597
g301
Ntp2994
Rp2995
(dp2996
g1601
g1149
sg1602
(lp2997
g2360
ag1143
asg325
g1152
sbsS'IwEvent.h'
p2998
g299
(g1597
g301
Ntp2999
Rp3000
(dp3001
g1601
g1473
sg1602
g1638
sg325
g1502
sbsS'IwOptimiseSize.h'
p3002
g299
(g1597
g301
Ntp3003
Rp3004
(dp3005
g1601
g1473
sg1602
g1638
sg325
g1506
sbsS'iwgxfont_public.defines.txt'
p3006
g299
(g1597
g301
Ntp3007
Rp3008
(dp3009
g1601
g1295
sg1602
g1603
sg325
g1300
sbsS'iconv.h'
p3010
g299
(g1597
g301
Ntp3011
Rp3012
(dp3013
g1601
g1609
sg1602
g1631
sg325
S'c:/marmalade/7.2/s3e/h/std/iconv.h'
p3014
sbsS's3eDevice.h'
p3015
g299
(g1597
g301
Ntp3016
Rp3017
(dp3018
g1601
g1609
sg1602
g1625
sg325
S'c:/marmalade/7.2/s3e/h/s3eDevice.h'
p3019
sbsS'IwGeomSphere.h'
p3020
g299
(g1597
g301
Ntp3021
Rp3022
(dp3023
g1601
g1317
sg1602
g1670
sg325
g1373
sbsS'tiniconv.mkf'
p3024
g299
(g1597
g301
Ntp3025
Rp3026
(dp3027
g1601
g1088
sg1602
g2099
sg325
g1086
sbsS'iw2dscenegraph.defines.txt'
p3028
g299
(g1597
g301
Ntp3029
Rp3030
(dp3031
g1601
g1259
sg1602
g1938
sg325
g1265
sbsS'jdct.h'
p3032
g299
(g1597
g301
Ntp3033
Rp3034
(dp3035
g1601
g1049
sg1602
g1700
sg325
g1062
sbsS'cctype'
p3036
g299
(g1597
g301
Ntp3037
Rp3038
(dp3039
g1601
g1609
sg1602
g1610
sg325
S'c:/marmalade/7.2/s3e/h/std/c++/cctype'
p3040
sbsS'IwSoundADPCM.cpp'
p3041
g299
(g1597
g301
Ntp3042
Rp3043
(dp3044
g1601
g1093
sg1602
g1655
sg325
g1099
sbsS's3eConfig.h'
p3045
g299
(g1597
g301
Ntp3046
Rp3047
(dp3048
g1601
g1609
sg1602
g1625
sg325
S'c:/marmalade/7.2/s3e/h/s3eConfig.h'
p3049
sbsS'IwHashString.h'
p3050
g299
(g1597
g301
Ntp3051
Rp3052
(dp3053
g1601
g1473
sg1602
g1638
sg325
g1571
sbsS'stat.h'
p3054
g299
(g1597
g301
Ntp3055
Rp3056
(dp3057
g1601
g1609
sg1602
g1764
sg325
S'c:/marmalade/7.2/s3e/h/std/sys/stat.h'
p3058
sbsS'byteswap.h'
p3059
g299
(g1597
g301
Ntp3060
Rp3061
(dp3062
g1601
g1609
sg1602
g1631
sg325
S'c:/marmalade/7.2/s3e/h/std/byteswap.h'
p3063
sbsS'iwresmanager.mkf'
p3064
g299
(g1597
g301
Ntp3065
Rp3066
(dp3067
g1601
g1390
sg1602
g1888
sg325
g1388
sbsS'IwUtilInitTerm.h'
p3068
g299
(g1597
g301
Ntp3069
Rp3070
(dp3071
g1601
g1473
sg1602
g1638
sg325
g1538
sbsS'pthread_1.h'
p3072
g299
(g1597
g301
Ntp3073
Rp3074
(dp3075
g1601
g1609
sg1602
g1610
sg325
S'c:/marmalade/7.2/s3e/h/std/c++/pthread.h'
p3076
sbsS'iw2d.mkf'
p3077
g299
(g1597
g301
Ntp3078
Rp3079
(dp3080
g1601
g1290
sg1602
g1705
sg325
g1288
sbsS'complex'
p3081
g299
(g1597
g301
Ntp3082
Rp3083
(dp3084
g1601
g1609
sg1602
g1610
sg325
S'c:/marmalade/7.2/s3e/h/std/c++/complex'
p3085
sbsS'game.cpp'
p3086
g299
(g1597
g301
Ntp3087
Rp3088
(dp3089
g1601
g1192
sg1602
g1665
sg325
g1251
sbsS'algorithm'
p3090
g299
(g1597
g301
Ntp3091
Rp3092
(dp3093
g1601
g1609
sg1602
g1610
sg325
S'c:/marmalade/7.2/s3e/h/std/c++/algorithm'
p3094
sbsS's3e.icf'
p3095
g299
(g1597
g301
Ntp3096
Rp3097
(dp3098
g1601
g1609
sg1602
g1625
sg325
S'c:/marmalade/7.2/s3e/s3e.icf'
p3099
sbsS'IwVariableBitField.h'
p3100
g299
(g1597
g301
Ntp3101
Rp3102
(dp3103
g1601
g1473
sg1602
g1638
sg325
g1516
sbsS'sem.h'
p3104
g299
(g1597
g301
Ntp3105
Rp3106
(dp3107
g1601
g1609
sg1602
g1764
sg325
S'c:/marmalade/7.2/s3e/h/std/sys/sem.h'
p3108
sbsS'IwGxFontState.h'
p3109
g299
(g1597
g301
Ntp3110
Rp3111
(dp3112
g1601
g1295
sg1602
g1603
sg325
g1304
sbsS'stdio.h'
p3113
g299
(g1597
g301
Ntp3114
Rp3115
(dp3116
g1601
g1609
sg1602
g1631
sg325
S'c:/marmalade/7.2/s3e/h/std/stdio.h'
p3117
sbsS's3eFacebook.h'
p3118
g299
(g1597
g301
Ntp3119
Rp3120
(dp3121
g1601
g1163
sg1602
(lp3122
g2930
ag1157
ag1034
asg325
g1167
sbsS'jmemsys.h'
p3123
g299
(g1597
g301
Ntp3124
Rp3125
(dp3126
g1601
g1049
sg1602
g1700
sg325
g1066
sbsS'ios'
p3127
g299
(g1597
g301
Ntp3128
Rp3129
(dp3130
g1601
g1609
sg1602
g1610
sg325
S'c:/marmalade/7.2/s3e/h/std/c++/ios'
p3131
sbsS'IwTween.h'
p3132
g299
(g1597
g301
Ntp3133
Rp3134
(dp3135
g1601
g1591
sg1602
g2142
sg325
g1592
sbsS'stack'
p3136
g299
(g1597
g301
Ntp3137
Rp3138
(dp3139
g1601
g1609
sg1602
g1610
sg325
S'c:/marmalade/7.2/s3e/h/std/c++/stack'
p3140
sbsS'IwSoundParams.h'
p3141
g299
(g1597
g301
Ntp3142
Rp3143
(dp3144
g1601
g1093
sg1602
g1655
sg325
g1135
sbsS'new.h'
p3145
g299
(g1597
g301
Ntp3146
Rp3147
(dp3148
g1601
g1609
sg1602
g1610
sg325
S'c:/marmalade/7.2/s3e/h/std/c++/new.h'
p3149
sbsS's3eEMail.h'
p3150
g299
(g1597
g301
Ntp3151
Rp3152
(dp3153
g1601
g1609
sg1602
g1837
sg325
S'c:/marmalade/7.2/s3e/h/ext/s3eEMail.h'
p3154
sbsS's3eVideo.h'
p3155
g299
(g1597
g301
Ntp3156
Rp3157
(dp3158
g1601
g1609
sg1602
g1625
sg325
S'c:/marmalade/7.2/s3e/h/s3eVideo.h'
p3159
sbsS'pngconf.h'
p3160
g299
(g1597
g301
Ntp3161
Rp3162
(dp3163
g1601
g1038
sg1602
g2379
sg325
g1039
sbsS'pwd.h'
p3164
g299
(g1597
g301
Ntp3165
Rp3166
(dp3167
g1601
g1609
sg1602
g1631
sg325
S'c:/marmalade/7.2/s3e/h/std/pwd.h'
p3168
sbsS'IwClip.h'
p3169
g299
(g1597
g301
Ntp3170
Rp3171
(dp3172
g1601
g1409
sg1602
g1750
sg325
g1431
sbsS'IwSoundInst.h'
p3173
g299
(g1597
g301
Ntp3174
Rp3175
(dp3176
g1601
g1093
sg1602
g1655
sg325
g1113
sbsS'iwresmanager.config.txt'
p3177
g299
(g1597
g301
Ntp3178
Rp3179
(dp3180
g1601
g1385
sg1602
g1888
sg325
g1395
sbsS'IwGxShaderTechnique.h'
p3181
g299
(g1597
g301
Ntp3182
Rp3183
(dp3184
g1601
g1409
sg1602
g1750
sg325
g1453
sbsS'getStars.h'
p3185
g299
(g1597
g301
Ntp3186
Rp3187
(dp3188
g1601
g1192
sg1602
g1665
sg325
g1233
sbsS'IwCore.h'
p3189
g299
(g1597
g301
Ntp3190
Rp3191
(dp3192
g1601
g1473
sg1602
g1638
sg325
g1471
sbsS'cfloat'
p3193
g299
(g1597
g301
Ntp3194
Rp3195
(dp3196
g1601
g1609
sg1602
g1610
sg325
S'c:/marmalade/7.2/s3e/h/std/c++/cfloat'
p3197
sbsS'IwGeomMat2D.h'
p3198
g299
(g1597
g301
Ntp3199
Rp3200
(dp3201
g1601
g1317
sg1602
g1670
sg325
g1322
sbsS'IwAllocator.h'
p3202
g299
(g1597
g301
Ntp3203
Rp3204
(dp3205
g1601
g1473
sg1602
g1638
sg325
g1520
sbsS'timerManager.cpp'
p3206
g299
(g1597
g301
Ntp3207
Rp3208
(dp3209
g1601
g1192
sg1602
g1644
sg325
g1199
sbsS'customize.h'
p3210
g299
(g1597
g301
Ntp3211
Rp3212
(dp3213
g1601
g1192
sg1602
g1665
sg325
g1227
sbsS'IwPath.h'
p3214
g299
(g1597
g301
Ntp3215
Rp3216
(dp3217
g1601
g1473
sg1602
g1638
sg325
g1546
sbsS'iwgxfont.mkf'
p3218
g299
(g1597
g301
Ntp3219
Rp3220
(dp3221
g1601
g1310
sg1602
g1603
sg325
g1308
sbsS'IwTexture.h'
p3222
g299
(g1597
g301
Ntp3223
Rp3224
(dp3225
g1601
g1409
sg1602
g1750
sg325
g1447
sbsS's3eAccelerometer.h'
p3226
g299
(g1597
g301
Ntp3227
Rp3228
(dp3229
g1601
g1609
sg1602
g1625
sg325
S'c:/marmalade/7.2/s3e/h/s3eAccelerometer.h'
p3230
sbsS'setjmp.h'
p3231
g299
(g1597
g301
Ntp3232
Rp3233
(dp3234
g1601
g1609
sg1602
g1631
sg325
S'c:/marmalade/7.2/s3e/h/std/setjmp.h'
p3235
sbsS'items.cpp'
p3236
g299
(g1597
g301
Ntp3237
Rp3238
(dp3239
g1601
g1192
sg1602
g1665
sg325
g1225
sbsS'IwSoundParams.cpp'
p3240
g299
(g1597
g301
Ntp3241
Rp3242
(dp3243
g1601
g1093
sg1602
g1655
sg325
g1103
sbsS'IwFile.h'
p3244
g299
(g1597
g301
Ntp3245
Rp3246
(dp3247
g1601
g1473
sg1602
g1638
sg325
g1512
sbsS'IwTextParseable.h'
p3248
g299
(g1597
g301
Ntp3249
Rp3250
(dp3251
g1601
g1473
sg1602
g1638
sg325
g1565
sbsS'istream.h'
p3252
g299
(g1597
g301
Ntp3253
Rp3254
(dp3255
g1601
g1609
sg1602
g1610
sg325
S'c:/marmalade/7.2/s3e/h/std/c++/istream.h'
p3256
sbsS'stdint.h'
p3257
g299
(g1597
g301
Ntp3258
Rp3259
(dp3260
g1601
g1609
sg1602
g1631
sg325
S'c:/marmalade/7.2/s3e/h/std/stdint.h'
p3261
sbsS'semaphore.h'
p3262
g299
(g1597
g301
Ntp3263
Rp3264
(dp3265
g1601
g1609
sg1602
g1631
sg325
S'c:/marmalade/7.2/s3e/h/std/semaphore.h'
p3266
sbsS'ctime'
p3267
g299
(g1597
g301
Ntp3268
Rp3269
(dp3270
g1601
g1609
sg1602
g1610
sg325
S'c:/marmalade/7.2/s3e/h/std/c++/ctime'
p3271
sbsS'sstream'
p3272
g299
(g1597
g301
Ntp3273
Rp3274
(dp3275
g1601
g1609
sg1602
g1610
sg325
S'c:/marmalade/7.2/s3e/h/std/c++/sstream'
p3276
sbsS'IwGeomFBBox.h'
p3277
g299
(g1597
g301
Ntp3278
Rp3279
(dp3280
g1601
g1317
sg1602
g1670
sg325
g1379
sbsS'IwDebugPrim.h'
p3281
g299
(g1597
g301
Ntp3282
Rp3283
(dp3284
g1601
g1409
sg1602
g1750
sg325
g1437
sbsS'IwGxFontContainer.h'
p3285
g299
(g1597
g301
Ntp3286
Rp3287
(dp3288
g1601
g1295
sg1602
g1603
sg325
g1298
sbsS'IwGeomSVec3.h'
p3289
g299
(g1597
g301
Ntp3290
Rp3291
(dp3292
g1601
g1317
sg1602
g1670
sg325
g1342
sbsS'iw2dscenegraphcore.mkf'
p3293
g299
(g1597
g301
Ntp3294
Rp3295
(dp3296
g1601
g1463
sg1602
g2724
sg325
g1461
sbsS's3eExt.h'
p3297
g299
(g1597
g301
Ntp3298
Rp3299
(dp3300
g1601
g1609
sg1602
g1625
sg325
S'c:/marmalade/7.2/s3e/h/s3eExt.h'
p3301
sbsS'IwGeomFVec3.h'
p3302
g299
(g1597
g301
Ntp3303
Rp3304
(dp3305
g1601
g1317
sg1602
g1670
sg325
g1332
sbsS'IwClip.inl'
p3306
g299
(g1597
g301
Ntp3307
Rp3308
(dp3309
g1601
g1409
sg1602
g1750
sg325
g1443
sbsS'streambuf'
p3310
g299
(g1597
g301
Ntp3311
Rp3312
(dp3313
g1601
g1609
sg1602
g1610
sg325
S'c:/marmalade/7.2/s3e/h/std/c++/streambuf'
p3314
sbsS's3eMetrics.h'
p3315
g299
(g1597
g301
Ntp3316
Rp3317
(dp3318
g1601
g1609
sg1602
g1837
sg325
S'c:/marmalade/7.2/s3e/h/ext/s3eMetrics.h'
p3319
sbsS'IwGxFont.h'
p3320
g299
(g1597
g301
Ntp3321
Rp3322
(dp3323
g1601
g1295
sg1602
g1603
sg325
g1293
sbsS's3eSecureStorage.h'
p3324
g299
(g1597
g301
Ntp3325
Rp3326
(dp3327
g1601
g1609
sg1602
g1625
sg325
S'c:/marmalade/7.2/s3e/h/s3eSecureStorage.h'
p3328
sbsS'string.h'
p3329
g299
(g1597
g301
Ntp3330
Rp3331
(dp3332
g1601
g1609
sg1602
g1631
sg325
S'c:/marmalade/7.2/s3e/h/std/string.h'
p3333
sbsS'IwResource.h'
p3334
g299
(g1597
g301
Ntp3335
Rp3336
(dp3337
g1601
g1473
sg1602
g1638
sg325
g1476
sbsS'IwGeomSVec2.h'
p3338
g299
(g1597
g301
Ntp3339
Rp3340
(dp3341
g1601
g1317
sg1602
g1670
sg325
g1338
sbsS'libjpeg.mkf'
p3342
g299
(g1597
g301
Ntp3343
Rp3344
(dp3345
g1601
g1078
sg1602
(lp3346
g1044
asg325
g1076
sbsS'IwGxDebug.h'
p3347
g299
(g1597
g301
Ntp3348
Rp3349
(dp3350
g1601
g1409
sg1602
g1750
sg325
g1435
sbsS'pthread_types.h'
p3351
g299
(g1597
g301
Ntp3352
Rp3353
(dp3354
g1601
g1609
sg1602
g1631
sg325
S'c:/marmalade/7.2/s3e/h/std/pthread_types.h'
p3355
sbsS'iomanip.h'
p3356
g299
(g1597
g301
Ntp3357
Rp3358
(dp3359
g1601
g1609
sg1602
g1610
sg325
S'c:/marmalade/7.2/s3e/h/std/c++/iomanip.h'
p3360
sbsS'IwKeymap.h'
p3361
g299
(g1597
g301
Ntp3362
Rp3363
(dp3364
g1601
g1473
sg1602
g1638
sg325
g1559
sbsS'IwDebug.h'
p3365
g299
(g1597
g301
Ntp3366
Rp3367
(dp3368
g1601
g1473
sg1602
g1638
sg325
g1567
sbsS'IwOptimiseThumb.h'
p3369
g299
(g1597
g301
Ntp3370
Rp3371
(dp3372
g1601
g1473
sg1602
g1638
sg325
g1530
sbsS'IwGeomMenu.h'
p3373
g299
(g1597
g301
Ntp3374
Rp3375
(dp3376
g1601
g1317
sg1602
g1670
sg325
g1324
sbsS'IwDivTable.h'
p3377
g299
(g1597
g301
Ntp3378
Rp3379
(dp3380
g1601
g1473
sg1602
g1638
sg325
g1494
sbsS'ctype.h'
p3381
g299
(g1597
g301
Ntp3382
Rp3383
(dp3384
g1601
g1609
sg1602
g1631
sg325
S'c:/marmalade/7.2/s3e/h/std/ctype.h'
p3385
sbsS'mainMenu.cpp'
p3386
g299
(g1597
g301
Ntp3387
Rp3388
(dp3389
g1601
g1192
sg1602
g1665
sg325
g1241
sbsS'IwResGroup.h'
p3390
g299
(g1597
g301
Ntp3391
Rp3392
(dp3393
g1601
g1385
sg1602
g1888
sg325
g1391
sbsS'signal_1.h'
p3394
g299
(g1597
g301
Ntp3395
Rp3396
(dp3397
g1601
g1609
sg1602
g1764
sg325
S'c:/marmalade/7.2/s3e/h/std/sys/signal.h'
p3398
sbsS'IwSoundData.cpp'
p3399
g299
(g1597
g301
Ntp3400
Rp3401
(dp3402
g1601
g1093
sg1602
g1655
sg325
g1105
sbsS'jerror.h'
p3403
g299
(g1597
g301
Ntp3404
Rp3405
(dp3406
g1601
g1049
sg1602
g1700
sg325
g1070
sbsS'shm.h'
p3407
g299
(g1597
g301
Ntp3408
Rp3409
(dp3410
g1601
g1609
sg1602
g1764
sg325
S'c:/marmalade/7.2/s3e/h/std/sys/shm.h'
p3411
sbsS'IwManagedList.h'
p3412
g299
(g1597
g301
Ntp3413
Rp3414
(dp3415
g1601
g1473
sg1602
g1638
sg325
g1484
sbsS'prctl.h'
p3416
g299
(g1597
g301
Ntp3417
Rp3418
(dp3419
g1601
g1609
sg1602
g1764
sg325
S'c:/marmalade/7.2/s3e/h/std/sys/prctl.h'
p3420
sbsS's3eCamera.h'
p3421
g299
(g1597
g301
Ntp3422
Rp3423
(dp3424
g1601
g1609
sg1602
g1625
sg325
S'c:/marmalade/7.2/s3e/h/s3eCamera.h'
p3425
sbsS'utility'
p3426
g299
(g1597
g301
Ntp3427
Rp3428
(dp3429
g1601
g1609
sg1602
g1610
sg325
S'c:/marmalade/7.2/s3e/h/std/c++/utility'
p3430
sbsS's3ewebview.mkf'
p3431
g299
(g1597
g301
Ntp3432
Rp3433
(dp3434
g1601
g1156
sg1602
g2997
sg325
g1154
sbsS'IwGeomLegacy.h'
p3435
g299
(g1597
g301
Ntp3436
Rp3437
(dp3438
g1601
g1317
sg1602
g1670
sg325
g1365
sbsS'IwTPage.h'
p3439
g299
(g1597
g301
Ntp3440
Rp3441
(dp3442
g1601
g1409
sg1602
g1750
sg325
g1407
sbsS'IwResSerialise.h'
p3443
g299
(g1597
g301
Ntp3444
Rp3445
(dp3446
g1601
g1385
sg1602
g1888
sg325
g1401
sbsS's3eCrypto.h'
p3447
g299
(g1597
g301
Ntp3448
Rp3449
(dp3450
g1601
g1609
sg1602
g1625
sg325
S'c:/marmalade/7.2/s3e/h/s3eCrypto.h'
p3451
sbsS's3eKeyboard.h'
p3452
g299
(g1597
g301
Ntp3453
Rp3454
(dp3455
g1601
g1609
sg1602
g1625
sg325
S'c:/marmalade/7.2/s3e/h/s3eKeyboard.h'
p3456
sbsS'fcntl.h'
p3457
g299
(g1597
g301
Ntp3458
Rp3459
(dp3460
g1601
g1609
sg1602
g1631
sg325
S'c:/marmalade/7.2/s3e/h/std/fcntl.h'
p3461
sbsS'Iw2DSceneGraphCore.h'
p3462
g299
(g1597
g301
Ntp3463
Rp3464
(dp3465
g1601
g1466
sg1602
g2724
sg325
g1464
sbsS'memory.h'
p3466
g299
(g1597
g301
Ntp3467
Rp3468
(dp3469
g1601
g1609
sg1602
g1631
sg325
S'c:/marmalade/7.2/s3e/h/std/memory.h'
p3470
sbsS'egl.h'
p3471
g299
(g1597
g301
Ntp3472
Rp3473
(dp3474
g1601
g1609
sg1602
g2426
sg325
S'c:/marmalade/7.2/s3e/h/EGL/egl.h'
p3475
sbsS'IwGeomIntersect.h'
p3476
g299
(g1597
g301
Ntp3477
Rp3478
(dp3479
g1601
g1317
sg1602
g1670
sg325
g1367
sbsS'IwTextParserITX.h'
p3480
g299
(g1597
g301
Ntp3481
Rp3482
(dp3483
g1601
g1473
sg1602
g1638
sg325
g1496
sbsS'sceneManager.h'
p3484
g299
(g1597
g301
Ntp3485
Rp3486
(dp3487
g1601
g1192
sg1602
g1644
sg325
g1211
sbsS'sceneManager.cpp'
p3488
g299
(g1597
g301
Ntp3489
Rp3490
(dp3491
g1601
g1192
sg1602
g1644
sg325
g1205
sbsS'Iw2DSceneGraph.cpp'
p3492
g299
(g1597
g301
Ntp3493
Rp3494
(dp3495
g1601
g1259
sg1602
g1938
sg325
g1257
sbsS'ostream.h'
p3496
g299
(g1597
g301
Ntp3497
Rp3498
(dp3499
g1601
g1609
sg1602
g1610
sg325
S'c:/marmalade/7.2/s3e/h/std/c++/ostream.h'
p3500
sbsS'stl_user_config.h'
p3501
g299
(g1597
g301
Ntp3502
Rp3503
(dp3504
g1601
g1609
sg1602
g1610
sg325
S'c:/marmalade/7.2/s3e/h/std/c++/stl_user_config.h'
p3505
sbsS'IwProfileMenu.h'
p3506
g299
(g1597
g301
Ntp3507
Rp3508
(dp3509
g1601
g1473
sg1602
g1638
sg325
g1488
sbsS'MarmaladeVersion.h'
p3510
g299
(g1597
g301
Ntp3511
Rp3512
(dp3513
g1601
g1609
sg1602
g1625
sg325
S'c:/marmalade/7.2/s3e/h/MarmaladeVersion.h'
p3514
sbsS'IwResHandlerWAV.h'
p3515
g299
(g1597
g301
Ntp3516
Rp3517
(dp3518
g1601
g1093
sg1602
g1655
sg325
g1133
sbsS'options.h'
p3519
g299
(g1597
g301
Ntp3520
Rp3521
(dp3522
g1601
g1192
sg1602
g1665
sg325
g1237
sbsS'ios.h'
p3523
g299
(g1597
g301
Ntp3524
Rp3525
(dp3526
g1601
g1609
sg1602
g1610
sg325
S'c:/marmalade/7.2/s3e/h/std/c++/ios.h'
p3527
sbsS'store.cpp'
p3528
g299
(g1597
g301
Ntp3529
Rp3530
(dp3531
g1601
g1192
sg1602
g1665
sg325
g1245
sbsS'IwImageHelper.h'
p3532
g299
(g1597
g301
Ntp3533
Rp3534
(dp3535
g1601
g1473
sg1602
g1638
sg325
g1561
sbsS'zlib.h'
p3536
g299
(g1597
g301
Ntp3537
Rp3538
(dp3539
g1601
g1578
sg1602
g2318
sg325
g1579
sbsS'hash_set'
p3540
g299
(g1597
g301
Ntp3541
Rp3542
(dp3543
g1601
g1609
sg1602
g1610
sg325
S'c:/marmalade/7.2/s3e/h/std/c++/hash_set'
p3544
sbsS'IwGeomFQuat.h'
p3545
g299
(g1597
g301
Ntp3546
Rp3547
(dp3548
g1601
g1317
sg1602
g1670
sg325
g1350
sbsS'jmorecfg.h'
p3549
g299
(g1597
g301
Ntp3550
Rp3551
(dp3552
g1601
g1049
sg1602
g1700
sg325
g1068
sbsS'eglplatform.h'
p3553
g299
(g1597
g301
Ntp3554
Rp3555
(dp3556
g1601
g1609
sg1602
g2426
sg325
S'c:/marmalade/7.2/s3e/h/EGL/eglplatform.h'
p3557
sbsS'cmath'
p3558
g299
(g1597
g301
Ntp3559
Rp3560
(dp3561
g1601
g1609
sg1602
g1610
sg325
S'c:/marmalade/7.2/s3e/h/std/c++/cmath'
p3562
sbsS'math_gcc.h'
p3563
g299
(g1597
g301
Ntp3564
Rp3565
(dp3566
g1601
g1609
sg1602
g1631
sg325
S'c:/marmalade/7.2/s3e/h/std/math_gcc.h'
p3567
sbsS's3eMemory.h'
p3568
g299
(g1597
g301
Ntp3569
Rp3570
(dp3571
g1601
g1609
sg1602
g1625
sg325
S'c:/marmalade/7.2/s3e/h/s3eMemory.h'
p3572
sbsS'strings.h'
p3573
g299
(g1597
g301
Ntp3574
Rp3575
(dp3576
g1601
g1609
sg1602
g1631
sg325
S'c:/marmalade/7.2/s3e/h/std/strings.h'
p3577
sbsS's3eFile.h'
p3578
g299
(g1597
g301
Ntp3579
Rp3580
(dp3581
g1601
g1609
sg1602
g1625
sg325
S'c:/marmalade/7.2/s3e/h/s3eFile.h'
p3582
sbsS'IwGxTypes.h'
p3583
g299
(g1597
g301
Ntp3584
Rp3585
(dp3586
g1601
g1409
sg1602
g1750
sg325
g1455
sbsS'cerrno'
p3587
g299
(g1597
g301
Ntp3588
Rp3589
(dp3590
g1601
g1609
sg1602
g1610
sg325
S'c:/marmalade/7.2/s3e/h/std/c++/cerrno'
p3591
sbsS'IwSoundManager.cpp'
p3592
g299
(g1597
g301
Ntp3593
Rp3594
(dp3595
g1601
g1093
sg1602
g1655
sg325
g1091
sbsS'main.h'
p3596
g299
(g1597
g301
Ntp3597
Rp3598
(dp3599
g1601
g1192
sg1602
g1959
sg325
g1190
sbsS'soundengine.mkf'
p3600
g299
(g1597
g301
Ntp3601
Rp3602
(dp3603
g1601
g1096
sg1602
g1655
sg325
g1094
sbsS'resource.h'
p3604
g299
(g1597
g301
Ntp3605
Rp3606
(dp3607
g1601
g1609
sg1602
g1764
sg325
S'c:/marmalade/7.2/s3e/h/std/sys/resource.h'
p3608
sbsS'clocale'
p3609
g299
(g1597
g301
Ntp3610
Rp3611
(dp3612
g1601
g1609
sg1602
g1610
sg325
S'c:/marmalade/7.2/s3e/h/std/c++/clocale'
p3613
sbsS'csetjmp'
p3614
g299
(g1597
g301
Ntp3615
Rp3616
(dp3617
g1601
g1609
sg1602
g1610
sg325
S'c:/marmalade/7.2/s3e/h/std/c++/csetjmp'
p3618
sbsS'netdb.h'
p3619
g299
(g1597
g301
Ntp3620
Rp3621
(dp3622
g1601
g1609
sg1602
g1631
sg325
S'c:/marmalade/7.2/s3e/h/std/netdb.h'
p3623
sbsS's3eAndroidJNI.h'
p3624
g299
(g1597
g301
Ntp3625
Rp3626
(dp3627
g1601
g1609
sg1602
g1837
sg325
S'c:/marmalade/7.2/s3e/h/ext/s3eAndroidJNI.h'
p3628
sbsS'stdexcept'
p3629
g299
(g1597
g301
Ntp3630
Rp3631
(dp3632
g1601
g1609
sg1602
g1610
sg325
S'c:/marmalade/7.2/s3e/h/std/c++/stdexcept'
p3633
sbsS'math.h'
p3634
g299
(g1597
g301
Ntp3635
Rp3636
(dp3637
g1601
g1609
sg1602
g1631
sg325
S'c:/marmalade/7.2/s3e/h/std/math.h'
p3638
sbsS'stdbool.h'
p3639
g299
(g1597
g301
Ntp3640
Rp3641
(dp3642
g1601
g1609
sg1602
g1631
sg325
S'c:/marmalade/7.2/s3e/h/std/stdbool.h'
p3643
sbsS'uio.h'
p3644
g299
(g1597
g301
Ntp3645
Rp3646
(dp3647
g1601
g1609
sg1602
g1764
sg325
S'c:/marmalade/7.2/s3e/h/std/sys/uio.h'
p3648
sbsS'IwUncopyable.h'
p3649
g299
(g1597
g301
Ntp3650
Rp3651
(dp3652
g1601
g1473
sg1602
g1638
sg325
g1518
sbsS's3efacebook.mkf'
p3653
g299
(g1597
g301
Ntp3654
Rp3655
(dp3656
g1601
g1171
sg1602
(lp3657
g2930
ag1157
asg325
g1169
sbssS'juice_build_type'
p3658
g4
sS'tests'
p3659
(lp3660
sS'project_name'
p3661
g307
sS'root_file'
p3662
g119
sS'current_root'
p3663
S'c:/Users/Vinicius/Desktop/Yes or No/Stars'
p3664
sS'dependencies'
p3665
(lp3666
sS'include_paths'
p3667
(lp3668
S'c:/marmalade/7.2/extensions/s3ewebview/h'
p3669
aS'c:/marmalade/7.2/modules/iwutil/h'
p3670
aS'c:/marmalade/7.2/modules/third_party/libjpeg/h'
p3671
aS'c:/marmalade/7.2/modules/third_party/zlib/h'
p3672
aS'c:/marmalade/7.2/modules/third_party/libpng/h'
p3673
aS'c:/marmalade/7.2/extensions/s3efacebook/h'
p3674
aS'c:/marmalade/7.2/modules/iw2d/h'
p3675
aS'c:/marmalade/7.2/modules/iwgx/h'
p3676
aS'c:/marmalade/7.2/modules/iwgl/h'
p3677
aS'c:/marmalade/7.2/modules/iwgeom/h'
p3678
aS'c:/marmalade/7.2/modules/iwresmanager/h'
p3679
aS'c:/marmalade/7.2/modules/iwgxfont/h'
p3680
aS'c:/marmalade/7.2/modules/third_party/tiniconv/source'
p3681
aS'c:/marmalade/7.2/modules/iw2dscenegraph/h'
p3682
aS'c:/marmalade/7.2/modules/iw2dscenegraphcore/h'
p3683
aS'c:/marmalade/7.2/modules/iwtween/h'
p3684
aS'c:/users/vinicius/desktop/yes or no/stars/modules/soundengine/h'
p3685
aS'c:/users/vinicius/desktop/yes or no/stars/modules/soundengine/source'
p3686
aS'c:/marmalade/7.2/extensions/s3eflurry/h'
p3687
aS'c:/marmalade/7.2/s3e/h'
p3688
aS'c:/marmalade/7.2/s3e/h/ext'
p3689
aS'c:/marmalade/7.2/s3e/h/std'
p3690
aS'c:/marmalade/7.2/s3e/h/std/c++'
p3691
aS'c:/marmalade/7.2/s3e/h/ext_legacy'
p3692
aS'c:/marmalade/7.2/s3e/h/legacy'
p3693
asS'weak_frameworks'
p3694
(lp3695
sS'extprojects'
p3696
(dp3697
sg602
(dp3698
g596
(lp3699
(S'c:/Users/Vinicius/Desktop/Yes or No/Stars/data/audio'
p3700
S'audio'
p3701
I0
tp3702
a(S'c:/Users/Vinicius/Desktop/Yes or No/Stars/data/textures'
p3703
S'textures'
p3704
I0
tp3705
a(S'c:/Users/Vinicius/Desktop/Yes or No/Stars/data-ram/data-gles1,c:/Users/Vinicius/Desktop/Yes or No/Stars/data'
p3706
S'.'
p3707
I0
tp3708
a(S'c:/marmalade/7.2/extensions/s3ewebview/s3eWebView.js'
p3709
S's3eWebView.js'
p3710
I0
tp3711
a(S'c:/marmalade/7.2/extensions/s3efacebook/source/iphone/facebook-ios-sdk/FacebookSDK.framework/Versions/A/Resources/FacebookSDKResources.bundle/FBDialog/images/fbicon.png'
p3712
S'FacebookSDKResources.bundle/FBDialog/images/fbicon.png'
p3713
I0
tp3714
a(S'c:/marmalade/7.2/extensions/s3efacebook/source/iphone/facebook-ios-sdk/FacebookSDK.framework/Versions/A/Resources/FacebookSDKResources.bundle/FBDialog/images/close.png'
p3715
S'FacebookSDKResources.bundle/FBDialog/images/close.png'
p3716
I0
tp3717
a(S'c:/marmalade/7.2/extensions/s3efacebook/source/iphone/facebook-ios-sdk/FacebookSDK.framework/Versions/A/Resources/FacebookSDKResources.bundle/FBDialog/images/close@2x.png'
p3718
S'FacebookSDKResources.bundle/FBDialog/images/close@2x.png'
p3719
I0
tp3720
a(S'c:/marmalade/7.2/extensions/s3efacebook/facebook-winclient-sdk-master/Source/Facebook.Client-WindowsStore/FacebookDialogPage.xaml'
p3721
S'FacebookDialogPage.xaml'
p3722
I0
tp3723
asS'WebView32Assets'
p3724
(lp3725
(S'c:/marmalade/7.2/extensions/s3ewebview/lib/win32/locales'
p3726
S'locales'
p3727
I0
tp3728
a(S'c:/marmalade/7.2/extensions/s3ewebview/lib/win32/avcodec-53.dll'
p3729
S'avcodec-53.dll'
p3730
I0
tp3731
a(S'c:/marmalade/7.2/extensions/s3ewebview/lib/win32/avformat-53.dll'
p3732
S'avformat-53.dll'
p3733
I0
tp3734
a(S'c:/marmalade/7.2/extensions/s3ewebview/lib/win32/avutil-51.dll'
p3735
S'avutil-51.dll'
p3736
I0
tp3737
a(S'c:/marmalade/7.2/extensions/s3ewebview/lib/win32/chrome.pak'
p3738
S'chrome.pak'
p3739
I0
tp3740
a(S'c:/marmalade/7.2/extensions/s3ewebview/lib/win32/d3dcompiler_43.dll'
p3741
S'd3dcompiler_43.dll'
p3742
I0
tp3743
a(S'c:/marmalade/7.2/extensions/s3ewebview/lib/win32/d3dx9_43.dll'
p3744
S'd3dx9_43.dll'
p3745
I0
tp3746
a(S'c:/marmalade/7.2/extensions/s3ewebview/lib/win32/icudt.dll'
p3747
S'icudt.dll'
p3748
I0
tp3749
a(S'c:/marmalade/7.2/extensions/s3ewebview/lib/win32/libcef.dll'
p3750
S'libcef.dll'
p3751
I0
tp3752
a(S'c:/marmalade/7.2/extensions/s3ewebview/lib/win32/libEGL.dll'
p3753
S'libEGL.dll'
p3754
I0
tp3755
a(S'c:/marmalade/7.2/extensions/s3ewebview/lib/win32/libGLESv2.dll'
p3756
S'libGLESv2.dll'
p3757
I0
tp3758
assS'macro_types'
p3759
(dp3760
g525
I0
sg527
I0
sg528
I0
sg529
I0
sg531
I1
sg532
I0
sg533
I0
sg534
I0
sg535
I0
sg536
I0
sg537
I0
sg538
I0
sg540
I0
sg541
I0
sg542
I0
sg543
I0
sg544
I0
sg546
I0
sg547
I0
sg548
I0
sg549
I0
sg550
I0
sg551
I0
sg552
I0
sg553
I0
sg554
I1
sg555
I0
sg556
I0
sg557
I0
sg558
I0
sg559
I0
sg560
I0
sg561
I0
sg562
I01
sg563
I1
sg564
I0
sg565
I0
sg566
I0
sg567
I0
sg568
I0
sg569
I0
sg570
I0
sg571
I0
ssS'commands'
p3761
(lp3762
sg604
(g1025
S'VC12X'
p3763
S'X86ARM'
p3764
tp3765
sS'build_libs'
p3766
(dp3767
sg606
g0
sS'frameworks'
p3768
(lp3769
sS'environ'
p3770
(dp3771
sS'target_name_debug'
p3772
g307
sS'builders'
p3773
(dp3774
g596
(dp3775
S'.S'
p3776
(dp3777
S'rvct'
p3778
(lp3779
S'.obj'
p3780
aS'echo ARM Assembling(RVCT) ${SOURCE}...'
p3781
aS'c:/marmalade/7.2/s3e\\rvct\\bin\\armasm -o ${TARGET} ${SOURCE}'
p3782
asS'gcc'
p3783
(lp3784
g3780
aS'echo ARM Assembling(GCC) ${SOURCE}...'
p3785
aS'c:/marmalade/7.2/s3e\\gcc\\bin\\arm-none-eabi-gcc -c -o ${TARGET} ${SOURCE}'
p3786
asS'ppu'
p3787
(lp3788
S'.a'
p3789
aS'echo PPU Assembling(SNC) ${SOURCE}...'
p3790
aS'c:/marmalade/7.2/s3e\\rvct\\bin\\armasm -o ${TARGET} ${SOURCE}'
p3791
assS'.s'
p3792
g3777
sS'.vp'
p3793
(lp3794
NaS'"C:/Marmalade/7.2/s3e/python/python.exe" "c:/marmalade/7.2/modules/iwgx/tools/compile_shaders.py" ${SOURCE}'
p3795
asssS'extproject_names'
p3796
(lp3797
sbtp3798
.