((dp0
S'arm_dbg_args'
p1
S'-via:"c:\\Users\\Vinicius\\Desktop\\Yes or No\\Stars\\build_stars_vc12x\\Stars_vc12x_arm_debug.via" -qemu'
p2
sS'game-icf'
p3
S''
p4
sS'dist'
p5
NsS'csproj'
p6
g4
sS'module_path_append'
p7
NsS'global_path'
p8
S'c:\\users\\vinicius\\desktop\\yes or no'
p9
sS'system_path'
p10
S'c:\\marmalade\\7.2\\s3e\\makefile_builder'
p11
sS'android_x86_dbg_args'
p12
S'../../tools/DeployTool/DeployTool.exe --dir "c:\\Users\\Vinicius\\Desktop\\Yes or No\\Stars\\build_stars_vc12x"'
p13
sS'use_prebuilt'
p14
NsS'arm_rel_rtsm_args'
p15
S'-via:"c:\\Users\\Vinicius\\Desktop\\Yes or No\\Stars\\build_stars_vc12x\\Stars_vc12x_arm_release.via" -qemu'
p16
sS'amd64'
p17
NsS'line-width'
p18
I80
sS'gcc_dbg_args'
p19
S'-via:"c:\\Users\\Vinicius\\Desktop\\Yes or No\\Stars\\build_stars_vc12x\\Stars_vc12x_gcc_debug.via" -qemu'
p20
sS'android-x86'
p21
NsS'x86_dbg_exe'
p22
S'c:/marmalade/7.2/s3e\\win32\\s3e_simulator_debug.exe'
p23
sS'disable-runtime-checks'
p24
NsS'release'
p25
NsS'no-make'
p26
NsS'optimise-size'
p27
NsS'output-name-debug'
p28
g4
sS'arm-fpu'
p29
S'vfp'
p30
sS'proj_name'
p31
S'Stars_vc12x'
p32
sS'rvct-version'
p33
S'none'
p34
sS'compiler'
p35
g4
sS'execute'
p36
NsS'compile-static'
p37
NsS'msvc-project'
p38
NsS'buildenv'
p39
S'VC12X'
p40
sS'quick'
p41
NsS'module_path'
p42
(lp43
S'c:/Users/Vinicius/Desktop/Yes or No/Stars/modules'
p44
asS'use-release-std-libs'
p45
NsS'using_perforce'
p46
I00
sS'tizen-x86'
p47
NsS'mips-s3e'
p48
NsS'ios-no-pic'
p49
NsS'shared-arm-lib'
p50
NsS'arm-cpu'
p51
g4
sS'compile-thumb'
p52
NsS'no-ide'
p53
NsS'msvc-version'
p54
S'6.0'
p55
sS'arm'
p56
NsS'builddir'
p57
g4
sS'compile-debug-as-release'
p58
I0
sS'brief'
p59
NsS'dll'
p60
NsS'buildenv-toolset'
p61
g4
sS'version'
p62
NsS'ccache'
p63
I0
sS'offline'
p64
NsS'ios-version'
p65
g4
sS'hub_data'
p66
g4
sS'fake_vc_call'
p67
I01
sS'jobs'
p68
I0
sS'linkflags'
p69
NsS'tizen-x86-toolsroot'
p70
S'c:/marmalade/7.2/s3e\\..\\tools\\gcc\\x86\\tizen_windows'
p71
sS'debug'
p72
NsS'xcode-build-order'
p73
g4
sS'gcc_rel_rtsm_args'
p74
S'-via:"c:\\Users\\Vinicius\\Desktop\\Yes or No\\Stars\\build_stars_vc12x\\Stars_vc12x_gcc_release.via" -qemu'
p75
sS'done_defaults'
p76
I1
sS'path'
p77
NsS's3e-data-dir'
p78
S'c:/Users/Vinicius/Desktop/Yes or No/Stars\\data'
p79
sS'enable-exceptions'
p80
NsS'osx-dll'
p81
NsS'extension'
p82
g4
sS'no-vc6'
p83
NsS'non-interactive'
p84
NsS'win32-console'
p85
NsS'dist-format'
p86
g4
sS's3e-force-arch'
p87
NsS'dump_defines'
p88
NsS'verbose'
p89
I0
sS'gcc-version'
p90
g4
sS'x86_dbg_args'
p91
S'-via:"c:\\Users\\Vinicius\\Desktop\\Yes or No\\Stars\\build_stars_vc12x\\Stars_vc12x_debug.via"'
p92
sS'tizen_x86_dbg_args'
p93
g13
sS'arm-debugger'
p94
g4
sS'use_temp_extension'
p95
NsS'log'
p96
NsS'no-strip'
p97
NsS'rebuild'
p98
NsS'win32-simulator-dll'
p99
NsS'strict'
p100
NsS'mips_dbg_args'
p101
g13
sS'enable-global-path'
p102
NsS'cflags'
p103
NsS'dist-dir'
p104
g4
sS'jflags'
p105
NsS'csprojSDKRefs'
p106
g4
sS'tizen_x86_rel_exe'
p107
S'c:\\marmalade\\7.2\\s3e\\makefile_builder\\tool_launcher.exe'
p108
sS'test-assets'
p109
g4
sS'distcc'
p110
NsS'external-compiler'
p111
NsS'no-distcc'
p112
NsS'preinclude'
p113
NsS'using_sdk'
p114
I01
sS'nologo'
p115
NsS'warn-level'
p116
I2
sS'mips_dbg_exe'
p117
g108
sS'mkb_in'
p118
S'c:/Users/Vinicius/Desktop/Yes or No/Stars/Stars.mkb'
p119
sS'tizen_x86_dbg_exe'
p120
g108
sS'arm_dbg_exe'
p121
S'c:/marmalade/7.2/s3e\\bin\\armdebug.exe'
p122
sS'csprojDLLRef'
p123
NsS'tizen_x86_rel_args'
p124
g13
sS'android_x86_dbg_exe'
p125
g108
sS'test-config'
p126
g4
sS'list-targets'
p127
NsS'arm_rel_exe'
p128
g108
sS'arm_rel_args'
p129
g13
sS'makedeps'
p130
NsS'android_x86_rel_exe'
p131
g108
sS'default-buildenv'
p132
S'VC12X'
p133
sS'x86_rel_exe'
p134
g23
sS'preprocess-java'
p135
NsS'mips_rel_args'
p136
g13
sS'defines'
p137
NsS'lib'
p138
NsS'global_argv'
p139
(lp140
S'C:\\Marmalade\\7.2\\s3e\\makefile_builder\\mkb.py'
p141
aS'C:/Users/Vinicius/Desktop/Yes or No/Stars/Stars.mkb'
p142
aS'--buildenv=VC12X'
p143
aS'--fake-vc-call'
p144
asS'make'
p145
NsS'optimise-speed'
p146
NsS'internal'
p147
NsS'enable-stdinc'
p148
NsS'deploy-only'
p149
NsS'x86'
p150
NsS'deploy'
p151
g4
sS'x86_run_exe'
p152
S'c:/marmalade/7.2/s3e\\win32\\s3e_console.exe'
p153
sS'x86_rel_args'
p154
S'-via:"c:\\Users\\Vinicius\\Desktop\\Yes or No\\Stars\\build_stars_vc12x\\Stars_vc12x_release.via"'
p155
sS'gcc_rel_args'
p156
g13
sS'mips'
p157
NsS'xcode-build-settings'
p158
g4
sS'incredibuild'
p159
NsS'strict-compile'
p160
NsS'use-auto-subdirs'
p161
NsS'mips_rel_exe'
p162
g108
sS'android_x86_rel_args'
p163
g13
sS'app-icf'
p164
g4
sS'deployargs'
p165
NsS'iosnativedebug'
p166
NsS'mkf_in'
p167
(lp168
S'c:\\marmalade\\7.2\\extensions\\s3ewebview\\s3ewebview.mkf'
p169
aS'c:\\marmalade\\7.2\\modules\\iwutil\\iwutil.mkf'
p170
aS'c:\\marmalade\\7.2\\modules\\third_party\\libjpeg\\libjpeg.mkf'
p171
aS'c:\\marmalade\\7.2\\modules\\third_party\\libpng\\libpng.mkf'
p172
aS'c:\\marmalade\\7.2\\modules\\third_party\\zlib\\zlib.mkf'
p173
aS'c:\\marmalade\\7.2\\extensions\\s3efacebook\\s3efacebook.mkf'
p174
aS'c:\\marmalade\\7.2\\modules\\iw2d\\iw2d.mkf'
p175
aS'c:\\marmalade\\7.2\\modules\\iwgx\\iwgx.mkf'
p176
aS'c:\\marmalade\\7.2\\modules\\iwgl\\iwgl.mkf'
p177
aS'c:\\marmalade\\7.2\\modules\\iwgeom\\iwgeom.mkf'
p178
aS'c:\\marmalade\\7.2\\modules\\iwresmanager\\iwresmanager.mkf'
p179
aS'c:\\marmalade\\7.2\\modules\\iwgxfont\\iwgxfont.mkf'
p180
aS'c:\\marmalade\\7.2\\modules\\third_party\\tiniconv\\tiniconv.mkf'
p181
aS'c:\\marmalade\\7.2\\modules\\iw2dscenegraph\\iw2dscenegraph.mkf'
p182
aS'c:\\marmalade\\7.2\\modules\\iw2dscenegraphcore\\iw2dscenegraphcore.mkf'
p183
aS'c:\\marmalade\\7.2\\modules\\iwtween\\iwtween.mkf'
p184
aS'c:\\users\\vinicius\\desktop\\yes or no\\stars\\modules\\soundengine\\soundengine.mkf'
p185
aS'c:\\marmalade\\7.2\\extensions\\s3eflurry\\s3eflurry.mkf'
p186
asS'strict-mkb'
p187
NsS'executeargs'
p188
NsS'clean'
p189
NsS'no-asm'
p190
NsS'output-name'
p191
g4
sS'no-modules'
p192
NsS'find_define'
p193
g4
s(dp194
S'c:\\marmalade\\7.2\\s3e\\makefile_builder\\templates\\ws8_sln.pyc'
p195
F1396656910.0
sS'c:\\marmalade\\7.2\\s3e\\makefile_builder\\plugins\\java.pyc'
p196
F1396656908.0
sS'c:\\marmalade\\7.2\\s3e\\makefile_builder\\plugins\\S3EEmitter.pyc'
p197
F1396656908.0
sS'c:\\marmalade\\7.2\\s3e\\makefile_builder\\templates\\win32_vcxproj_filters.pyc'
p198
F1396656910.0
sS'c:\\marmalade\\7.2\\s3e\\makefile_builder\\plugins\\xcode4_schememanagement.py'
p199
F1396655700.0
sS'c:\\marmalade\\7.2\\s3e\\makefile_builder\\plugins\\linux_scons.pyc'
p200
F1396656910.0
sS'c:\\marmalade\\7.2\\s3e\\makefile_builder\\templates\\wp8_sln.pyc'
p201
F1396656910.0
sS'c:\\marmalade\\7.2\\s3e\\makefile_builder\\templates\\ws8_ext_sln.pyc'
p202
F1396656910.0
sS'c:\\marmalade\\7.2\\s3e\\makefile_builder\\templates\\MainWindow.xib'
p203
F1396655700.0
sS'c:\\marmalade\\7.2\\s3e\\makefile_builder\\templates\\ws81_ext_sln.pyc'
p204
F1396656910.0
sS'c:\\marmalade\\7.2\\s3e\\makefile_builder\\plugins\\Win8Emitter.pyc'
p205
F1396656910.0
sS'c:\\marmalade\\7.2\\s3e\\makefile_builder\\templates\\win8_ext_csproj.pyc'
p206
F1396656910.0
sS'c:\\marmalade\\7.2\\s3e\\makefile_builder\\templates\\rvct_linker_script'
p207
F1396655702.0
sS'c:\\marmalade\\7.2\\s3e\\makefile_builder\\templates\\win8_sln.pyc'
p208
F1396656910.0
sS'c:\\marmalade\\7.2\\s3e\\makefile_builder\\templates\\ws8_ext_csproj.pyc'
p209
F1396656910.0
sS'c:\\marmalade\\7.2\\s3e\\makefile_builder\\plugins\\s3e_make.pyc'
p210
F1396656908.0
sS'c:\\marmalade\\7.2\\s3e\\makefile_builder\\templates\\wp8_csproj_user.pyc'
p211
F1396656910.0
sS'c:\\marmalade\\7.2\\s3e\\makefile_builder\\plugins\\s3e_scons.pyc'
p212
F1396656908.0
sS'c:\\marmalade\\7.2\\s3e\\makefile_builder\\plugins\\s3e_qmake.py'
p213
F1396655700.0
sS'c:\\marmalade\\7.2\\s3e\\makefile_builder\\docs\\deprecated.options.txt'
p214
F1396655698.0
sS'c:\\marmalade\\7.2\\s3e\\makefile_builder\\plugins\\ws8_ws8.pyc'
p215
F1396656910.0
sS'c:\\marmalade\\7.2\\s3e\\makefile_builder\\templates\\ws81_sln.pyc'
p216
F1396656910.0
sS'c:\\marmalade\\7.2\\s3e\\makefile_builder\\templates\\ws81_ext_csproj.pyc'
p217
F1396656910.0
sS'c:\\marmalade\\7.2\\s3e\\makefile_builder\\templates\\wp8_vcxproj.pyc'
p218
F1396656910.0
sS'c:\\marmalade\\7.2\\s3e\\makefile_builder\\templates\\vc6_opt.pyc'
p219
F1396656910.0
sS'c:\\marmalade\\7.2\\s3e\\makefile_builder\\plugins\\deploy.pyc'
p220
F1396656908.0
sS'c:\\marmalade\\7.2\\s3e\\makefile_builder\\templates\\scons.pyc'
p221
F1396656910.0
sS'c:\\marmalade\\7.2\\s3e\\makefile_builder\\templates\\win32_vcproj.pyc'
p222
F1396656910.0
sS'c:\\marmalade\\7.2\\s3e\\makefile_builder\\templates\\win8_csproj.pyc'
p223
F1396656910.0
sS'c:\\marmalade\\7.2\\s3e\\makefile_builder\\extensions\\make_dist.py'
p224
F1396655698.0
sS'c:\\marmalade\\7.2\\s3e\\makefile_builder\\templates\\gdb_start.txt'
p225
F1396655702.0
sS'c:\\marmalade\\7.2\\s3e\\makefile_builder\\templates\\vc8_user.pyc'
p226
F1396656910.0
sS'c:\\marmalade\\7.2\\s3e\\makefile_builder\\plugins\\s3e_win8.pyc'
p227
F1396656910.0
sS'c:\\marmalade\\7.2\\s3e\\makefile_builder\\templates\\win32_sln.pyc'
p228
F1396656910.0
sS'c:\\marmalade\\7.2\\s3e\\makefile_builder\\docs\\options.txt'
p229
F1396655698.0
sS'c:\\marmalade\\7.2\\s3e\\makefile_builder\\mkb.py'
p230
F1396655698.0
sS'c:\\marmalade\\7.2\\s3e\\makefile_builder\\templates\\Info.plist'
p231
F1396655700.0
sS'c:\\marmalade\\7.2\\s3e\\makefile_builder\\docs\\parse_options.pyc'
p232
F1396656912.0
sS'c:\\marmalade\\7.2\\s3e\\makefile_builder\\templates\\ws8_csproj.pyc'
p233
F1396656910.0
sS'c:\\marmalade\\7.2\\s3e\\makefile_builder\\templates\\ws81_csproj.pyc'
p234
F1396656910.0
sS'c:\\marmalade\\7.2\\s3e\\makefile_builder\\plugins\\osx_xcode.pyc'
p235
F1396656910.0
sS'c:\\marmalade\\7.2\\s3e\\makefile_builder\\plugins\\s3e_xcode.pyc'
p236
F1397674110.1375155
sS'c:\\marmalade\\7.2\\s3e\\makefile_builder\\plugins\\xcode4_schememanagement.pyc'
p237
F1397674109.1068296
sS'c:\\marmalade\\7.2\\s3e\\makefile_builder\\templates\\xcode4.xcscheme'
p238
F1396655704.0
sS'c:\\marmalade\\7.2\\s3e\\makefile_builder\\plugins\\Emitter.pyc'
p239
F1396656908.0
sS'c:\\marmalade\\7.2\\s3e\\makefile_builder\\templates\\mips_linker_script'
p240
F1396655702.0
sS'c:\\marmalade\\7.2\\s3e\\makefile_builder\\templates\\ws8_vcxproj.pyc'
p241
F1396656910.0
sS'c:\\marmalade\\7.2\\s3e\\makefile_builder\\plugins\\win32_vc6.pyc'
p242
F1396656910.0
sS'c:\\marmalade\\7.2\\s3e\\makefile_builder\\mkb_parser.pyc'
p243
F1396656908.0
sS'c:\\marmalade\\7.2\\s3e\\makefile_builder\\templates\\ws81_csproj_user.pyc'
p244
F1396656910.0
sS'c:\\marmalade\\7.2\\s3e\\makefile_builder\\templates\\linker_script'
p245
F1396655702.0
sS'c:\\marmalade\\7.2\\s3e\\makefile_builder\\docs\\deprecated.defines.txt'
p246
F1396655698.0
sS'c:\\marmalade\\7.2\\s3e\\makefile_builder\\templates\\template.suo'
p247
F1396655702.0
sS'c:\\marmalade\\7.2\\s3e\\makefile_builder\\templates\\make.py'
p248
F1396655702.0
sS'c:\\marmalade\\7.2\\s3e\\makefile_builder\\extensions'
p249
F1397673792.7230873
sS'c:\\marmalade\\7.2\\s3e\\makefile_builder\\templates\\win32_dsp.pyc'
p250
F1396656910.0
sS'c:\\marmalade\\7.2\\s3e\\makefile_builder\\templates\\wp8_ext_csproj.pyc'
p251
F1396656910.0
sS'c:\\marmalade\\7.2\\s3e\\makefile_builder\\plugins\\MakeEmitter.pyc'
p252
F1396656908.0
sS'c:\\marmalade\\7.2\\s3e\\makefile_builder\\plugins\\XcodeEmitter.pyc'
p253
F1397674109.0167696
sS'c:\\marmalade\\7.2\\s3e\\makefile_builder\\templates\\win32_dsw.pyc'
p254
F1396656910.0
sS'c:\\marmalade\\7.2\\s3e\\makefile_builder\\docs\\mkb.defines.txt'
p255
F1396655698.0
sS'c:\\marmalade\\7.2\\s3e\\makefile_builder\\docs\\deployment_options.txt'
p256
F1396655698.0
sS'c:\\marmalade\\7.2\\s3e\\makefile_builder\\plugins\\s3e_qmake.pyc'
p257
F1397674109.7792768
sS'c:\\marmalade\\7.2\\s3e\\makefile_builder\\plugins\\ws81_ws81.pyc'
p258
F1396656910.0
sS'c:\\marmalade\\7.2\\s3e\\makefile_builder\\templates\\win32_vcxproj.pyc'
p259
F1396656910.0
sS'c:\\marmalade\\7.2\\s3e\\makefile_builder\\docs'
p260
F1397673793.1573761
sS'c:\\marmalade\\7.2\\s3e\\makefile_builder\\plugins\\XcodeEmitter.py'
p261
F1396655698.0
sS'c:\\marmalade\\7.2\\s3e\\makefile_builder\\templates\\template.opt'
p262
F1396655702.0
sS'c:\\marmalade\\7.2\\s3e\\makefile_builder\\tool_launcher.exe'
p263
F1396656088.0
sS'c:\\marmalade\\7.2\\s3e\\makefile_builder\\templates\\xcode.py'
p264
F1396655702.0
sS'c:\\marmalade\\7.2\\s3e\\makefile_builder\\plugins\\VisualStudioEmitter.pyc'
p265
F1396656908.0
sS'c:\\marmalade\\7.2\\s3e\\makefile_builder\\plugins\\osx_scons.pyc'
p266
F1396656910.0
sS'c:\\marmalade\\7.2\\s3e\\makefile_builder\\templates'
p267
F1397673792.65204
sS'c:\\marmalade\\7.2\\s3e\\makefile_builder\\templates\\ws81_vcxproj.pyc'
p268
F1396656910.0
sS'c:\\marmalade\\7.2\\s3e\\makefile_builder\\templates\\win8_vcxproj.pyc'
p269
F1396656910.0
sS'c:\\marmalade\\7.2\\s3e\\makefile_builder\\plugins\\s3e_ws8.pyc'
p270
F1396656910.0
sS'c:\\marmalade\\7.2\\s3e\\makefile_builder\\templates\\wp8_csproj.pyc'
p271
F1396656910.0
sS'c:\\marmalade\\7.2\\s3e\\makefile_builder\\templates\\vc7_suo.pyc'
p272
F1396656910.0
sS'c:\\marmalade\\7.2\\s3e\\makefile_builder\\plugins\\SConsEmitter.pyc'
p273
F1396656908.0
sS'c:\\marmalade\\7.2\\s3e\\makefile_builder\\mkb_option.pyc'
p274
F1396656908.0
sS'c:\\marmalade\\7.2\\s3e\\makefile_builder\\templates\\ws8_csproj_user.pyc'
p275
F1396656910.0
sS'c:\\marmalade\\7.2\\s3e\\makefile_builder\\mkb_main.pyc'
p276
F1396656908.0
sS'c:\\marmalade\\7.2\\s3e\\makefile_builder\\plugins'
p277
F1397674110.1315114
sS'c:\\marmalade\\7.2\\s3e\\makefile_builder\\plugins\\s3e_web.pyc'
p278
F1396656908.0
sS'c:\\marmalade\\7.2\\s3e\\makefile_builder\\plugins\\s3e_ws81.pyc'
p279
F1396656910.0
sS'c:\\marmalade\\7.2\\s3e\\makefile_builder\\mkb_globals.pyc'
p280
F1396656908.0
sS'c:\\marmalade\\7.2\\s3e\\makefile_builder\\plugins\\iphone.pyc'
p281
F1396656910.0
sS'c:\\marmalade\\7.2\\s3e\\makefile_builder\\mkb_launcher.exe'
p282
F1396656088.0
sS'c:\\marmalade\\7.2\\s3e\\makefile_builder\\plugins\\vc7_utils.pyc'
p283
F1396656908.0
sS'c:\\marmalade\\7.2\\s3e\\makefile_builder\\plugins\\s3e_wp8.pyc'
p284
F1396656910.0
sS'c:\\marmalade\\7.2\\s3e\\makefile_builder\\plugins\\vc6_utils.pyc'
p285
F1396656908.0
sS'c:\\marmalade\\7.2\\s3e\\makefile_builder\\deployment.pyc'
p286
F1396656908.0
sS'c:\\marmalade\\7.2\\s3e\\makefile_builder\\plugins\\s3e_vc6.pyc'
p287
F1396656908.0
sS'c:\\marmalade\\7.2\\s3e\\makefile_builder\\plugins\\null.pyc'
p288
F1396656908.0
sS'c:\\marmalade\\7.2\\s3e\\makefile_builder\\templates\\qmake.py'
p289
F1396655702.0
sS'c:\\marmalade\\7.2\\s3e\\makefile_builder\\templates\\xcode4_DeployTool.xcscheme'
p290
F1396655704.0
sS'c:\\marmalade\\7.2\\s3e\\makefile_builder\\templates\\win8_csproj_user.pyc'
p291
F1396656910.0
sS'c:\\marmalade\\7.2\\s3e\\makefile_builder\\plugins\\win8_utils.pyc'
p292
F1396656908.0
sS'c:\\marmalade\\7.2\\s3e\\makefile_builder\\mkb_util.pyc'
p293
F1396656908.0
sS'c:\\marmalade\\7.2\\s3e\\makefile_builder\\plugins\\wp8_wp8.pyc'
p294
F1396656910.0
sS'c:\\marmalade\\7.2\\s3e\\makefile_builder\\plugins\\s3e_xcode.py'
p295
F1396655700.0
sS'c:\\marmalade\\7.2\\s3e\\makefile_builder\\templates\\vc10_user.pyc'
p296
F1396656910.0
sS'c:\\marmalade\\7.2\\s3e\\makefile_builder\\templates\\qmake_user.py'
p297
F1396655702.0
sS'c:\\marmalade\\7.2\\s3e\\makefile_builder\\templates\\xcode_pbxuser.py'
p298
F1396655704.0
sccopy_reg
_reconstructor
p299
(cmkb_main
MkbFile
p300
c__builtin__
object
p301
Ntp302
Rp303
(dp304
g5
(lp305
sS'target_name'
p306
S'Stars'
p307
sS'current_file'
p308
g119
sS'package_path'
p309
(lp310
sS'post_build'
p311
(lp312
(lp313
S'c:/marmalade/7.2/s3e/tools'
p314
aS'C:\\Marmalade\\7.2\\s3e\\python\\python.exe .\\process_map.py "$(TargetPath)"'
p315
aa(S'c:\\marmalade\\7.2\\s3e\\bin'
p316
S'"s3e_plink" -l "$(TargetPath)" '
p317
g150
tp318
asS'librarys'
p319
(lp320
g299
(cmkb_main
Library
p321
g301
Ntp322
Rp323
(dp324
S'name'
p325
S'vc6_compat.lib'
p326
sS'expand_name'
p327
I00
sS'include_spec_rvct_objs'
p328
(lp329
sS'include_all_objs'
p330
I00
sS'share_arm'
p331
I00
sS'arch'
p332
S'x86'
p333
sS'nodebug'
p334
I00
sg35
Nsbag299
(g321
g301
Ntp335
Rp336
(dp337
g325
S'iwutil'
p338
sg327
I01
sg328
(lp339
sg330
Nsg331
Nsg332
Nsg334
I00
sg35
Nsbag299
(g321
g301
Ntp340
Rp341
(dp342
g325
S'jpeg'
p343
sg327
I01
sg328
g339
sg330
Nsg331
Nsg332
Nsg334
I00
sg35
Nsbag299
(g321
g301
Ntp344
Rp345
(dp346
g325
S'z'
p347
sg327
I01
sg328
g339
sg330
Nsg331
Nsg332
Nsg334
I00
sg35
Nsbag299
(g321
g301
Ntp348
Rp349
(dp350
g325
S'png'
p351
sg327
I01
sg328
g339
sg330
Nsg331
Nsg332
Nsg334
I00
sg35
Nsbag299
(g321
g301
Ntp352
Rp353
(dp354
g325
S'iw2d'
p355
sg327
I01
sg328
g339
sg330
Nsg331
Nsg332
Nsg334
I00
sg35
Nsbag299
(g321
g301
Ntp356
Rp357
(dp358
g325
S'ATI_Compress_MT_VC7.lib'
p359
sg327
I00
sg328
g339
sg330
Nsg331
Nsg332
S'x86'
p360
sg334
I00
sg35
Nsbag299
(g321
g301
Ntp361
Rp362
(dp363
g325
S'iwgx'
p364
sg327
I01
sg328
g339
sg330
Nsg331
Nsg332
Nsg334
I00
sg35
Nsbag299
(g321
g301
Ntp365
Rp366
(dp367
g325
S'iwgl'
p368
sg327
I01
sg328
g339
sg330
Nsg331
Nsg332
Nsg334
I00
sg35
Nsbag299
(g321
g301
Ntp369
Rp370
(dp371
g325
S'iwgeom'
p372
sg327
I01
sg328
g339
sg330
Nsg331
Nsg332
Nsg334
I00
sg35
Nsbag299
(g321
g301
Ntp373
Rp374
(dp375
g325
S'iwresmanager'
p376
sg327
I01
sg328
g339
sg330
Nsg331
Nsg332
Nsg334
I00
sg35
Nsbag299
(g321
g301
Ntp377
Rp378
(dp379
g325
S'iwgxfont'
p380
sg327
I01
sg328
g339
sg330
Nsg331
Nsg332
Nsg334
I00
sg35
Nsbag299
(g321
g301
Ntp381
Rp382
(dp383
g325
S'tiniconv'
p384
sg327
I01
sg328
g339
sg330
Nsg331
Nsg332
Nsg334
I00
sg35
Nsbag299
(g321
g301
Ntp385
Rp386
(dp387
g325
S's3e_cpp'
p388
sg327
I01
sg328
g329
sg330
I00
sg331
I00
sg332
Nsg334
I00
sg35
Nsbag299
(g321
g301
Ntp389
Rp390
(dp391
g325
S's3e'
p392
sg327
I01
sg328
(lp393
S'iwcrt.o'
p394
asg330
I00
sg331
I00
sg332
Nsg334
I00
sg35
Nsbag299
(g321
g301
Ntp395
Rp396
(dp397
g325
S's3e_api'
p398
sg327
I01
sg328
g329
sg330
I00
sg331
I00
sg332
S'x86'
p399
sg334
I01
sg35
Nsbag299
(g321
g301
Ntp400
Rp401
(dp402
g325
S's3e_api'
p403
sg327
I01
sg328
g329
sg330
I00
sg331
I00
sg332
S'!x86'
p404
sg334
I01
sg35
Nsbag299
(g321
g301
Ntp405
Rp406
(dp407
g325
S'stdc++'
p408
sg327
I00
sg328
g329
sg330
I00
sg331
I00
sg332
S'mips'
p409
sg334
I00
sg35
Nsbag299
(g321
g301
Ntp410
Rp411
(dp412
g325
S'c'
p413
sg327
I00
sg328
g329
sg330
I00
sg331
I00
sg332
S'mips'
p414
sg334
I00
sg35
Nsbag299
(g321
g301
Ntp415
Rp416
(dp417
g325
S'm'
p418
sg327
I00
sg328
g329
sg330
I00
sg331
I00
sg332
S'mips'
p419
sg334
I00
sg35
Nsbag299
(g321
g301
Ntp420
Rp421
(dp422
g325
S'gcc'
p423
sg327
I00
sg328
g329
sg330
I00
sg331
I00
sg332
S'mips'
p424
sg334
I00
sg35
Nsbag299
(g321
g301
Ntp425
Rp426
(dp427
g325
S'stdc++'
p428
sg327
I00
sg328
g329
sg330
I00
sg331
I00
sg332
S'gcc_x86_tizen'
p429
sg334
I00
sg35
Nsbag299
(g321
g301
Ntp430
Rp431
(dp432
g325
g413
sg327
I00
sg328
g329
sg330
I00
sg331
I00
sg332
S'gcc_x86_tizen'
p433
sg334
I00
sg35
Nsbag299
(g321
g301
Ntp434
Rp435
(dp436
g325
g418
sg327
I00
sg328
g329
sg330
I00
sg331
I00
sg332
S'gcc_x86_tizen'
p437
sg334
I00
sg35
Nsbag299
(g321
g301
Ntp438
Rp439
(dp440
g325
S'gcc'
p441
sg327
I00
sg328
g329
sg330
I00
sg331
I00
sg332
S'gcc_x86_tizen'
p442
sg334
I00
sg35
Nsbag299
(g321
g301
Ntp443
Rp444
(dp445
g325
S'gcc_eh'
p446
sg327
I00
sg328
g329
sg330
I00
sg331
I00
sg332
S'gcc_x86_tizen'
p447
sg334
I00
sg35
Nsbag299
(g321
g301
Ntp448
Rp449
(dp450
g325
S'stdc++'
p451
sg327
I00
sg328
g329
sg330
I00
sg331
I00
sg332
S'gcc_x86_android'
p452
sg334
I00
sg35
Nsbag299
(g321
g301
Ntp453
Rp454
(dp455
g325
g413
sg327
I00
sg328
g329
sg330
I00
sg331
I00
sg332
S'gcc_x86_android'
p456
sg334
I00
sg35
Nsbag299
(g321
g301
Ntp457
Rp458
(dp459
g325
g418
sg327
I00
sg328
g329
sg330
I00
sg331
I00
sg332
S'gcc_x86_android'
p460
sg334
I00
sg35
Nsbag299
(g321
g301
Ntp461
Rp462
(dp463
g325
S'gcc'
p464
sg327
I00
sg328
g329
sg330
I00
sg331
I00
sg332
S'gcc_x86_android'
p465
sg334
I00
sg35
NsbasS'library_paths'
p466
(lp467
g299
(cmkb_main
LibraryPath
p468
g301
Ntp469
Rp470
(dp471
S'expand_path'
p472
I01
sS'add_cpu_variant'
p473
I00
sg325
S'c:/marmalade/7.2/modules/iwutil'
p474
sbag299
(g468
g301
Ntp475
Rp476
(dp477
g472
I01
sg473
I00
sg325
S'c:/marmalade/7.2/modules/third_party/libjpeg'
p478
sbag299
(g468
g301
Ntp479
Rp480
(dp481
g472
I01
sg473
I00
sg325
S'c:/marmalade/7.2/modules/third_party/zlib'
p482
sbag299
(g468
g301
Ntp483
Rp484
(dp485
g472
I01
sg473
I00
sg325
S'c:/marmalade/7.2/modules/third_party/libpng'
p486
sbag299
(g468
g301
Ntp487
Rp488
(dp489
g472
I01
sg473
I00
sg325
S'c:/marmalade/7.2/modules/iw2d'
p490
sbag299
(g468
g301
Ntp491
Rp492
(dp493
g472
I00
sg473
I00
sg325
S'c:/marmalade/7.2/modules/iwgx/atitools'
p494
sbag299
(g468
g301
Ntp495
Rp496
(dp497
g472
I01
sg473
I00
sg325
S'c:/marmalade/7.2/modules/iwgx'
p498
sbag299
(g468
g301
Ntp499
Rp500
(dp501
g472
I01
sg473
I00
sg325
S'c:/marmalade/7.2/modules/iwgl'
p502
sbag299
(g468
g301
Ntp503
Rp504
(dp505
g472
I01
sg473
I00
sg325
S'c:/marmalade/7.2/modules/iwgeom'
p506
sbag299
(g468
g301
Ntp507
Rp508
(dp509
g472
I01
sg473
I00
sg325
S'c:/marmalade/7.2/modules/iwresmanager'
p510
sbag299
(g468
g301
Ntp511
Rp512
(dp513
g472
I01
sg473
I00
sg325
S'c:/marmalade/7.2/modules/iwgxfont'
p514
sbag299
(g468
g301
Ntp515
Rp516
(dp517
g472
I01
sg473
I00
sg325
S'c:/marmalade/7.2/modules/third_party/tiniconv'
p518
sbag299
(g468
g301
Ntp519
Rp520
(dp521
g472
I01
sg473
I00
sg325
S'c:/marmalade/7.2/s3e'
p522
sbasS'macros'
p523
(dp524
S'IW_TRACE_CHANNEL_WEBVIEW_VERBOSE'
p525
S'2'
p526
sS'IW_MKF_S3EFACEBOOK'
p527
NsS'I3D_PLATFORM_S3E'
p528
NsS'IW_TRACE_CHANNEL_FLURRY'
p529
S'1'
p530
sS'IW_USE_CALLSTACK'
p531
NsS'__S3E__'
p532
NsS'IW_TRACE_CHANNEL_WEBVIEW'
p533
g530
sS'IW_MKF_LIBJPEG'
p534
NsS'I3D_OS_S3E'
p535
NsS'IW_ASSERTION_CHANNEL_FLURRY'
p536
g530
sS'IW_MKF_TINICONV'
p537
NsS'IW_APP_VERSION'
p538
S'"1.0"'
p539
sS'IW_MKF_IWRESMANAGER'
p540
NsS'IW_MKF_IWUTIL'
p541
NsS'IW_PLATFORM_S3E'
p542
NsS'IW_ASSERTION_CHANNEL_2D'
p543
g530
sS'IW_APP_NAME'
p544
S'"Stars"'
p545
sS'IW_MKF_IWGXFONT'
p546
NsS'IW_MKF_IWTWEEN'
p547
NsS'IW_MKF_S3EFLURRY'
p548
NsS'IW_MKF_ZLIB'
p549
NsS'IW_MKF_IWGX'
p550
NsS'IW_MKF_IW2DSCENEGRAPH'
p551
NsS'IW_MKF_SOUNDENGINE'
p552
NsS'IW_ASSERTION_CHANNEL_WEBVIEW'
p553
g530
sS'IW_USE_ASSERTIONS'
p554
NsS'_CRT_SECURE_NO_DEPRECATE'
p555
NsS'IW_MKF_IWGL'
p556
NsS'IW_MKF_LIBPNG'
p557
NsS'IW_MKF_S3EWEBVIEW'
p558
NsS'IW_TRACE_CHANNEL_IW_2DSCENEGRAPH'
p559
g530
sS'IW_ASSERTION_CHANNEL_FACEBOOK'
p560
g530
sS'IW_TRACE_CHANNEL_FACEBOOK_VERBOSE'
p561
g526
sS'IW_DEBUG'
p562
NsS'IW_USE_TRACING'
p563
NsS'IW_ASSERTION_CHANNEL_IW_2DSCENEGRAPH'
p564
g530
sS'IW_SDK'
p565
NsS'S3E_INCLUDE_LEGACY'
p566
NsS'IW_MKF_IW2DSCENEGRAPHCORE'
p567
NsS'IW_TRACE_CHANNEL_FACEBOOK'
p568
g530
sS'IW_TRACE_CHANNEL_FLURRY_VERBOSE'
p569
g526
sS'IW_MKF_IW2D'
p570
NsS'IW_MKF_IWGEOM'
p571
NssS'done_warnings'
p572
(dp573
sS'subprojects'
p574
(dp575
g180
S'iwgxfont'
p576
sg174
S's3eFacebook'
p577
sg169
S's3eWebView'
p578
sg170
S'iwutil'
p579
sg176
S'iwgx'
p580
sg183
S'../iw2dscenegraphcore'
p581
sg171
S'libjpeg'
p582
sg172
S'libpng'
p583
sg177
S'iwgl'
p584
sg184
S'iwtween'
p585
sg182
S'iw2dscenegraph'
p586
sg175
S'iw2d'
p587
sg178
S'iwgeom'
p588
sg181
S'tiniconv'
p589
sg173
S'zlib'
p590
sg185
S'SoundEngine'
p591
sg179
S'iwresmanager'
p592
sg186
S's3eFlurry'
p593
ssS'deployments'
p594
(dp595
S'Default'
p596
g299
(cdeployment
Deployment
p597
g301
Ntp598
Rp599
(dp600
S'got_version'
p601
I0
sS'assets'
p602
g596
sS'mkb'
p603
g303
sS'target'
p604
Nsg332
(lp605
sS'options'
p606
(dp607
S'iphone-link-lib'
p608
(lp609
S's3eWebView'
p610
aS's3eFacebook'
p611
aS'FlurryAnalytics'
p612
aS's3eFlurry'
p613
asS'game-icf'
p614
NsS'winmobile-icon32'
p615
NsS'ws8-logo-image150x150'
p616
NsS'ws81-product-version'
p617
NsS'osx-ext-dll'
p618
(lp619
S'c:/marmalade/7.2/extensions/s3ewebview/lib/osx/libs3eWebView.dylib'
p620
aS'c:/marmalade/7.2/extensions/s3eflurry/lib/osx/libs3eFlurry.dylib'
p621
asS'iphone-provisioning-profile'
p622
NsS'ws8-splash-screen-image620x300'
p623
NsS'ws8-ext-capabilities'
p624
(lp625
sS'android-icon-hdpi'
p626
NsS'brew-icon-large'
p627
NsS'iphone-splash-full-orient'
p628
NsS'wp8-tile-fliptemplate-supports-large'
p629
NsS'iphone-show-status-bar'
p630
NsS'roku-requires-mkv'
p631
NsS'long-caption'
p632
NsS'android-pkgname'
p633
NsS'blackberry-permissions-read-device-identifying-information'
p634
NsS'ws81-certificate-end-date'
p635
NsS'psp-dlgcontentid'
p636
NsS'target-folder'
p637
NsS'tizen-dist1-CA-path'
p638
NsS'symbian-icon2-format'
p639
NsS'iphone-region'
p640
NsS'uiq3-icon3-mask'
p641
NsS'brew-encoding'
p642
NsS'android-x86'
p643
NsS'nds-initialcode'
p644
NsS'iphone-persistent-wifi'
p645
NsS'psp-snd0'
p646
NsS'osx-signing-identity-inst'
p647
NsS'winmobile-install-folder'
p648
NsS'android-external-res'
p649
(lp650
S'c:/marmalade/7.2/extensions/s3efacebook/facebook-android-sdk/facebook/res'
p651
asS'ws8-product-version'
p652
NsS'brew-priviledges'
p653
NsS'symbian-icon2-mask-black'
p654
NsS'iphone-icon-ipad'
p655
NsS'roku-hidden'
p656
NsS'psp-titlename'
p657
NsS'symbian-icon1-mask'
p658
NsS'psp-parentallevel'
p659
NsS'splashscreen-use-all'
p660
NsS'wp8-author'
p661
NsS'symbian-disable-ecompxl'
p662
NsS'splashscreen-auto-onblack'
p663
NsS'win32-ext-dll'
p664
(lp665
S'c:/marmalade/7.2/extensions/s3ewebview/lib/win32/s3eWebView.dll'
p666
aS'c:/marmalade/7.2/extensions/s3eflurry/lib/win32/s3eFlurry.dll'
p667
asS'iphone-development-key'
p668
NsS'winmobile-icon48'
p669
NsS'android-unsigned'
p670
NsS'osx-appstore-category'
p671
NsS'version-revision'
p672
NsS'roku-icon-focus-sd'
p673
NsS'android-keystore'
p674
NsS'winmobile-png90'
p675
NsS'iphone-icon-ipad-high-res'
p676
NsS'iphone-disable-ipad'
p677
NsS'wp8-product-id'
p678
NsS'wp8-ext-capabilities'
p679
(lp680
sS'iphone-ipad-only'
p681
NsS'symbian-icon1-mask-black'
p682
NsS'iphone-bundle-localisations'
p683
NsS'winmobile-png60'
p684
NsS'blackberry-permissions-access-shared'
p685
NsS'blackberry-author'
p686
NsS'android-icon-xxxhdpi'
p687
NsS'olddeploytoolstyle'
p688
NsS'android_icon_gallery'
p689
NsS'winmobile-cab-compress'
p690
NsS'ws81-ext-managed-dll'
p691
(lp692
sS'win32-icon'
p693
NsS'symbian-key'
p694
NsS'app-icf'
p695
NsS'blackberry-storepass'
p696
NsS'wp8-tile-fliptemplate-back-title'
p697
NsS'brew-compress-loader'
p698
NsS'win32-pref-windowposy'
p699
NsS'win32-pref-windowposx'
p700
NsS'roku-requires-audiometadata'
p701
NsS'wp8-exclude-low-mem'
p702
NsS'wp8-tile-fliptemplate-title'
p703
NsS'iphone-icon-ipad-search-high-res'
p704
NsS'iphone-link-libdir'
p705
(lp706
S'c:/marmalade/7.2/extensions/s3ewebview/lib/iphone'
p707
aS'c:/marmalade/7.2/extensions/s3efacebook/lib/iphone'
p708
aS'c:/marmalade/7.2/extensions/s3eflurry/lib/iphone'
p709
asS'blackberry-permissions-read-geolocation'
p710
NsS'winmobile-nouninstall'
p711
NsS'tizen-signed'
p712
NsS'android-extra-application-manifest'
p713
(lp714
S'c:/marmalade/7.2/extensions/s3efacebook/source/android/extra_app_manifest.xml'
p715
asS'ws8-ext-native-dll'
p716
(lp717
sS'symbian-icon2-mask'
p718
NsS'iphone-backgroundmode-audio'
p719
NsS'webos-memory'
p720
NsS'android-keypass'
p721
NsS'name'
p722
NsS'uiq3-icon2-format'
p723
NsS'roku-splash-screen-sd'
p724
NsS'auto-derbh'
p725
NsS'roku-icon-side-sd'
p726
NsS'symbian-maxheapsize'
p727
NsS'nds-publicsavedatasize'
p728
NsS'splashscreen'
p729
NsS'brew-mif'
p730
NsS'iphone-icon-settings-high-res'
p731
NsS'android-manifest'
p732
NsS'ws81-splash-screen-image620x300'
p733
NsS's3e-compression'
p734
NsS'tizen-author-password'
p735
NsS'wp8-tile-fliptemplate-back-content'
p736
NsS'symbian-icon1'
p737
NsS'symbian-icon2'
p738
NsS'android-extra-styles-file'
p739
NsS'nds-bannertitle-jp'
p740
NsS'osx-sign-for-store'
p741
NsS'symbian7-uid'
p742
NsS'wp8-tile-fliptemplate-large-back-content'
p743
NsS'nds-bannertitle-cn'
p744
NsS'iphone-distribution-key'
p745
NsS'android-icon-gallery'
p746
NsS'blackberry-keystore'
p747
NsS'iphone-nosign'
p748
NsS'caption'
p749
NsS'android-extra-manifest'
p750
(lp751
sS'android-icon-xxhdpi'
p752
NsS'version-minor'
p753
NsS'iphone-link-libdirs'
p754
(lp755
sS'iphone-icon-large'
p756
NsS'symbian-keypwd'
p757
NsS'symbian8-uid'
p758
NsS'symbian-cert-key'
p759
NsS'winmobile-ampd-part-number'
p760
NsS'arch'
p761
NsS'nds-romheadertemplate'
p762
NsS'webos-icon'
p763
NsS'psp-dlgprotectdocument'
p764
NsS'android-icon-mdpi'
p765
NsS'nds-icon'
p766
NsS'ws8-custom-manifest-fill'
p767
NsS'iphone-development-cert'
p768
NsS'blackberry-phone-icon'
p769
NsS'iphone-enable-4inch-retina'
p770
NsS'ws8-custom-manifest'
p771
NsS'version-major'
p772
NsS'wp8-genre-isgame'
p773
NsS'uiq3-uid'
p774
NsS'iphone-splash-retina-generate'
p775
NsS'tizen-hw-acceleration'
p776
NsS'iphone_bundle_localisations'
p777
NsS'tizen-dist1-key'
p778
NsS'wp8-custom-manifest'
p779
NsS'nds-bannertitle-ge'
p780
NsS'iphone-sign-for-distribution'
p781
NsS'wp8-tile-fliptemplate-medium-back-image'
p782
NsS'wp8-publisher-id'
p783
NsS'icon'
p784
NsS'wp8-exclude-wxga'
p785
NsS'uiq3-icon2-mask'
p786
NsS'iphone-splashscreen-portrait'
p787
NsS'iphone-icon-high-res'
p788
NsS'ws81-distribution-pfx-password'
p789
NsS'playbook-author'
p790
NsS'android-icon-xhdpi'
p791
NsS'linux-ext-lib'
p792
(lp793
sS'blackberry-permissions-access-internet'
p794
NsS'wp8-exclude-720p'
p795
NsS'lgtv-use-drm'
p796
NsS'symbian-platsecflags'
p797
NsS'ws8-description'
p798
NsS'blackberry-playbook-icon'
p799
NsS'copyright'
p800
NsS'version'
p801
NsS'ws81-logo-image150x150'
p802
NsS'osx-signing-identity-app'
p803
NsS'tizen-project-url'
p804
NsS'symbian-icon-svg'
p805
NsS'android-aliasname'
p806
NsS'psp-dlgmanual'
p807
NsS'brew-uid'
p808
NsS'symbian-locationsupport'
p809
NsS'ws8-ext-managed-dll'
p810
(lp811
sS'nds-bannertitle-it'
p812
NsS'ws8-ext-sdk-manifest-part'
p813
(lp814
sS'uiq3-icon1-mask'
p815
NsS'winmobile-icon16'
p816
NsS'ws8-product-name'
p817
NsS'blackberry-cskpass'
p818
NsS'winmobile-start-menu-folder'
p819
NsS'brew-clsid'
p820
NsS'roku-requires-bluetooth'
p821
NsS'ws8-ext-device-capabilities'
p822
(lp823
sS'blackberry-permissions-use-camera'
p824
NsS'iphone-prerendered-icon'
p825
NsS'iphone-appid'
p826
S'com.ideaworks3d.s3eIOSGameCenter'
p827
sS'ws8-identity-name'
p828
NsS'tizen-dist2-CA-path'
p829
NsS'winmobile-icon64'
p830
NsS'blackberry-permissions-post-notification'
p831
NsS'winmobile-setup-dll'
p832
NsS'android-external-jars'
p833
(lp834
S'c:/marmalade/7.2/extensions/s3ewebview/lib/android/s3eWebView.jar'
p835
aS'c:/marmalade/7.2/extensions/s3efacebook/lib/android/s3eFacebook.jar'
p836
aS'c:/marmalade/7.2/extensions/s3efacebook/facebook-android-sdk/libs/android-support-v4.jar'
p837
aS'c:/marmalade/7.2/extensions/s3efacebook/lib/android/annotations-4.1.1.4.jar'
p838
aS'c:/marmalade/7.2/extensions/s3eflurry/lib/android/s3eFlurry.jar'
p839
aS'c:/marmalade/7.2/extensions/s3eflurry/lib/android/FlurryAgent.jar'
p840
asS'symbian9-uid'
p841
NsS'iphone-icon-ipad-ios7'
p842
NsS'winmobile-trace-file'
p843
NsS'roku-splash-color'
p844
NsS'psp-appversion'
p845
NsS'ws8-publisher-id'
p846
NsS'android-supports-gl-texture'
p847
(lp848
sS'winmobile-png45'
p849
NsS'android-storepass'
p850
NsS'roku-icon-focus-hd'
p851
NsS'android-custom-activity'
p852
NsS'psp-discversion'
p853
NsS'psp-copyright'
p854
NsS'embed-icf'
p855
NsS'tizen-manifest'
p856
NsS'osx-icon'
p857
NsS'webos-appinfo'
p858
NsS'psp-dlghealthwarning'
p859
NsS'webos-appid'
p860
NsS'roku-icon-side-hd'
p861
NsS'iphone-icon-ipad-search-high-res-ios7'
p862
NsS'ws81-ext-sdk-manifest-part'
p863
(lp864
sS'loader_name_prefix'
p865
NsS'nds-titlename'
p866
NsS'ws81-logo-image50x50'
p867
NsS'osx-entitlements-plist'
p868
NsS'psp-dlgicon0'
p869
NsS'ws81-ext-device-capabilities'
p870
(lp871
sS'psp-discid'
p872
NsS'tizen-dist2-password'
p873
NsS'ws8-ext-sdk-ref'
p874
(lp875
sS'iphone-extra-string'
p876
(lp877
sS'version-string'
p878
NsS'iphone-icon-high-res-ios7'
p879
NsS'blackberry-permissions-record-audio'
p880
NsS'ws8-certificate-end-date'
p881
NsS'tizen-so'
p882
(lp883
sS'wp8-tile-fliptemplate-small-image'
p884
NsS'pkguid-as-uid'
p885
NsS'iphone-signing-identity'
p886
NsS'roku-persist-quota'
p887
NsS'nds-bannertitle-fr'
p888
NsS'ws8-distribution-pfx'
p889
NsS'ws8-publisher-display-name'
p890
NsS'brew-icon-small'
p891
NsS'psp-dlgpic2'
p892
NsS'psp-dlgpic0'
p893
NsS'psp-pic0'
p894
NsS'psp-pic1'
p895
NsS'psp-icon0'
p896
NsS'psp-icon1'
p897
NsS'ws81-identity-name'
p898
NsS'winmobile-icon'
p899
NsS'iphone-no-splash'
p900
NsS'iphone-splash'
p901
NsS'iphone-app-fonts'
p902
NsS'wp8-ext-native-dll'
p903
(lp904
S'c:/marmalade/7.2/extensions/s3ewebview/lib/wp8/s3eWebViewExtension.dll'
p905
aS'c:/marmalade/7.2/extensions/s3efacebook/lib/wp8/s3eFacebookExtension.dll'
p906
aS'c:/marmalade/7.2/extensions/s3eflurry/lib/wp8/s3eFlurryExtension.dll'
p907
asS'ws81-distribution-cer'
p908
NsS'uiq3-icon2'
p909
NsS'uiq3-icon3'
p910
NsS'uiq3-icon1'
p911
NsS'uiq3-icon1-format'
p912
NsS'ws8-logo-image50x50'
p913
NsS'iphone-icon-ipad-search'
p914
NsS'symbian-run-on-install'
p915
NsS'ws81-publisher-display-name'
p916
NsS'ws81-custom-manifest-fill'
p917
NsS'symbian-soundrecordsupport'
p918
NsS'nds-bannertitle-sp'
p919
NsS'psp-producer'
p920
NsS'iphone-apple-wwdr-cert'
p921
NsS'android-icon-nonstandard'
p922
NsS'win32-pref-processtitle'
p923
NsS'nds-bannertitle-hn'
p924
NsS'tizen-dist2-key'
p925
NsS'brew-depends'
p926
NsS'ws81-custom-manifest'
p927
NsS'iphone-icon-ipad-search-ios7'
p928
NsS'brew-icon-medium'
p929
NsS'iphone-bundle-url-name'
p930
S'ADD_YOUR_OWN_APP_ID'
p931
sS'wp8-tile-fliptemplate-large-front-image'
p932
NsS'tizen-dist2-CA-root-path'
p933
NsS'ws81-description'
p934
NsS'uiq3-icon3-format'
p935
NsS'ws81-logo-image30x30'
p936
NsS'iphone-signing-host'
p937
NsS'tizen-icon'
p938
NsS'osx-info-plist'
p939
NsS'symbian-icon1-format'
p940
NsS'ws81-distribution-pfx'
p941
NsS'blackberry-authorid'
p942
NsS'ws81-publisher-id'
p943
NsS'ws81-ext-sdk-ref'
p944
(lp945
sS'wp8-description'
p946
NsS'iphone-link-opts'
p947
(lp948
S'-F$MARMALADE_ROOT/extensions/s3eFacebook/source/iphone/facebook-ios-sdk -framework FacebookSDK -weak_framework AdSupport -weak_framework Accounts -weak_framework Social -lsqlite3'
p949
aS'-framework SystemConfiguration -framework Security'
p950
asS'roku-splash-min-time'
p951
NsS'wp8-tile-fliptemplate-medium-front-image'
p952
NsS'provider'
p953
NsS'playbook-keystore'
p954
NsS'tizen-appid'
p955
NsS'tizen-author-key'
p956
NsS'symbian-osexecsupport'
p957
NsS'android-install-location'
p958
NsS'nds-privatesavedatasize'
p959
NsS'playbook-storepass'
p960
NsS'android-icon-ldpi'
p961
NsS'manufacturer'
p962
NsS'itunes-artwork'
p963
NsS'iphone-extra-sections'
p964
NsS'ws81-product-name'
p965
NsS'ws81-ext-native-dll'
p966
(lp967
sS'iphone-info-plist'
p968
NsS'ws8-distribution-pfx-password'
p969
NsS'ws8-logo-image30x30'
p970
NsS'wp8-ext-managed-dll'
p971
(lp972
S'c:/marmalade/7.2/extensions/s3ewebview/lib/wp8/s3eWebViewManaged.dll'
p973
aS'c:/marmalade/7.2/extensions/s3efacebook/lib/wp8/s3eFacebookManaged.dll'
p974
aS'c:/marmalade/7.2/extensions/s3efacebook/facebook_wp8_lib/Facebook.Client.dll'
p975
aS'c:/marmalade/7.2/extensions/s3efacebook/facebook_wp8_lib/Facebook.dll'
p976
aS'c:/marmalade/7.2/extensions/s3eflurry/lib/wp8/FlurryWP8SDK.dll'
p977
aS'c:/marmalade/7.2/extensions/s3eflurry/lib/wp8/s3eFlurryManaged.dll'
p978
asS'iphone-splashscreen-landscape'
p979
NsS'nds-makercode'
p980
NsS'priv-sign-key'
p981
NsS'networking'
p982
NsS'android-icon'
p983
NsS'iphone-icon-settings'
p984
NsS'iphone-distribution-cert'
p985
NsS'android_extra_strings'
p986
NsS'nds-bannertitle-en'
p987
NsS'playbook-cskpass'
p988
NsS'android-so'
p989
(lp990
S'c:/marmalade/7.2/extensions/s3ewebview/lib/android/libs3eWebView.so'
p991
aS'c:/marmalade/7.2/extensions/s3efacebook/lib/android/libs3eFacebook.so'
p992
aS'c:/marmalade/7.2/extensions/s3eflurry/lib/android/libs3eFlurry.so'
p993
asS'wp8-higher-mem'
p994
NsS'roku-splash-screen-hd'
p995
NsS'iphone-bundle-url-schemes'
p996
S'fd<FACEBOOK_APP_ID>'
p997
sS'roku-screensaver-private'
p998
NsS'osx-extra-res'
p999
(lp1000
sS'playbook-icon'
p1001
NsS'uid'
p1002
NsS'playbook-authorid'
p1003
NsS'win32-pref-windowtitle'
p1004
NsS'tizen-dist1-password'
p1005
NsS'roku-screensaver-title'
p1006
NsS'osx-minimum-osx-version'
p1007
NsS'symbian-cert'
p1008
NsS'iphone-icon'
p1009
NsS'ws81-ext-capabilities'
p1010
(lp1011
sS'ws8-distribution-cer'
p1012
NsS'playbook-access-shared'
p1013
NsS'iphone-icon-ipad-high-res-ios7'
p1014
NsS'iphone-link-libs'
p1015
(lp1016
sS'wp8-exclude-wvga'
p1017
NsS'assets'
p1018
NsS'wp8-tile-fliptemplate-large-back-image'
p1019
NsS'wp8-custom-manifest-fill'
p1020
NsS'pub-sign-key'
p1021
NsS'android-extra-strings'
p1022
NsS'tizen-author-CA-path'
p1023
Nssg325
g596
sbssS'platform'
p1024
S'S3E'
p1025
sg62
S'1.0'
p1026
sS'arcade_platform'
p1027
g4
sS'extensions'
p1028
(dp1029
sS'source_groups_tree'
p1030
(dp1031
S'(libpng)'
p1032
(dp1033
S'h'
p1034
(dp1035
S'c:/marmalade/7.2/modules/third_party/libpng/h/png.h'
p1036
(lp1037
I1
a(dp1038
asS'c:/marmalade/7.2/modules/third_party/libpng/h/pngconf.h'
p1039
(lp1040
I1
ag1038
assS'c:/marmalade/7.2/modules/third_party/libpng/libpng.mkf'
p1041
(lp1042
I1
a(dp1043
assS'(libjpeg)'
p1044
(dp1045
g1034
(dp1046
S'c:/marmalade/7.2/modules/third_party/libjpeg/h/jinclude.h'
p1047
(lp1048
I1
a(dp1049
asS'c:/marmalade/7.2/modules/third_party/libjpeg/h/jconfig.h'
p1050
(lp1051
I1
ag1049
asS'c:/marmalade/7.2/modules/third_party/libjpeg/h/cdjpeg.h'
p1052
(lp1053
I1
ag1049
asS'c:/marmalade/7.2/modules/third_party/libjpeg/h/jpegint.h'
p1054
(lp1055
I1
ag1049
asS'c:/marmalade/7.2/modules/third_party/libjpeg/h/transupp.h'
p1056
(lp1057
I1
ag1049
asS'c:/marmalade/7.2/modules/third_party/libjpeg/h/jpeglib.h'
p1058
(lp1059
I1
ag1049
asS'c:/marmalade/7.2/modules/third_party/libjpeg/h/jversion.h'
p1060
(lp1061
I1
ag1049
asS'c:/marmalade/7.2/modules/third_party/libjpeg/h/jdct.h'
p1062
(lp1063
I1
ag1049
asS'c:/marmalade/7.2/modules/third_party/libjpeg/h/jdhuff.h'
p1064
(lp1065
I1
ag1049
asS'c:/marmalade/7.2/modules/third_party/libjpeg/h/jmemsys.h'
p1066
(lp1067
I1
ag1049
asS'c:/marmalade/7.2/modules/third_party/libjpeg/h/jmorecfg.h'
p1068
(lp1069
I1
ag1049
asS'c:/marmalade/7.2/modules/third_party/libjpeg/h/jerror.h'
p1070
(lp1071
I1
ag1049
asS'c:/marmalade/7.2/modules/third_party/libjpeg/h/jchuff.h'
p1072
(lp1073
I1
ag1049
asS'c:/marmalade/7.2/modules/third_party/libjpeg/h/cderror.h'
p1074
(lp1075
I1
ag1049
assS'c:/marmalade/7.2/modules/third_party/libjpeg/libjpeg.mkf'
p1076
(lp1077
I1
a(dp1078
assS'(tiniconv)'
p1079
(dp1080
S'c:/marmalade/7.2/modules/third_party/tiniconv/source/tiniconv.h'
p1081
(lp1082
I1
a(dp1083
asS'c:/marmalade/7.2/modules/third_party/tiniconv/source/tiniconv_int.h'
p1084
(lp1085
I1
ag1083
asS'c:/marmalade/7.2/modules/third_party/tiniconv/tiniconv.mkf'
p1086
(lp1087
I1
a(dp1088
assS'(SoundEngine)'
p1089
(dp1090
S'c:/users/vinicius/desktop/yes or no/stars/modules/soundengine/source/IwSoundManager.cpp'
p1091
(lp1092
I1
a(dp1093
asS'c:/users/vinicius/desktop/yes or no/stars/modules/soundengine/soundengine.mkf'
p1094
(lp1095
I1
a(dp1096
asS'c:/users/vinicius/desktop/yes or no/stars/modules/soundengine/source/IwSoundInst.cpp'
p1097
(lp1098
I1
ag1093
asS'c:/users/vinicius/desktop/yes or no/stars/modules/soundengine/source/IwSoundADPCM.cpp'
p1099
(lp1100
I1
ag1093
asS'c:/users/vinicius/desktop/yes or no/stars/modules/soundengine/h/IwSoundManager.h'
p1101
(lp1102
I1
ag1093
asS'c:/users/vinicius/desktop/yes or no/stars/modules/soundengine/h/IwSoundPCM.h'
p1103
(lp1104
I1
ag1093
asS'c:/users/vinicius/desktop/yes or no/stars/modules/soundengine/source/IwSoundData.cpp'
p1105
(lp1106
I1
ag1093
asS'Docs'
p1107
(dp1108
S'c:/users/vinicius/desktop/yes or no/stars/modules/soundengine/docs/iwsound.config.txt'
p1109
(lp1110
I1
ag1093
assS'c:/users/vinicius/desktop/yes or no/stars/modules/soundengine/source/IwResHandlerWAV.cpp'
p1111
(lp1112
I1
ag1093
asS'c:/users/vinicius/desktop/yes or no/stars/modules/soundengine/h/IwSoundInst.h'
p1113
(lp1114
I1
ag1093
asS'c:/users/vinicius/desktop/yes or no/stars/modules/soundengine/h/IwSoundADPCM.h'
p1115
(lp1116
I1
ag1093
asS'c:/users/vinicius/desktop/yes or no/stars/modules/soundengine/source/IwSoundWAV.cpp'
p1117
(lp1118
I1
ag1093
asS'c:/users/vinicius/desktop/yes or no/stars/modules/soundengine/source/IwSoundGroup.cpp'
p1119
(lp1120
I1
ag1093
asS'c:/users/vinicius/desktop/yes or no/stars/modules/soundengine/h/IwSound.h'
p1121
(lp1122
I1
ag1093
asS'c:/users/vinicius/desktop/yes or no/stars/modules/soundengine/h/IwSoundWAV.h'
p1123
(lp1124
I1
ag1093
asS'c:/users/vinicius/desktop/yes or no/stars/modules/soundengine/source/IwSoundPCM.cpp'
p1125
(lp1126
I1
ag1093
asS'c:/users/vinicius/desktop/yes or no/stars/modules/soundengine/h/IwSoundSpec.h'
p1127
(lp1128
I1
ag1093
asS'c:/users/vinicius/desktop/yes or no/stars/modules/soundengine/source/IwSoundParams.cpp'
p1129
(lp1130
I1
ag1093
asS'c:/users/vinicius/desktop/yes or no/stars/modules/soundengine/h/IwSoundGroup.h'
p1131
(lp1132
I1
ag1093
asS'c:/users/vinicius/desktop/yes or no/stars/modules/soundengine/h/IwResHandlerWAV.h'
p1133
(lp1134
I1
ag1093
asS'c:/users/vinicius/desktop/yes or no/stars/modules/soundengine/h/IwSoundParams.h'
p1135
(lp1136
I1
ag1093
asS'c:/users/vinicius/desktop/yes or no/stars/modules/soundengine/h/IwSoundData.h'
p1137
(lp1138
I1
ag1093
asS'c:/users/vinicius/desktop/yes or no/stars/modules/soundengine/source/IwSoundSpec.cpp'
p1139
(lp1140
I1
ag1093
assS'Extensions'
p1141
(dp1142
S's3eWebView'
p1143
(dp1144
S'interface'
p1145
(dp1146
S'c:/marmalade/7.2/extensions/s3ewebview/interface/s3eWebView.defines.txt'
p1147
(lp1148
I1
a(dp1149
asS'c:/marmalade/7.2/extensions/s3ewebview/interface/s3eWebView_interface.cpp'
p1150
(lp1151
I1
ag1149
assS'c:/marmalade/7.2/extensions/s3ewebview/h/s3eWebView.h'
p1152
(lp1153
I1
ag1149
asS'c:/marmalade/7.2/extensions/s3ewebview/s3ewebview.mkf'
p1154
(lp1155
I1
a(dp1156
assS's3eFacebook'
p1157
(dp1158
S'interface'
p1159
(dp1160
S'c:/marmalade/7.2/extensions/s3efacebook/interface/s3eFacebook_interface.cpp'
p1161
(lp1162
I1
a(dp1163
asS'c:/marmalade/7.2/extensions/s3efacebook/interface/s3eFacebook.defines.txt'
p1164
(lp1165
I1
ag1163
assg1034
(dp1166
S'c:/marmalade/7.2/extensions/s3efacebook/h/s3eFacebook.h'
p1167
(lp1168
I1
ag1163
assS'c:/marmalade/7.2/extensions/s3efacebook/s3efacebook.mkf'
p1169
(lp1170
I1
a(dp1171
assS's3eFlurry'
p1172
(dp1173
S'interface'
p1174
(dp1175
S'c:/marmalade/7.2/extensions/s3eflurry/interface/s3eFlurry_interface.cpp'
p1176
(lp1177
I1
a(dp1178
asS'c:/marmalade/7.2/extensions/s3eflurry/interface/s3eFlurry.defines.txt'
p1179
(lp1180
I1
ag1178
assS'c:/marmalade/7.2/extensions/s3eflurry/h/s3eFlurry.h'
p1181
(lp1182
I1
ag1178
asS'c:/marmalade/7.2/extensions/s3eflurry/s3eflurry.mkf'
p1183
(lp1184
I1
a(dp1185
asssS'stars'
p1186
(dp1187
S'main'
p1188
(dp1189
S'c:/Users/Vinicius/Desktop/Yes or No/Stars/source/main.h'
p1190
(lp1191
I1
a(dp1192
asS'c:/Users/Vinicius/Desktop/Yes or No/Stars/source/main.cpp'
p1193
(lp1194
I1
ag1192
asS'c:/Users/Vinicius/Desktop/Yes or No/Stars/source/include.h'
p1195
(lp1196
I1
ag1192
assS'managers'
p1197
(dp1198
S'c:/Users/Vinicius/Desktop/Yes or No/Stars/source/timerManager.cpp'
p1199
(lp1200
I1
ag1192
asS'c:/Users/Vinicius/Desktop/Yes or No/Stars/source/spriteManager.cpp'
p1201
(lp1202
I1
ag1192
asS'c:/Users/Vinicius/Desktop/Yes or No/Stars/source/inputManager.h'
p1203
(lp1204
I1
ag1192
asS'c:/Users/Vinicius/Desktop/Yes or No/Stars/source/sceneManager.cpp'
p1205
(lp1206
I1
ag1192
asS'c:/Users/Vinicius/Desktop/Yes or No/Stars/source/savedataManager.h'
p1207
(lp1208
I1
ag1192
asS'c:/Users/Vinicius/Desktop/Yes or No/Stars/source/timerManager.h'
p1209
(lp1210
I1
ag1192
asS'c:/Users/Vinicius/Desktop/Yes or No/Stars/source/sceneManager.h'
p1211
(lp1212
I1
ag1192
asS'c:/Users/Vinicius/Desktop/Yes or No/Stars/source/savedataManager.cpp'
p1213
(lp1214
I1
ag1192
asS'c:/Users/Vinicius/Desktop/Yes or No/Stars/source/audioManager.h'
p1215
(lp1216
I1
ag1192
asS'c:/Users/Vinicius/Desktop/Yes or No/Stars/source/inputManager.cpp'
p1217
(lp1218
I1
ag1192
asS'c:/Users/Vinicius/Desktop/Yes or No/Stars/source/audioManager.cpp'
p1219
(lp1220
I1
ag1192
asS'c:/Users/Vinicius/Desktop/Yes or No/Stars/source/spriteManager.h'
p1221
(lp1222
I1
ag1192
assS'scenes'
p1223
(dp1224
S'c:/Users/Vinicius/Desktop/Yes or No/Stars/source/stuff.cpp'
p1225
(lp1226
I1
ag1192
asS'c:/Users/Vinicius/Desktop/Yes or No/Stars/source/mainMenu.h'
p1227
(lp1228
I1
ag1192
asS'c:/Users/Vinicius/Desktop/Yes or No/Stars/source/stuff.h'
p1229
(lp1230
I1
ag1192
asS'c:/Users/Vinicius/Desktop/Yes or No/Stars/source/options.h'
p1231
(lp1232
I1
ag1192
asS'c:/Users/Vinicius/Desktop/Yes or No/Stars/source/mainMenu.cpp'
p1233
(lp1234
I1
ag1192
asS'c:/Users/Vinicius/Desktop/Yes or No/Stars/source/options.cpp'
p1235
(lp1236
I1
ag1192
asS'c:/Users/Vinicius/Desktop/Yes or No/Stars/source/game.h'
p1237
(lp1238
I1
ag1192
asS'c:/Users/Vinicius/Desktop/Yes or No/Stars/source/game.cpp'
p1239
(lp1240
I1
ag1192
asssS"'Marmalade Studio'"
p1241
(dp1242
S'iw2dscenegraph'
p1243
(dp1244
S'c:/marmalade/7.2/modules/iw2dscenegraph/source/Iw2DSceneGraph.cpp'
p1245
(lp1246
I1
a(dp1247
asS'c:/marmalade/7.2/modules/iw2dscenegraph/iw2dscenegraph.mkf'
p1248
(lp1249
I1
a(dp1250
asS'c:/marmalade/7.2/modules/iw2dscenegraph/h/Iw2DSceneGraph.h'
p1251
(lp1252
I1
ag1247
asS'c:/marmalade/7.2/modules/iw2dscenegraph/docs/iw2dscenegraph.defines.txt'
p1253
(lp1254
I1
ag1247
assS'iwgl'
p1255
(dp1256
S'c:/marmalade/7.2/modules/iwgl/h/IwGL.h'
p1257
(lp1258
I1
a(dp1259
asS'c:/marmalade/7.2/modules/iwgl/iwgl.mkf'
p1260
(lp1261
I1
a(dp1262
asS'c:/marmalade/7.2/modules/iwgl/h/IwGLExt.h'
p1263
(lp1264
I1
ag1259
asS'c:/marmalade/7.2/modules/iwgl/docs/iwgl.config.txt'
p1265
(lp1266
I1
ag1259
assS'iw2d'
p1267
(dp1268
S'c:/marmalade/7.2/modules/iw2d/docs/iw2d_public.defines.txt'
p1269
(lp1270
I1
a(dp1271
asS'c:/marmalade/7.2/modules/iw2d/h/Iw2D.h'
p1272
(lp1273
I1
ag1271
asS'c:/marmalade/7.2/modules/iw2d/docs/iw2d.config.txt'
p1274
(lp1275
I1
ag1271
asS'c:/marmalade/7.2/modules/iw2d/iw2d.mkf'
p1276
(lp1277
I1
a(dp1278
assS'iwgxfont'
p1279
(dp1280
S'c:/marmalade/7.2/modules/iwgxfont/h/IwGxFont.h'
p1281
(lp1282
I1
a(dp1283
asS'c:/marmalade/7.2/modules/iwgxfont/h/IwGxFontPreparedData.h'
p1284
(lp1285
I1
ag1283
asS'c:/marmalade/7.2/modules/iwgxfont/h/IwGxFontContainer.h'
p1286
(lp1287
I1
ag1283
asS'c:/marmalade/7.2/modules/iwgxfont/docs/iwgxfont_public.defines.txt'
p1288
(lp1289
I1
ag1283
asS'c:/marmalade/7.2/modules/iwgxfont/h/IwGxFontGlyph.h'
p1290
(lp1291
I1
ag1283
asS'c:/marmalade/7.2/modules/iwgxfont/h/IwGxFontState.h'
p1292
(lp1293
I1
ag1283
asS'c:/marmalade/7.2/modules/iwgxfont/h/IwGxFontTypes.h'
p1294
(lp1295
I1
ag1283
asS'c:/marmalade/7.2/modules/iwgxfont/iwgxfont.mkf'
p1296
(lp1297
I1
a(dp1298
asS'c:/marmalade/7.2/modules/iwgxfont/docs/iwgxfont.config.txt'
p1299
(lp1300
I1
ag1283
assS'iwgeom'
p1301
(dp1302
S'c:/marmalade/7.2/modules/iwgeom/docs/iwgeom.config.txt'
p1303
(lp1304
I1
a(dp1305
asS'c:/marmalade/7.2/modules/iwgeom/h/IwGeomFPlane.h'
p1306
(lp1307
I1
ag1305
asS'c:/marmalade/7.2/modules/iwgeom/h/IwGeomPlane.h'
p1308
(lp1309
I1
ag1305
asS'c:/marmalade/7.2/modules/iwgeom/h/IwGeomMat.h'
p1310
(lp1311
I1
ag1305
asS'c:/marmalade/7.2/modules/iwgeom/h/IwGeomMat2D.h'
p1312
(lp1313
I1
ag1305
asS'c:/marmalade/7.2/modules/iwgeom/h/IwGeomMenu.h'
p1314
(lp1315
I1
ag1305
asS'c:/marmalade/7.2/modules/iwgeom/h/IwGeomSqrt.h'
p1316
(lp1317
I1
ag1305
asS'c:/marmalade/7.2/modules/iwgeom/h/IwGeomFMat2D.h'
p1318
(lp1319
I1
ag1305
asS'c:/marmalade/7.2/modules/iwgeom/h/IwGeomCore.h'
p1320
(lp1321
I1
ag1305
asS'c:/marmalade/7.2/modules/iwgeom/h/IwGeomFVec3.h'
p1322
(lp1323
I1
ag1305
asS'c:/marmalade/7.2/modules/iwgeom/h/IwGeomFVec2.h'
p1324
(lp1325
I1
ag1305
asS'c:/marmalade/7.2/modules/iwgeom/h/IwGeom.h'
p1326
(lp1327
I1
ag1305
asS'c:/marmalade/7.2/modules/iwgeom/h/IwGeomSVec2.h'
p1328
(lp1329
I1
ag1305
asS'c:/marmalade/7.2/modules/iwgeom/h/IwGeomFVec4.h'
p1330
(lp1331
I1
ag1305
asS'c:/marmalade/7.2/modules/iwgeom/h/IwGeomSVec3.h'
p1332
(lp1333
I1
ag1305
asS'c:/marmalade/7.2/modules/iwgeom/h/IwGeomBBox.h'
p1334
(lp1335
I1
ag1305
asS'c:/marmalade/7.2/modules/iwgeom/h/IwGeomVec2.h'
p1336
(lp1337
I1
ag1305
asS'c:/marmalade/7.2/modules/iwgeom/h/IwGeomFMat.h'
p1338
(lp1339
I1
ag1305
asS'c:/marmalade/7.2/modules/iwgeom/h/IwGeomFQuat.h'
p1340
(lp1341
I1
ag1305
asS'c:/marmalade/7.2/modules/iwgeom/h/IwGeomVec3.h'
p1342
(lp1343
I1
ag1305
asS'c:/marmalade/7.2/modules/iwgeom/h/IwGeomSVec4.h'
p1344
(lp1345
I1
ag1305
asS'c:/marmalade/7.2/modules/iwgeom/h/IwGeomVec.h'
p1346
(lp1347
I1
ag1305
asS'c:/marmalade/7.2/modules/iwgeom/h/IwGeomFIntersect.h'
p1348
(lp1349
I1
ag1305
asS'c:/marmalade/7.2/modules/iwgeom/iwgeom.mkf'
p1350
(lp1351
I1
a(dp1352
asS'c:/marmalade/7.2/modules/iwgeom/h/IwGeomFSphere.h'
p1353
(lp1354
I1
ag1305
asS'c:/marmalade/7.2/modules/iwgeom/h/IwGeomIntersect.h'
p1355
(lp1356
I1
ag1305
asS'c:/marmalade/7.2/modules/iwgeom/h/IwGeomSQuat.h'
p1357
(lp1358
I1
ag1305
asS'c:/marmalade/7.2/modules/iwgeom/h/IwGeomQuat.h'
p1359
(lp1360
I1
ag1305
asS'c:/marmalade/7.2/modules/iwgeom/h/IwGeomSphere.h'
p1361
(lp1362
I1
ag1305
asS'c:/marmalade/7.2/modules/iwgeom/h/IwGeomLegacy.h'
p1363
(lp1364
I1
ag1305
asS'c:/marmalade/7.2/modules/iwgeom/h/IwGeomVec4.h'
p1365
(lp1366
I1
ag1305
asS'c:/marmalade/7.2/modules/iwgeom/h/IwGeomFBBox.h'
p1367
(lp1368
I1
ag1305
assS'iwresmanager'
p1369
(dp1370
S'c:/marmalade/7.2/modules/iwresmanager/h/IwResHandlerGROUP.h'
p1371
(lp1372
I1
a(dp1373
asS'c:/marmalade/7.2/modules/iwresmanager/h/IwResHandler.h'
p1374
(lp1375
I1
ag1373
asS'c:/marmalade/7.2/modules/iwresmanager/iwresmanager.mkf'
p1376
(lp1377
I1
a(dp1378
asS'c:/marmalade/7.2/modules/iwresmanager/h/IwResGroup.h'
p1379
(lp1380
I1
ag1373
asS'c:/marmalade/7.2/modules/iwresmanager/h/IwResHandlerImage.h'
p1381
(lp1382
I1
ag1373
asS'c:/marmalade/7.2/modules/iwresmanager/docs/iwresmanager.config.txt'
p1383
(lp1384
I1
ag1373
asS'c:/marmalade/7.2/modules/iwresmanager/h/IwResManagerClass.h'
p1385
(lp1386
I1
ag1373
asS'c:/marmalade/7.2/modules/iwresmanager/h/IwResHandlerITX.h'
p1387
(lp1388
I1
ag1373
asS'c:/marmalade/7.2/modules/iwresmanager/h/IwResSerialise.h'
p1389
(lp1390
I1
ag1373
asS'c:/marmalade/7.2/modules/iwresmanager/h/IwResManager.h'
p1391
(lp1392
I1
ag1373
assS'iwgx'
p1393
(dp1394
S'c:/marmalade/7.2/modules/iwgx/h/IwTPage.h'
p1395
(lp1396
I1
a(dp1397
asS'c:/marmalade/7.2/modules/iwgx/h/IwGxStream.h'
p1398
(lp1399
I1
ag1397
asS'c:/marmalade/7.2/modules/iwgx/h/IwGxTransformSW.h'
p1400
(lp1401
I1
ag1397
asS'c:/marmalade/7.2/modules/iwgx/h/IwMaterial.h'
p1402
(lp1403
I1
ag1397
asS'c:/marmalade/7.2/modules/iwgx/h/IwMatAnim.h'
p1404
(lp1405
I1
ag1397
asS'c:/marmalade/7.2/modules/iwgx/docs/iwgx.config.txt'
p1406
(lp1407
I1
ag1397
asS'c:/marmalade/7.2/modules/iwgx/iwgx.mkf'
p1408
(lp1409
I1
a(dp1410
asS'c:/marmalade/7.2/modules/iwgx/h/IwResHandlerMTL.h'
p1411
(lp1412
I1
ag1397
asS'c:/marmalade/7.2/modules/iwgx/h/IwGxPrint.h'
p1413
(lp1414
I1
ag1397
asS'c:/marmalade/7.2/modules/iwgx/h/IwGxSurface.h'
p1415
(lp1416
I1
ag1397
asS'c:/marmalade/7.2/modules/iwgx/docs/iwgx_public.defines.txt'
p1417
(lp1418
I1
ag1397
asS'c:/marmalade/7.2/modules/iwgx/h/IwClip.h'
p1419
(lp1420
I1
ag1397
asS'c:/marmalade/7.2/modules/iwgx/h/IwGx.h'
p1421
(lp1422
I1
ag1397
asS'c:/marmalade/7.2/modules/iwgx/h/IwGxDebug.h'
p1423
(lp1424
I1
ag1397
asS'c:/marmalade/7.2/modules/iwgx/h/IwDebugPrim.h'
p1425
(lp1426
I1
ag1397
asS'c:/marmalade/7.2/modules/iwgx/h/IwGxMetrics.h'
p1427
(lp1428
I1
ag1397
asS'c:/marmalade/7.2/modules/iwgx/h/IwGxError.h'
p1429
(lp1430
I1
ag1397
asS'c:/marmalade/7.2/modules/iwgx/h/IwClip.inl'
p1431
(lp1432
I1
ag1397
asS'c:/marmalade/7.2/modules/iwgx/h/IwGxFuncTable.h'
p1433
(lp1434
I1
ag1397
asS'c:/marmalade/7.2/modules/iwgx/h/IwTexture.h'
p1435
(lp1436
I1
ag1397
asS'c:/marmalade/7.2/modules/iwgx/h/IwFColour.h'
p1437
(lp1438
I1
ag1397
asS'c:/marmalade/7.2/modules/iwgx/h/IwColour.h'
p1439
(lp1440
I1
ag1397
asS'c:/marmalade/7.2/modules/iwgx/h/IwGxShaderTechnique.h'
p1441
(lp1442
I1
ag1397
asS'c:/marmalade/7.2/modules/iwgx/h/IwGxTypes.h'
p1443
(lp1444
I1
ag1397
asS'c:/marmalade/7.2/modules/iwgx/h/IwGxState.h'
p1445
(lp1446
I1
ag1397
assS'iw2dscenegraphcore'
p1447
(dp1448
S'c:/marmalade/7.2/modules/iw2dscenegraphcore/iw2dscenegraphcore.mkf'
p1449
(lp1450
I1
a(dp1451
asS'c:/marmalade/7.2/modules/iw2dscenegraphcore/h/Iw2DSceneGraphCore.h'
p1452
(lp1453
I1
a(dp1454
asS'c:/marmalade/7.2/modules/iw2dscenegraphcore/source/Iw2DSceneGraphCore.cpp'
p1455
(lp1456
I1
ag1454
assS'iwutil'
p1457
(dp1458
S'c:/marmalade/7.2/modules/iwutil/h/IwCore.h'
p1459
(lp1460
I1
a(dp1461
asS'c:/marmalade/7.2/modules/iwutil/h/IwArray.h'
p1462
(lp1463
I1
ag1461
asS'c:/marmalade/7.2/modules/iwutil/h/IwResource.h'
p1464
(lp1465
I1
ag1461
asS'c:/marmalade/7.2/modules/iwutil/h/IwFibre.h'
p1466
(lp1467
I1
ag1461
asS'c:/marmalade/7.2/modules/iwutil/h/IwBuffer.h'
p1468
(lp1469
I1
ag1461
asS'c:/marmalade/7.2/modules/iwutil/h/IwRandom.h'
p1470
(lp1471
I1
ag1461
asS'c:/marmalade/7.2/modules/iwutil/h/IwManagedList.h'
p1472
(lp1473
I1
ag1461
asS'c:/marmalade/7.2/modules/iwutil/h/IwList.h'
p1474
(lp1475
I1
ag1461
asS'c:/marmalade/7.2/modules/iwutil/h/IwProfileMenu.h'
p1476
(lp1477
I1
ag1461
asS'c:/marmalade/7.2/modules/iwutil/h/IwMemory.h'
p1478
(lp1479
I1
ag1461
asS'c:/marmalade/7.2/modules/iwutil/h/IwMath.h'
p1480
(lp1481
I1
ag1461
asS'c:/marmalade/7.2/modules/iwutil/h/IwDivTable.h'
p1482
(lp1483
I1
ag1461
asS'c:/marmalade/7.2/modules/iwutil/h/IwTextParserITX.h'
p1484
(lp1485
I1
ag1461
asS'c:/marmalade/7.2/modules/iwutil/h/IwMenu.h'
p1486
(lp1487
I1
ag1461
asS'c:/marmalade/7.2/modules/iwutil/h/IwChar.h'
p1488
(lp1489
I1
ag1461
asS'c:/marmalade/7.2/modules/iwutil/h/IwEvent.h'
p1490
(lp1491
I1
ag1461
asS'c:/marmalade/7.2/modules/iwutil/h/IwTextParser.h'
p1492
(lp1493
I1
ag1461
asS'c:/marmalade/7.2/modules/iwutil/h/IwOptimiseSize.h'
p1494
(lp1495
I1
ag1461
asS'c:/marmalade/7.2/modules/iwutil/h/IwSingleton.h'
p1496
(lp1497
I1
ag1461
asS'c:/marmalade/7.2/modules/iwutil/h/IwImage.h'
p1498
(lp1499
I1
ag1461
asS'c:/marmalade/7.2/modules/iwutil/h/IwFile.h'
p1500
(lp1501
I1
ag1461
asS'c:/marmalade/7.2/modules/iwutil/h/IwString.h'
p1502
(lp1503
I1
ag1461
asS'c:/marmalade/7.2/modules/iwutil/h/IwVariableBitField.h'
p1504
(lp1505
I1
ag1461
asS'c:/marmalade/7.2/modules/iwutil/h/IwUncopyable.h'
p1506
(lp1507
I1
ag1461
asS'c:/marmalade/7.2/modules/iwutil/h/IwAllocator.h'
p1508
(lp1509
I1
ag1461
asS'c:/marmalade/7.2/modules/iwutil/h/IwTypes.h'
p1510
(lp1511
I1
ag1461
asS'c:/marmalade/7.2/modules/iwutil/h/IwManaged.h'
p1512
(lp1513
I1
ag1461
asS'c:/marmalade/7.2/modules/iwutil/h/IwRuntime.h'
p1514
(lp1515
I1
ag1461
asS'c:/marmalade/7.2/modules/iwutil/h/IwMemManagerDL.h'
p1516
(lp1517
I1
ag1461
asS'c:/marmalade/7.2/modules/iwutil/h/IwOptimiseThumb.h'
p1518
(lp1519
I1
ag1461
asS'c:/marmalade/7.2/modules/iwutil/h/IwUtil.h'
p1520
(lp1521
I1
ag1461
asS'c:/marmalade/7.2/modules/iwutil/docs/iwutil.config.txt'
p1522
(lp1523
I1
ag1461
asS'c:/marmalade/7.2/modules/iwutil/h/IwClassFactory.h'
p1524
(lp1525
I1
ag1461
asS'c:/marmalade/7.2/modules/iwutil/h/IwUtilInitTerm.h'
p1526
(lp1527
I1
ag1461
asS'c:/marmalade/7.2/modules/iwutil/h/IwAutoFile.h'
p1528
(lp1529
I1
ag1461
asS'c:/marmalade/7.2/modules/iwutil/h/IwUTF8.h'
p1530
(lp1531
I1
ag1461
asS'c:/marmalade/7.2/modules/iwutil/h/IwSerialise.h'
p1532
(lp1533
I1
ag1461
asS'c:/marmalade/7.2/modules/iwutil/h/IwPath.h'
p1534
(lp1535
I1
ag1461
asS'c:/marmalade/7.2/modules/iwutil/h/IwMemBucketHelpers.h'
p1536
(lp1537
I1
ag1461
asS'c:/marmalade/7.2/modules/iwutil/h/IwCopyingPtr.h'
p1538
(lp1539
I1
ag1461
asS'c:/marmalade/7.2/modules/iwutil/h/IwOptimiseARM.h'
p1540
(lp1541
I1
ag1461
asS'c:/marmalade/7.2/modules/iwutil/h/IwMemBucket.h'
p1542
(lp1543
I1
ag1461
asS'c:/marmalade/7.2/modules/iwutil/iwutil.mkf'
p1544
(lp1545
I1
a(dp1546
asS'c:/marmalade/7.2/modules/iwutil/h/IwKeymap.h'
p1547
(lp1548
I1
ag1461
asS'c:/marmalade/7.2/modules/iwutil/h/IwImageHelper.h'
p1549
(lp1550
I1
ag1461
asS'c:/marmalade/7.2/modules/iwutil/h/IwOptimiseSpeed.h'
p1551
(lp1552
I1
ag1461
asS'c:/marmalade/7.2/modules/iwutil/h/IwTextParseable.h'
p1553
(lp1554
I1
ag1461
asS'c:/marmalade/7.2/modules/iwutil/h/IwDebug.h'
p1555
(lp1556
I1
ag1461
asS'c:/marmalade/7.2/modules/iwutil/h/IwDivide.h'
p1557
(lp1558
I1
ag1461
asS'c:/marmalade/7.2/modules/iwutil/h/IwHashString.h'
p1559
(lp1560
I1
ag1461
asssS'(zlib)'
p1561
(dp1562
g1034
(dp1563
S'c:/marmalade/7.2/modules/third_party/zlib/h/zconf.h'
p1564
(lp1565
I1
a(dp1566
asS'c:/marmalade/7.2/modules/third_party/zlib/h/zlib.h'
p1567
(lp1568
I1
ag1566
assS'c:/marmalade/7.2/modules/third_party/zlib/zlib.mkf'
p1569
(lp1570
I1
a(dp1571
assS'(iwtween)'
p1572
(dp1573
S'c:/marmalade/7.2/modules/iwtween/iwtween.mkf'
p1574
(lp1575
I1
a(dp1576
asS'c:/marmalade/7.2/modules/iwtween/source/IwTween.cpp'
p1577
(lp1578
I1
a(dp1579
asS'c:/marmalade/7.2/modules/iwtween/h/IwTween.h'
p1580
(lp1581
I1
ag1579
asssS'files'
p1582
(dp1583
S'IwGxFontPreparedData.h'
p1584
g299
(cmkb_main
File
p1585
g301
Ntp1586
Rp1587
(dp1588
S'flags'
p1589
g1283
sS'group'
p1590
(lp1591
S"'Marmalade Studio'"
p1592
ag1279
asg325
g1284
sbsS'iterator'
p1593
g299
(g1585
g301
Ntp1594
Rp1595
(dp1596
g1589
(dp1597
sg1590
(lp1598
S"'Marmalade System (S3E)'"
p1599
aS'stdc headers'
p1600
aS'c++'
p1601
asg325
S'c:/marmalade/7.2/s3e/h/std/c++/iterator'
p1602
sbsS'IwGL.h'
p1603
g299
(g1585
g301
Ntp1604
Rp1605
(dp1606
g1589
g1259
sg1590
(lp1607
S"'Marmalade Studio'"
p1608
ag1255
asg325
g1257
sbsS's3e.h'
p1609
g299
(g1585
g301
Ntp1610
Rp1611
(dp1612
g1589
g1597
sg1590
(lp1613
g1599
asg325
S'c:/marmalade/7.2/s3e/h/s3e.h'
p1614
sbsS'errno.h'
p1615
g299
(g1585
g301
Ntp1616
Rp1617
(dp1618
g1589
g1597
sg1590
(lp1619
g1599
aS'stdc headers'
p1620
asg325
S'c:/marmalade/7.2/s3e/h/std/errno.h'
p1621
sbsS'IwSingleton.h'
p1622
g299
(g1585
g301
Ntp1623
Rp1624
(dp1625
g1589
g1461
sg1590
(lp1626
S"'Marmalade Studio'"
p1627
ag1457
asg325
g1496
sbsS'spriteManager.cpp'
p1628
g299
(g1585
g301
Ntp1629
Rp1630
(dp1631
g1589
g1192
sg1590
(lp1632
g1186
ag1197
asg325
g1201
sbsS'dlfcn.h'
p1633
g299
(g1585
g301
Ntp1634
Rp1635
(dp1636
g1589
g1597
sg1590
g1619
sg325
S'c:/marmalade/7.2/s3e/h/std/dlfcn.h'
p1637
sbsS'IwSoundWAV.cpp'
p1638
g299
(g1585
g301
Ntp1639
Rp1640
(dp1641
g1589
g1093
sg1590
(lp1642
g1089
asg325
g1117
sbsS'sched.h'
p1643
g299
(g1585
g301
Ntp1644
Rp1645
(dp1646
g1589
g1597
sg1590
g1619
sg325
S'c:/marmalade/7.2/s3e/h/std/sched.h'
p1647
sbsS'IwSoundPCM.h'
p1648
g299
(g1585
g301
Ntp1649
Rp1650
(dp1651
g1589
g1093
sg1590
g1642
sg325
g1103
sbsS'IwGeomFMat2D.h'
p1652
g299
(g1585
g301
Ntp1653
Rp1654
(dp1655
g1589
g1305
sg1590
(lp1656
S"'Marmalade Studio'"
p1657
ag1301
asg325
g1318
sbsS'cassert'
p1658
g299
(g1585
g301
Ntp1659
Rp1660
(dp1661
g1589
g1597
sg1590
g1598
sg325
S'c:/marmalade/7.2/s3e/h/std/c++/cassert'
p1662
sbsS'grp.h'
p1663
g299
(g1585
g301
Ntp1664
Rp1665
(dp1666
g1589
g1597
sg1590
g1619
sg325
S'c:/marmalade/7.2/s3e/h/std/grp.h'
p1667
sbsS'list'
p1668
g299
(g1585
g301
Ntp1669
Rp1670
(dp1671
g1589
g1597
sg1590
g1598
sg325
S'c:/marmalade/7.2/s3e/h/std/c++/list'
p1672
sbsS'IwSoundSpec.cpp'
p1673
g299
(g1585
g301
Ntp1674
Rp1675
(dp1676
g1589
g1093
sg1590
g1642
sg325
g1139
sbsS'istream'
p1677
g299
(g1585
g301
Ntp1678
Rp1679
(dp1680
g1589
g1597
sg1590
g1598
sg325
S'c:/marmalade/7.2/s3e/h/std/c++/istream'
p1681
sbsS'jpeglib.h'
p1682
g299
(g1585
g301
Ntp1683
Rp1684
(dp1685
g1589
g1049
sg1590
(lp1686
g1044
ag1034
asg325
g1058
sbsS'iw2d_public.defines.txt'
p1687
g299
(g1585
g301
Ntp1688
Rp1689
(dp1690
g1589
g1271
sg1590
(lp1691
S"'Marmalade Studio'"
p1692
ag1267
asg325
g1269
sbsS'iostream.h'
p1693
g299
(g1585
g301
Ntp1694
Rp1695
(dp1696
g1589
g1597
sg1590
g1598
sg325
S'c:/marmalade/7.2/s3e/h/std/c++/iostream.h'
p1697
sbsS'IwSoundADPCM.h'
p1698
g299
(g1585
g301
Ntp1699
Rp1700
(dp1701
g1589
g1093
sg1590
g1642
sg325
g1115
sbsS'string'
p1702
g299
(g1585
g301
Ntp1703
Rp1704
(dp1705
g1589
g1597
sg1590
g1598
sg325
S'c:/marmalade/7.2/s3e/h/std/c++/string'
p1706
sbsS'IwMemory.h'
p1707
g299
(g1585
g301
Ntp1708
Rp1709
(dp1710
g1589
g1461
sg1590
g1626
sg325
g1478
sbsS'IwGeomPlane.h'
p1711
g299
(g1585
g301
Ntp1712
Rp1713
(dp1714
g1589
g1305
sg1590
g1656
sg325
g1308
sbsS'iw2d.config.txt'
p1715
g299
(g1585
g301
Ntp1716
Rp1717
(dp1718
g1589
g1271
sg1590
g1691
sg325
g1274
sbsS'iomanip'
p1719
g299
(g1585
g301
Ntp1720
Rp1721
(dp1722
g1589
g1597
sg1590
g1598
sg325
S'c:/marmalade/7.2/s3e/h/std/c++/iomanip'
p1723
sbsS'iwgeom.mkf'
p1724
g299
(g1585
g301
Ntp1725
Rp1726
(dp1727
g1589
g1352
sg1590
g1656
sg325
g1350
sbsS'IwGxError.h'
p1728
g299
(g1585
g301
Ntp1729
Rp1730
(dp1731
g1589
g1397
sg1590
(lp1732
S"'Marmalade Studio'"
p1733
ag1393
asg325
g1429
sbsS'IwGeom.h'
p1734
g299
(g1585
g301
Ntp1735
Rp1736
(dp1737
g1589
g1305
sg1590
g1656
sg325
g1326
sbsS'IwGeomVec4.h'
p1738
g299
(g1585
g301
Ntp1739
Rp1740
(dp1741
g1589
g1305
sg1590
g1656
sg325
g1365
sbsS'dir.h'
p1742
g299
(g1585
g301
Ntp1743
Rp1744
(dp1745
g1589
g1597
sg1590
(lp1746
g1599
aS'stdc headers'
p1747
aS'sys'
p1748
asg325
S'c:/marmalade/7.2/s3e/h/std/sys/dir.h'
p1749
sbsS'locale.h'
p1750
g299
(g1585
g301
Ntp1751
Rp1752
(dp1753
g1589
g1597
sg1590
g1619
sg325
S'c:/marmalade/7.2/s3e/h/std/locale.h'
p1754
sbsS'vector'
p1755
g299
(g1585
g301
Ntp1756
Rp1757
(dp1758
g1589
g1597
sg1590
g1598
sg325
S'c:/marmalade/7.2/s3e/h/std/c++/vector'
p1759
sbsS'IwManaged.h'
p1760
g299
(g1585
g301
Ntp1761
Rp1762
(dp1763
g1589
g1461
sg1590
g1626
sg325
g1512
sbsS's3eCompass.h'
p1764
g299
(g1585
g301
Ntp1765
Rp1766
(dp1767
g1589
g1597
sg1590
g1613
sg325
S'c:/marmalade/7.2/s3e/h/s3eCompass.h'
p1768
sbsS'cderror.h'
p1769
g299
(g1585
g301
Ntp1770
Rp1771
(dp1772
g1589
g1049
sg1590
g1686
sg325
g1074
sbsS'climits'
p1773
g299
(g1585
g301
Ntp1774
Rp1775
(dp1776
g1589
g1597
sg1590
g1598
sg325
S'c:/marmalade/7.2/s3e/h/std/c++/climits'
p1777
sbsS's3eVibra.h'
p1778
g299
(g1585
g301
Ntp1779
Rp1780
(dp1781
g1589
g1597
sg1590
g1613
sg325
S'c:/marmalade/7.2/s3e/h/s3eVibra.h'
p1782
sbsS'jversion.h'
p1783
g299
(g1585
g301
Ntp1784
Rp1785
(dp1786
g1589
g1049
sg1590
g1686
sg325
g1060
sbsS'fnmatch.h'
p1787
g299
(g1585
g301
Ntp1788
Rp1789
(dp1790
g1589
g1597
sg1590
g1619
sg325
S'c:/marmalade/7.2/s3e/h/std/fnmatch.h'
p1791
sbsS'IwGxState.h'
p1792
g299
(g1585
g301
Ntp1793
Rp1794
(dp1795
g1589
g1397
sg1590
g1732
sg325
g1445
sbsS's3eAudio.h'
p1796
g299
(g1585
g301
Ntp1797
Rp1798
(dp1799
g1589
g1597
sg1590
g1613
sg325
S'c:/marmalade/7.2/s3e/h/s3eAudio.h'
p1800
sbsS's3eSurface.h'
p1801
g299
(g1585
g301
Ntp1802
Rp1803
(dp1804
g1589
g1597
sg1590
g1613
sg325
S'c:/marmalade/7.2/s3e/h/s3eSurface.h'
p1805
sbsS'new'
p1806
g299
(g1585
g301
Ntp1807
Rp1808
(dp1809
g1589
g1597
sg1590
g1598
sg325
S'c:/marmalade/7.2/s3e/h/std/c++/new'
p1810
sbsS's3eWindow.h'
p1811
g299
(g1585
g301
Ntp1812
Rp1813
(dp1814
g1589
g1597
sg1590
(lp1815
g1599
aS'Extensions'
p1816
asg325
S'c:/marmalade/7.2/s3e/h/ext/s3eWindow.h'
p1817
sbsS'IwBuffer.h'
p1818
g299
(g1585
g301
Ntp1819
Rp1820
(dp1821
g1589
g1461
sg1590
g1626
sg325
g1468
sbsS's3eflurry.mkf'
p1822
g299
(g1585
g301
Ntp1823
Rp1824
(dp1825
g1589
g1185
sg1590
(lp1826
S'Extensions'
p1827
ag1172
asg325
g1183
sbsS'stdio_streambuf'
p1828
g299
(g1585
g301
Ntp1829
Rp1830
(dp1831
g1589
g1597
sg1590
g1598
sg325
S'c:/marmalade/7.2/s3e/h/std/c++/stdio_streambuf'
p1832
sbsS's3eOSExec.h'
p1833
g299
(g1585
g301
Ntp1834
Rp1835
(dp1836
g1589
g1597
sg1590
g1815
sg325
S'c:/marmalade/7.2/s3e/h/ext/s3eOSExec.h'
p1837
sbsS'IwGxTransformSW.h'
p1838
g299
(g1585
g301
Ntp1839
Rp1840
(dp1841
g1589
g1397
sg1590
g1732
sg325
g1400
sbsS'unistd.h'
p1842
g299
(g1585
g301
Ntp1843
Rp1844
(dp1845
g1589
g1597
sg1590
g1619
sg325
S'c:/marmalade/7.2/s3e/h/std/unistd.h'
p1846
sbsS'spriteManager.h'
p1847
g299
(g1585
g301
Ntp1848
Rp1849
(dp1850
g1589
g1192
sg1590
g1632
sg325
g1221
sbsS'iwgxfont.config.txt'
p1851
g299
(g1585
g301
Ntp1852
Rp1853
(dp1854
g1589
g1283
sg1590
g1591
sg325
g1299
sbsS'gl2platform.h'
p1855
g299
(g1585
g301
Ntp1856
Rp1857
(dp1858
g1589
g1597
sg1590
(lp1859
g1599
aS'GL'
p1860
aS'GLES 2.0'
p1861
asg325
S'c:/marmalade/7.2/s3e/h/GLES2/gl2platform.h'
p1862
sbsS'IwResManagerClass.h'
p1863
g299
(g1585
g301
Ntp1864
Rp1865
(dp1866
g1589
g1373
sg1590
(lp1867
g1241
ag1369
asg325
g1385
sbsS'queue'
p1868
g299
(g1585
g301
Ntp1869
Rp1870
(dp1871
g1589
g1597
sg1590
g1598
sg325
S'c:/marmalade/7.2/s3e/h/std/c++/queue'
p1872
sbsS'time_1.h'
p1873
g299
(g1585
g301
Ntp1874
Rp1875
(dp1876
g1589
g1597
sg1590
g1746
sg325
S'c:/marmalade/7.2/s3e/h/std/sys/time.h'
p1877
sbsS'Iw2D.h'
p1878
g299
(g1585
g301
Ntp1879
Rp1880
(dp1881
g1589
g1271
sg1590
g1691
sg325
g1272
sbsS'IwGeomVec2.h'
p1882
g299
(g1585
g301
Ntp1883
Rp1884
(dp1885
g1589
g1305
sg1590
g1656
sg325
g1336
sbsS'sendfile.h'
p1886
g299
(g1585
g301
Ntp1887
Rp1888
(dp1889
g1589
g1597
sg1590
g1746
sg325
S'c:/marmalade/7.2/s3e/h/std/sys/sendfile.h'
p1890
sbsS'malloc.h'
p1891
g299
(g1585
g301
Ntp1892
Rp1893
(dp1894
g1589
g1597
sg1590
g1619
sg325
S'c:/marmalade/7.2/s3e/h/std/malloc.h'
p1895
sbsS'timerManager.h'
p1896
g299
(g1585
g301
Ntp1897
Rp1898
(dp1899
g1589
g1192
sg1590
g1632
sg325
g1209
sbsS'stdarg.h'
p1900
g299
(g1585
g301
Ntp1901
Rp1902
(dp1903
g1589
g1597
sg1590
g1619
sg325
S'c:/marmalade/7.2/s3e/h/std/stdarg.h'
p1904
sbsS'IwGeomCore.h'
p1905
g299
(g1585
g301
Ntp1906
Rp1907
(dp1908
g1589
g1305
sg1590
g1656
sg325
g1320
sbsS'Iw2DSceneGraph.h'
p1909
g299
(g1585
g301
Ntp1910
Rp1911
(dp1912
g1589
g1247
sg1590
(lp1913
S"'Marmalade Studio'"
p1914
ag1243
asg325
g1251
sbsS'endian.h'
p1915
g299
(g1585
g301
Ntp1916
Rp1917
(dp1918
g1589
g1597
sg1590
g1619
sg325
S'c:/marmalade/7.2/s3e/h/std/endian.h'
p1919
sbsS'glob.h'
p1920
g299
(g1585
g301
Ntp1921
Rp1922
(dp1923
g1589
g1597
sg1590
g1619
sg325
S'c:/marmalade/7.2/s3e/h/std/glob.h'
p1924
sbsS'fstream'
p1925
g299
(g1585
g301
Ntp1926
Rp1927
(dp1928
g1589
g1597
sg1590
g1598
sg325
S'c:/marmalade/7.2/s3e/h/std/c++/fstream'
p1929
sbsS'include.h'
p1930
g299
(g1585
g301
Ntp1931
Rp1932
(dp1933
g1589
g1192
sg1590
(lp1934
S'stars'
p1935
ag1188
asg325
g1195
sbsS'jconfig.h'
p1936
g299
(g1585
g301
Ntp1937
Rp1938
(dp1939
g1589
g1049
sg1590
g1686
sg325
g1050
sbsS'memory'
p1940
g299
(g1585
g301
Ntp1941
Rp1942
(dp1943
g1589
g1597
sg1590
g1598
sg325
S'c:/marmalade/7.2/s3e/h/std/c++/memory'
p1944
sbsS'strstream'
p1945
g299
(g1585
g301
Ntp1946
Rp1947
(dp1948
g1589
g1597
sg1590
g1598
sg325
S'c:/marmalade/7.2/s3e/h/std/c++/strstream'
p1949
sbsS'egl.h'
p1950
g299
(g1585
g301
Ntp1951
Rp1952
(dp1953
g1589
g1597
sg1590
(lp1954
g1599
aS'GL'
p1955
aS'EGL'
p1956
asg325
S'c:/marmalade/7.2/s3e/h/EGL/egl.h'
p1957
sbsS'egl_1.h'
p1958
g299
(g1585
g301
Ntp1959
Rp1960
(dp1961
g1589
g1597
sg1590
(lp1962
g1599
aS'GL'
p1963
aS'GLES 1.x'
p1964
asg325
S'c:/marmalade/7.2/s3e/h/GLES/egl.h'
p1965
sbsS'IwMemManagerDL.h'
p1966
g299
(g1585
g301
Ntp1967
Rp1968
(dp1969
g1589
g1461
sg1590
g1626
sg325
g1516
sbsS'deque'
p1970
g299
(g1585
g301
Ntp1971
Rp1972
(dp1973
g1589
g1597
sg1590
g1598
sg325
S'c:/marmalade/7.2/s3e/h/std/c++/deque'
p1974
sbsS'IwString.h'
p1975
g299
(g1585
g301
Ntp1976
Rp1977
(dp1978
g1589
g1461
sg1590
g1626
sg325
g1502
sbsS'cwchar'
p1979
g299
(g1585
g301
Ntp1980
Rp1981
(dp1982
g1589
g1597
sg1590
g1598
sg325
S'c:/marmalade/7.2/s3e/h/std/c++/cwchar'
p1983
sbsS'iwutil.mkf'
p1984
g299
(g1585
g301
Ntp1985
Rp1986
(dp1987
g1589
g1546
sg1590
g1626
sg325
g1544
sbsS'csignal'
p1988
g299
(g1585
g301
Ntp1989
Rp1990
(dp1991
g1589
g1597
sg1590
g1598
sg325
S'c:/marmalade/7.2/s3e/h/std/c++/csignal'
p1992
sbsS'float.h'
p1993
g299
(g1585
g301
Ntp1994
Rp1995
(dp1996
g1589
g1597
sg1590
g1619
sg325
S'c:/marmalade/7.2/s3e/h/std/float.h'
p1997
sbsS'stuff.cpp'
p1998
g299
(g1585
g301
Ntp1999
Rp2000
(dp2001
g1589
g1192
sg1590
(lp2002
S'stars'
p2003
ag1223
asg325
g1225
sbsS'pthread_alloc'
p2004
g299
(g1585
g301
Ntp2005
Rp2006
(dp2007
g1589
g1597
sg1590
g1598
sg325
S'c:/marmalade/7.2/s3e/h/std/c++/pthread_alloc'
p2008
sbsS'getopt.h'
p2009
g299
(g1585
g301
Ntp2010
Rp2011
(dp2012
g1589
g1597
sg1590
g1619
sg325
S'c:/marmalade/7.2/s3e/h/std/getopt.h'
p2013
sbsS'IwOptimiseARM.h'
p2014
g299
(g1585
g301
Ntp2015
Rp2016
(dp2017
g1589
g1461
sg1590
g1626
sg325
g1540
sbsS'times.h'
p2018
g299
(g1585
g301
Ntp2019
Rp2020
(dp2021
g1589
g1597
sg1590
g1746
sg325
S'c:/marmalade/7.2/s3e/h/std/sys/times.h'
p2022
sbsS'IwGeomFSphere.h'
p2023
g299
(g1585
g301
Ntp2024
Rp2025
(dp2026
g1589
g1305
sg1590
g1656
sg325
g1353
sbsS'game.h'
p2027
g299
(g1585
g301
Ntp2028
Rp2029
(dp2030
g1589
g1192
sg1590
g2002
sg325
g1237
sbsS'functional'
p2031
g299
(g1585
g301
Ntp2032
Rp2033
(dp2034
g1589
g1597
sg1590
g1598
sg325
S'c:/marmalade/7.2/s3e/h/std/c++/functional'
p2035
sbsS'IwTypes.h'
p2036
g299
(g1585
g301
Ntp2037
Rp2038
(dp2039
g1589
g1461
sg1590
g1626
sg325
g1510
sbsS'IwGxMetrics.h'
p2040
g299
(g1585
g301
Ntp2041
Rp2042
(dp2043
g1589
g1397
sg1590
g1732
sg325
g1427
sbsS's3eCompression.h'
p2044
g299
(g1585
g301
Ntp2045
Rp2046
(dp2047
g1589
g1597
sg1590
g1613
sg325
S'c:/marmalade/7.2/s3e/h/s3eCompression.h'
p2048
sbsS'langinfo.h'
p2049
g299
(g1585
g301
Ntp2050
Rp2051
(dp2052
g1589
g1597
sg1590
g1619
sg325
S'c:/marmalade/7.2/s3e/h/std/langinfo.h'
p2053
sbsS's3edebugHeap.h'
p2054
g299
(g1585
g301
Ntp2055
Rp2056
(dp2057
g1589
g1597
sg1590
g1815
sg325
S'c:/marmalade/7.2/s3e/h/ext/s3edebugHeap.h'
p2058
sbsS'AirplayVersion.h'
p2059
g299
(g1585
g301
Ntp2060
Rp2061
(dp2062
g1589
g1597
sg1590
g1613
sg325
S'c:/marmalade/7.2/s3e/h/AirplayVersion.h'
p2063
sbsS'gl2extimg.h'
p2064
g299
(g1585
g301
Ntp2065
Rp2066
(dp2067
g1589
g1597
sg1590
g1859
sg325
S'c:/marmalade/7.2/s3e/h/GLES2/gl2extimg.h'
p2068
sbsS'app.config.txt'
p2069
g299
(g1585
g301
Ntp2070
Rp2071
(dp2072
g1589
(dp2073
sg1590
g4
sg325
S'c:/Users/Vinicius/Desktop/Yes or No/Stars/data/app.config.txt'
p2074
sbsS'IwGeomSqrt.h'
p2075
g299
(g1585
g301
Ntp2076
Rp2077
(dp2078
g1589
g1305
sg1590
g1656
sg325
g1316
sbsS'tiniconv_int.h'
p2079
g299
(g1585
g301
Ntp2080
Rp2081
(dp2082
g1589
g1083
sg1590
(lp2083
g1079
asg325
g1084
sbsS'syslog.h'
p2084
g299
(g1585
g301
Ntp2085
Rp2086
(dp2087
g1589
g1597
sg1590
g1619
sg325
S'c:/marmalade/7.2/s3e/h/std/syslog.h'
p2088
sbsS'IwGxFontTypes.h'
p2089
g299
(g1585
g301
Ntp2090
Rp2091
(dp2092
g1589
g1283
sg1590
g1591
sg325
g1294
sbsS'IwGeomFIntersect.h'
p2093
g299
(g1585
g301
Ntp2094
Rp2095
(dp2096
g1589
g1305
sg1590
g1656
sg325
g1348
sbsS'hash_map'
p2097
g299
(g1585
g301
Ntp2098
Rp2099
(dp2100
g1589
g1597
sg1590
g1598
sg325
S'c:/marmalade/7.2/s3e/h/std/c++/hash_map'
p2101
sbsS's3e.mkf'
p2102
g299
(g1585
g301
Ntp2103
Rp2104
(dp2105
g1589
(dp2106
sg1590
g1613
sg325
S'c:/marmalade/7.2/s3e/s3e.mkf'
p2107
sbsS's3eOSReadString.h'
p2108
g299
(g1585
g301
Ntp2109
Rp2110
(dp2111
g1589
g1597
sg1590
g1815
sg325
S'c:/marmalade/7.2/s3e/h/ext/s3eOSReadString.h'
p2112
sbsS'IwSound.h'
p2113
g299
(g1585
g301
Ntp2114
Rp2115
(dp2116
g1589
g1093
sg1590
g1642
sg325
g1121
sbsS'map'
p2117
g299
(g1585
g301
Ntp2118
Rp2119
(dp2120
g1589
g1597
sg1590
g1598
sg325
S'c:/marmalade/7.2/s3e/h/std/c++/map'
p2121
sbsS'iwtween.mkf'
p2122
g299
(g1585
g301
Ntp2123
Rp2124
(dp2125
g1589
g1576
sg1590
(lp2126
g1572
asg325
g1574
sbsS'IwOptimiseSpeed.h'
p2127
g299
(g1585
g301
Ntp2128
Rp2129
(dp2130
g1589
g1461
sg1590
g1626
sg325
g1551
sbsS'inputManager.h'
p2131
g299
(g1585
g301
Ntp2132
Rp2133
(dp2134
g1589
g1192
sg1590
g1632
sg325
g1203
sbsS'ostream'
p2135
g299
(g1585
g301
Ntp2136
Rp2137
(dp2138
g1589
g1597
sg1590
g1598
sg325
S'c:/marmalade/7.2/s3e/h/std/c++/ostream'
p2139
sbsS'msl_string.h'
p2140
g299
(g1585
g301
Ntp2141
Rp2142
(dp2143
g1589
g1597
sg1590
g1598
sg325
S'c:/marmalade/7.2/s3e/h/std/c++/msl_string.h'
p2144
sbsS'select.h'
p2145
g299
(g1585
g301
Ntp2146
Rp2147
(dp2148
g1589
g1597
sg1590
g1746
sg325
S'c:/marmalade/7.2/s3e/h/std/sys/select.h'
p2149
sbsS'zlib.mkf'
p2150
g299
(g1585
g301
Ntp2151
Rp2152
(dp2153
g1589
g1571
sg1590
(lp2154
g1561
asg325
g1569
sbsS'signal.h'
p2155
g299
(g1585
g301
Ntp2156
Rp2157
(dp2158
g1589
g1597
sg1590
g1619
sg325
S'c:/marmalade/7.2/s3e/h/std/signal.h'
p2159
sbsS'sigcontext.h'
p2160
g299
(g1585
g301
Ntp2161
Rp2162
(dp2163
g1589
g1597
sg1590
g1619
sg325
S'c:/marmalade/7.2/s3e/h/std/sigcontext.h'
p2164
sbsS'libpng.mkf'
p2165
g299
(g1585
g301
Ntp2166
Rp2167
(dp2168
g1589
g1043
sg1590
(lp2169
g1032
asg325
g1041
sbsS's3eClipboard.h'
p2170
g299
(g1585
g301
Ntp2171
Rp2172
(dp2173
g1589
g1597
sg1590
g1613
sg325
S'c:/marmalade/7.2/s3e/h/s3eClipboard.h'
p2174
sbsS'IwGxFuncTable.h'
p2175
g299
(g1585
g301
Ntp2176
Rp2177
(dp2178
g1589
g1397
sg1590
g1732
sg325
g1433
sbsS'IwResHandlerGROUP.h'
p2179
g299
(g1585
g301
Ntp2180
Rp2181
(dp2182
g1589
g1373
sg1590
g1867
sg325
g1371
sbsS's3eDebug.h'
p2183
g299
(g1585
g301
Ntp2184
Rp2185
(dp2186
g1589
g1597
sg1590
g1613
sg325
S'c:/marmalade/7.2/s3e/h/s3eDebug.h'
p2187
sbsS'socket.h'
p2188
g299
(g1585
g301
Ntp2189
Rp2190
(dp2191
g1589
g1597
sg1590
g1746
sg325
S'c:/marmalade/7.2/s3e/h/std/sys/socket.h'
p2192
sbsS'glext.h'
p2193
g299
(g1585
g301
Ntp2194
Rp2195
(dp2196
g1589
g1597
sg1590
g1962
sg325
S'c:/marmalade/7.2/s3e/h/GLES/glext.h'
p2197
sbsS'typeinfo.h'
p2198
g299
(g1585
g301
Ntp2199
Rp2200
(dp2201
g1589
g1597
sg1590
g1598
sg325
S'c:/marmalade/7.2/s3e/h/std/c++/typeinfo.h'
p2202
sbsS'typeinfo'
p2203
g299
(g1585
g301
Ntp2204
Rp2205
(dp2206
g1589
g1597
sg1590
g1598
sg325
S'c:/marmalade/7.2/s3e/h/std/c++/typeinfo'
p2207
sbsS'iwsound.config.txt'
p2208
g299
(g1585
g301
Ntp2209
Rp2210
(dp2211
g1589
g1093
sg1590
(lp2212
g1089
ag1107
asg325
g1109
sbsS'fstream.h'
p2213
g299
(g1585
g301
Ntp2214
Rp2215
(dp2216
g1589
g1597
sg1590
g1598
sg325
S'c:/marmalade/7.2/s3e/h/std/c++/fstream.h'
p2217
sbsS'IwGeomMat.h'
p2218
g299
(g1585
g301
Ntp2219
Rp2220
(dp2221
g1589
g1305
sg1590
g1656
sg325
g1310
sbsS's3ePointer.h'
p2222
g299
(g1585
g301
Ntp2223
Rp2224
(dp2225
g1589
g1597
sg1590
g1613
sg325
S'c:/marmalade/7.2/s3e/h/s3ePointer.h'
p2226
sbsS'iw2d.mkf'
p2227
g299
(g1585
g301
Ntp2228
Rp2229
(dp2230
g1589
g1278
sg1590
g1691
sg325
g1276
sbsS'options.cpp'
p2231
g299
(g1585
g301
Ntp2232
Rp2233
(dp2234
g1589
g1192
sg1590
g2002
sg325
g1235
sbsS's3eGL.h'
p2235
g299
(g1585
g301
Ntp2236
Rp2237
(dp2238
g1589
g1597
sg1590
g1613
sg325
S'c:/marmalade/7.2/s3e/h/s3eGL.h'
p2239
sbsS'IwGeomFVec2.h'
p2240
g299
(g1585
g301
Ntp2241
Rp2242
(dp2243
g1589
g1305
sg1590
g1656
sg325
g1324
sbsS'IwGeomSVec4.h'
p2244
g299
(g1585
g301
Ntp2245
Rp2246
(dp2247
g1589
g1305
sg1590
g1656
sg325
g1344
sbsS'poll.h'
p2248
g299
(g1585
g301
Ntp2249
Rp2250
(dp2251
g1589
g1597
sg1590
g1619
sg325
S'c:/marmalade/7.2/s3e/h/std/poll.h'
p2252
sbsS'IwMatAnim.h'
p2253
g299
(g1585
g301
Ntp2254
Rp2255
(dp2256
g1589
g1397
sg1590
g1732
sg325
g1404
sbsS'IwSoundData.cpp'
p2257
g299
(g1585
g301
Ntp2258
Rp2259
(dp2260
g1589
g1093
sg1590
g1642
sg325
g1105
sbsS'IwGeomFVec4.h'
p2261
g299
(g1585
g301
Ntp2262
Rp2263
(dp2264
g1589
g1305
sg1590
g1656
sg325
g1330
sbsS'IwGx.h'
p2265
g299
(g1585
g301
Ntp2266
Rp2267
(dp2268
g1589
g1397
sg1590
g1732
sg325
g1421
sbsS'valarray'
p2269
g299
(g1585
g301
Ntp2270
Rp2271
(dp2272
g1589
g1597
sg1590
g1598
sg325
S'c:/marmalade/7.2/s3e/h/std/c++/valarray'
p2273
sbsS'iosfwd'
p2274
g299
(g1585
g301
Ntp2275
Rp2276
(dp2277
g1589
g1597
sg1590
g1598
sg325
S'c:/marmalade/7.2/s3e/h/std/c++/iosfwd'
p2278
sbsS'gl2.h'
p2279
g299
(g1585
g301
Ntp2280
Rp2281
(dp2282
g1589
g1597
sg1590
g1859
sg325
S'c:/marmalade/7.2/s3e/h/GLES2/gl2.h'
p2283
sbsS'jpegint.h'
p2284
g299
(g1585
g301
Ntp2285
Rp2286
(dp2287
g1589
g1049
sg1590
g1686
sg325
g1054
sbsS'stdiostream.h'
p2288
g299
(g1585
g301
Ntp2289
Rp2290
(dp2291
g1589
g1597
sg1590
g1598
sg325
S'c:/marmalade/7.2/s3e/h/std/c++/stdiostream.h'
p2292
sbsS'mem.h'
p2293
g299
(g1585
g301
Ntp2294
Rp2295
(dp2296
g1589
g1597
sg1590
g1598
sg325
S'c:/marmalade/7.2/s3e/h/std/c++/mem.h'
p2297
sbsS'main.cpp'
p2298
g299
(g1585
g301
Ntp2299
Rp2300
(dp2301
g1589
g1192
sg1590
g1934
sg325
g1193
sbsS'zconf.h'
p2302
g299
(g1585
g301
Ntp2303
Rp2304
(dp2305
g1589
g1566
sg1590
(lp2306
g1561
ag1034
asg325
g1564
sbsS's3e.config.txt'
p2307
g299
(g1585
g301
Ntp2308
Rp2309
(dp2310
g1589
g1597
sg1590
g1613
sg325
S'c:/marmalade/7.2/s3e/s3e.config.txt'
p2311
sbsS'numeric'
p2312
g299
(g1585
g301
Ntp2313
Rp2314
(dp2315
g1589
g1597
sg1590
g1598
sg325
S'c:/marmalade/7.2/s3e/h/std/c++/numeric'
p2316
sbsS'utime.h'
p2317
g299
(g1585
g301
Ntp2318
Rp2319
(dp2320
g1589
g1597
sg1590
g1619
sg325
S'c:/marmalade/7.2/s3e/h/std/utime.h'
p2321
sbsS'jdhuff.h'
p2322
g299
(g1585
g301
Ntp2323
Rp2324
(dp2325
g1589
g1049
sg1590
g1686
sg325
g1064
sbsS'IwResHandlerWAV.cpp'
p2326
g299
(g1585
g301
Ntp2327
Rp2328
(dp2329
g1589
g1093
sg1590
g1642
sg325
g1111
sbsS'IwGxStream.h'
p2330
g299
(g1585
g301
Ntp2331
Rp2332
(dp2333
g1589
g1397
sg1590
g1732
sg325
g1398
sbsS'IwImage.h'
p2334
g299
(g1585
g301
Ntp2335
Rp2336
(dp2337
g1589
g1461
sg1590
g1626
sg325
g1498
sbsS's3eImagePicker.h'
p2338
g299
(g1585
g301
Ntp2339
Rp2340
(dp2341
g1589
g1597
sg1590
g1815
sg325
S'c:/marmalade/7.2/s3e/h/ext/s3eImagePicker.h'
p2342
sbsS's3eWebView.defines.txt'
p2343
g299
(g1585
g301
Ntp2344
Rp2345
(dp2346
g1589
g1149
sg1590
(lp2347
S'Extensions'
p2348
ag1143
ag1145
asg325
g1147
sbsS'stdlib.h'
p2349
g299
(g1585
g301
Ntp2350
Rp2351
(dp2352
g1589
g1597
sg1590
g1619
sg325
S'c:/marmalade/7.2/s3e/h/std/stdlib.h'
p2353
sbsS'IwCopyingPtr.h'
p2354
g299
(g1585
g301
Ntp2355
Rp2356
(dp2357
g1589
g1461
sg1590
g1626
sg325
g1538
sbsS'iostream'
p2358
g299
(g1585
g301
Ntp2359
Rp2360
(dp2361
g1589
g1597
sg1590
g1598
sg325
S'c:/marmalade/7.2/s3e/h/std/c++/iostream'
p2362
sbsS'png.h'
p2363
g299
(g1585
g301
Ntp2364
Rp2365
(dp2366
g1589
g1038
sg1590
(lp2367
g1032
ag1034
asg325
g1036
sbsS'stddef.h'
p2368
g299
(g1585
g301
Ntp2369
Rp2370
(dp2371
g1589
g1597
sg1590
g1619
sg325
S'c:/marmalade/7.2/s3e/h/std/stddef.h'
p2372
sbsS'setjmp_win32.h'
p2373
g299
(g1585
g301
Ntp2374
Rp2375
(dp2376
g1589
g1597
sg1590
g1619
sg325
S'c:/marmalade/7.2/s3e/h/std/setjmp_win32.h'
p2377
sbsS'IwGxPrint.h'
p2378
g299
(g1585
g301
Ntp2379
Rp2380
(dp2381
g1589
g1397
sg1590
g1732
sg325
g1413
sbsS'iwgx_public.defines.txt'
p2382
g299
(g1585
g301
Ntp2383
Rp2384
(dp2385
g1589
g1397
sg1590
g1732
sg325
g1417
sbsS'streambuf.h'
p2386
g299
(g1585
g301
Ntp2387
Rp2388
(dp2389
g1589
g1597
sg1590
g1598
sg325
S'c:/marmalade/7.2/s3e/h/std/c++/streambuf.h'
p2390
sbsS'IwGeomFPlane.h'
p2391
g299
(g1585
g301
Ntp2392
Rp2393
(dp2394
g1589
g1305
sg1590
g1656
sg325
g1306
sbsS'un.h'
p2395
g299
(g1585
g301
Ntp2396
Rp2397
(dp2398
g1589
g1597
sg1590
g1746
sg325
S'c:/marmalade/7.2/s3e/h/std/sys/un.h'
p2399
sbsS'wchar.h'
p2400
g299
(g1585
g301
Ntp2401
Rp2402
(dp2403
g1589
g1597
sg1590
g1619
sg325
S'c:/marmalade/7.2/s3e/h/std/wchar.h'
p2404
sbsS's3eCameraCapture.h'
p2405
g299
(g1585
g301
Ntp2406
Rp2407
(dp2408
g1589
g1597
sg1590
g1815
sg325
S'c:/marmalade/7.2/s3e/h/ext/s3eCameraCapture.h'
p2409
sbsS'eglext.h'
p2410
g299
(g1585
g301
Ntp2411
Rp2412
(dp2413
g1589
g1597
sg1590
g1954
sg325
S'c:/marmalade/7.2/s3e/h/EGL/eglext.h'
p2414
sbsS'IwResHandlerImage.h'
p2415
g299
(g1585
g301
Ntp2416
Rp2417
(dp2418
g1589
g1373
sg1590
g1867
sg325
g1381
sbsS'strstream.h'
p2419
g299
(g1585
g301
Ntp2420
Rp2421
(dp2422
g1589
g1597
sg1590
g1598
sg325
S'c:/marmalade/7.2/s3e/h/std/c++/strstream.h'
p2423
sbsS'tiniconv.h'
p2424
g299
(g1585
g301
Ntp2425
Rp2426
(dp2427
g1589
g1083
sg1590
g2083
sg325
g1081
sbsS'IwGLExt.h'
p2428
g299
(g1585
g301
Ntp2429
Rp2430
(dp2431
g1589
g1259
sg1590
g1607
sg325
g1263
sbsS'app.icf'
p2432
g299
(g1585
g301
Ntp2433
Rp2434
(dp2435
g1589
(dp2436
sg1590
g4
sg325
S'c:/Users/Vinicius/Desktop/Yes or No/Stars/data/app.icf'
p2437
sbsS'IwClassFactory.h'
p2438
g299
(g1585
g301
Ntp2439
Rp2440
(dp2441
g1589
g1461
sg1590
g1626
sg325
g1524
sbsS'file.h'
p2442
g299
(g1585
g301
Ntp2443
Rp2444
(dp2445
g1589
g1597
sg1590
g1746
sg325
S'c:/marmalade/7.2/s3e/h/std/sys/file.h'
p2446
sbsS'cstring'
p2447
g299
(g1585
g301
Ntp2448
Rp2449
(dp2450
g1589
g1597
sg1590
g1598
sg325
S'c:/marmalade/7.2/s3e/h/std/c++/cstring'
p2451
sbsS'IwSoundInst.cpp'
p2452
g299
(g1585
g301
Ntp2453
Rp2454
(dp2455
g1589
g1093
sg1590
g1642
sg325
g1097
sbsS'iwutil.config.txt'
p2456
g299
(g1585
g301
Ntp2457
Rp2458
(dp2459
g1589
g1461
sg1590
g1626
sg325
g1522
sbsS's3eSMS.h'
p2460
g299
(g1585
g301
Ntp2461
Rp2462
(dp2463
g1589
g1597
sg1590
g1815
sg325
S'c:/marmalade/7.2/s3e/h/ext/s3eSMS.h'
p2464
sbsS'limits.h'
p2465
g299
(g1585
g301
Ntp2466
Rp2467
(dp2468
g1589
g1597
sg1590
g1619
sg325
S'c:/marmalade/7.2/s3e/h/std/limits.h'
p2469
sbsS's3eLibrary.h'
p2470
g299
(g1585
g301
Ntp2471
Rp2472
(dp2473
g1589
g1597
sg1590
g1815
sg325
S'c:/marmalade/7.2/s3e/h/ext/s3eLibrary.h'
p2474
sbsS'savedataManager.cpp'
p2475
g299
(g1585
g301
Ntp2476
Rp2477
(dp2478
g1589
g1192
sg1590
g1632
sg325
g1213
sbsS'IwMaterial.h'
p2479
g299
(g1585
g301
Ntp2480
Rp2481
(dp2482
g1589
g1397
sg1590
g1732
sg325
g1402
sbsS's3eFlurry.defines.txt'
p2483
g299
(g1585
g301
Ntp2484
Rp2485
(dp2486
g1589
g1178
sg1590
(lp2487
g1827
ag1172
ag1174
asg325
g1179
sbsS'IwGxSurface.h'
p2488
g299
(g1585
g301
Ntp2489
Rp2490
(dp2491
g1589
g1397
sg1590
g1732
sg325
g1415
sbsS's3eSocket.h'
p2492
g299
(g1585
g301
Ntp2493
Rp2494
(dp2495
g1589
g1597
sg1590
g1613
sg325
S'c:/marmalade/7.2/s3e/h/s3eSocket.h'
p2496
sbsS'IwAutoFile.h'
p2497
g299
(g1585
g301
Ntp2498
Rp2499
(dp2500
g1589
g1461
sg1590
g1626
sg325
g1528
sbsS'ipc.h'
p2501
g299
(g1585
g301
Ntp2502
Rp2503
(dp2504
g1589
g1597
sg1590
g1746
sg325
S'c:/marmalade/7.2/s3e/h/std/sys/ipc.h'
p2505
sbsS'poll_1.h'
p2506
g299
(g1585
g301
Ntp2507
Rp2508
(dp2509
g1589
g1597
sg1590
g1746
sg325
S'c:/marmalade/7.2/s3e/h/std/sys/poll.h'
p2510
sbsS's3eThread.h'
p2511
g299
(g1585
g301
Ntp2512
Rp2513
(dp2514
g1589
g1597
sg1590
g1613
sg325
S'c:/marmalade/7.2/s3e/h/s3eThread.h'
p2515
sbsS'ucontext.h'
p2516
g299
(g1585
g301
Ntp2517
Rp2518
(dp2519
g1589
g1597
sg1590
g1619
sg325
S'c:/marmalade/7.2/s3e/h/std/ucontext.h'
p2520
sbsS'time.h'
p2521
g299
(g1585
g301
Ntp2522
Rp2523
(dp2524
g1589
g1597
sg1590
g1619
sg325
S'c:/marmalade/7.2/s3e/h/std/time.h'
p2525
sbsS'jchuff.h'
p2526
g299
(g1585
g301
Ntp2527
Rp2528
(dp2529
g1589
g1049
sg1590
g1686
sg325
g1072
sbsS'IwSoundPCM.cpp'
p2530
g299
(g1585
g301
Ntp2531
Rp2532
(dp2533
g1589
g1093
sg1590
g1642
sg325
g1125
sbsS's3eSoundRecord.h'
p2534
g299
(g1585
g301
Ntp2535
Rp2536
(dp2537
g1589
g1597
sg1590
g1613
sg325
S'c:/marmalade/7.2/s3e/h/s3eSoundRecord.h'
p2538
sbsS'IwFibre.h'
p2539
g299
(g1585
g301
Ntp2540
Rp2541
(dp2542
g1589
g1461
sg1590
g1626
sg325
g1466
sbsS's3eVersion.h'
p2543
g299
(g1585
g301
Ntp2544
Rp2545
(dp2546
g1589
g1597
sg1590
g1613
sg325
S'c:/marmalade/7.2/s3e/h/s3eVersion.h'
p2547
sbsS'IwSoundGroup.h'
p2548
g299
(g1585
g301
Ntp2549
Rp2550
(dp2551
g1589
g1093
sg1590
g1642
sg325
g1131
sbsS'IwSoundWAV.h'
p2552
g299
(g1585
g301
Ntp2553
Rp2554
(dp2555
g1589
g1093
sg1590
g1642
sg325
g1123
sbsS'IwGxFontGlyph.h'
p2556
g299
(g1585
g301
Ntp2557
Rp2558
(dp2559
g1589
g1283
sg1590
g1591
sg325
g1290
sbsS's3eTypes.h'
p2560
g299
(g1585
g301
Ntp2561
Rp2562
(dp2563
g1589
g1597
sg1590
g1613
sg325
S'c:/marmalade/7.2/s3e/h/s3eTypes.h'
p2564
sbsS'IwSoundSpec.h'
p2565
g299
(g1585
g301
Ntp2566
Rp2567
(dp2568
g1589
g1093
sg1590
g1642
sg325
g1127
sbsS'signal_2.h'
p2569
g299
(g1585
g301
Ntp2570
Rp2571
(dp2572
g1589
g1597
sg1590
g1598
sg325
S'c:/marmalade/7.2/s3e/h/std/c++/signal.h'
p2573
sbsS'termios.h'
p2574
g299
(g1585
g301
Ntp2575
Rp2576
(dp2577
g1589
g1597
sg1590
g1619
sg325
S'c:/marmalade/7.2/s3e/h/std/termios.h'
p2578
sbsS'iw2dscenegraph.mkf'
p2579
g299
(g1585
g301
Ntp2580
Rp2581
(dp2582
g1589
g1250
sg1590
g1913
sg325
g1248
sbsS'slist'
p2583
g299
(g1585
g301
Ntp2584
Rp2585
(dp2586
g1589
g1597
sg1590
g1598
sg325
S'c:/marmalade/7.2/s3e/h/std/c++/slist'
p2587
sbsS'cstdlib'
p2588
g299
(g1585
g301
Ntp2589
Rp2590
(dp2591
g1589
g1597
sg1590
g1598
sg325
S'c:/marmalade/7.2/s3e/h/std/c++/cstdlib'
p2592
sbsS's3eLocation.h'
p2593
g299
(g1585
g301
Ntp2594
Rp2595
(dp2596
g1589
g1597
sg1590
g1613
sg325
S'c:/marmalade/7.2/s3e/h/s3eLocation.h'
p2597
sbsS'IwMemBucketHelpers.h'
p2598
g299
(g1585
g301
Ntp2599
Rp2600
(dp2601
g1589
g1461
sg1590
g1626
sg325
g1536
sbsS's3eHash.h'
p2602
g299
(g1585
g301
Ntp2603
Rp2604
(dp2605
g1589
g1597
sg1590
g1613
sg325
S'c:/marmalade/7.2/s3e/h/s3eHash.h'
p2606
sbsS'IwSoundGroup.cpp'
p2607
g299
(g1585
g301
Ntp2608
Rp2609
(dp2610
g1589
g1093
sg1590
g1642
sg325
g1119
sbsS'IwGeomFMat.h'
p2611
g299
(g1585
g301
Ntp2612
Rp2613
(dp2614
g1589
g1305
sg1590
g1656
sg325
g1338
sbsS'type_traits.h'
p2615
g299
(g1585
g301
Ntp2616
Rp2617
(dp2618
g1589
g1597
sg1590
g1598
sg325
S'c:/marmalade/7.2/s3e/h/std/c++/type_traits.h'
p2619
sbsS'IwMenu.h'
p2620
g299
(g1585
g301
Ntp2621
Rp2622
(dp2623
g1589
g1461
sg1590
g1626
sg325
g1486
sbsS'IwResHandlerITX.h'
p2624
g299
(g1585
g301
Ntp2625
Rp2626
(dp2627
g1589
g1373
sg1590
g1867
sg325
g1387
sbsS'IwSoundData.h'
p2628
g299
(g1585
g301
Ntp2629
Rp2630
(dp2631
g1589
g1093
sg1590
g1642
sg325
g1137
sbsS'IwArray.h'
p2632
g299
(g1585
g301
Ntp2633
Rp2634
(dp2635
g1589
g1461
sg1590
g1626
sg325
g1462
sbsS'IwUTF8.h'
p2636
g299
(g1585
g301
Ntp2637
Rp2638
(dp2639
g1589
g1461
sg1590
g1626
sg325
g1530
sbsS'math_rvct.h'
p2640
g299
(g1585
g301
Ntp2641
Rp2642
(dp2643
g1589
g1597
sg1590
g1619
sg325
S'c:/marmalade/7.2/s3e/h/std/math_rvct.h'
p2644
sbsS'IwUtil.h'
p2645
g299
(g1585
g301
Ntp2646
Rp2647
(dp2648
g1589
g1461
sg1590
g1626
sg325
g1520
sbsS'IwFColour.h'
p2649
g299
(g1585
g301
Ntp2650
Rp2651
(dp2652
g1589
g1397
sg1590
g1732
sg325
g1437
sbsS'wctype.h'
p2653
g299
(g1585
g301
Ntp2654
Rp2655
(dp2656
g1589
g1597
sg1590
g1619
sg325
S'c:/marmalade/7.2/s3e/h/std/wctype.h'
p2657
sbsS'mainMenu.h'
p2658
g299
(g1585
g301
Ntp2659
Rp2660
(dp2661
g1589
g1192
sg1590
g2002
sg325
g1227
sbsS'cstddef'
p2662
g299
(g1585
g301
Ntp2663
Rp2664
(dp2665
g1589
g1597
sg1590
g1598
sg325
S'c:/marmalade/7.2/s3e/h/std/c++/cstddef'
p2666
sbsS'assert.h'
p2667
g299
(g1585
g301
Ntp2668
Rp2669
(dp2670
g1589
g1597
sg1590
g1619
sg325
S'c:/marmalade/7.2/s3e/h/std/assert.h'
p2671
sbsS'mman.h'
p2672
g299
(g1585
g301
Ntp2673
Rp2674
(dp2675
g1589
g1597
sg1590
g1746
sg325
S'c:/marmalade/7.2/s3e/h/std/sys/mman.h'
p2676
sbsS'IwRandom.h'
p2677
g299
(g1585
g301
Ntp2678
Rp2679
(dp2680
g1589
g1461
sg1590
g1626
sg325
g1470
sbsS'libgen.h'
p2681
g299
(g1585
g301
Ntp2682
Rp2683
(dp2684
g1589
g1597
sg1590
g1619
sg325
S'c:/marmalade/7.2/s3e/h/std/libgen.h'
p2685
sbsS'utsname.h'
p2686
g299
(g1585
g301
Ntp2687
Rp2688
(dp2689
g1589
g1597
sg1590
g1746
sg325
S'c:/marmalade/7.2/s3e/h/std/sys/utsname.h'
p2690
sbsS'wait.h'
p2691
g299
(g1585
g301
Ntp2692
Rp2693
(dp2694
g1589
g1597
sg1590
g1746
sg325
S'c:/marmalade/7.2/s3e/h/std/sys/wait.h'
p2695
sbsS'param.h'
p2696
g299
(g1585
g301
Ntp2697
Rp2698
(dp2699
g1589
g1597
sg1590
g1746
sg325
S'c:/marmalade/7.2/s3e/h/std/sys/param.h'
p2700
sbsS'IwDivide.h'
p2701
g299
(g1585
g301
Ntp2702
Rp2703
(dp2704
g1589
g1461
sg1590
g1626
sg325
g1557
sbsS'Iw2DSceneGraphCore.cpp'
p2705
g299
(g1585
g301
Ntp2706
Rp2707
(dp2708
g1589
g1454
sg1590
(lp2709
S"'Marmalade Studio'"
p2710
ag1447
asg325
g1455
sbsS'IwResManager.h'
p2711
g299
(g1585
g301
Ntp2712
Rp2713
(dp2714
g1589
g1373
sg1590
g1867
sg325
g1391
sbsS'IwSoundManager.h'
p2715
g299
(g1585
g301
Ntp2716
Rp2717
(dp2718
g1589
g1093
sg1590
g1642
sg325
g1101
sbsS'cwctype'
p2719
g299
(g1585
g301
Ntp2720
Rp2721
(dp2722
g1589
g1597
sg1590
g1598
sg325
S'c:/marmalade/7.2/s3e/h/std/c++/cwctype'
p2723
sbsS'set'
p2724
g299
(g1585
g301
Ntp2725
Rp2726
(dp2727
g1589
g1597
sg1590
g1598
sg325
S'c:/marmalade/7.2/s3e/h/std/c++/set'
p2728
sbsS'IwGeomSQuat.h'
p2729
g299
(g1585
g301
Ntp2730
Rp2731
(dp2732
g1589
g1305
sg1590
g1656
sg325
g1357
sbsS'locale'
p2733
g299
(g1585
g301
Ntp2734
Rp2735
(dp2736
g1589
g1597
sg1590
g1598
sg325
S'c:/marmalade/7.2/s3e/h/std/c++/locale'
p2737
sbsS'cstdio'
p2738
g299
(g1585
g301
Ntp2739
Rp2740
(dp2741
g1589
g1597
sg1590
g1598
sg325
S'c:/marmalade/7.2/s3e/h/std/c++/cstdio'
p2742
sbsS'cdjpeg.h'
p2743
g299
(g1585
g301
Ntp2744
Rp2745
(dp2746
g1589
g1049
sg1590
g1686
sg325
g1052
sbsS'IwList.h'
p2747
g299
(g1585
g301
Ntp2748
Rp2749
(dp2750
g1589
g1461
sg1590
g1626
sg325
g1474
sbsS's3eWebView_interface.cpp'
p2751
g299
(g1585
g301
Ntp2752
Rp2753
(dp2754
g1589
g1149
sg1590
g2347
sg325
g1150
sbsS'inttypes.h'
p2755
g299
(g1585
g301
Ntp2756
Rp2757
(dp2758
g1589
g1597
sg1590
g1619
sg325
S'c:/marmalade/7.2/s3e/h/std/inttypes.h'
p2759
sbsS'dirent.h'
p2760
g299
(g1585
g301
Ntp2761
Rp2762
(dp2763
g1589
g1597
sg1590
g1619
sg325
S'c:/marmalade/7.2/s3e/h/std/dirent.h'
p2764
sbsS'IwGeomVec3.h'
p2765
g299
(g1585
g301
Ntp2766
Rp2767
(dp2768
g1589
g1305
sg1590
g1656
sg325
g1342
sbsS'transupp.h'
p2769
g299
(g1585
g301
Ntp2770
Rp2771
(dp2772
g1589
g1049
sg1590
g1686
sg325
g1056
sbsS'IwMath.h'
p2773
g299
(g1585
g301
Ntp2774
Rp2775
(dp2776
g1589
g1461
sg1590
g1626
sg325
g1480
sbsS'IwGeomQuat.h'
p2777
g299
(g1585
g301
Ntp2778
Rp2779
(dp2780
g1589
g1305
sg1590
g1656
sg325
g1359
sbsS'glplatform.h'
p2781
g299
(g1585
g301
Ntp2782
Rp2783
(dp2784
g1589
g1597
sg1590
g1962
sg325
S'c:/marmalade/7.2/s3e/h/GLES/glplatform.h'
p2785
sbsS'iwgl.config.txt'
p2786
g299
(g1585
g301
Ntp2787
Rp2788
(dp2789
g1589
g1259
sg1590
g1607
sg325
g1265
sbsS'bitset'
p2790
g299
(g1585
g301
Ntp2791
Rp2792
(dp2793
g1589
g1597
sg1590
g1598
sg325
S'c:/marmalade/7.2/s3e/h/std/c++/bitset'
p2794
sbsS'alloca.h'
p2795
g299
(g1585
g301
Ntp2796
Rp2797
(dp2798
g1589
g1597
sg1590
g1619
sg325
S'c:/marmalade/7.2/s3e/h/std/alloca.h'
p2799
sbsS'IwResHandler.h'
p2800
g299
(g1585
g301
Ntp2801
Rp2802
(dp2803
g1589
g1373
sg1590
g1867
sg325
g1374
sbsS'IwResHandlerMTL.h'
p2804
g299
(g1585
g301
Ntp2805
Rp2806
(dp2807
g1589
g1397
sg1590
g1732
sg325
g1411
sbsS'IwRuntime.h'
p2808
g299
(g1585
g301
Ntp2809
Rp2810
(dp2811
g1589
g1461
sg1590
g1626
sg325
g1514
sbsS's3eFlurry.h'
p2812
g299
(g1585
g301
Ntp2813
Rp2814
(dp2815
g1589
g1178
sg1590
g1826
sg325
g1181
sbsS'limits'
p2816
g299
(g1585
g301
Ntp2817
Rp2818
(dp2819
g1589
g1597
sg1590
g1598
sg325
S'c:/marmalade/7.2/s3e/h/std/c++/limits'
p2820
sbsS'IwGeomBBox.h'
p2821
g299
(g1585
g301
Ntp2822
Rp2823
(dp2824
g1589
g1305
sg1590
g1656
sg325
g1334
sbsS'audioManager.h'
p2825
g299
(g1585
g301
Ntp2826
Rp2827
(dp2828
g1589
g1192
sg1590
g1632
sg325
g1215
sbsS's3eContacts.h'
p2829
g299
(g1585
g301
Ntp2830
Rp2831
(dp2832
g1589
g1597
sg1590
g1613
sg325
S'c:/marmalade/7.2/s3e/h/s3eContacts.h'
p2833
sbsS's3eLicense.h'
p2834
g299
(g1585
g301
Ntp2835
Rp2836
(dp2837
g1589
g1597
sg1590
g1613
sg325
S'c:/marmalade/7.2/s3e/h/s3eLicense.h'
p2838
sbsS'iwgx.config.txt'
p2839
g299
(g1585
g301
Ntp2840
Rp2841
(dp2842
g1589
g1397
sg1590
g1732
sg325
g1406
sbsS'IwTextParser.h'
p2843
g299
(g1585
g301
Ntp2844
Rp2845
(dp2846
g1589
g1461
sg1590
g1626
sg325
g1492
sbsS's3eTimer.h'
p2847
g299
(g1585
g301
Ntp2848
Rp2849
(dp2850
g1589
g1597
sg1590
g1613
sg325
S'c:/marmalade/7.2/s3e/h/s3eTimer.h'
p2851
sbsS'IwGeomVec.h'
p2852
g299
(g1585
g301
Ntp2853
Rp2854
(dp2855
g1589
g1305
sg1590
g1656
sg325
g1346
sbsS'IwSerialise.h'
p2856
g299
(g1585
g301
Ntp2857
Rp2858
(dp2859
g1589
g1461
sg1590
g1626
sg325
g1532
sbsS'cstdarg'
p2860
g299
(g1585
g301
Ntp2861
Rp2862
(dp2863
g1589
g1597
sg1590
g1598
sg325
S'c:/marmalade/7.2/s3e/h/std/c++/cstdarg'
p2864
sbsS'gl2ext.h'
p2865
g299
(g1585
g301
Ntp2866
Rp2867
(dp2868
g1589
g1597
sg1590
g1859
sg325
S'c:/marmalade/7.2/s3e/h/GLES2/gl2ext.h'
p2869
sbsS'IwChar.h'
p2870
g299
(g1585
g301
Ntp2871
Rp2872
(dp2873
g1589
g1461
sg1590
g1626
sg325
g1488
sbsS's3eSound.h'
p2874
g299
(g1585
g301
Ntp2875
Rp2876
(dp2877
g1589
g1597
sg1590
g1613
sg325
S'c:/marmalade/7.2/s3e/h/s3eSound.h'
p2878
sbsS'IwVariableBitField.h'
p2879
g299
(g1585
g301
Ntp2880
Rp2881
(dp2882
g1589
g1461
sg1590
g1626
sg325
g1504
sbsS'exception.h'
p2883
g299
(g1585
g301
Ntp2884
Rp2885
(dp2886
g1589
g1597
sg1590
g1598
sg325
S'c:/marmalade/7.2/s3e/h/std/c++/exception.h'
p2887
sbsS'iwgeom.config.txt'
p2888
g299
(g1585
g301
Ntp2889
Rp2890
(dp2891
g1589
g1305
sg1590
g1656
sg325
g1303
sbsS'iwgx.mkf'
p2892
g299
(g1585
g301
Ntp2893
Rp2894
(dp2895
g1589
g1410
sg1590
g1732
sg325
g1408
sbsS'gl.h'
p2896
g299
(g1585
g301
Ntp2897
Rp2898
(dp2899
g1589
g1597
sg1590
g1962
sg325
S'c:/marmalade/7.2/s3e/h/GLES/gl.h'
p2900
sbsS'savedataManager.h'
p2901
g299
(g1585
g301
Ntp2902
Rp2903
(dp2904
g1589
g1192
sg1590
g1632
sg325
g1207
sbsS's3eFacebook.defines.txt'
p2905
g299
(g1585
g301
Ntp2906
Rp2907
(dp2908
g1589
g1163
sg1590
(lp2909
g1141
ag1157
ag1159
asg325
g1164
sbsS'iwgl.mkf'
p2910
g299
(g1585
g301
Ntp2911
Rp2912
(dp2913
g1589
g1262
sg1590
g1607
sg325
g1260
sbsS'audioManager.cpp'
p2914
g299
(g1585
g301
Ntp2915
Rp2916
(dp2917
g1589
g1192
sg1590
g1632
sg325
g1219
sbsS'IwColour.h'
p2918
g299
(g1585
g301
Ntp2919
Rp2920
(dp2921
g1589
g1397
sg1590
g1732
sg325
g1439
sbsS'types.h'
p2922
g299
(g1585
g301
Ntp2923
Rp2924
(dp2925
g1589
g1597
sg1590
g1746
sg325
S'c:/marmalade/7.2/s3e/h/std/sys/types.h'
p2926
sbsS'ifaddrs.h'
p2927
g299
(g1585
g301
Ntp2928
Rp2929
(dp2930
g1589
g1597
sg1590
g1619
sg325
S'c:/marmalade/7.2/s3e/h/std/ifaddrs.h'
p2931
sbsS'inputManager.cpp'
p2932
g299
(g1585
g301
Ntp2933
Rp2934
(dp2935
g1589
g1192
sg1590
g1632
sg325
g1217
sbsS'IwTween.cpp'
p2936
g299
(g1585
g301
Ntp2937
Rp2938
(dp2939
g1589
g1579
sg1590
g2126
sg325
g1577
sbsS'exception'
p2940
g299
(g1585
g301
Ntp2941
Rp2942
(dp2943
g1589
g1597
sg1590
g1598
sg325
S'c:/marmalade/7.2/s3e/h/std/c++/exception'
p2944
sbsS's3eFacebook_interface.cpp'
p2945
g299
(g1585
g301
Ntp2946
Rp2947
(dp2948
g1589
g1163
sg1590
g2909
sg325
g1161
sbsS'rlocks.h'
p2949
g299
(g1585
g301
Ntp2950
Rp2951
(dp2952
g1589
g1597
sg1590
g1598
sg325
S'c:/marmalade/7.2/s3e/h/std/c++/rlocks.h'
p2953
sbsS'ioctl.h'
p2954
g299
(g1585
g301
Ntp2955
Rp2956
(dp2957
g1589
g1597
sg1590
g1746
sg325
S'c:/marmalade/7.2/s3e/h/std/sys/ioctl.h'
p2958
sbsS'rope'
p2959
g299
(g1585
g301
Ntp2960
Rp2961
(dp2962
g1589
g1597
sg1590
g1598
sg325
S'c:/marmalade/7.2/s3e/h/std/c++/rope'
p2963
sbsS'jinclude.h'
p2964
g299
(g1585
g301
Ntp2965
Rp2966
(dp2967
g1589
g1049
sg1590
g1686
sg325
g1047
sbsS's3eFlurry_interface.cpp'
p2968
g299
(g1585
g301
Ntp2969
Rp2970
(dp2971
g1589
g1178
sg1590
g2487
sg325
g1176
sbsS's3eWebView.h'
p2972
g299
(g1585
g301
Ntp2973
Rp2974
(dp2975
g1589
g1149
sg1590
(lp2976
g2348
ag1143
asg325
g1152
sbsS'IwEvent.h'
p2977
g299
(g1585
g301
Ntp2978
Rp2979
(dp2980
g1589
g1461
sg1590
g1626
sg325
g1490
sbsS'IwOptimiseSize.h'
p2981
g299
(g1585
g301
Ntp2982
Rp2983
(dp2984
g1589
g1461
sg1590
g1626
sg325
g1494
sbsS'iwgxfont_public.defines.txt'
p2985
g299
(g1585
g301
Ntp2986
Rp2987
(dp2988
g1589
g1283
sg1590
g1591
sg325
g1288
sbsS'iconv.h'
p2989
g299
(g1585
g301
Ntp2990
Rp2991
(dp2992
g1589
g1597
sg1590
g1619
sg325
S'c:/marmalade/7.2/s3e/h/std/iconv.h'
p2993
sbsS's3eDevice.h'
p2994
g299
(g1585
g301
Ntp2995
Rp2996
(dp2997
g1589
g1597
sg1590
g1613
sg325
S'c:/marmalade/7.2/s3e/h/s3eDevice.h'
p2998
sbsS'IwGeomSphere.h'
p2999
g299
(g1585
g301
Ntp3000
Rp3001
(dp3002
g1589
g1305
sg1590
g1656
sg325
g1361
sbsS'tiniconv.mkf'
p3003
g299
(g1585
g301
Ntp3004
Rp3005
(dp3006
g1589
g1088
sg1590
g2083
sg325
g1086
sbsS'iw2dscenegraph.defines.txt'
p3007
g299
(g1585
g301
Ntp3008
Rp3009
(dp3010
g1589
g1247
sg1590
g1913
sg325
g1253
sbsS'jdct.h'
p3011
g299
(g1585
g301
Ntp3012
Rp3013
(dp3014
g1589
g1049
sg1590
g1686
sg325
g1062
sbsS'cctype'
p3015
g299
(g1585
g301
Ntp3016
Rp3017
(dp3018
g1589
g1597
sg1590
g1598
sg325
S'c:/marmalade/7.2/s3e/h/std/c++/cctype'
p3019
sbsS'IwSoundADPCM.cpp'
p3020
g299
(g1585
g301
Ntp3021
Rp3022
(dp3023
g1589
g1093
sg1590
g1642
sg325
g1099
sbsS's3eConfig.h'
p3024
g299
(g1585
g301
Ntp3025
Rp3026
(dp3027
g1589
g1597
sg1590
g1613
sg325
S'c:/marmalade/7.2/s3e/h/s3eConfig.h'
p3028
sbsS'IwHashString.h'
p3029
g299
(g1585
g301
Ntp3030
Rp3031
(dp3032
g1589
g1461
sg1590
g1626
sg325
g1559
sbsS'stat.h'
p3033
g299
(g1585
g301
Ntp3034
Rp3035
(dp3036
g1589
g1597
sg1590
g1746
sg325
S'c:/marmalade/7.2/s3e/h/std/sys/stat.h'
p3037
sbsS'byteswap.h'
p3038
g299
(g1585
g301
Ntp3039
Rp3040
(dp3041
g1589
g1597
sg1590
g1619
sg325
S'c:/marmalade/7.2/s3e/h/std/byteswap.h'
p3042
sbsS'iwresmanager.mkf'
p3043
g299
(g1585
g301
Ntp3044
Rp3045
(dp3046
g1589
g1378
sg1590
g1867
sg325
g1376
sbsS'IwUtilInitTerm.h'
p3047
g299
(g1585
g301
Ntp3048
Rp3049
(dp3050
g1589
g1461
sg1590
g1626
sg325
g1526
sbsS'pthread_1.h'
p3051
g299
(g1585
g301
Ntp3052
Rp3053
(dp3054
g1589
g1597
sg1590
g1598
sg325
S'c:/marmalade/7.2/s3e/h/std/c++/pthread.h'
p3055
sbsS'IwMemBucket.h'
p3056
g299
(g1585
g301
Ntp3057
Rp3058
(dp3059
g1589
g1461
sg1590
g1626
sg325
g1542
sbsS'complex'
p3060
g299
(g1585
g301
Ntp3061
Rp3062
(dp3063
g1589
g1597
sg1590
g1598
sg325
S'c:/marmalade/7.2/s3e/h/std/c++/complex'
p3064
sbsS'game.cpp'
p3065
g299
(g1585
g301
Ntp3066
Rp3067
(dp3068
g1589
g1192
sg1590
g2002
sg325
g1239
sbsS'algorithm'
p3069
g299
(g1585
g301
Ntp3070
Rp3071
(dp3072
g1589
g1597
sg1590
g1598
sg325
S'c:/marmalade/7.2/s3e/h/std/c++/algorithm'
p3073
sbsS's3e.icf'
p3074
g299
(g1585
g301
Ntp3075
Rp3076
(dp3077
g1589
g1597
sg1590
g1613
sg325
S'c:/marmalade/7.2/s3e/s3e.icf'
p3078
sbsS'sem.h'
p3079
g299
(g1585
g301
Ntp3080
Rp3081
(dp3082
g1589
g1597
sg1590
g1746
sg325
S'c:/marmalade/7.2/s3e/h/std/sys/sem.h'
p3083
sbsS'IwGxFontState.h'
p3084
g299
(g1585
g301
Ntp3085
Rp3086
(dp3087
g1589
g1283
sg1590
g1591
sg325
g1292
sbsS'stdio.h'
p3088
g299
(g1585
g301
Ntp3089
Rp3090
(dp3091
g1589
g1597
sg1590
g1619
sg325
S'c:/marmalade/7.2/s3e/h/std/stdio.h'
p3092
sbsS'jmemsys.h'
p3093
g299
(g1585
g301
Ntp3094
Rp3095
(dp3096
g1589
g1049
sg1590
g1686
sg325
g1066
sbsS'ios'
p3097
g299
(g1585
g301
Ntp3098
Rp3099
(dp3100
g1589
g1597
sg1590
g1598
sg325
S'c:/marmalade/7.2/s3e/h/std/c++/ios'
p3101
sbsS'IwTween.h'
p3102
g299
(g1585
g301
Ntp3103
Rp3104
(dp3105
g1589
g1579
sg1590
g2126
sg325
g1580
sbsS'stack'
p3106
g299
(g1585
g301
Ntp3107
Rp3108
(dp3109
g1589
g1597
sg1590
g1598
sg325
S'c:/marmalade/7.2/s3e/h/std/c++/stack'
p3110
sbsS'IwSoundParams.h'
p3111
g299
(g1585
g301
Ntp3112
Rp3113
(dp3114
g1589
g1093
sg1590
g1642
sg325
g1135
sbsS'new.h'
p3115
g299
(g1585
g301
Ntp3116
Rp3117
(dp3118
g1589
g1597
sg1590
g1598
sg325
S'c:/marmalade/7.2/s3e/h/std/c++/new.h'
p3119
sbsS's3eEMail.h'
p3120
g299
(g1585
g301
Ntp3121
Rp3122
(dp3123
g1589
g1597
sg1590
g1815
sg325
S'c:/marmalade/7.2/s3e/h/ext/s3eEMail.h'
p3124
sbsS's3eVideo.h'
p3125
g299
(g1585
g301
Ntp3126
Rp3127
(dp3128
g1589
g1597
sg1590
g1613
sg325
S'c:/marmalade/7.2/s3e/h/s3eVideo.h'
p3129
sbsS'pngconf.h'
p3130
g299
(g1585
g301
Ntp3131
Rp3132
(dp3133
g1589
g1038
sg1590
g2367
sg325
g1039
sbsS'pwd.h'
p3134
g299
(g1585
g301
Ntp3135
Rp3136
(dp3137
g1589
g1597
sg1590
g1619
sg325
S'c:/marmalade/7.2/s3e/h/std/pwd.h'
p3138
sbsS'IwOptimiseThumb.h'
p3139
g299
(g1585
g301
Ntp3140
Rp3141
(dp3142
g1589
g1461
sg1590
g1626
sg325
g1518
sbsS'IwClip.h'
p3143
g299
(g1585
g301
Ntp3144
Rp3145
(dp3146
g1589
g1397
sg1590
g1732
sg325
g1419
sbsS'IwSoundInst.h'
p3147
g299
(g1585
g301
Ntp3148
Rp3149
(dp3150
g1589
g1093
sg1590
g1642
sg325
g1113
sbsS'iwresmanager.config.txt'
p3151
g299
(g1585
g301
Ntp3152
Rp3153
(dp3154
g1589
g1373
sg1590
g1867
sg325
g1383
sbsS'IwGxShaderTechnique.h'
p3155
g299
(g1585
g301
Ntp3156
Rp3157
(dp3158
g1589
g1397
sg1590
g1732
sg325
g1441
sbsS'IwCore.h'
p3159
g299
(g1585
g301
Ntp3160
Rp3161
(dp3162
g1589
g1461
sg1590
g1626
sg325
g1459
sbsS'cfloat'
p3163
g299
(g1585
g301
Ntp3164
Rp3165
(dp3166
g1589
g1597
sg1590
g1598
sg325
S'c:/marmalade/7.2/s3e/h/std/c++/cfloat'
p3167
sbsS'IwGeomMat2D.h'
p3168
g299
(g1585
g301
Ntp3169
Rp3170
(dp3171
g1589
g1305
sg1590
g1656
sg325
g1312
sbsS'IwAllocator.h'
p3172
g299
(g1585
g301
Ntp3173
Rp3174
(dp3175
g1589
g1461
sg1590
g1626
sg325
g1508
sbsS'timerManager.cpp'
p3176
g299
(g1585
g301
Ntp3177
Rp3178
(dp3179
g1589
g1192
sg1590
g1632
sg325
g1199
sbsS'IwPath.h'
p3180
g299
(g1585
g301
Ntp3181
Rp3182
(dp3183
g1589
g1461
sg1590
g1626
sg325
g1534
sbsS'iwgxfont.mkf'
p3184
g299
(g1585
g301
Ntp3185
Rp3186
(dp3187
g1589
g1298
sg1590
g1591
sg325
g1296
sbsS'IwTexture.h'
p3188
g299
(g1585
g301
Ntp3189
Rp3190
(dp3191
g1589
g1397
sg1590
g1732
sg325
g1435
sbsS's3eAccelerometer.h'
p3192
g299
(g1585
g301
Ntp3193
Rp3194
(dp3195
g1589
g1597
sg1590
g1613
sg325
S'c:/marmalade/7.2/s3e/h/s3eAccelerometer.h'
p3196
sbsS'setjmp.h'
p3197
g299
(g1585
g301
Ntp3198
Rp3199
(dp3200
g1589
g1597
sg1590
g1619
sg325
S'c:/marmalade/7.2/s3e/h/std/setjmp.h'
p3201
sbsS's3eFacebook.h'
p3202
g299
(g1585
g301
Ntp3203
Rp3204
(dp3205
g1589
g1163
sg1590
(lp3206
g1141
ag1157
ag1034
asg325
g1167
sbsS'IwSoundParams.cpp'
p3207
g299
(g1585
g301
Ntp3208
Rp3209
(dp3210
g1589
g1093
sg1590
g1642
sg325
g1129
sbsS'IwFile.h'
p3211
g299
(g1585
g301
Ntp3212
Rp3213
(dp3214
g1589
g1461
sg1590
g1626
sg325
g1500
sbsS'IwTextParseable.h'
p3215
g299
(g1585
g301
Ntp3216
Rp3217
(dp3218
g1589
g1461
sg1590
g1626
sg325
g1553
sbsS'istream.h'
p3219
g299
(g1585
g301
Ntp3220
Rp3221
(dp3222
g1589
g1597
sg1590
g1598
sg325
S'c:/marmalade/7.2/s3e/h/std/c++/istream.h'
p3223
sbsS'stdint.h'
p3224
g299
(g1585
g301
Ntp3225
Rp3226
(dp3227
g1589
g1597
sg1590
g1619
sg325
S'c:/marmalade/7.2/s3e/h/std/stdint.h'
p3228
sbsS'semaphore.h'
p3229
g299
(g1585
g301
Ntp3230
Rp3231
(dp3232
g1589
g1597
sg1590
g1619
sg325
S'c:/marmalade/7.2/s3e/h/std/semaphore.h'
p3233
sbsS'ctime'
p3234
g299
(g1585
g301
Ntp3235
Rp3236
(dp3237
g1589
g1597
sg1590
g1598
sg325
S'c:/marmalade/7.2/s3e/h/std/c++/ctime'
p3238
sbsS'sstream'
p3239
g299
(g1585
g301
Ntp3240
Rp3241
(dp3242
g1589
g1597
sg1590
g1598
sg325
S'c:/marmalade/7.2/s3e/h/std/c++/sstream'
p3243
sbsS'IwGeomFBBox.h'
p3244
g299
(g1585
g301
Ntp3245
Rp3246
(dp3247
g1589
g1305
sg1590
g1656
sg325
g1367
sbsS'IwDebugPrim.h'
p3248
g299
(g1585
g301
Ntp3249
Rp3250
(dp3251
g1589
g1397
sg1590
g1732
sg325
g1425
sbsS'IwGxFontContainer.h'
p3252
g299
(g1585
g301
Ntp3253
Rp3254
(dp3255
g1589
g1283
sg1590
g1591
sg325
g1286
sbsS'IwGeomSVec3.h'
p3256
g299
(g1585
g301
Ntp3257
Rp3258
(dp3259
g1589
g1305
sg1590
g1656
sg325
g1332
sbsS'iw2dscenegraphcore.mkf'
p3260
g299
(g1585
g301
Ntp3261
Rp3262
(dp3263
g1589
g1451
sg1590
g2709
sg325
g1449
sbsS's3eExt.h'
p3264
g299
(g1585
g301
Ntp3265
Rp3266
(dp3267
g1589
g1597
sg1590
g1613
sg325
S'c:/marmalade/7.2/s3e/h/s3eExt.h'
p3268
sbsS'IwGeomFVec3.h'
p3269
g299
(g1585
g301
Ntp3270
Rp3271
(dp3272
g1589
g1305
sg1590
g1656
sg325
g1322
sbsS'IwClip.inl'
p3273
g299
(g1585
g301
Ntp3274
Rp3275
(dp3276
g1589
g1397
sg1590
g1732
sg325
g1431
sbsS'streambuf'
p3277
g299
(g1585
g301
Ntp3278
Rp3279
(dp3280
g1589
g1597
sg1590
g1598
sg325
S'c:/marmalade/7.2/s3e/h/std/c++/streambuf'
p3281
sbsS's3eMetrics.h'
p3282
g299
(g1585
g301
Ntp3283
Rp3284
(dp3285
g1589
g1597
sg1590
g1815
sg325
S'c:/marmalade/7.2/s3e/h/ext/s3eMetrics.h'
p3286
sbsS'IwGxFont.h'
p3287
g299
(g1585
g301
Ntp3288
Rp3289
(dp3290
g1589
g1283
sg1590
g1591
sg325
g1281
sbsS's3eSecureStorage.h'
p3291
g299
(g1585
g301
Ntp3292
Rp3293
(dp3294
g1589
g1597
sg1590
g1613
sg325
S'c:/marmalade/7.2/s3e/h/s3eSecureStorage.h'
p3295
sbsS'string.h'
p3296
g299
(g1585
g301
Ntp3297
Rp3298
(dp3299
g1589
g1597
sg1590
g1619
sg325
S'c:/marmalade/7.2/s3e/h/std/string.h'
p3300
sbsS'IwResource.h'
p3301
g299
(g1585
g301
Ntp3302
Rp3303
(dp3304
g1589
g1461
sg1590
g1626
sg325
g1464
sbsS'IwGeomSVec2.h'
p3305
g299
(g1585
g301
Ntp3306
Rp3307
(dp3308
g1589
g1305
sg1590
g1656
sg325
g1328
sbsS'libjpeg.mkf'
p3309
g299
(g1585
g301
Ntp3310
Rp3311
(dp3312
g1589
g1078
sg1590
(lp3313
g1044
asg325
g1076
sbsS'IwGxDebug.h'
p3314
g299
(g1585
g301
Ntp3315
Rp3316
(dp3317
g1589
g1397
sg1590
g1732
sg325
g1423
sbsS'pthread_types.h'
p3318
g299
(g1585
g301
Ntp3319
Rp3320
(dp3321
g1589
g1597
sg1590
g1619
sg325
S'c:/marmalade/7.2/s3e/h/std/pthread_types.h'
p3322
sbsS'iomanip.h'
p3323
g299
(g1585
g301
Ntp3324
Rp3325
(dp3326
g1589
g1597
sg1590
g1598
sg325
S'c:/marmalade/7.2/s3e/h/std/c++/iomanip.h'
p3327
sbsS'IwKeymap.h'
p3328
g299
(g1585
g301
Ntp3329
Rp3330
(dp3331
g1589
g1461
sg1590
g1626
sg325
g1547
sbsS'IwDebug.h'
p3332
g299
(g1585
g301
Ntp3333
Rp3334
(dp3335
g1589
g1461
sg1590
g1626
sg325
g1555
sbsS's3eIOSBackgroundAudio.h'
p3336
g299
(g1585
g301
Ntp3337
Rp3338
(dp3339
g1589
g1597
sg1590
g1815
sg325
S'c:/marmalade/7.2/s3e/h/ext/s3eIOSBackgroundAudio.h'
p3340
sbsS'IwGeomMenu.h'
p3341
g299
(g1585
g301
Ntp3342
Rp3343
(dp3344
g1589
g1305
sg1590
g1656
sg325
g1314
sbsS'IwDivTable.h'
p3345
g299
(g1585
g301
Ntp3346
Rp3347
(dp3348
g1589
g1461
sg1590
g1626
sg325
g1482
sbsS'ctype.h'
p3349
g299
(g1585
g301
Ntp3350
Rp3351
(dp3352
g1589
g1597
sg1590
g1619
sg325
S'c:/marmalade/7.2/s3e/h/std/ctype.h'
p3353
sbsS'mainMenu.cpp'
p3354
g299
(g1585
g301
Ntp3355
Rp3356
(dp3357
g1589
g1192
sg1590
g2002
sg325
g1233
sbsS'IwResGroup.h'
p3358
g299
(g1585
g301
Ntp3359
Rp3360
(dp3361
g1589
g1373
sg1590
g1867
sg325
g1379
sbsS'signal_1.h'
p3362
g299
(g1585
g301
Ntp3363
Rp3364
(dp3365
g1589
g1597
sg1590
g1746
sg325
S'c:/marmalade/7.2/s3e/h/std/sys/signal.h'
p3366
sbsS'stuff.h'
p3367
g299
(g1585
g301
Ntp3368
Rp3369
(dp3370
g1589
g1192
sg1590
g2002
sg325
g1229
sbsS'jerror.h'
p3371
g299
(g1585
g301
Ntp3372
Rp3373
(dp3374
g1589
g1049
sg1590
g1686
sg325
g1070
sbsS'shm.h'
p3375
g299
(g1585
g301
Ntp3376
Rp3377
(dp3378
g1589
g1597
sg1590
g1746
sg325
S'c:/marmalade/7.2/s3e/h/std/sys/shm.h'
p3379
sbsS'IwManagedList.h'
p3380
g299
(g1585
g301
Ntp3381
Rp3382
(dp3383
g1589
g1461
sg1590
g1626
sg325
g1472
sbsS'prctl.h'
p3384
g299
(g1585
g301
Ntp3385
Rp3386
(dp3387
g1589
g1597
sg1590
g1746
sg325
S'c:/marmalade/7.2/s3e/h/std/sys/prctl.h'
p3388
sbsS's3eCamera.h'
p3389
g299
(g1585
g301
Ntp3390
Rp3391
(dp3392
g1589
g1597
sg1590
g1613
sg325
S'c:/marmalade/7.2/s3e/h/s3eCamera.h'
p3393
sbsS'utility'
p3394
g299
(g1585
g301
Ntp3395
Rp3396
(dp3397
g1589
g1597
sg1590
g1598
sg325
S'c:/marmalade/7.2/s3e/h/std/c++/utility'
p3398
sbsS's3ewebview.mkf'
p3399
g299
(g1585
g301
Ntp3400
Rp3401
(dp3402
g1589
g1156
sg1590
g2976
sg325
g1154
sbsS'IwGeomLegacy.h'
p3403
g299
(g1585
g301
Ntp3404
Rp3405
(dp3406
g1589
g1305
sg1590
g1656
sg325
g1363
sbsS'IwTPage.h'
p3407
g299
(g1585
g301
Ntp3408
Rp3409
(dp3410
g1589
g1397
sg1590
g1732
sg325
g1395
sbsS'IwResSerialise.h'
p3411
g299
(g1585
g301
Ntp3412
Rp3413
(dp3414
g1589
g1373
sg1590
g1867
sg325
g1389
sbsS's3eCrypto.h'
p3415
g299
(g1585
g301
Ntp3416
Rp3417
(dp3418
g1589
g1597
sg1590
g1613
sg325
S'c:/marmalade/7.2/s3e/h/s3eCrypto.h'
p3419
sbsS's3eKeyboard.h'
p3420
g299
(g1585
g301
Ntp3421
Rp3422
(dp3423
g1589
g1597
sg1590
g1613
sg325
S'c:/marmalade/7.2/s3e/h/s3eKeyboard.h'
p3424
sbsS'fcntl.h'
p3425
g299
(g1585
g301
Ntp3426
Rp3427
(dp3428
g1589
g1597
sg1590
g1619
sg325
S'c:/marmalade/7.2/s3e/h/std/fcntl.h'
p3429
sbsS'Iw2DSceneGraphCore.h'
p3430
g299
(g1585
g301
Ntp3431
Rp3432
(dp3433
g1589
g1454
sg1590
g2709
sg325
g1452
sbsS'memory.h'
p3434
g299
(g1585
g301
Ntp3435
Rp3436
(dp3437
g1589
g1597
sg1590
g1619
sg325
S'c:/marmalade/7.2/s3e/h/std/memory.h'
p3438
sbsS'pthread.h'
p3439
g299
(g1585
g301
Ntp3440
Rp3441
(dp3442
g1589
g1597
sg1590
g1619
sg325
S'c:/marmalade/7.2/s3e/h/std/pthread.h'
p3443
sbsS'IwGeomIntersect.h'
p3444
g299
(g1585
g301
Ntp3445
Rp3446
(dp3447
g1589
g1305
sg1590
g1656
sg325
g1355
sbsS'IwTextParserITX.h'
p3448
g299
(g1585
g301
Ntp3449
Rp3450
(dp3451
g1589
g1461
sg1590
g1626
sg325
g1484
sbsS'sceneManager.h'
p3452
g299
(g1585
g301
Ntp3453
Rp3454
(dp3455
g1589
g1192
sg1590
g1632
sg325
g1211
sbsS'sceneManager.cpp'
p3456
g299
(g1585
g301
Ntp3457
Rp3458
(dp3459
g1589
g1192
sg1590
g1632
sg325
g1205
sbsS'Iw2DSceneGraph.cpp'
p3460
g299
(g1585
g301
Ntp3461
Rp3462
(dp3463
g1589
g1247
sg1590
g1913
sg325
g1245
sbsS'ostream.h'
p3464
g299
(g1585
g301
Ntp3465
Rp3466
(dp3467
g1589
g1597
sg1590
g1598
sg325
S'c:/marmalade/7.2/s3e/h/std/c++/ostream.h'
p3468
sbsS'stl_user_config.h'
p3469
g299
(g1585
g301
Ntp3470
Rp3471
(dp3472
g1589
g1597
sg1590
g1598
sg325
S'c:/marmalade/7.2/s3e/h/std/c++/stl_user_config.h'
p3473
sbsS'IwProfileMenu.h'
p3474
g299
(g1585
g301
Ntp3475
Rp3476
(dp3477
g1589
g1461
sg1590
g1626
sg325
g1476
sbsS'MarmaladeVersion.h'
p3478
g299
(g1585
g301
Ntp3479
Rp3480
(dp3481
g1589
g1597
sg1590
g1613
sg325
S'c:/marmalade/7.2/s3e/h/MarmaladeVersion.h'
p3482
sbsS'IwResHandlerWAV.h'
p3483
g299
(g1585
g301
Ntp3484
Rp3485
(dp3486
g1589
g1093
sg1590
g1642
sg325
g1133
sbsS'options.h'
p3487
g299
(g1585
g301
Ntp3488
Rp3489
(dp3490
g1589
g1192
sg1590
g2002
sg325
g1231
sbsS'ios.h'
p3491
g299
(g1585
g301
Ntp3492
Rp3493
(dp3494
g1589
g1597
sg1590
g1598
sg325
S'c:/marmalade/7.2/s3e/h/std/c++/ios.h'
p3495
sbsS'IwImageHelper.h'
p3496
g299
(g1585
g301
Ntp3497
Rp3498
(dp3499
g1589
g1461
sg1590
g1626
sg325
g1549
sbsS'zlib.h'
p3500
g299
(g1585
g301
Ntp3501
Rp3502
(dp3503
g1589
g1566
sg1590
g2306
sg325
g1567
sbsS'hash_set'
p3504
g299
(g1585
g301
Ntp3505
Rp3506
(dp3507
g1589
g1597
sg1590
g1598
sg325
S'c:/marmalade/7.2/s3e/h/std/c++/hash_set'
p3508
sbsS'IwGeomFQuat.h'
p3509
g299
(g1585
g301
Ntp3510
Rp3511
(dp3512
g1589
g1305
sg1590
g1656
sg325
g1340
sbsS'jmorecfg.h'
p3513
g299
(g1585
g301
Ntp3514
Rp3515
(dp3516
g1589
g1049
sg1590
g1686
sg325
g1068
sbsS'eglplatform.h'
p3517
g299
(g1585
g301
Ntp3518
Rp3519
(dp3520
g1589
g1597
sg1590
g1954
sg325
S'c:/marmalade/7.2/s3e/h/EGL/eglplatform.h'
p3521
sbsS'cmath'
p3522
g299
(g1585
g301
Ntp3523
Rp3524
(dp3525
g1589
g1597
sg1590
g1598
sg325
S'c:/marmalade/7.2/s3e/h/std/c++/cmath'
p3526
sbsS'math_gcc.h'
p3527
g299
(g1585
g301
Ntp3528
Rp3529
(dp3530
g1589
g1597
sg1590
g1619
sg325
S'c:/marmalade/7.2/s3e/h/std/math_gcc.h'
p3531
sbsS's3eMemory.h'
p3532
g299
(g1585
g301
Ntp3533
Rp3534
(dp3535
g1589
g1597
sg1590
g1613
sg325
S'c:/marmalade/7.2/s3e/h/s3eMemory.h'
p3536
sbsS'strings.h'
p3537
g299
(g1585
g301
Ntp3538
Rp3539
(dp3540
g1589
g1597
sg1590
g1619
sg325
S'c:/marmalade/7.2/s3e/h/std/strings.h'
p3541
sbsS's3eFile.h'
p3542
g299
(g1585
g301
Ntp3543
Rp3544
(dp3545
g1589
g1597
sg1590
g1613
sg325
S'c:/marmalade/7.2/s3e/h/s3eFile.h'
p3546
sbsS'IwGxTypes.h'
p3547
g299
(g1585
g301
Ntp3548
Rp3549
(dp3550
g1589
g1397
sg1590
g1732
sg325
g1443
sbsS'cerrno'
p3551
g299
(g1585
g301
Ntp3552
Rp3553
(dp3554
g1589
g1597
sg1590
g1598
sg325
S'c:/marmalade/7.2/s3e/h/std/c++/cerrno'
p3555
sbsS'IwSoundManager.cpp'
p3556
g299
(g1585
g301
Ntp3557
Rp3558
(dp3559
g1589
g1093
sg1590
g1642
sg325
g1091
sbsS'main.h'
p3560
g299
(g1585
g301
Ntp3561
Rp3562
(dp3563
g1589
g1192
sg1590
g1934
sg325
g1190
sbsS'soundengine.mkf'
p3564
g299
(g1585
g301
Ntp3565
Rp3566
(dp3567
g1589
g1096
sg1590
g1642
sg325
g1094
sbsS'resource.h'
p3568
g299
(g1585
g301
Ntp3569
Rp3570
(dp3571
g1589
g1597
sg1590
g1746
sg325
S'c:/marmalade/7.2/s3e/h/std/sys/resource.h'
p3572
sbsS'clocale'
p3573
g299
(g1585
g301
Ntp3574
Rp3575
(dp3576
g1589
g1597
sg1590
g1598
sg325
S'c:/marmalade/7.2/s3e/h/std/c++/clocale'
p3577
sbsS'csetjmp'
p3578
g299
(g1585
g301
Ntp3579
Rp3580
(dp3581
g1589
g1597
sg1590
g1598
sg325
S'c:/marmalade/7.2/s3e/h/std/c++/csetjmp'
p3582
sbsS'netdb.h'
p3583
g299
(g1585
g301
Ntp3584
Rp3585
(dp3586
g1589
g1597
sg1590
g1619
sg325
S'c:/marmalade/7.2/s3e/h/std/netdb.h'
p3587
sbsS's3eAndroidJNI.h'
p3588
g299
(g1585
g301
Ntp3589
Rp3590
(dp3591
g1589
g1597
sg1590
g1815
sg325
S'c:/marmalade/7.2/s3e/h/ext/s3eAndroidJNI.h'
p3592
sbsS'stdexcept'
p3593
g299
(g1585
g301
Ntp3594
Rp3595
(dp3596
g1589
g1597
sg1590
g1598
sg325
S'c:/marmalade/7.2/s3e/h/std/c++/stdexcept'
p3597
sbsS'math.h'
p3598
g299
(g1585
g301
Ntp3599
Rp3600
(dp3601
g1589
g1597
sg1590
g1619
sg325
S'c:/marmalade/7.2/s3e/h/std/math.h'
p3602
sbsS'stdbool.h'
p3603
g299
(g1585
g301
Ntp3604
Rp3605
(dp3606
g1589
g1597
sg1590
g1619
sg325
S'c:/marmalade/7.2/s3e/h/std/stdbool.h'
p3607
sbsS'uio.h'
p3608
g299
(g1585
g301
Ntp3609
Rp3610
(dp3611
g1589
g1597
sg1590
g1746
sg325
S'c:/marmalade/7.2/s3e/h/std/sys/uio.h'
p3612
sbsS'IwUncopyable.h'
p3613
g299
(g1585
g301
Ntp3614
Rp3615
(dp3616
g1589
g1461
sg1590
g1626
sg325
g1506
sbsS's3efacebook.mkf'
p3617
g299
(g1585
g301
Ntp3618
Rp3619
(dp3620
g1589
g1171
sg1590
(lp3621
g1141
ag1157
asg325
g1169
sbssS'juice_build_type'
p3622
g4
sS'tests'
p3623
(lp3624
sS'project_name'
p3625
g307
sS'root_file'
p3626
g119
sS'current_root'
p3627
S'c:/Users/Vinicius/Desktop/Yes or No/Stars'
p3628
sS'dependencies'
p3629
(lp3630
sS'include_paths'
p3631
(lp3632
S'c:/marmalade/7.2/extensions/s3ewebview/h'
p3633
aS'c:/marmalade/7.2/modules/iwutil/h'
p3634
aS'c:/marmalade/7.2/modules/third_party/libjpeg/h'
p3635
aS'c:/marmalade/7.2/modules/third_party/zlib/h'
p3636
aS'c:/marmalade/7.2/modules/third_party/libpng/h'
p3637
aS'c:/marmalade/7.2/extensions/s3efacebook/h'
p3638
aS'c:/marmalade/7.2/modules/iw2d/h'
p3639
aS'c:/marmalade/7.2/modules/iwgx/h'
p3640
aS'c:/marmalade/7.2/modules/iwgl/h'
p3641
aS'c:/marmalade/7.2/modules/iwgeom/h'
p3642
aS'c:/marmalade/7.2/modules/iwresmanager/h'
p3643
aS'c:/marmalade/7.2/modules/iwgxfont/h'
p3644
aS'c:/marmalade/7.2/modules/third_party/tiniconv/source'
p3645
aS'c:/marmalade/7.2/modules/iw2dscenegraph/h'
p3646
aS'c:/marmalade/7.2/modules/iw2dscenegraphcore/h'
p3647
aS'c:/marmalade/7.2/modules/iwtween/h'
p3648
aS'c:/users/vinicius/desktop/yes or no/stars/modules/soundengine/h'
p3649
aS'c:/users/vinicius/desktop/yes or no/stars/modules/soundengine/source'
p3650
aS'c:/marmalade/7.2/extensions/s3eflurry/h'
p3651
aS'c:/marmalade/7.2/s3e/h'
p3652
aS'c:/marmalade/7.2/s3e/h/ext'
p3653
aS'c:/marmalade/7.2/s3e/h/std'
p3654
aS'c:/marmalade/7.2/s3e/h/std/c++'
p3655
aS'c:/marmalade/7.2/s3e/h/ext_legacy'
p3656
aS'c:/marmalade/7.2/s3e/h/legacy'
p3657
asS'weak_frameworks'
p3658
(lp3659
sS'extprojects'
p3660
(dp3661
sg602
(dp3662
g596
(lp3663
(S'c:/Users/Vinicius/Desktop/Yes or No/Stars/data/audio'
p3664
S'audio'
p3665
I0
tp3666
a(S'c:/Users/Vinicius/Desktop/Yes or No/Stars/data/textures'
p3667
S'textures'
p3668
I0
tp3669
a(S'c:/Users/Vinicius/Desktop/Yes or No/Stars/data-ram/data-gles1,c:/Users/Vinicius/Desktop/Yes or No/Stars/data'
p3670
S'.'
p3671
I0
tp3672
a(S'c:/marmalade/7.2/extensions/s3ewebview/s3eWebView.js'
p3673
S's3eWebView.js'
p3674
I0
tp3675
a(S'c:/marmalade/7.2/extensions/s3efacebook/source/iphone/facebook-ios-sdk/FacebookSDK.framework/Versions/A/Resources/FacebookSDKResources.bundle/FBDialog/images/fbicon.png'
p3676
S'FacebookSDKResources.bundle/FBDialog/images/fbicon.png'
p3677
I0
tp3678
a(S'c:/marmalade/7.2/extensions/s3efacebook/source/iphone/facebook-ios-sdk/FacebookSDK.framework/Versions/A/Resources/FacebookSDKResources.bundle/FBDialog/images/close.png'
p3679
S'FacebookSDKResources.bundle/FBDialog/images/close.png'
p3680
I0
tp3681
a(S'c:/marmalade/7.2/extensions/s3efacebook/source/iphone/facebook-ios-sdk/FacebookSDK.framework/Versions/A/Resources/FacebookSDKResources.bundle/FBDialog/images/close@2x.png'
p3682
S'FacebookSDKResources.bundle/FBDialog/images/close@2x.png'
p3683
I0
tp3684
a(S'c:/marmalade/7.2/extensions/s3efacebook/facebook-winclient-sdk-master/Source/Facebook.Client-WindowsStore/FacebookDialogPage.xaml'
p3685
S'FacebookDialogPage.xaml'
p3686
I0
tp3687
asS'WebView32Assets'
p3688
(lp3689
(S'c:/marmalade/7.2/extensions/s3ewebview/lib/win32/locales'
p3690
S'locales'
p3691
I0
tp3692
a(S'c:/marmalade/7.2/extensions/s3ewebview/lib/win32/avcodec-53.dll'
p3693
S'avcodec-53.dll'
p3694
I0
tp3695
a(S'c:/marmalade/7.2/extensions/s3ewebview/lib/win32/avformat-53.dll'
p3696
S'avformat-53.dll'
p3697
I0
tp3698
a(S'c:/marmalade/7.2/extensions/s3ewebview/lib/win32/avutil-51.dll'
p3699
S'avutil-51.dll'
p3700
I0
tp3701
a(S'c:/marmalade/7.2/extensions/s3ewebview/lib/win32/chrome.pak'
p3702
S'chrome.pak'
p3703
I0
tp3704
a(S'c:/marmalade/7.2/extensions/s3ewebview/lib/win32/d3dcompiler_43.dll'
p3705
S'd3dcompiler_43.dll'
p3706
I0
tp3707
a(S'c:/marmalade/7.2/extensions/s3ewebview/lib/win32/d3dx9_43.dll'
p3708
S'd3dx9_43.dll'
p3709
I0
tp3710
a(S'c:/marmalade/7.2/extensions/s3ewebview/lib/win32/icudt.dll'
p3711
S'icudt.dll'
p3712
I0
tp3713
a(S'c:/marmalade/7.2/extensions/s3ewebview/lib/win32/libcef.dll'
p3714
S'libcef.dll'
p3715
I0
tp3716
a(S'c:/marmalade/7.2/extensions/s3ewebview/lib/win32/libEGL.dll'
p3717
S'libEGL.dll'
p3718
I0
tp3719
a(S'c:/marmalade/7.2/extensions/s3ewebview/lib/win32/libGLESv2.dll'
p3720
S'libGLESv2.dll'
p3721
I0
tp3722
assS'macro_types'
p3723
(dp3724
g525
I0
sg527
I0
sg528
I0
sg529
I0
sg531
I1
sg532
I0
sg533
I0
sg534
I0
sg535
I0
sg536
I0
sg537
I0
sg538
I0
sg540
I0
sg541
I0
sg542
I0
sg543
I0
sg544
I0
sg546
I0
sg547
I0
sg548
I0
sg549
I0
sg550
I0
sg551
I0
sg552
I0
sg553
I0
sg554
I1
sg555
I0
sg556
I0
sg557
I0
sg558
I0
sg559
I0
sg560
I0
sg561
I0
sg562
I01
sg563
I1
sg564
I0
sg565
I0
sg566
I0
sg567
I0
sg568
I0
sg569
I0
sg570
I0
sg571
I0
ssS'commands'
p3725
(lp3726
sg604
(g1025
S'VC12X'
p3727
S'X86ARM'
p3728
tp3729
sS'build_libs'
p3730
(dp3731
sg606
g0
sS'frameworks'
p3732
(lp3733
sS'environ'
p3734
(dp3735
sS'target_name_debug'
p3736
g307
sS'builders'
p3737
(dp3738
g596
(dp3739
S'.S'
p3740
(dp3741
S'rvct'
p3742
(lp3743
S'.obj'
p3744
aS'echo ARM Assembling(RVCT) ${SOURCE}...'
p3745
aS'c:/marmalade/7.2/s3e\\rvct\\bin\\armasm -o ${TARGET} ${SOURCE}'
p3746
asS'gcc'
p3747
(lp3748
g3744
aS'echo ARM Assembling(GCC) ${SOURCE}...'
p3749
aS'c:/marmalade/7.2/s3e\\gcc\\bin\\arm-none-eabi-gcc -c -o ${TARGET} ${SOURCE}'
p3750
asS'ppu'
p3751
(lp3752
S'.a'
p3753
aS'echo PPU Assembling(SNC) ${SOURCE}...'
p3754
aS'c:/marmalade/7.2/s3e\\rvct\\bin\\armasm -o ${TARGET} ${SOURCE}'
p3755
assS'.s'
p3756
g3741
sS'.vp'
p3757
(lp3758
NaS'"C:/Marmalade/7.2/s3e/python/python.exe" "c:/marmalade/7.2/modules/iwgx/tools/compile_shaders.py" ${SOURCE}'
p3759
asssS'extproject_names'
p3760
(lp3761
sbtp3762
.