((dp0
S'arm_dbg_args'
p1
S'-via:"c:\\Users\\Vinicius\\Desktop\\Yes or No\\Stars\\build_stars_vc12x\\Stars_vc12x_arm_debug.via" -qemu'
p2
sS'game-icf'
p3
S''
p4
sS'dist'
p5
NsS'csproj'
p6
g4
sS'module_path_append'
p7
NsS'global_path'
p8
S'c:\\users\\vinicius\\desktop\\yes or no'
p9
sS'system_path'
p10
S'c:\\marmalade\\7.2\\s3e\\makefile_builder'
p11
sS'android_x86_dbg_args'
p12
S'../../tools/DeployTool/DeployTool.exe --dir "c:\\Users\\Vinicius\\Desktop\\Yes or No\\Stars\\build_stars_vc12x"'
p13
sS'use_prebuilt'
p14
NsS'arm_rel_rtsm_args'
p15
S'-via:"c:\\Users\\Vinicius\\Desktop\\Yes or No\\Stars\\build_stars_vc12x\\Stars_vc12x_arm_release.via" -qemu'
p16
sS'amd64'
p17
NsS'line-width'
p18
I80
sS'gcc_dbg_args'
p19
S'-via:"c:\\Users\\Vinicius\\Desktop\\Yes or No\\Stars\\build_stars_vc12x\\Stars_vc12x_gcc_debug.via" -qemu'
p20
sS'android-x86'
p21
NsS'x86_dbg_exe'
p22
S'c:/marmalade/7.2/s3e\\win32\\s3e_simulator_debug.exe'
p23
sS'disable-runtime-checks'
p24
NsS'release'
p25
NsS'no-make'
p26
NsS'optimise-size'
p27
NsS'output-name-debug'
p28
g4
sS'arm-fpu'
p29
S'vfp'
p30
sS'proj_name'
p31
S'Stars_vc12x'
p32
sS'rvct-version'
p33
S'none'
p34
sS'compiler'
p35
g4
sS'execute'
p36
I01
sS'compile-static'
p37
NsS'msvc-project'
p38
NsS'buildenv'
p39
S'VC12X'
p40
sS'quick'
p41
NsS'module_path'
p42
(lp43
S'c:/Users/Vinicius/Desktop/Yes or No/Stars/modules'
p44
asS'use-release-std-libs'
p45
NsS'using_perforce'
p46
I00
sS'tizen-x86'
p47
NsS'mips-s3e'
p48
NsS'ios-no-pic'
p49
NsS'shared-arm-lib'
p50
NsS'arm-cpu'
p51
g4
sS'compile-thumb'
p52
NsS'no-ide'
p53
I01
sS'msvc-version'
p54
S'6.0'
p55
sS'arm'
p56
NsS'builddir'
p57
g4
sS'compile-debug-as-release'
p58
I0
sS'brief'
p59
NsS'dll'
p60
NsS'buildenv-toolset'
p61
g4
sS'version'
p62
NsS'ccache'
p63
I0
sS'offline'
p64
NsS'ios-version'
p65
g4
sS'hub_data'
p66
g4
sS'fake_vc_call'
p67
NsS'jobs'
p68
I0
sS'linkflags'
p69
NsS'tizen-x86-toolsroot'
p70
S'c:/marmalade/7.2/s3e\\..\\tools\\gcc\\x86\\tizen_windows'
p71
sS'debug'
p72
I01
sS'xcode-build-order'
p73
g4
sS'gcc_rel_rtsm_args'
p74
S'-via:"c:\\Users\\Vinicius\\Desktop\\Yes or No\\Stars\\build_stars_vc12x\\Stars_vc12x_gcc_release.via" -qemu'
p75
sS'done_defaults'
p76
I1
sS'path'
p77
NsS's3e-data-dir'
p78
S'c:/Users/Vinicius/Desktop/Yes or No/Stars\\data'
p79
sS'enable-exceptions'
p80
NsS'osx-dll'
p81
NsS'extension'
p82
g4
sS'no-vc6'
p83
NsS'non-interactive'
p84
NsS'win32-console'
p85
NsS'dist-format'
p86
g4
sS's3e-force-arch'
p87
NsS'dump_defines'
p88
NsS'verbose'
p89
I0
sS'gcc-version'
p90
g4
sS'x86_dbg_args'
p91
S'-via:"c:\\Users\\Vinicius\\Desktop\\Yes or No\\Stars\\build_stars_vc12x\\Stars_vc12x_debug.via"'
p92
sS'tizen_x86_dbg_args'
p93
g13
sS'arm-debugger'
p94
g4
sS'use_temp_extension'
p95
NsS'log'
p96
NsS'no-strip'
p97
NsS'rebuild'
p98
NsS'win32-simulator-dll'
p99
NsS'strict'
p100
NsS'mips_dbg_args'
p101
g13
sS'enable-global-path'
p102
NsS'cflags'
p103
NsS'dist-dir'
p104
g4
sS'jflags'
p105
NsS'csprojSDKRefs'
p106
g4
sS'tizen_x86_rel_exe'
p107
S'c:\\marmalade\\7.2\\s3e\\makefile_builder\\tool_launcher.exe'
p108
sS'test-assets'
p109
g4
sS'distcc'
p110
NsS'external-compiler'
p111
NsS'no-distcc'
p112
NsS'preinclude'
p113
NsS'using_sdk'
p114
I01
sS'nologo'
p115
NsS'warn-level'
p116
I2
sS'mips_dbg_exe'
p117
g108
sS'mkb_in'
p118
S'c:/Users/Vinicius/Desktop/Yes or No/Stars/Stars.mkb'
p119
sS'tizen_x86_dbg_exe'
p120
g108
sS'arm_dbg_exe'
p121
S'c:/marmalade/7.2/s3e\\bin\\armdebug.exe'
p122
sS'csprojDLLRef'
p123
NsS'tizen_x86_rel_args'
p124
g13
sS'android_x86_dbg_exe'
p125
g108
sS'test-config'
p126
g4
sS'list-targets'
p127
NsS'arm_rel_exe'
p128
g108
sS'arm_rel_args'
p129
g13
sS'makedeps'
p130
NsS'android_x86_rel_exe'
p131
g108
sS'default-buildenv'
p132
S'VC12X'
p133
sS'x86_rel_exe'
p134
g23
sS'preprocess-java'
p135
NsS'mips_rel_args'
p136
g13
sS'defines'
p137
NsS'lib'
p138
NsS'global_argv'
p139
(lp140
S'C:\\Marmalade\\7.2\\s3e\\makefile_builder\\mkb.py'
p141
aS'C:/Users/Vinicius/Desktop/Yes or No/Stars/Stars.mkb'
p142
aS'--buildenv=VC12X'
p143
aS'--debug'
p144
aS'--x86'
p145
aS'--no-ide'
p146
aS'--execute'
p147
asS'make'
p148
NsS'optimise-speed'
p149
NsS'internal'
p150
NsS'enable-stdinc'
p151
NsS'deploy-only'
p152
NsS'x86'
p153
I01
sS'deploy'
p154
g4
sS'x86_run_exe'
p155
S'c:/marmalade/7.2/s3e\\win32\\s3e_console.exe'
p156
sS'x86_rel_args'
p157
S'-via:"c:\\Users\\Vinicius\\Desktop\\Yes or No\\Stars\\build_stars_vc12x\\Stars_vc12x_release.via"'
p158
sS'gcc_rel_args'
p159
g13
sS'mips'
p160
NsS'xcode-build-settings'
p161
g4
sS'incredibuild'
p162
NsS'strict-compile'
p163
NsS'use-auto-subdirs'
p164
NsS'mips_rel_exe'
p165
g108
sS'android_x86_rel_args'
p166
g13
sS'app-icf'
p167
g4
sS'deployargs'
p168
NsS'iosnativedebug'
p169
NsS'mkf_in'
p170
(lp171
S'c:\\marmalade\\7.2\\extensions\\s3ewebview\\s3ewebview.mkf'
p172
aS'c:\\marmalade\\7.2\\modules\\iwutil\\iwutil.mkf'
p173
aS'c:\\marmalade\\7.2\\modules\\third_party\\libjpeg\\libjpeg.mkf'
p174
aS'c:\\marmalade\\7.2\\modules\\third_party\\libpng\\libpng.mkf'
p175
aS'c:\\marmalade\\7.2\\modules\\third_party\\zlib\\zlib.mkf'
p176
aS'c:\\marmalade\\7.2\\extensions\\s3efacebook\\s3efacebook.mkf'
p177
aS'c:\\marmalade\\7.2\\modules\\iw2d\\iw2d.mkf'
p178
aS'c:\\marmalade\\7.2\\modules\\iwgx\\iwgx.mkf'
p179
aS'c:\\marmalade\\7.2\\modules\\iwgl\\iwgl.mkf'
p180
aS'c:\\marmalade\\7.2\\modules\\iwgeom\\iwgeom.mkf'
p181
aS'c:\\marmalade\\7.2\\modules\\iwresmanager\\iwresmanager.mkf'
p182
aS'c:\\marmalade\\7.2\\modules\\iwgxfont\\iwgxfont.mkf'
p183
aS'c:\\marmalade\\7.2\\modules\\third_party\\tiniconv\\tiniconv.mkf'
p184
aS'c:\\marmalade\\7.2\\modules\\iw2dscenegraph\\iw2dscenegraph.mkf'
p185
aS'c:\\marmalade\\7.2\\modules\\iw2dscenegraphcore\\iw2dscenegraphcore.mkf'
p186
aS'c:\\marmalade\\7.2\\modules\\iwtween\\iwtween.mkf'
p187
aS'c:\\users\\vinicius\\desktop\\yes or no\\stars\\modules\\soundengine\\soundengine.mkf'
p188
aS'c:\\marmalade\\7.2\\extensions\\s3eflurry\\s3eflurry.mkf'
p189
asS'strict-mkb'
p190
NsS'executeargs'
p191
NsS'clean'
p192
NsS'no-asm'
p193
NsS'output-name'
p194
g4
sS'no-modules'
p195
NsS'find_define'
p196
g4
s(dp197
S'c:\\marmalade\\7.2\\s3e\\makefile_builder\\templates\\ws8_sln.pyc'
p198
F1396656910.0
sS'c:\\marmalade\\7.2\\s3e\\makefile_builder\\plugins\\java.pyc'
p199
F1396656908.0
sS'c:\\marmalade\\7.2\\s3e\\makefile_builder\\plugins\\S3EEmitter.pyc'
p200
F1396656908.0
sS'c:\\marmalade\\7.2\\s3e\\makefile_builder\\templates\\win32_vcxproj_filters.pyc'
p201
F1396656910.0
sS'c:\\marmalade\\7.2\\s3e\\makefile_builder\\plugins\\xcode4_schememanagement.py'
p202
F1396655700.0
sS'c:\\marmalade\\7.2\\s3e\\makefile_builder\\plugins\\linux_scons.pyc'
p203
F1396656910.0
sS'c:\\marmalade\\7.2\\s3e\\makefile_builder\\templates\\wp8_sln.pyc'
p204
F1396656910.0
sS'c:\\marmalade\\7.2\\s3e\\makefile_builder\\templates\\ws8_ext_sln.pyc'
p205
F1396656910.0
sS'c:\\marmalade\\7.2\\s3e\\makefile_builder\\templates\\MainWindow.xib'
p206
F1396655700.0
sS'c:\\marmalade\\7.2\\s3e\\makefile_builder\\templates\\ws81_ext_sln.pyc'
p207
F1396656910.0
sS'c:\\marmalade\\7.2\\s3e\\makefile_builder\\plugins\\Win8Emitter.pyc'
p208
F1396656910.0
sS'c:\\marmalade\\7.2\\s3e\\makefile_builder\\templates\\win8_ext_csproj.pyc'
p209
F1396656910.0
sS'c:\\marmalade\\7.2\\s3e\\makefile_builder\\templates\\rvct_linker_script'
p210
F1396655702.0
sS'c:\\marmalade\\7.2\\s3e\\makefile_builder\\templates\\win8_sln.pyc'
p211
F1396656910.0
sS'c:\\marmalade\\7.2\\s3e\\makefile_builder\\templates\\ws8_ext_csproj.pyc'
p212
F1396656910.0
sS'c:\\marmalade\\7.2\\s3e\\makefile_builder\\plugins\\s3e_make.pyc'
p213
F1396656908.0
sS'c:\\marmalade\\7.2\\s3e\\makefile_builder\\templates\\wp8_csproj_user.pyc'
p214
F1396656910.0
sS'c:\\marmalade\\7.2\\s3e\\makefile_builder\\plugins\\s3e_scons.pyc'
p215
F1396656908.0
sS'c:\\marmalade\\7.2\\s3e\\makefile_builder\\plugins\\s3e_qmake.py'
p216
F1396655700.0
sS'c:\\marmalade\\7.2\\s3e\\makefile_builder\\docs\\deprecated.options.txt'
p217
F1396655698.0
sS'c:\\marmalade\\7.2\\s3e\\makefile_builder\\plugins\\ws8_ws8.pyc'
p218
F1396656910.0
sS'c:\\marmalade\\7.2\\s3e\\makefile_builder\\templates\\ws81_sln.pyc'
p219
F1396656910.0
sS'c:\\marmalade\\7.2\\s3e\\makefile_builder\\templates\\ws81_ext_csproj.pyc'
p220
F1396656910.0
sS'c:\\marmalade\\7.2\\s3e\\makefile_builder\\templates\\wp8_vcxproj.pyc'
p221
F1396656910.0
sS'c:\\marmalade\\7.2\\s3e\\makefile_builder\\templates\\vc6_opt.pyc'
p222
F1396656910.0
sS'c:\\marmalade\\7.2\\s3e\\makefile_builder\\plugins\\deploy.pyc'
p223
F1396656908.0
sS'c:\\marmalade\\7.2\\s3e\\makefile_builder\\templates\\scons.pyc'
p224
F1396656910.0
sS'c:\\marmalade\\7.2\\s3e\\makefile_builder\\templates\\win32_vcproj.pyc'
p225
F1396656910.0
sS'c:\\marmalade\\7.2\\s3e\\makefile_builder\\templates\\win8_csproj.pyc'
p226
F1396656910.0
sS'c:\\marmalade\\7.2\\s3e\\makefile_builder\\extensions\\make_dist.py'
p227
F1396655698.0
sS'c:\\marmalade\\7.2\\s3e\\makefile_builder\\templates\\gdb_start.txt'
p228
F1396655702.0
sS'c:\\marmalade\\7.2\\s3e\\makefile_builder\\templates\\vc8_user.pyc'
p229
F1396656910.0
sS'c:\\marmalade\\7.2\\s3e\\makefile_builder\\plugins\\s3e_win8.pyc'
p230
F1396656910.0
sS'c:\\marmalade\\7.2\\s3e\\makefile_builder\\templates\\win32_sln.pyc'
p231
F1396656910.0
sS'c:\\marmalade\\7.2\\s3e\\makefile_builder\\docs\\options.txt'
p232
F1396655698.0
sS'c:\\marmalade\\7.2\\s3e\\makefile_builder\\mkb.py'
p233
F1396655698.0
sS'c:\\marmalade\\7.2\\s3e\\makefile_builder\\templates\\Info.plist'
p234
F1396655700.0
sS'c:\\marmalade\\7.2\\s3e\\makefile_builder\\docs\\parse_options.pyc'
p235
F1396656912.0
sS'c:\\marmalade\\7.2\\s3e\\makefile_builder\\templates\\ws8_csproj.pyc'
p236
F1396656910.0
sS'c:\\marmalade\\7.2\\s3e\\makefile_builder\\templates\\ws81_csproj.pyc'
p237
F1396656910.0
sS'c:\\marmalade\\7.2\\s3e\\makefile_builder\\plugins\\osx_xcode.pyc'
p238
F1396656910.0
sS'c:\\marmalade\\7.2\\s3e\\makefile_builder\\plugins\\s3e_xcode.pyc'
p239
F1397674110.1375155
sS'c:\\marmalade\\7.2\\s3e\\makefile_builder\\plugins\\xcode4_schememanagement.pyc'
p240
F1397674109.1068296
sS'c:\\marmalade\\7.2\\s3e\\makefile_builder\\templates\\xcode4.xcscheme'
p241
F1396655704.0
sS'c:\\marmalade\\7.2\\s3e\\makefile_builder\\plugins\\Emitter.pyc'
p242
F1396656908.0
sS'c:\\marmalade\\7.2\\s3e\\makefile_builder\\templates\\mips_linker_script'
p243
F1396655702.0
sS'c:\\marmalade\\7.2\\s3e\\makefile_builder\\templates\\ws8_vcxproj.pyc'
p244
F1396656910.0
sS'c:\\marmalade\\7.2\\s3e\\makefile_builder\\plugins\\win32_vc6.pyc'
p245
F1396656910.0
sS'c:\\marmalade\\7.2\\s3e\\makefile_builder\\mkb_parser.pyc'
p246
F1396656908.0
sS'c:\\marmalade\\7.2\\s3e\\makefile_builder\\templates\\ws81_csproj_user.pyc'
p247
F1396656910.0
sS'c:\\marmalade\\7.2\\s3e\\makefile_builder\\templates\\linker_script'
p248
F1396655702.0
sS'c:\\marmalade\\7.2\\s3e\\makefile_builder\\docs\\deprecated.defines.txt'
p249
F1396655698.0
sS'c:\\marmalade\\7.2\\s3e\\makefile_builder\\templates\\template.suo'
p250
F1396655702.0
sS'c:\\marmalade\\7.2\\s3e\\makefile_builder\\templates\\make.py'
p251
F1396655702.0
sS'c:\\marmalade\\7.2\\s3e\\makefile_builder\\extensions'
p252
F1397673792.7230873
sS'c:\\marmalade\\7.2\\s3e\\makefile_builder\\templates\\win32_dsp.pyc'
p253
F1396656910.0
sS'c:\\marmalade\\7.2\\s3e\\makefile_builder\\templates\\wp8_ext_csproj.pyc'
p254
F1396656910.0
sS'c:\\marmalade\\7.2\\s3e\\makefile_builder\\plugins\\MakeEmitter.pyc'
p255
F1396656908.0
sS'c:\\marmalade\\7.2\\s3e\\makefile_builder\\plugins\\XcodeEmitter.pyc'
p256
F1397674109.0167696
sS'c:\\marmalade\\7.2\\s3e\\makefile_builder\\templates\\win32_dsw.pyc'
p257
F1396656910.0
sS'c:\\marmalade\\7.2\\s3e\\makefile_builder\\docs\\mkb.defines.txt'
p258
F1396655698.0
sS'c:\\marmalade\\7.2\\s3e\\makefile_builder\\docs\\deployment_options.txt'
p259
F1396655698.0
sS'c:\\marmalade\\7.2\\s3e\\makefile_builder\\plugins\\s3e_qmake.pyc'
p260
F1397674109.7792768
sS'c:\\marmalade\\7.2\\s3e\\makefile_builder\\plugins\\ws81_ws81.pyc'
p261
F1396656910.0
sS'c:\\marmalade\\7.2\\s3e\\makefile_builder\\templates\\win32_vcxproj.pyc'
p262
F1396656910.0
sS'c:\\marmalade\\7.2\\s3e\\makefile_builder\\docs'
p263
F1397673793.1573761
sS'c:\\marmalade\\7.2\\s3e\\makefile_builder\\plugins\\XcodeEmitter.py'
p264
F1396655698.0
sS'c:\\marmalade\\7.2\\s3e\\makefile_builder\\templates\\template.opt'
p265
F1396655702.0
sS'c:\\marmalade\\7.2\\s3e\\makefile_builder\\tool_launcher.exe'
p266
F1396656088.0
sS'c:\\marmalade\\7.2\\s3e\\makefile_builder\\templates\\xcode.py'
p267
F1396655702.0
sS'c:\\marmalade\\7.2\\s3e\\makefile_builder\\plugins\\VisualStudioEmitter.pyc'
p268
F1396656908.0
sS'c:\\marmalade\\7.2\\s3e\\makefile_builder\\plugins\\osx_scons.pyc'
p269
F1396656910.0
sS'c:\\marmalade\\7.2\\s3e\\makefile_builder\\templates'
p270
F1397673792.65204
sS'c:\\marmalade\\7.2\\s3e\\makefile_builder\\templates\\ws81_vcxproj.pyc'
p271
F1396656910.0
sS'c:\\marmalade\\7.2\\s3e\\makefile_builder\\templates\\win8_vcxproj.pyc'
p272
F1396656910.0
sS'c:\\marmalade\\7.2\\s3e\\makefile_builder\\plugins\\s3e_ws8.pyc'
p273
F1396656910.0
sS'c:\\marmalade\\7.2\\s3e\\makefile_builder\\templates\\wp8_csproj.pyc'
p274
F1396656910.0
sS'c:\\marmalade\\7.2\\s3e\\makefile_builder\\templates\\vc7_suo.pyc'
p275
F1396656910.0
sS'c:\\marmalade\\7.2\\s3e\\makefile_builder\\plugins\\SConsEmitter.pyc'
p276
F1396656908.0
sS'c:\\marmalade\\7.2\\s3e\\makefile_builder\\mkb_option.pyc'
p277
F1396656908.0
sS'c:\\marmalade\\7.2\\s3e\\makefile_builder\\templates\\ws8_csproj_user.pyc'
p278
F1396656910.0
sS'c:\\marmalade\\7.2\\s3e\\makefile_builder\\mkb_main.pyc'
p279
F1396656908.0
sS'c:\\marmalade\\7.2\\s3e\\makefile_builder\\plugins'
p280
F1397674110.1315114
sS'c:\\marmalade\\7.2\\s3e\\makefile_builder\\plugins\\s3e_web.pyc'
p281
F1396656908.0
sS'c:\\marmalade\\7.2\\s3e\\makefile_builder\\plugins\\s3e_ws81.pyc'
p282
F1396656910.0
sS'c:\\marmalade\\7.2\\s3e\\makefile_builder\\mkb_globals.pyc'
p283
F1396656908.0
sS'c:\\marmalade\\7.2\\s3e\\makefile_builder\\plugins\\iphone.pyc'
p284
F1396656910.0
sS'c:\\marmalade\\7.2\\s3e\\makefile_builder\\mkb_launcher.exe'
p285
F1396656088.0
sS'c:\\marmalade\\7.2\\s3e\\makefile_builder\\plugins\\vc7_utils.pyc'
p286
F1396656908.0
sS'c:\\marmalade\\7.2\\s3e\\makefile_builder\\plugins\\s3e_wp8.pyc'
p287
F1396656910.0
sS'c:\\marmalade\\7.2\\s3e\\makefile_builder\\plugins\\vc6_utils.pyc'
p288
F1396656908.0
sS'c:\\marmalade\\7.2\\s3e\\makefile_builder\\deployment.pyc'
p289
F1396656908.0
sS'c:\\marmalade\\7.2\\s3e\\makefile_builder\\plugins\\s3e_vc6.pyc'
p290
F1396656908.0
sS'c:\\marmalade\\7.2\\s3e\\makefile_builder\\plugins\\null.pyc'
p291
F1396656908.0
sS'c:\\marmalade\\7.2\\s3e\\makefile_builder\\templates\\qmake.py'
p292
F1396655702.0
sS'c:\\marmalade\\7.2\\s3e\\makefile_builder\\templates\\xcode4_DeployTool.xcscheme'
p293
F1396655704.0
sS'c:\\marmalade\\7.2\\s3e\\makefile_builder\\templates\\win8_csproj_user.pyc'
p294
F1396656910.0
sS'c:\\marmalade\\7.2\\s3e\\makefile_builder\\plugins\\win8_utils.pyc'
p295
F1396656908.0
sS'c:\\marmalade\\7.2\\s3e\\makefile_builder\\mkb_util.pyc'
p296
F1396656908.0
sS'c:\\marmalade\\7.2\\s3e\\makefile_builder\\plugins\\wp8_wp8.pyc'
p297
F1396656910.0
sS'c:\\marmalade\\7.2\\s3e\\makefile_builder\\plugins\\s3e_xcode.py'
p298
F1396655700.0
sS'c:\\marmalade\\7.2\\s3e\\makefile_builder\\templates\\vc10_user.pyc'
p299
F1396656910.0
sS'c:\\marmalade\\7.2\\s3e\\makefile_builder\\templates\\qmake_user.py'
p300
F1396655702.0
sS'c:\\marmalade\\7.2\\s3e\\makefile_builder\\templates\\xcode_pbxuser.py'
p301
F1396655704.0
sccopy_reg
_reconstructor
p302
(cmkb_main
MkbFile
p303
c__builtin__
object
p304
Ntp305
Rp306
(dp307
g5
(lp308
sS'target_name'
p309
S'Stars'
p310
sS'current_file'
p311
g119
sS'package_path'
p312
(lp313
sS'post_build'
p314
(lp315
(lp316
S'c:/marmalade/7.2/s3e/tools'
p317
aS'C:\\Marmalade\\7.2\\s3e\\python\\python.exe .\\process_map.py "$(TargetPath)"'
p318
aa(S'c:\\marmalade\\7.2\\s3e\\bin'
p319
S'"s3e_plink" -l "$(TargetPath)" '
p320
g153
tp321
asS'librarys'
p322
(lp323
g302
(cmkb_main
Library
p324
g304
Ntp325
Rp326
(dp327
S'name'
p328
S'vc6_compat.lib'
p329
sS'expand_name'
p330
I00
sS'include_spec_rvct_objs'
p331
(lp332
sS'include_all_objs'
p333
I00
sS'share_arm'
p334
I00
sS'arch'
p335
S'x86'
p336
sS'nodebug'
p337
I00
sg35
Nsbag302
(g324
g304
Ntp338
Rp339
(dp340
g328
S'iwutil'
p341
sg330
I01
sg331
(lp342
sg333
Nsg334
Nsg335
Nsg337
I00
sg35
Nsbag302
(g324
g304
Ntp343
Rp344
(dp345
g328
S'jpeg'
p346
sg330
I01
sg331
g342
sg333
Nsg334
Nsg335
Nsg337
I00
sg35
Nsbag302
(g324
g304
Ntp347
Rp348
(dp349
g328
S'z'
p350
sg330
I01
sg331
g342
sg333
Nsg334
Nsg335
Nsg337
I00
sg35
Nsbag302
(g324
g304
Ntp351
Rp352
(dp353
g328
S'png'
p354
sg330
I01
sg331
g342
sg333
Nsg334
Nsg335
Nsg337
I00
sg35
Nsbag302
(g324
g304
Ntp355
Rp356
(dp357
g328
S'iw2d'
p358
sg330
I01
sg331
g342
sg333
Nsg334
Nsg335
Nsg337
I00
sg35
Nsbag302
(g324
g304
Ntp359
Rp360
(dp361
g328
S'ATI_Compress_MT_VC7.lib'
p362
sg330
I00
sg331
g342
sg333
Nsg334
Nsg335
S'x86'
p363
sg337
I00
sg35
Nsbag302
(g324
g304
Ntp364
Rp365
(dp366
g328
S'iwgx'
p367
sg330
I01
sg331
g342
sg333
Nsg334
Nsg335
Nsg337
I00
sg35
Nsbag302
(g324
g304
Ntp368
Rp369
(dp370
g328
S'iwgl'
p371
sg330
I01
sg331
g342
sg333
Nsg334
Nsg335
Nsg337
I00
sg35
Nsbag302
(g324
g304
Ntp372
Rp373
(dp374
g328
S'iwgeom'
p375
sg330
I01
sg331
g342
sg333
Nsg334
Nsg335
Nsg337
I00
sg35
Nsbag302
(g324
g304
Ntp376
Rp377
(dp378
g328
S'iwresmanager'
p379
sg330
I01
sg331
g342
sg333
Nsg334
Nsg335
Nsg337
I00
sg35
Nsbag302
(g324
g304
Ntp380
Rp381
(dp382
g328
S'iwgxfont'
p383
sg330
I01
sg331
g342
sg333
Nsg334
Nsg335
Nsg337
I00
sg35
Nsbag302
(g324
g304
Ntp384
Rp385
(dp386
g328
S'tiniconv'
p387
sg330
I01
sg331
g342
sg333
Nsg334
Nsg335
Nsg337
I00
sg35
Nsbag302
(g324
g304
Ntp388
Rp389
(dp390
g328
S's3e_cpp'
p391
sg330
I01
sg331
g332
sg333
I00
sg334
I00
sg335
Nsg337
I00
sg35
Nsbag302
(g324
g304
Ntp392
Rp393
(dp394
g328
S's3e'
p395
sg330
I01
sg331
(lp396
S'iwcrt.o'
p397
asg333
I00
sg334
I00
sg335
Nsg337
I00
sg35
Nsbag302
(g324
g304
Ntp398
Rp399
(dp400
g328
S's3e_api'
p401
sg330
I01
sg331
g332
sg333
I00
sg334
I00
sg335
S'x86'
p402
sg337
I01
sg35
Nsbag302
(g324
g304
Ntp403
Rp404
(dp405
g328
S's3e_api'
p406
sg330
I01
sg331
g332
sg333
I00
sg334
I00
sg335
S'!x86'
p407
sg337
I01
sg35
Nsbag302
(g324
g304
Ntp408
Rp409
(dp410
g328
S'stdc++'
p411
sg330
I00
sg331
g332
sg333
I00
sg334
I00
sg335
S'mips'
p412
sg337
I00
sg35
Nsbag302
(g324
g304
Ntp413
Rp414
(dp415
g328
S'c'
p416
sg330
I00
sg331
g332
sg333
I00
sg334
I00
sg335
S'mips'
p417
sg337
I00
sg35
Nsbag302
(g324
g304
Ntp418
Rp419
(dp420
g328
S'm'
p421
sg330
I00
sg331
g332
sg333
I00
sg334
I00
sg335
S'mips'
p422
sg337
I00
sg35
Nsbag302
(g324
g304
Ntp423
Rp424
(dp425
g328
S'gcc'
p426
sg330
I00
sg331
g332
sg333
I00
sg334
I00
sg335
S'mips'
p427
sg337
I00
sg35
Nsbag302
(g324
g304
Ntp428
Rp429
(dp430
g328
S'stdc++'
p431
sg330
I00
sg331
g332
sg333
I00
sg334
I00
sg335
S'gcc_x86_tizen'
p432
sg337
I00
sg35
Nsbag302
(g324
g304
Ntp433
Rp434
(dp435
g328
g416
sg330
I00
sg331
g332
sg333
I00
sg334
I00
sg335
S'gcc_x86_tizen'
p436
sg337
I00
sg35
Nsbag302
(g324
g304
Ntp437
Rp438
(dp439
g328
g421
sg330
I00
sg331
g332
sg333
I00
sg334
I00
sg335
S'gcc_x86_tizen'
p440
sg337
I00
sg35
Nsbag302
(g324
g304
Ntp441
Rp442
(dp443
g328
S'gcc'
p444
sg330
I00
sg331
g332
sg333
I00
sg334
I00
sg335
S'gcc_x86_tizen'
p445
sg337
I00
sg35
Nsbag302
(g324
g304
Ntp446
Rp447
(dp448
g328
S'gcc_eh'
p449
sg330
I00
sg331
g332
sg333
I00
sg334
I00
sg335
S'gcc_x86_tizen'
p450
sg337
I00
sg35
Nsbag302
(g324
g304
Ntp451
Rp452
(dp453
g328
S'stdc++'
p454
sg330
I00
sg331
g332
sg333
I00
sg334
I00
sg335
S'gcc_x86_android'
p455
sg337
I00
sg35
Nsbag302
(g324
g304
Ntp456
Rp457
(dp458
g328
g416
sg330
I00
sg331
g332
sg333
I00
sg334
I00
sg335
S'gcc_x86_android'
p459
sg337
I00
sg35
Nsbag302
(g324
g304
Ntp460
Rp461
(dp462
g328
g421
sg330
I00
sg331
g332
sg333
I00
sg334
I00
sg335
S'gcc_x86_android'
p463
sg337
I00
sg35
Nsbag302
(g324
g304
Ntp464
Rp465
(dp466
g328
S'gcc'
p467
sg330
I00
sg331
g332
sg333
I00
sg334
I00
sg335
S'gcc_x86_android'
p468
sg337
I00
sg35
NsbasS'library_paths'
p469
(lp470
g302
(cmkb_main
LibraryPath
p471
g304
Ntp472
Rp473
(dp474
S'expand_path'
p475
I01
sS'add_cpu_variant'
p476
I00
sg328
S'c:/marmalade/7.2/modules/iwutil'
p477
sbag302
(g471
g304
Ntp478
Rp479
(dp480
g475
I01
sg476
I00
sg328
S'c:/marmalade/7.2/modules/third_party/libjpeg'
p481
sbag302
(g471
g304
Ntp482
Rp483
(dp484
g475
I01
sg476
I00
sg328
S'c:/marmalade/7.2/modules/third_party/zlib'
p485
sbag302
(g471
g304
Ntp486
Rp487
(dp488
g475
I01
sg476
I00
sg328
S'c:/marmalade/7.2/modules/third_party/libpng'
p489
sbag302
(g471
g304
Ntp490
Rp491
(dp492
g475
I01
sg476
I00
sg328
S'c:/marmalade/7.2/modules/iw2d'
p493
sbag302
(g471
g304
Ntp494
Rp495
(dp496
g475
I00
sg476
I00
sg328
S'c:/marmalade/7.2/modules/iwgx/atitools'
p497
sbag302
(g471
g304
Ntp498
Rp499
(dp500
g475
I01
sg476
I00
sg328
S'c:/marmalade/7.2/modules/iwgx'
p501
sbag302
(g471
g304
Ntp502
Rp503
(dp504
g475
I01
sg476
I00
sg328
S'c:/marmalade/7.2/modules/iwgl'
p505
sbag302
(g471
g304
Ntp506
Rp507
(dp508
g475
I01
sg476
I00
sg328
S'c:/marmalade/7.2/modules/iwgeom'
p509
sbag302
(g471
g304
Ntp510
Rp511
(dp512
g475
I01
sg476
I00
sg328
S'c:/marmalade/7.2/modules/iwresmanager'
p513
sbag302
(g471
g304
Ntp514
Rp515
(dp516
g475
I01
sg476
I00
sg328
S'c:/marmalade/7.2/modules/iwgxfont'
p517
sbag302
(g471
g304
Ntp518
Rp519
(dp520
g475
I01
sg476
I00
sg328
S'c:/marmalade/7.2/modules/third_party/tiniconv'
p521
sbag302
(g471
g304
Ntp522
Rp523
(dp524
g475
I01
sg476
I00
sg328
S'c:/marmalade/7.2/s3e'
p525
sbasS'macros'
p526
(dp527
S'IW_TRACE_CHANNEL_WEBVIEW_VERBOSE'
p528
S'2'
p529
sS'IW_MKF_S3EFACEBOOK'
p530
NsS'I3D_PLATFORM_S3E'
p531
NsS'IW_TRACE_CHANNEL_FLURRY'
p532
S'1'
p533
sS'IW_USE_CALLSTACK'
p534
NsS'__S3E__'
p535
NsS'IW_TRACE_CHANNEL_WEBVIEW'
p536
g533
sS'IW_MKF_LIBJPEG'
p537
NsS'I3D_OS_S3E'
p538
NsS'IW_ASSERTION_CHANNEL_FLURRY'
p539
g533
sS'IW_MKF_TINICONV'
p540
NsS'IW_APP_VERSION'
p541
S'"1.0"'
p542
sS'IW_MKF_IWRESMANAGER'
p543
NsS'IW_MKF_IWUTIL'
p544
NsS'IW_PLATFORM_S3E'
p545
NsS'IW_ASSERTION_CHANNEL_2D'
p546
g533
sS'IW_APP_NAME'
p547
S'"Stars"'
p548
sS'IW_MKF_IWGXFONT'
p549
NsS'IW_MKF_IWTWEEN'
p550
NsS'IW_MKF_S3EFLURRY'
p551
NsS'IW_MKF_ZLIB'
p552
NsS'IW_MKF_IWGX'
p553
NsS'IW_MKF_IW2DSCENEGRAPH'
p554
NsS'IW_MKF_SOUNDENGINE'
p555
NsS'IW_ASSERTION_CHANNEL_WEBVIEW'
p556
g533
sS'IW_USE_ASSERTIONS'
p557
NsS'_CRT_SECURE_NO_DEPRECATE'
p558
NsS'IW_MKF_IWGL'
p559
NsS'IW_MKF_LIBPNG'
p560
NsS'IW_MKF_S3EWEBVIEW'
p561
NsS'IW_TRACE_CHANNEL_IW_2DSCENEGRAPH'
p562
g533
sS'IW_ASSERTION_CHANNEL_FACEBOOK'
p563
g533
sS'IW_TRACE_CHANNEL_FACEBOOK_VERBOSE'
p564
g529
sS'IW_DEBUG'
p565
NsS'IW_USE_TRACING'
p566
NsS'IW_ASSERTION_CHANNEL_IW_2DSCENEGRAPH'
p567
g533
sS'IW_SDK'
p568
NsS'S3E_INCLUDE_LEGACY'
p569
NsS'IW_MKF_IW2DSCENEGRAPHCORE'
p570
NsS'IW_TRACE_CHANNEL_FACEBOOK'
p571
g533
sS'IW_TRACE_CHANNEL_FLURRY_VERBOSE'
p572
g529
sS'IW_MKF_IW2D'
p573
NsS'IW_MKF_IWGEOM'
p574
NssS'done_warnings'
p575
(dp576
sS'subprojects'
p577
(dp578
g183
S'iwgxfont'
p579
sg177
S's3eFacebook'
p580
sg172
S's3eWebView'
p581
sg173
S'iwutil'
p582
sg179
S'iwgx'
p583
sg186
S'../iw2dscenegraphcore'
p584
sg174
S'libjpeg'
p585
sg175
S'libpng'
p586
sg180
S'iwgl'
p587
sg187
S'iwtween'
p588
sg185
S'iw2dscenegraph'
p589
sg178
S'iw2d'
p590
sg181
S'iwgeom'
p591
sg184
S'tiniconv'
p592
sg176
S'zlib'
p593
sg188
S'SoundEngine'
p594
sg182
S'iwresmanager'
p595
sg189
S's3eFlurry'
p596
ssS'deployments'
p597
(dp598
S'Default'
p599
g302
(cdeployment
Deployment
p600
g304
Ntp601
Rp602
(dp603
S'got_version'
p604
I0
sS'assets'
p605
g599
sS'mkb'
p606
g306
sS'target'
p607
Nsg335
(lp608
sS'options'
p609
(dp610
S'iphone-link-lib'
p611
(lp612
S's3eWebView'
p613
aS's3eFacebook'
p614
aS'FlurryAnalytics'
p615
aS's3eFlurry'
p616
asS'game-icf'
p617
NsS'winmobile-icon32'
p618
NsS'ws8-logo-image150x150'
p619
NsS'ws81-product-version'
p620
NsS'osx-ext-dll'
p621
(lp622
S'c:/marmalade/7.2/extensions/s3ewebview/lib/osx/libs3eWebView.dylib'
p623
aS'c:/marmalade/7.2/extensions/s3eflurry/lib/osx/libs3eFlurry.dylib'
p624
asS'iphone-provisioning-profile'
p625
NsS'ws8-splash-screen-image620x300'
p626
NsS'ws8-ext-capabilities'
p627
(lp628
sS'android-icon-hdpi'
p629
NsS'brew-icon-large'
p630
NsS'iphone-splash-full-orient'
p631
NsS'wp8-tile-fliptemplate-supports-large'
p632
NsS'iphone-show-status-bar'
p633
NsS'roku-requires-mkv'
p634
NsS'long-caption'
p635
NsS'android-pkgname'
p636
NsS'blackberry-permissions-read-device-identifying-information'
p637
NsS'ws81-certificate-end-date'
p638
NsS'psp-dlgcontentid'
p639
NsS'target-folder'
p640
NsS'tizen-dist1-CA-path'
p641
NsS'symbian-icon2-format'
p642
NsS'iphone-region'
p643
NsS'uiq3-icon3-mask'
p644
NsS'brew-encoding'
p645
NsS'android-x86'
p646
NsS'nds-initialcode'
p647
NsS'iphone-persistent-wifi'
p648
NsS'psp-snd0'
p649
NsS'osx-signing-identity-inst'
p650
NsS'winmobile-install-folder'
p651
NsS'android-external-res'
p652
(lp653
S'c:/marmalade/7.2/extensions/s3efacebook/facebook-android-sdk/facebook/res'
p654
asS'ws8-product-version'
p655
NsS'brew-priviledges'
p656
NsS'symbian-icon2-mask-black'
p657
NsS'iphone-icon-ipad'
p658
NsS'roku-hidden'
p659
NsS'psp-titlename'
p660
NsS'symbian-icon1-mask'
p661
NsS'psp-parentallevel'
p662
NsS'splashscreen-use-all'
p663
NsS'wp8-author'
p664
NsS'symbian-disable-ecompxl'
p665
NsS'splashscreen-auto-onblack'
p666
NsS'win32-ext-dll'
p667
(lp668
S'c:/marmalade/7.2/extensions/s3ewebview/lib/win32/s3eWebView.dll'
p669
aS'c:/marmalade/7.2/extensions/s3eflurry/lib/win32/s3eFlurry.dll'
p670
asS'iphone-development-key'
p671
NsS'winmobile-icon48'
p672
NsS'android-unsigned'
p673
NsS'osx-appstore-category'
p674
NsS'version-revision'
p675
NsS'roku-icon-focus-sd'
p676
NsS'android-keystore'
p677
NsS'winmobile-png90'
p678
NsS'iphone-icon-ipad-high-res'
p679
NsS'iphone-disable-ipad'
p680
NsS'wp8-product-id'
p681
NsS'wp8-ext-capabilities'
p682
(lp683
sS'iphone-ipad-only'
p684
NsS'symbian-icon1-mask-black'
p685
NsS'iphone-bundle-localisations'
p686
NsS'winmobile-png60'
p687
NsS'blackberry-permissions-access-shared'
p688
NsS'blackberry-author'
p689
NsS'android-icon-xxxhdpi'
p690
NsS'olddeploytoolstyle'
p691
NsS'android_icon_gallery'
p692
NsS'winmobile-cab-compress'
p693
NsS'ws81-ext-managed-dll'
p694
(lp695
sS'win32-icon'
p696
NsS'symbian-key'
p697
NsS'app-icf'
p698
NsS'blackberry-storepass'
p699
NsS'wp8-tile-fliptemplate-back-title'
p700
NsS'brew-compress-loader'
p701
NsS'win32-pref-windowposy'
p702
NsS'win32-pref-windowposx'
p703
NsS'roku-requires-audiometadata'
p704
NsS'wp8-exclude-low-mem'
p705
NsS'wp8-tile-fliptemplate-title'
p706
NsS'iphone-icon-ipad-search-high-res'
p707
NsS'iphone-link-libdir'
p708
(lp709
S'c:/marmalade/7.2/extensions/s3ewebview/lib/iphone'
p710
aS'c:/marmalade/7.2/extensions/s3efacebook/lib/iphone'
p711
aS'c:/marmalade/7.2/extensions/s3eflurry/lib/iphone'
p712
asS'blackberry-permissions-read-geolocation'
p713
NsS'winmobile-nouninstall'
p714
NsS'tizen-signed'
p715
NsS'android-extra-application-manifest'
p716
(lp717
S'c:/marmalade/7.2/extensions/s3efacebook/source/android/extra_app_manifest.xml'
p718
asS'ws8-ext-native-dll'
p719
(lp720
sS'symbian-icon2-mask'
p721
NsS'iphone-backgroundmode-audio'
p722
NsS'webos-memory'
p723
NsS'android-keypass'
p724
NsS'name'
p725
NsS'uiq3-icon2-format'
p726
NsS'roku-splash-screen-sd'
p727
NsS'auto-derbh'
p728
NsS'roku-icon-side-sd'
p729
NsS'symbian-maxheapsize'
p730
NsS'nds-publicsavedatasize'
p731
NsS'splashscreen'
p732
NsS'brew-mif'
p733
NsS'iphone-icon-settings-high-res'
p734
NsS'android-manifest'
p735
NsS'ws81-splash-screen-image620x300'
p736
NsS's3e-compression'
p737
NsS'tizen-author-password'
p738
NsS'wp8-tile-fliptemplate-back-content'
p739
NsS'symbian-icon1'
p740
NsS'symbian-icon2'
p741
NsS'android-extra-styles-file'
p742
NsS'nds-bannertitle-jp'
p743
NsS'osx-sign-for-store'
p744
NsS'symbian7-uid'
p745
NsS'wp8-tile-fliptemplate-large-back-content'
p746
NsS'nds-bannertitle-cn'
p747
NsS'iphone-distribution-key'
p748
NsS'android-icon-gallery'
p749
NsS'blackberry-keystore'
p750
NsS'iphone-nosign'
p751
NsS'caption'
p752
NsS'android-extra-manifest'
p753
(lp754
sS'android-icon-xxhdpi'
p755
NsS'version-minor'
p756
NsS'iphone-link-libdirs'
p757
(lp758
sS'iphone-icon-large'
p759
NsS'symbian-keypwd'
p760
NsS'symbian8-uid'
p761
NsS'symbian-cert-key'
p762
NsS'winmobile-ampd-part-number'
p763
NsS'arch'
p764
NsS'nds-romheadertemplate'
p765
NsS'webos-icon'
p766
NsS'psp-dlgprotectdocument'
p767
NsS'android-icon-mdpi'
p768
NsS'nds-icon'
p769
NsS'ws8-custom-manifest-fill'
p770
NsS'iphone-development-cert'
p771
NsS'blackberry-phone-icon'
p772
NsS'iphone-enable-4inch-retina'
p773
NsS'ws8-custom-manifest'
p774
NsS'version-major'
p775
NsS'wp8-genre-isgame'
p776
NsS'uiq3-uid'
p777
NsS'iphone-splash-retina-generate'
p778
NsS'tizen-hw-acceleration'
p779
NsS'iphone_bundle_localisations'
p780
NsS'tizen-dist1-key'
p781
NsS'wp8-custom-manifest'
p782
NsS'nds-bannertitle-ge'
p783
NsS'iphone-sign-for-distribution'
p784
NsS'wp8-tile-fliptemplate-medium-back-image'
p785
NsS'wp8-publisher-id'
p786
NsS'icon'
p787
NsS'wp8-exclude-wxga'
p788
NsS'uiq3-icon2-mask'
p789
NsS'iphone-splashscreen-portrait'
p790
NsS'iphone-icon-high-res'
p791
NsS'ws81-distribution-pfx-password'
p792
NsS'playbook-author'
p793
NsS'android-icon-xhdpi'
p794
NsS'linux-ext-lib'
p795
(lp796
sS'blackberry-permissions-access-internet'
p797
NsS'wp8-exclude-720p'
p798
NsS'lgtv-use-drm'
p799
NsS'symbian-platsecflags'
p800
NsS'ws8-description'
p801
NsS'blackberry-playbook-icon'
p802
NsS'copyright'
p803
NsS'version'
p804
NsS'ws81-logo-image150x150'
p805
NsS'osx-signing-identity-app'
p806
NsS'tizen-project-url'
p807
NsS'symbian-icon-svg'
p808
NsS'android-aliasname'
p809
NsS'psp-dlgmanual'
p810
NsS'brew-uid'
p811
NsS'symbian-locationsupport'
p812
NsS'ws8-ext-managed-dll'
p813
(lp814
sS'nds-bannertitle-it'
p815
NsS'ws8-ext-sdk-manifest-part'
p816
(lp817
sS'uiq3-icon1-mask'
p818
NsS'winmobile-icon16'
p819
NsS'ws8-product-name'
p820
NsS'blackberry-cskpass'
p821
NsS'winmobile-start-menu-folder'
p822
NsS'brew-clsid'
p823
NsS'roku-requires-bluetooth'
p824
NsS'ws8-ext-device-capabilities'
p825
(lp826
sS'blackberry-permissions-use-camera'
p827
NsS'iphone-prerendered-icon'
p828
NsS'iphone-appid'
p829
S'com.yesornogames.countingstarts'
p830
sS'ws8-identity-name'
p831
NsS'tizen-dist2-CA-path'
p832
NsS'winmobile-icon64'
p833
NsS'blackberry-permissions-post-notification'
p834
NsS'winmobile-setup-dll'
p835
NsS'android-external-jars'
p836
(lp837
S'c:/marmalade/7.2/extensions/s3ewebview/lib/android/s3eWebView.jar'
p838
aS'c:/marmalade/7.2/extensions/s3efacebook/lib/android/s3eFacebook.jar'
p839
aS'c:/marmalade/7.2/extensions/s3efacebook/facebook-android-sdk/libs/android-support-v4.jar'
p840
aS'c:/marmalade/7.2/extensions/s3efacebook/lib/android/annotations-4.1.1.4.jar'
p841
aS'c:/marmalade/7.2/extensions/s3eflurry/lib/android/s3eFlurry.jar'
p842
aS'c:/marmalade/7.2/extensions/s3eflurry/lib/android/FlurryAgent.jar'
p843
asS'symbian9-uid'
p844
NsS'iphone-icon-ipad-ios7'
p845
NsS'winmobile-trace-file'
p846
NsS'roku-splash-color'
p847
NsS'psp-appversion'
p848
NsS'ws8-publisher-id'
p849
NsS'android-supports-gl-texture'
p850
(lp851
sS'winmobile-png45'
p852
NsS'android-storepass'
p853
NsS'roku-icon-focus-hd'
p854
NsS'android-custom-activity'
p855
NsS'psp-discversion'
p856
NsS'psp-copyright'
p857
NsS'embed-icf'
p858
NsS'tizen-manifest'
p859
NsS'osx-icon'
p860
NsS'webos-appinfo'
p861
NsS'psp-dlghealthwarning'
p862
NsS'webos-appid'
p863
NsS'roku-icon-side-hd'
p864
NsS'iphone-icon-ipad-search-high-res-ios7'
p865
NsS'ws81-ext-sdk-manifest-part'
p866
(lp867
sS'loader_name_prefix'
p868
NsS'nds-titlename'
p869
NsS'ws81-logo-image50x50'
p870
NsS'osx-entitlements-plist'
p871
NsS'psp-dlgicon0'
p872
NsS'ws81-ext-device-capabilities'
p873
(lp874
sS'psp-discid'
p875
NsS'tizen-dist2-password'
p876
NsS'ws8-ext-sdk-ref'
p877
(lp878
sS'iphone-extra-string'
p879
(lp880
sS'version-string'
p881
NsS'iphone-icon-high-res-ios7'
p882
NsS'blackberry-permissions-record-audio'
p883
NsS'ws8-certificate-end-date'
p884
NsS'tizen-so'
p885
(lp886
sS'wp8-tile-fliptemplate-small-image'
p887
NsS'pkguid-as-uid'
p888
NsS'iphone-signing-identity'
p889
NsS'roku-persist-quota'
p890
NsS'nds-bannertitle-fr'
p891
NsS'ws8-distribution-pfx'
p892
NsS'ws8-publisher-display-name'
p893
NsS'brew-icon-small'
p894
NsS'psp-dlgpic2'
p895
NsS'psp-dlgpic0'
p896
NsS'psp-pic0'
p897
NsS'psp-pic1'
p898
NsS'psp-icon0'
p899
NsS'psp-icon1'
p900
NsS'ws81-identity-name'
p901
NsS'winmobile-icon'
p902
NsS'iphone-no-splash'
p903
NsS'iphone-splash'
p904
NsS'iphone-app-fonts'
p905
NsS'wp8-ext-native-dll'
p906
(lp907
S'c:/marmalade/7.2/extensions/s3ewebview/lib/wp8/s3eWebViewExtension.dll'
p908
aS'c:/marmalade/7.2/extensions/s3efacebook/lib/wp8/s3eFacebookExtension.dll'
p909
aS'c:/marmalade/7.2/extensions/s3eflurry/lib/wp8/s3eFlurryExtension.dll'
p910
asS'ws81-distribution-cer'
p911
NsS'uiq3-icon2'
p912
NsS'uiq3-icon3'
p913
NsS'uiq3-icon1'
p914
NsS'uiq3-icon1-format'
p915
NsS'ws8-logo-image50x50'
p916
NsS'iphone-icon-ipad-search'
p917
NsS'symbian-run-on-install'
p918
NsS'ws81-publisher-display-name'
p919
NsS'ws81-custom-manifest-fill'
p920
NsS'symbian-soundrecordsupport'
p921
NsS'nds-bannertitle-sp'
p922
NsS'psp-producer'
p923
NsS'iphone-apple-wwdr-cert'
p924
NsS'android-icon-nonstandard'
p925
NsS'win32-pref-processtitle'
p926
NsS'nds-bannertitle-hn'
p927
NsS'tizen-dist2-key'
p928
NsS'brew-depends'
p929
NsS'ws81-custom-manifest'
p930
NsS'iphone-icon-ipad-search-ios7'
p931
NsS'brew-icon-medium'
p932
NsS'iphone-bundle-url-name'
p933
S'com.yesornogames.countingstarts'
p934
sS'wp8-tile-fliptemplate-large-front-image'
p935
NsS'tizen-dist2-CA-root-path'
p936
NsS'ws81-description'
p937
NsS'uiq3-icon3-format'
p938
NsS'ws81-logo-image30x30'
p939
NsS'iphone-signing-host'
p940
NsS'tizen-icon'
p941
NsS'osx-info-plist'
p942
NsS'symbian-icon1-format'
p943
NsS'ws81-distribution-pfx'
p944
NsS'blackberry-authorid'
p945
NsS'ws81-publisher-id'
p946
NsS'ws81-ext-sdk-ref'
p947
(lp948
sS'wp8-description'
p949
NsS'iphone-link-opts'
p950
(lp951
S'-F$MARMALADE_ROOT/extensions/s3eFacebook/source/iphone/facebook-ios-sdk -framework FacebookSDK -weak_framework AdSupport -weak_framework Accounts -weak_framework Social -lsqlite3'
p952
aS'-framework SystemConfiguration -framework Security'
p953
asS'roku-splash-min-time'
p954
NsS'wp8-tile-fliptemplate-medium-front-image'
p955
NsS'provider'
p956
NsS'playbook-keystore'
p957
NsS'tizen-appid'
p958
NsS'tizen-author-key'
p959
NsS'symbian-osexecsupport'
p960
NsS'android-install-location'
p961
NsS'nds-privatesavedatasize'
p962
NsS'playbook-storepass'
p963
NsS'android-icon-ldpi'
p964
NsS'manufacturer'
p965
NsS'itunes-artwork'
p966
NsS'iphone-extra-sections'
p967
NsS'ws81-product-name'
p968
NsS'ws81-ext-native-dll'
p969
(lp970
sS'iphone-info-plist'
p971
NsS'ws8-distribution-pfx-password'
p972
NsS'ws8-logo-image30x30'
p973
NsS'wp8-ext-managed-dll'
p974
(lp975
S'c:/marmalade/7.2/extensions/s3ewebview/lib/wp8/s3eWebViewManaged.dll'
p976
aS'c:/marmalade/7.2/extensions/s3efacebook/lib/wp8/s3eFacebookManaged.dll'
p977
aS'c:/marmalade/7.2/extensions/s3efacebook/facebook_wp8_lib/Facebook.Client.dll'
p978
aS'c:/marmalade/7.2/extensions/s3efacebook/facebook_wp8_lib/Facebook.dll'
p979
aS'c:/marmalade/7.2/extensions/s3eflurry/lib/wp8/FlurryWP8SDK.dll'
p980
aS'c:/marmalade/7.2/extensions/s3eflurry/lib/wp8/s3eFlurryManaged.dll'
p981
asS'iphone-splashscreen-landscape'
p982
NsS'nds-makercode'
p983
NsS'priv-sign-key'
p984
NsS'networking'
p985
NsS'android-icon'
p986
NsS'iphone-icon-settings'
p987
NsS'iphone-distribution-cert'
p988
NsS'android_extra_strings'
p989
NsS'nds-bannertitle-en'
p990
NsS'playbook-cskpass'
p991
NsS'android-so'
p992
(lp993
S'c:/marmalade/7.2/extensions/s3ewebview/lib/android/libs3eWebView.so'
p994
aS'c:/marmalade/7.2/extensions/s3efacebook/lib/android/libs3eFacebook.so'
p995
aS'c:/marmalade/7.2/extensions/s3eflurry/lib/android/libs3eFlurry.so'
p996
asS'wp8-higher-mem'
p997
NsS'roku-splash-screen-hd'
p998
NsS'iphone-bundle-url-schemes'
p999
S'fd<FACEBOOK_APP_ID>'
p1000
sS'roku-screensaver-private'
p1001
NsS'osx-extra-res'
p1002
(lp1003
sS'playbook-icon'
p1004
NsS'uid'
p1005
NsS'playbook-authorid'
p1006
NsS'win32-pref-windowtitle'
p1007
NsS'tizen-dist1-password'
p1008
NsS'roku-screensaver-title'
p1009
NsS'osx-minimum-osx-version'
p1010
NsS'symbian-cert'
p1011
NsS'iphone-icon'
p1012
NsS'ws81-ext-capabilities'
p1013
(lp1014
sS'ws8-distribution-cer'
p1015
NsS'playbook-access-shared'
p1016
NsS'iphone-icon-ipad-high-res-ios7'
p1017
NsS'iphone-link-libs'
p1018
(lp1019
sS'wp8-exclude-wvga'
p1020
NsS'assets'
p1021
NsS'wp8-tile-fliptemplate-large-back-image'
p1022
NsS'wp8-custom-manifest-fill'
p1023
NsS'pub-sign-key'
p1024
NsS'android-extra-strings'
p1025
NsS'tizen-author-CA-path'
p1026
Nssg328
g599
sbssS'platform'
p1027
S'S3E'
p1028
sg62
S'1.0'
p1029
sS'arcade_platform'
p1030
g4
sS'extensions'
p1031
(dp1032
sS'source_groups_tree'
p1033
(dp1034
S'(libpng)'
p1035
(dp1036
S'h'
p1037
(dp1038
S'c:/marmalade/7.2/modules/third_party/libpng/h/png.h'
p1039
(lp1040
I1
a(dp1041
asS'c:/marmalade/7.2/modules/third_party/libpng/h/pngconf.h'
p1042
(lp1043
I1
ag1041
assS'c:/marmalade/7.2/modules/third_party/libpng/libpng.mkf'
p1044
(lp1045
I1
a(dp1046
assS'(libjpeg)'
p1047
(dp1048
g1037
(dp1049
S'c:/marmalade/7.2/modules/third_party/libjpeg/h/jchuff.h'
p1050
(lp1051
I1
a(dp1052
asS'c:/marmalade/7.2/modules/third_party/libjpeg/h/jconfig.h'
p1053
(lp1054
I1
ag1052
asS'c:/marmalade/7.2/modules/third_party/libjpeg/h/cdjpeg.h'
p1055
(lp1056
I1
ag1052
asS'c:/marmalade/7.2/modules/third_party/libjpeg/h/jpegint.h'
p1057
(lp1058
I1
ag1052
asS'c:/marmalade/7.2/modules/third_party/libjpeg/h/transupp.h'
p1059
(lp1060
I1
ag1052
asS'c:/marmalade/7.2/modules/third_party/libjpeg/h/jversion.h'
p1061
(lp1062
I1
ag1052
asS'c:/marmalade/7.2/modules/third_party/libjpeg/h/jpeglib.h'
p1063
(lp1064
I1
ag1052
asS'c:/marmalade/7.2/modules/third_party/libjpeg/h/jinclude.h'
p1065
(lp1066
I1
ag1052
asS'c:/marmalade/7.2/modules/third_party/libjpeg/h/jdct.h'
p1067
(lp1068
I1
ag1052
asS'c:/marmalade/7.2/modules/third_party/libjpeg/h/jdhuff.h'
p1069
(lp1070
I1
ag1052
asS'c:/marmalade/7.2/modules/third_party/libjpeg/h/jmemsys.h'
p1071
(lp1072
I1
ag1052
asS'c:/marmalade/7.2/modules/third_party/libjpeg/h/jmorecfg.h'
p1073
(lp1074
I1
ag1052
asS'c:/marmalade/7.2/modules/third_party/libjpeg/h/jerror.h'
p1075
(lp1076
I1
ag1052
asS'c:/marmalade/7.2/modules/third_party/libjpeg/h/cderror.h'
p1077
(lp1078
I1
ag1052
assS'c:/marmalade/7.2/modules/third_party/libjpeg/libjpeg.mkf'
p1079
(lp1080
I1
a(dp1081
assS'(tiniconv)'
p1082
(dp1083
S'c:/marmalade/7.2/modules/third_party/tiniconv/source/tiniconv.h'
p1084
(lp1085
I1
a(dp1086
asS'c:/marmalade/7.2/modules/third_party/tiniconv/source/tiniconv_int.h'
p1087
(lp1088
I1
ag1086
asS'c:/marmalade/7.2/modules/third_party/tiniconv/tiniconv.mkf'
p1089
(lp1090
I1
a(dp1091
assS'(SoundEngine)'
p1092
(dp1093
S'c:/users/vinicius/desktop/yes or no/stars/modules/soundengine/source/IwSoundManager.cpp'
p1094
(lp1095
I1
a(dp1096
asS'c:/users/vinicius/desktop/yes or no/stars/modules/soundengine/soundengine.mkf'
p1097
(lp1098
I1
a(dp1099
asS'c:/users/vinicius/desktop/yes or no/stars/modules/soundengine/source/IwSoundInst.cpp'
p1100
(lp1101
I1
ag1096
asS'c:/users/vinicius/desktop/yes or no/stars/modules/soundengine/source/IwSoundADPCM.cpp'
p1102
(lp1103
I1
ag1096
asS'c:/users/vinicius/desktop/yes or no/stars/modules/soundengine/h/IwSoundManager.h'
p1104
(lp1105
I1
ag1096
asS'c:/users/vinicius/desktop/yes or no/stars/modules/soundengine/source/IwSoundParams.cpp'
p1106
(lp1107
I1
ag1096
asS'c:/users/vinicius/desktop/yes or no/stars/modules/soundengine/source/IwSoundData.cpp'
p1108
(lp1109
I1
ag1096
asS'Docs'
p1110
(dp1111
S'c:/users/vinicius/desktop/yes or no/stars/modules/soundengine/docs/iwsound.config.txt'
p1112
(lp1113
I1
ag1096
assS'c:/users/vinicius/desktop/yes or no/stars/modules/soundengine/source/IwResHandlerWAV.cpp'
p1114
(lp1115
I1
ag1096
asS'c:/users/vinicius/desktop/yes or no/stars/modules/soundengine/h/IwSoundInst.h'
p1116
(lp1117
I1
ag1096
asS'c:/users/vinicius/desktop/yes or no/stars/modules/soundengine/h/IwSoundADPCM.h'
p1118
(lp1119
I1
ag1096
asS'c:/users/vinicius/desktop/yes or no/stars/modules/soundengine/source/IwSoundWAV.cpp'
p1120
(lp1121
I1
ag1096
asS'c:/users/vinicius/desktop/yes or no/stars/modules/soundengine/source/IwSoundGroup.cpp'
p1122
(lp1123
I1
ag1096
asS'c:/users/vinicius/desktop/yes or no/stars/modules/soundengine/h/IwSound.h'
p1124
(lp1125
I1
ag1096
asS'c:/users/vinicius/desktop/yes or no/stars/modules/soundengine/h/IwSoundWAV.h'
p1126
(lp1127
I1
ag1096
asS'c:/users/vinicius/desktop/yes or no/stars/modules/soundengine/source/IwSoundPCM.cpp'
p1128
(lp1129
I1
ag1096
asS'c:/users/vinicius/desktop/yes or no/stars/modules/soundengine/h/IwSoundSpec.h'
p1130
(lp1131
I1
ag1096
asS'c:/users/vinicius/desktop/yes or no/stars/modules/soundengine/h/IwSoundPCM.h'
p1132
(lp1133
I1
ag1096
asS'c:/users/vinicius/desktop/yes or no/stars/modules/soundengine/h/IwSoundGroup.h'
p1134
(lp1135
I1
ag1096
asS'c:/users/vinicius/desktop/yes or no/stars/modules/soundengine/h/IwResHandlerWAV.h'
p1136
(lp1137
I1
ag1096
asS'c:/users/vinicius/desktop/yes or no/stars/modules/soundengine/h/IwSoundParams.h'
p1138
(lp1139
I1
ag1096
asS'c:/users/vinicius/desktop/yes or no/stars/modules/soundengine/h/IwSoundData.h'
p1140
(lp1141
I1
ag1096
asS'c:/users/vinicius/desktop/yes or no/stars/modules/soundengine/source/IwSoundSpec.cpp'
p1142
(lp1143
I1
ag1096
assS'Extensions'
p1144
(dp1145
S's3eWebView'
p1146
(dp1147
S'interface'
p1148
(dp1149
S'c:/marmalade/7.2/extensions/s3ewebview/interface/s3eWebView.defines.txt'
p1150
(lp1151
I1
a(dp1152
asS'c:/marmalade/7.2/extensions/s3ewebview/interface/s3eWebView_interface.cpp'
p1153
(lp1154
I1
ag1152
assS'c:/marmalade/7.2/extensions/s3ewebview/h/s3eWebView.h'
p1155
(lp1156
I1
ag1152
asS'c:/marmalade/7.2/extensions/s3ewebview/s3ewebview.mkf'
p1157
(lp1158
I1
a(dp1159
assS's3eFacebook'
p1160
(dp1161
S'interface'
p1162
(dp1163
S'c:/marmalade/7.2/extensions/s3efacebook/interface/s3eFacebook_interface.cpp'
p1164
(lp1165
I1
a(dp1166
asS'c:/marmalade/7.2/extensions/s3efacebook/interface/s3eFacebook.defines.txt'
p1167
(lp1168
I1
ag1166
assg1037
(dp1169
S'c:/marmalade/7.2/extensions/s3efacebook/h/s3eFacebook.h'
p1170
(lp1171
I1
ag1166
assS'c:/marmalade/7.2/extensions/s3efacebook/s3efacebook.mkf'
p1172
(lp1173
I1
a(dp1174
assS's3eFlurry'
p1175
(dp1176
S'interface'
p1177
(dp1178
S'c:/marmalade/7.2/extensions/s3eflurry/interface/s3eFlurry_interface.cpp'
p1179
(lp1180
I1
a(dp1181
asS'c:/marmalade/7.2/extensions/s3eflurry/interface/s3eFlurry.defines.txt'
p1182
(lp1183
I1
ag1181
assS'c:/marmalade/7.2/extensions/s3eflurry/h/s3eFlurry.h'
p1184
(lp1185
I1
ag1181
asS'c:/marmalade/7.2/extensions/s3eflurry/s3eflurry.mkf'
p1186
(lp1187
I1
a(dp1188
asssS'stars'
p1189
(dp1190
S'entities'
p1191
(dp1192
S'c:/Users/Vinicius/Desktop/Yes or No/Stars/source/player.h'
p1193
(lp1194
I1
a(dp1195
asS'c:/Users/Vinicius/Desktop/Yes or No/Stars/source/star.cpp'
p1196
(lp1197
I1
ag1195
asS'c:/Users/Vinicius/Desktop/Yes or No/Stars/source/star.h'
p1198
(lp1199
I1
ag1195
asS'c:/Users/Vinicius/Desktop/Yes or No/Stars/source/comet.h'
p1200
(lp1201
I1
ag1195
asS'c:/Users/Vinicius/Desktop/Yes or No/Stars/source/satellite.h'
p1202
(lp1203
I1
ag1195
asS'c:/Users/Vinicius/Desktop/Yes or No/Stars/source/satellite.cpp'
p1204
(lp1205
I1
ag1195
asS'c:/Users/Vinicius/Desktop/Yes or No/Stars/source/comet.cpp'
p1206
(lp1207
I1
ag1195
asS'c:/Users/Vinicius/Desktop/Yes or No/Stars/source/asteroid.cpp'
p1208
(lp1209
I1
ag1195
asS'c:/Users/Vinicius/Desktop/Yes or No/Stars/source/blackHole.cpp'
p1210
(lp1211
I1
ag1195
asS'c:/Users/Vinicius/Desktop/Yes or No/Stars/source/asteroid.h'
p1212
(lp1213
I1
ag1195
asS'c:/Users/Vinicius/Desktop/Yes or No/Stars/source/blackHole.h'
p1214
(lp1215
I1
ag1195
asS'c:/Users/Vinicius/Desktop/Yes or No/Stars/source/vortex.cpp'
p1216
(lp1217
I1
ag1195
asS'c:/Users/Vinicius/Desktop/Yes or No/Stars/source/gameObject.cpp'
p1218
(lp1219
I1
ag1195
asS'c:/Users/Vinicius/Desktop/Yes or No/Stars/source/gameObject.h'
p1220
(lp1221
I1
ag1195
asS'c:/Users/Vinicius/Desktop/Yes or No/Stars/source/vortex.h'
p1222
(lp1223
I1
ag1195
asS'c:/Users/Vinicius/Desktop/Yes or No/Stars/source/player.cpp'
p1224
(lp1225
I1
ag1195
assS'utils'
p1226
(dp1227
S'c:/Users/Vinicius/Desktop/Yes or No/Stars/source/easyArray.h'
p1228
(lp1229
I1
ag1195
asS'c:/Users/Vinicius/Desktop/Yes or No/Stars/source/utils.h'
p1230
(lp1231
I1
ag1195
asS'c:/Users/Vinicius/Desktop/Yes or No/Stars/source/utils.cpp'
p1232
(lp1233
I1
ag1195
assS'main'
p1234
(dp1235
S'c:/Users/Vinicius/Desktop/Yes or No/Stars/source/main.h'
p1236
(lp1237
I1
ag1195
asS'c:/Users/Vinicius/Desktop/Yes or No/Stars/source/main.cpp'
p1238
(lp1239
I1
ag1195
asS'c:/Users/Vinicius/Desktop/Yes or No/Stars/source/include.h'
p1240
(lp1241
I1
ag1195
assS'managers'
p1242
(dp1243
S'c:/Users/Vinicius/Desktop/Yes or No/Stars/source/timerManager.cpp'
p1244
(lp1245
I1
ag1195
asS'c:/Users/Vinicius/Desktop/Yes or No/Stars/source/spriteManager.cpp'
p1246
(lp1247
I1
ag1195
asS'c:/Users/Vinicius/Desktop/Yes or No/Stars/source/inputManager.h'
p1248
(lp1249
I1
ag1195
asS'c:/Users/Vinicius/Desktop/Yes or No/Stars/source/sceneManager.cpp'
p1250
(lp1251
I1
ag1195
asS'c:/Users/Vinicius/Desktop/Yes or No/Stars/source/resourceManager.h'
p1252
(lp1253
I1
ag1195
asS'c:/Users/Vinicius/Desktop/Yes or No/Stars/source/savedataManager.h'
p1254
(lp1255
I1
ag1195
asS'c:/Users/Vinicius/Desktop/Yes or No/Stars/source/triggersManager.h'
p1256
(lp1257
I1
ag1195
asS'c:/Users/Vinicius/Desktop/Yes or No/Stars/source/parallaxManager.cpp'
p1258
(lp1259
I1
ag1195
asS'c:/Users/Vinicius/Desktop/Yes or No/Stars/source/spriteManager.h'
p1260
(lp1261
I1
ag1195
asS'c:/Users/Vinicius/Desktop/Yes or No/Stars/source/triggersManager.cpp'
p1262
(lp1263
I1
ag1195
asS'c:/Users/Vinicius/Desktop/Yes or No/Stars/source/timerManager.h'
p1264
(lp1265
I1
ag1195
asS'c:/Users/Vinicius/Desktop/Yes or No/Stars/source/sceneManager.h'
p1266
(lp1267
I1
ag1195
asS'c:/Users/Vinicius/Desktop/Yes or No/Stars/source/savedataManager.cpp'
p1268
(lp1269
I1
ag1195
asS'c:/Users/Vinicius/Desktop/Yes or No/Stars/source/audioManager.h'
p1270
(lp1271
I1
ag1195
asS'c:/Users/Vinicius/Desktop/Yes or No/Stars/source/inputManager.cpp'
p1272
(lp1273
I1
ag1195
asS'c:/Users/Vinicius/Desktop/Yes or No/Stars/source/audioManager.cpp'
p1274
(lp1275
I1
ag1195
asS'c:/Users/Vinicius/Desktop/Yes or No/Stars/source/parallaxManager.h'
p1276
(lp1277
I1
ag1195
asS'c:/Users/Vinicius/Desktop/Yes or No/Stars/source/resourceManager.cpp'
p1278
(lp1279
I1
ag1195
assS'scenes'
p1280
(dp1281
S'c:/Users/Vinicius/Desktop/Yes or No/Stars/source/items.cpp'
p1282
(lp1283
I1
ag1195
asS'c:/Users/Vinicius/Desktop/Yes or No/Stars/source/customize.h'
p1284
(lp1285
I1
ag1195
asS'c:/Users/Vinicius/Desktop/Yes or No/Stars/source/customize.cpp'
p1286
(lp1287
I1
ag1195
asS'c:/Users/Vinicius/Desktop/Yes or No/Stars/source/mainMenu.h'
p1288
(lp1289
I1
ag1195
asS'c:/Users/Vinicius/Desktop/Yes or No/Stars/source/getStars.h'
p1290
(lp1291
I1
ag1195
asS'c:/Users/Vinicius/Desktop/Yes or No/Stars/source/store.h'
p1292
(lp1293
I1
ag1195
asS'c:/Users/Vinicius/Desktop/Yes or No/Stars/source/options.h'
p1294
(lp1295
I1
ag1195
asS'c:/Users/Vinicius/Desktop/Yes or No/Stars/source/getStars.cpp'
p1296
(lp1297
I1
ag1195
asS'c:/Users/Vinicius/Desktop/Yes or No/Stars/source/mainMenu.cpp'
p1298
(lp1299
I1
ag1195
asS'c:/Users/Vinicius/Desktop/Yes or No/Stars/source/items.h'
p1300
(lp1301
I1
ag1195
asS'c:/Users/Vinicius/Desktop/Yes or No/Stars/source/store.cpp'
p1302
(lp1303
I1
ag1195
asS'c:/Users/Vinicius/Desktop/Yes or No/Stars/source/options.cpp'
p1304
(lp1305
I1
ag1195
asS'c:/Users/Vinicius/Desktop/Yes or No/Stars/source/game.h'
p1306
(lp1307
I1
ag1195
asS'c:/Users/Vinicius/Desktop/Yes or No/Stars/source/game.cpp'
p1308
(lp1309
I1
ag1195
asssS"'Marmalade Studio'"
p1310
(dp1311
S'iw2dscenegraph'
p1312
(dp1313
S'c:/marmalade/7.2/modules/iw2dscenegraph/source/Iw2DSceneGraph.cpp'
p1314
(lp1315
I1
a(dp1316
asS'c:/marmalade/7.2/modules/iw2dscenegraph/iw2dscenegraph.mkf'
p1317
(lp1318
I1
a(dp1319
asS'c:/marmalade/7.2/modules/iw2dscenegraph/h/Iw2DSceneGraph.h'
p1320
(lp1321
I1
ag1316
asS'c:/marmalade/7.2/modules/iw2dscenegraph/docs/iw2dscenegraph.defines.txt'
p1322
(lp1323
I1
ag1316
assS'iwgl'
p1324
(dp1325
S'c:/marmalade/7.2/modules/iwgl/h/IwGL.h'
p1326
(lp1327
I1
a(dp1328
asS'c:/marmalade/7.2/modules/iwgl/iwgl.mkf'
p1329
(lp1330
I1
a(dp1331
asS'c:/marmalade/7.2/modules/iwgl/h/IwGLExt.h'
p1332
(lp1333
I1
ag1328
asS'c:/marmalade/7.2/modules/iwgl/docs/iwgl.config.txt'
p1334
(lp1335
I1
ag1328
assS'iw2d'
p1336
(dp1337
S'c:/marmalade/7.2/modules/iw2d/docs/iw2d_public.defines.txt'
p1338
(lp1339
I1
a(dp1340
asS'c:/marmalade/7.2/modules/iw2d/h/Iw2D.h'
p1341
(lp1342
I1
ag1340
asS'c:/marmalade/7.2/modules/iw2d/docs/iw2d.config.txt'
p1343
(lp1344
I1
ag1340
asS'c:/marmalade/7.2/modules/iw2d/iw2d.mkf'
p1345
(lp1346
I1
a(dp1347
assS'iwgxfont'
p1348
(dp1349
S'c:/marmalade/7.2/modules/iwgxfont/h/IwGxFont.h'
p1350
(lp1351
I1
a(dp1352
asS'c:/marmalade/7.2/modules/iwgxfont/h/IwGxFontPreparedData.h'
p1353
(lp1354
I1
ag1352
asS'c:/marmalade/7.2/modules/iwgxfont/h/IwGxFontContainer.h'
p1355
(lp1356
I1
ag1352
asS'c:/marmalade/7.2/modules/iwgxfont/docs/iwgxfont_public.defines.txt'
p1357
(lp1358
I1
ag1352
asS'c:/marmalade/7.2/modules/iwgxfont/h/IwGxFontGlyph.h'
p1359
(lp1360
I1
ag1352
asS'c:/marmalade/7.2/modules/iwgxfont/h/IwGxFontState.h'
p1361
(lp1362
I1
ag1352
asS'c:/marmalade/7.2/modules/iwgxfont/h/IwGxFontTypes.h'
p1363
(lp1364
I1
ag1352
asS'c:/marmalade/7.2/modules/iwgxfont/iwgxfont.mkf'
p1365
(lp1366
I1
a(dp1367
asS'c:/marmalade/7.2/modules/iwgxfont/docs/iwgxfont.config.txt'
p1368
(lp1369
I1
ag1352
assS'iwgeom'
p1370
(dp1371
S'c:/marmalade/7.2/modules/iwgeom/docs/iwgeom.config.txt'
p1372
(lp1373
I1
a(dp1374
asS'c:/marmalade/7.2/modules/iwgeom/h/IwGeomFPlane.h'
p1375
(lp1376
I1
ag1374
asS'c:/marmalade/7.2/modules/iwgeom/h/IwGeomPlane.h'
p1377
(lp1378
I1
ag1374
asS'c:/marmalade/7.2/modules/iwgeom/h/IwGeomMat.h'
p1379
(lp1380
I1
ag1374
asS'c:/marmalade/7.2/modules/iwgeom/h/IwGeomMat2D.h'
p1381
(lp1382
I1
ag1374
asS'c:/marmalade/7.2/modules/iwgeom/h/IwGeomMenu.h'
p1383
(lp1384
I1
ag1374
asS'c:/marmalade/7.2/modules/iwgeom/h/IwGeomSqrt.h'
p1385
(lp1386
I1
ag1374
asS'c:/marmalade/7.2/modules/iwgeom/h/IwGeomFMat2D.h'
p1387
(lp1388
I1
ag1374
asS'c:/marmalade/7.2/modules/iwgeom/h/IwGeomCore.h'
p1389
(lp1390
I1
ag1374
asS'c:/marmalade/7.2/modules/iwgeom/h/IwGeomFVec3.h'
p1391
(lp1392
I1
ag1374
asS'c:/marmalade/7.2/modules/iwgeom/h/IwGeomFVec2.h'
p1393
(lp1394
I1
ag1374
asS'c:/marmalade/7.2/modules/iwgeom/h/IwGeom.h'
p1395
(lp1396
I1
ag1374
asS'c:/marmalade/7.2/modules/iwgeom/h/IwGeomSVec2.h'
p1397
(lp1398
I1
ag1374
asS'c:/marmalade/7.2/modules/iwgeom/h/IwGeomFVec4.h'
p1399
(lp1400
I1
ag1374
asS'c:/marmalade/7.2/modules/iwgeom/h/IwGeomSVec3.h'
p1401
(lp1402
I1
ag1374
asS'c:/marmalade/7.2/modules/iwgeom/h/IwGeomBBox.h'
p1403
(lp1404
I1
ag1374
asS'c:/marmalade/7.2/modules/iwgeom/h/IwGeomVec2.h'
p1405
(lp1406
I1
ag1374
asS'c:/marmalade/7.2/modules/iwgeom/h/IwGeomFMat.h'
p1407
(lp1408
I1
ag1374
asS'c:/marmalade/7.2/modules/iwgeom/h/IwGeomFQuat.h'
p1409
(lp1410
I1
ag1374
asS'c:/marmalade/7.2/modules/iwgeom/h/IwGeomVec3.h'
p1411
(lp1412
I1
ag1374
asS'c:/marmalade/7.2/modules/iwgeom/h/IwGeomSVec4.h'
p1413
(lp1414
I1
ag1374
asS'c:/marmalade/7.2/modules/iwgeom/h/IwGeomVec.h'
p1415
(lp1416
I1
ag1374
asS'c:/marmalade/7.2/modules/iwgeom/h/IwGeomFIntersect.h'
p1417
(lp1418
I1
ag1374
asS'c:/marmalade/7.2/modules/iwgeom/iwgeom.mkf'
p1419
(lp1420
I1
a(dp1421
asS'c:/marmalade/7.2/modules/iwgeom/h/IwGeomFSphere.h'
p1422
(lp1423
I1
ag1374
asS'c:/marmalade/7.2/modules/iwgeom/h/IwGeomIntersect.h'
p1424
(lp1425
I1
ag1374
asS'c:/marmalade/7.2/modules/iwgeom/h/IwGeomSQuat.h'
p1426
(lp1427
I1
ag1374
asS'c:/marmalade/7.2/modules/iwgeom/h/IwGeomQuat.h'
p1428
(lp1429
I1
ag1374
asS'c:/marmalade/7.2/modules/iwgeom/h/IwGeomSphere.h'
p1430
(lp1431
I1
ag1374
asS'c:/marmalade/7.2/modules/iwgeom/h/IwGeomLegacy.h'
p1432
(lp1433
I1
ag1374
asS'c:/marmalade/7.2/modules/iwgeom/h/IwGeomVec4.h'
p1434
(lp1435
I1
ag1374
asS'c:/marmalade/7.2/modules/iwgeom/h/IwGeomFBBox.h'
p1436
(lp1437
I1
ag1374
assS'iwresmanager'
p1438
(dp1439
S'c:/marmalade/7.2/modules/iwresmanager/h/IwResHandlerGROUP.h'
p1440
(lp1441
I1
a(dp1442
asS'c:/marmalade/7.2/modules/iwresmanager/h/IwResHandler.h'
p1443
(lp1444
I1
ag1442
asS'c:/marmalade/7.2/modules/iwresmanager/iwresmanager.mkf'
p1445
(lp1446
I1
a(dp1447
asS'c:/marmalade/7.2/modules/iwresmanager/h/IwResGroup.h'
p1448
(lp1449
I1
ag1442
asS'c:/marmalade/7.2/modules/iwresmanager/h/IwResHandlerImage.h'
p1450
(lp1451
I1
ag1442
asS'c:/marmalade/7.2/modules/iwresmanager/docs/iwresmanager.config.txt'
p1452
(lp1453
I1
ag1442
asS'c:/marmalade/7.2/modules/iwresmanager/h/IwResManagerClass.h'
p1454
(lp1455
I1
ag1442
asS'c:/marmalade/7.2/modules/iwresmanager/h/IwResHandlerITX.h'
p1456
(lp1457
I1
ag1442
asS'c:/marmalade/7.2/modules/iwresmanager/h/IwResSerialise.h'
p1458
(lp1459
I1
ag1442
asS'c:/marmalade/7.2/modules/iwresmanager/h/IwResManager.h'
p1460
(lp1461
I1
ag1442
assS'iwgx'
p1462
(dp1463
S'c:/marmalade/7.2/modules/iwgx/h/IwTPage.h'
p1464
(lp1465
I1
a(dp1466
asS'c:/marmalade/7.2/modules/iwgx/h/IwGxStream.h'
p1467
(lp1468
I1
ag1466
asS'c:/marmalade/7.2/modules/iwgx/h/IwGxTransformSW.h'
p1469
(lp1470
I1
ag1466
asS'c:/marmalade/7.2/modules/iwgx/h/IwMaterial.h'
p1471
(lp1472
I1
ag1466
asS'c:/marmalade/7.2/modules/iwgx/h/IwMatAnim.h'
p1473
(lp1474
I1
ag1466
asS'c:/marmalade/7.2/modules/iwgx/docs/iwgx.config.txt'
p1475
(lp1476
I1
ag1466
asS'c:/marmalade/7.2/modules/iwgx/iwgx.mkf'
p1477
(lp1478
I1
a(dp1479
asS'c:/marmalade/7.2/modules/iwgx/h/IwResHandlerMTL.h'
p1480
(lp1481
I1
ag1466
asS'c:/marmalade/7.2/modules/iwgx/h/IwGxPrint.h'
p1482
(lp1483
I1
ag1466
asS'c:/marmalade/7.2/modules/iwgx/h/IwGxSurface.h'
p1484
(lp1485
I1
ag1466
asS'c:/marmalade/7.2/modules/iwgx/docs/iwgx_public.defines.txt'
p1486
(lp1487
I1
ag1466
asS'c:/marmalade/7.2/modules/iwgx/h/IwClip.h'
p1488
(lp1489
I1
ag1466
asS'c:/marmalade/7.2/modules/iwgx/h/IwGx.h'
p1490
(lp1491
I1
ag1466
asS'c:/marmalade/7.2/modules/iwgx/h/IwGxDebug.h'
p1492
(lp1493
I1
ag1466
asS'c:/marmalade/7.2/modules/iwgx/h/IwDebugPrim.h'
p1494
(lp1495
I1
ag1466
asS'c:/marmalade/7.2/modules/iwgx/h/IwGxMetrics.h'
p1496
(lp1497
I1
ag1466
asS'c:/marmalade/7.2/modules/iwgx/h/IwGxError.h'
p1498
(lp1499
I1
ag1466
asS'c:/marmalade/7.2/modules/iwgx/h/IwClip.inl'
p1500
(lp1501
I1
ag1466
asS'c:/marmalade/7.2/modules/iwgx/h/IwGxFuncTable.h'
p1502
(lp1503
I1
ag1466
asS'c:/marmalade/7.2/modules/iwgx/h/IwTexture.h'
p1504
(lp1505
I1
ag1466
asS'c:/marmalade/7.2/modules/iwgx/h/IwFColour.h'
p1506
(lp1507
I1
ag1466
asS'c:/marmalade/7.2/modules/iwgx/h/IwColour.h'
p1508
(lp1509
I1
ag1466
asS'c:/marmalade/7.2/modules/iwgx/h/IwGxShaderTechnique.h'
p1510
(lp1511
I1
ag1466
asS'c:/marmalade/7.2/modules/iwgx/h/IwGxTypes.h'
p1512
(lp1513
I1
ag1466
asS'c:/marmalade/7.2/modules/iwgx/h/IwGxState.h'
p1514
(lp1515
I1
ag1466
assS'iw2dscenegraphcore'
p1516
(dp1517
S'c:/marmalade/7.2/modules/iw2dscenegraphcore/iw2dscenegraphcore.mkf'
p1518
(lp1519
I1
a(dp1520
asS'c:/marmalade/7.2/modules/iw2dscenegraphcore/h/Iw2DSceneGraphCore.h'
p1521
(lp1522
I1
a(dp1523
asS'c:/marmalade/7.2/modules/iw2dscenegraphcore/source/Iw2DSceneGraphCore.cpp'
p1524
(lp1525
I1
ag1523
assS'iwutil'
p1526
(dp1527
S'c:/marmalade/7.2/modules/iwutil/h/IwCore.h'
p1528
(lp1529
I1
a(dp1530
asS'c:/marmalade/7.2/modules/iwutil/h/IwArray.h'
p1531
(lp1532
I1
ag1530
asS'c:/marmalade/7.2/modules/iwutil/h/IwResource.h'
p1533
(lp1534
I1
ag1530
asS'c:/marmalade/7.2/modules/iwutil/h/IwFibre.h'
p1535
(lp1536
I1
ag1530
asS'c:/marmalade/7.2/modules/iwutil/h/IwBuffer.h'
p1537
(lp1538
I1
ag1530
asS'c:/marmalade/7.2/modules/iwutil/h/IwRandom.h'
p1539
(lp1540
I1
ag1530
asS'c:/marmalade/7.2/modules/iwutil/h/IwManagedList.h'
p1541
(lp1542
I1
ag1530
asS'c:/marmalade/7.2/modules/iwutil/h/IwList.h'
p1543
(lp1544
I1
ag1530
asS'c:/marmalade/7.2/modules/iwutil/h/IwProfileMenu.h'
p1545
(lp1546
I1
ag1530
asS'c:/marmalade/7.2/modules/iwutil/h/IwMemory.h'
p1547
(lp1548
I1
ag1530
asS'c:/marmalade/7.2/modules/iwutil/h/IwMath.h'
p1549
(lp1550
I1
ag1530
asS'c:/marmalade/7.2/modules/iwutil/h/IwDivTable.h'
p1551
(lp1552
I1
ag1530
asS'c:/marmalade/7.2/modules/iwutil/h/IwTextParserITX.h'
p1553
(lp1554
I1
ag1530
asS'c:/marmalade/7.2/modules/iwutil/h/IwMenu.h'
p1555
(lp1556
I1
ag1530
asS'c:/marmalade/7.2/modules/iwutil/h/IwChar.h'
p1557
(lp1558
I1
ag1530
asS'c:/marmalade/7.2/modules/iwutil/h/IwEvent.h'
p1559
(lp1560
I1
ag1530
asS'c:/marmalade/7.2/modules/iwutil/h/IwTextParser.h'
p1561
(lp1562
I1
ag1530
asS'c:/marmalade/7.2/modules/iwutil/h/IwOptimiseSize.h'
p1563
(lp1564
I1
ag1530
asS'c:/marmalade/7.2/modules/iwutil/h/IwSingleton.h'
p1565
(lp1566
I1
ag1530
asS'c:/marmalade/7.2/modules/iwutil/h/IwAllocator.h'
p1567
(lp1568
I1
ag1530
asS'c:/marmalade/7.2/modules/iwutil/h/IwFile.h'
p1569
(lp1570
I1
ag1530
asS'c:/marmalade/7.2/modules/iwutil/h/IwString.h'
p1571
(lp1572
I1
ag1530
asS'c:/marmalade/7.2/modules/iwutil/h/IwVariableBitField.h'
p1573
(lp1574
I1
ag1530
asS'c:/marmalade/7.2/modules/iwutil/h/IwUncopyable.h'
p1575
(lp1576
I1
ag1530
asS'c:/marmalade/7.2/modules/iwutil/h/IwImage.h'
p1577
(lp1578
I1
ag1530
asS'c:/marmalade/7.2/modules/iwutil/h/IwTypes.h'
p1579
(lp1580
I1
ag1530
asS'c:/marmalade/7.2/modules/iwutil/h/IwManaged.h'
p1581
(lp1582
I1
ag1530
asS'c:/marmalade/7.2/modules/iwutil/h/IwRuntime.h'
p1583
(lp1584
I1
ag1530
asS'c:/marmalade/7.2/modules/iwutil/h/IwMemManagerDL.h'
p1585
(lp1586
I1
ag1530
asS'c:/marmalade/7.2/modules/iwutil/h/IwOptimiseThumb.h'
p1587
(lp1588
I1
ag1530
asS'c:/marmalade/7.2/modules/iwutil/h/IwUtil.h'
p1589
(lp1590
I1
ag1530
asS'c:/marmalade/7.2/modules/iwutil/docs/iwutil.config.txt'
p1591
(lp1592
I1
ag1530
asS'c:/marmalade/7.2/modules/iwutil/h/IwClassFactory.h'
p1593
(lp1594
I1
ag1530
asS'c:/marmalade/7.2/modules/iwutil/h/IwUtilInitTerm.h'
p1595
(lp1596
I1
ag1530
asS'c:/marmalade/7.2/modules/iwutil/h/IwAutoFile.h'
p1597
(lp1598
I1
ag1530
asS'c:/marmalade/7.2/modules/iwutil/h/IwUTF8.h'
p1599
(lp1600
I1
ag1530
asS'c:/marmalade/7.2/modules/iwutil/h/IwSerialise.h'
p1601
(lp1602
I1
ag1530
asS'c:/marmalade/7.2/modules/iwutil/h/IwPath.h'
p1603
(lp1604
I1
ag1530
asS'c:/marmalade/7.2/modules/iwutil/h/IwMemBucketHelpers.h'
p1605
(lp1606
I1
ag1530
asS'c:/marmalade/7.2/modules/iwutil/h/IwCopyingPtr.h'
p1607
(lp1608
I1
ag1530
asS'c:/marmalade/7.2/modules/iwutil/h/IwOptimiseARM.h'
p1609
(lp1610
I1
ag1530
asS'c:/marmalade/7.2/modules/iwutil/h/IwMemBucket.h'
p1611
(lp1612
I1
ag1530
asS'c:/marmalade/7.2/modules/iwutil/iwutil.mkf'
p1613
(lp1614
I1
a(dp1615
asS'c:/marmalade/7.2/modules/iwutil/h/IwKeymap.h'
p1616
(lp1617
I1
ag1530
asS'c:/marmalade/7.2/modules/iwutil/h/IwImageHelper.h'
p1618
(lp1619
I1
ag1530
asS'c:/marmalade/7.2/modules/iwutil/h/IwOptimiseSpeed.h'
p1620
(lp1621
I1
ag1530
asS'c:/marmalade/7.2/modules/iwutil/h/IwTextParseable.h'
p1622
(lp1623
I1
ag1530
asS'c:/marmalade/7.2/modules/iwutil/h/IwDebug.h'
p1624
(lp1625
I1
ag1530
asS'c:/marmalade/7.2/modules/iwutil/h/IwDivide.h'
p1626
(lp1627
I1
ag1530
asS'c:/marmalade/7.2/modules/iwutil/h/IwHashString.h'
p1628
(lp1629
I1
ag1530
asssS'(zlib)'
p1630
(dp1631
g1037
(dp1632
S'c:/marmalade/7.2/modules/third_party/zlib/h/zconf.h'
p1633
(lp1634
I1
a(dp1635
asS'c:/marmalade/7.2/modules/third_party/zlib/h/zlib.h'
p1636
(lp1637
I1
ag1635
assS'c:/marmalade/7.2/modules/third_party/zlib/zlib.mkf'
p1638
(lp1639
I1
a(dp1640
assS'(iwtween)'
p1641
(dp1642
S'c:/marmalade/7.2/modules/iwtween/iwtween.mkf'
p1643
(lp1644
I1
a(dp1645
asS'c:/marmalade/7.2/modules/iwtween/source/IwTween.cpp'
p1646
(lp1647
I1
a(dp1648
asS'c:/marmalade/7.2/modules/iwtween/h/IwTween.h'
p1649
(lp1650
I1
ag1648
asssS'files'
p1651
(dp1652
S'IwGxFontPreparedData.h'
p1653
g302
(cmkb_main
File
p1654
g304
Ntp1655
Rp1656
(dp1657
S'flags'
p1658
g1352
sS'group'
p1659
(lp1660
S"'Marmalade Studio'"
p1661
ag1348
asg328
g1353
sbsS'iterator'
p1662
g302
(g1654
g304
Ntp1663
Rp1664
(dp1665
g1658
(dp1666
sg1659
(lp1667
S"'Marmalade System (S3E)'"
p1668
aS'stdc headers'
p1669
aS'c++'
p1670
asg328
S'c:/marmalade/7.2/s3e/h/std/c++/iterator'
p1671
sbsS'IwGL.h'
p1672
g302
(g1654
g304
Ntp1673
Rp1674
(dp1675
g1658
g1328
sg1659
(lp1676
S"'Marmalade Studio'"
p1677
ag1324
asg328
g1326
sbsS's3e.h'
p1678
g302
(g1654
g304
Ntp1679
Rp1680
(dp1681
g1658
g1666
sg1659
(lp1682
g1668
asg328
S'c:/marmalade/7.2/s3e/h/s3e.h'
p1683
sbsS'errno.h'
p1684
g302
(g1654
g304
Ntp1685
Rp1686
(dp1687
g1658
g1666
sg1659
(lp1688
g1668
aS'stdc headers'
p1689
asg328
S'c:/marmalade/7.2/s3e/h/std/errno.h'
p1690
sbsS'utils.cpp'
p1691
g302
(g1654
g304
Ntp1692
Rp1693
(dp1694
g1658
g1195
sg1659
(lp1695
g1189
ag1226
asg328
g1232
sbsS'IwSingleton.h'
p1696
g302
(g1654
g304
Ntp1697
Rp1698
(dp1699
g1658
g1530
sg1659
(lp1700
S"'Marmalade Studio'"
p1701
ag1526
asg328
g1565
sbsS'spriteManager.cpp'
p1702
g302
(g1654
g304
Ntp1703
Rp1704
(dp1705
g1658
g1195
sg1659
(lp1706
S'stars'
p1707
ag1242
asg328
g1246
sbsS'dlfcn.h'
p1708
g302
(g1654
g304
Ntp1709
Rp1710
(dp1711
g1658
g1666
sg1659
g1688
sg328
S'c:/marmalade/7.2/s3e/h/std/dlfcn.h'
p1712
sbsS'IwSoundWAV.cpp'
p1713
g302
(g1654
g304
Ntp1714
Rp1715
(dp1716
g1658
g1096
sg1659
(lp1717
g1092
asg328
g1120
sbsS'sched.h'
p1718
g302
(g1654
g304
Ntp1719
Rp1720
(dp1721
g1658
g1666
sg1659
g1688
sg328
S'c:/marmalade/7.2/s3e/h/std/sched.h'
p1722
sbsS'customize.cpp'
p1723
g302
(g1654
g304
Ntp1724
Rp1725
(dp1726
g1658
g1195
sg1659
(lp1727
S'stars'
p1728
ag1280
asg328
g1286
sbsS'IwGeomFMat2D.h'
p1729
g302
(g1654
g304
Ntp1730
Rp1731
(dp1732
g1658
g1374
sg1659
(lp1733
S"'Marmalade Studio'"
p1734
ag1370
asg328
g1387
sbsS'cassert'
p1735
g302
(g1654
g304
Ntp1736
Rp1737
(dp1738
g1658
g1666
sg1659
g1667
sg328
S'c:/marmalade/7.2/s3e/h/std/c++/cassert'
p1739
sbsS'grp.h'
p1740
g302
(g1654
g304
Ntp1741
Rp1742
(dp1743
g1658
g1666
sg1659
g1688
sg328
S'c:/marmalade/7.2/s3e/h/std/grp.h'
p1744
sbsS'list'
p1745
g302
(g1654
g304
Ntp1746
Rp1747
(dp1748
g1658
g1666
sg1659
g1667
sg328
S'c:/marmalade/7.2/s3e/h/std/c++/list'
p1749
sbsS'IwSoundSpec.cpp'
p1750
g302
(g1654
g304
Ntp1751
Rp1752
(dp1753
g1658
g1096
sg1659
g1717
sg328
g1142
sbsS'istream'
p1754
g302
(g1654
g304
Ntp1755
Rp1756
(dp1757
g1658
g1666
sg1659
g1667
sg328
S'c:/marmalade/7.2/s3e/h/std/c++/istream'
p1758
sbsS'jpeglib.h'
p1759
g302
(g1654
g304
Ntp1760
Rp1761
(dp1762
g1658
g1052
sg1659
(lp1763
g1047
ag1037
asg328
g1063
sbsS'iw2d_public.defines.txt'
p1764
g302
(g1654
g304
Ntp1765
Rp1766
(dp1767
g1658
g1340
sg1659
(lp1768
S"'Marmalade Studio'"
p1769
ag1336
asg328
g1338
sbsS'iostream.h'
p1770
g302
(g1654
g304
Ntp1771
Rp1772
(dp1773
g1658
g1666
sg1659
g1667
sg328
S'c:/marmalade/7.2/s3e/h/std/c++/iostream.h'
p1774
sbsS'IwSoundADPCM.h'
p1775
g302
(g1654
g304
Ntp1776
Rp1777
(dp1778
g1658
g1096
sg1659
g1717
sg328
g1118
sbsS'string'
p1779
g302
(g1654
g304
Ntp1780
Rp1781
(dp1782
g1658
g1666
sg1659
g1667
sg328
S'c:/marmalade/7.2/s3e/h/std/c++/string'
p1783
sbsS'IwMemory.h'
p1784
g302
(g1654
g304
Ntp1785
Rp1786
(dp1787
g1658
g1530
sg1659
g1700
sg328
g1547
sbsS'IwGeomPlane.h'
p1788
g302
(g1654
g304
Ntp1789
Rp1790
(dp1791
g1658
g1374
sg1659
g1733
sg328
g1377
sbsS'items.h'
p1792
g302
(g1654
g304
Ntp1793
Rp1794
(dp1795
g1658
g1195
sg1659
g1727
sg328
g1300
sbsS'iw2d.config.txt'
p1796
g302
(g1654
g304
Ntp1797
Rp1798
(dp1799
g1658
g1340
sg1659
g1768
sg328
g1343
sbsS'iomanip'
p1800
g302
(g1654
g304
Ntp1801
Rp1802
(dp1803
g1658
g1666
sg1659
g1667
sg328
S'c:/marmalade/7.2/s3e/h/std/c++/iomanip'
p1804
sbsS'iwgeom.mkf'
p1805
g302
(g1654
g304
Ntp1806
Rp1807
(dp1808
g1658
g1421
sg1659
g1733
sg328
g1419
sbsS'IwGxError.h'
p1809
g302
(g1654
g304
Ntp1810
Rp1811
(dp1812
g1658
g1466
sg1659
(lp1813
S"'Marmalade Studio'"
p1814
ag1462
asg328
g1498
sbsS'IwGeom.h'
p1815
g302
(g1654
g304
Ntp1816
Rp1817
(dp1818
g1658
g1374
sg1659
g1733
sg328
g1395
sbsS'IwGeomVec4.h'
p1819
g302
(g1654
g304
Ntp1820
Rp1821
(dp1822
g1658
g1374
sg1659
g1733
sg328
g1434
sbsS'dir.h'
p1823
g302
(g1654
g304
Ntp1824
Rp1825
(dp1826
g1658
g1666
sg1659
(lp1827
g1668
aS'stdc headers'
p1828
aS'sys'
p1829
asg328
S'c:/marmalade/7.2/s3e/h/std/sys/dir.h'
p1830
sbsS'locale.h'
p1831
g302
(g1654
g304
Ntp1832
Rp1833
(dp1834
g1658
g1666
sg1659
g1688
sg328
S'c:/marmalade/7.2/s3e/h/std/locale.h'
p1835
sbsS'vector'
p1836
g302
(g1654
g304
Ntp1837
Rp1838
(dp1839
g1658
g1666
sg1659
g1667
sg328
S'c:/marmalade/7.2/s3e/h/std/c++/vector'
p1840
sbsS'IwManaged.h'
p1841
g302
(g1654
g304
Ntp1842
Rp1843
(dp1844
g1658
g1530
sg1659
g1700
sg328
g1581
sbsS's3eCompass.h'
p1845
g302
(g1654
g304
Ntp1846
Rp1847
(dp1848
g1658
g1666
sg1659
g1682
sg328
S'c:/marmalade/7.2/s3e/h/s3eCompass.h'
p1849
sbsS'cderror.h'
p1850
g302
(g1654
g304
Ntp1851
Rp1852
(dp1853
g1658
g1052
sg1659
g1763
sg328
g1077
sbsS'climits'
p1854
g302
(g1654
g304
Ntp1855
Rp1856
(dp1857
g1658
g1666
sg1659
g1667
sg328
S'c:/marmalade/7.2/s3e/h/std/c++/climits'
p1858
sbsS'easyArray.h'
p1859
g302
(g1654
g304
Ntp1860
Rp1861
(dp1862
g1658
g1195
sg1659
g1695
sg328
g1228
sbsS's3eVibra.h'
p1863
g302
(g1654
g304
Ntp1864
Rp1865
(dp1866
g1658
g1666
sg1659
g1682
sg328
S'c:/marmalade/7.2/s3e/h/s3eVibra.h'
p1867
sbsS'jversion.h'
p1868
g302
(g1654
g304
Ntp1869
Rp1870
(dp1871
g1658
g1052
sg1659
g1763
sg328
g1061
sbsS'fnmatch.h'
p1872
g302
(g1654
g304
Ntp1873
Rp1874
(dp1875
g1658
g1666
sg1659
g1688
sg328
S'c:/marmalade/7.2/s3e/h/std/fnmatch.h'
p1876
sbsS'IwGxState.h'
p1877
g302
(g1654
g304
Ntp1878
Rp1879
(dp1880
g1658
g1466
sg1659
g1813
sg328
g1514
sbsS's3eAudio.h'
p1881
g302
(g1654
g304
Ntp1882
Rp1883
(dp1884
g1658
g1666
sg1659
g1682
sg328
S'c:/marmalade/7.2/s3e/h/s3eAudio.h'
p1885
sbsS'store.h'
p1886
g302
(g1654
g304
Ntp1887
Rp1888
(dp1889
g1658
g1195
sg1659
g1727
sg328
g1292
sbsS's3eSurface.h'
p1890
g302
(g1654
g304
Ntp1891
Rp1892
(dp1893
g1658
g1666
sg1659
g1682
sg328
S'c:/marmalade/7.2/s3e/h/s3eSurface.h'
p1894
sbsS'new'
p1895
g302
(g1654
g304
Ntp1896
Rp1897
(dp1898
g1658
g1666
sg1659
g1667
sg328
S'c:/marmalade/7.2/s3e/h/std/c++/new'
p1899
sbsS's3eWindow.h'
p1900
g302
(g1654
g304
Ntp1901
Rp1902
(dp1903
g1658
g1666
sg1659
(lp1904
g1668
aS'Extensions'
p1905
asg328
S'c:/marmalade/7.2/s3e/h/ext/s3eWindow.h'
p1906
sbsS'IwBuffer.h'
p1907
g302
(g1654
g304
Ntp1908
Rp1909
(dp1910
g1658
g1530
sg1659
g1700
sg328
g1537
sbsS's3eflurry.mkf'
p1911
g302
(g1654
g304
Ntp1912
Rp1913
(dp1914
g1658
g1188
sg1659
(lp1915
g1144
ag1175
asg328
g1186
sbsS'stdio_streambuf'
p1916
g302
(g1654
g304
Ntp1917
Rp1918
(dp1919
g1658
g1666
sg1659
g1667
sg328
S'c:/marmalade/7.2/s3e/h/std/c++/stdio_streambuf'
p1920
sbsS's3eOSExec.h'
p1921
g302
(g1654
g304
Ntp1922
Rp1923
(dp1924
g1658
g1666
sg1659
g1904
sg328
S'c:/marmalade/7.2/s3e/h/ext/s3eOSExec.h'
p1925
sbsS'star.cpp'
p1926
g302
(g1654
g304
Ntp1927
Rp1928
(dp1929
g1658
g1195
sg1659
(lp1930
S'stars'
p1931
ag1191
asg328
g1196
sbsS'IwGxTransformSW.h'
p1932
g302
(g1654
g304
Ntp1933
Rp1934
(dp1935
g1658
g1466
sg1659
g1813
sg328
g1469
sbsS'unistd.h'
p1936
g302
(g1654
g304
Ntp1937
Rp1938
(dp1939
g1658
g1666
sg1659
g1688
sg328
S'c:/marmalade/7.2/s3e/h/std/unistd.h'
p1940
sbsS'spriteManager.h'
p1941
g302
(g1654
g304
Ntp1942
Rp1943
(dp1944
g1658
g1195
sg1659
g1706
sg328
g1260
sbsS'iwgxfont.config.txt'
p1945
g302
(g1654
g304
Ntp1946
Rp1947
(dp1948
g1658
g1352
sg1659
g1660
sg328
g1368
sbsS'gl2platform.h'
p1949
g302
(g1654
g304
Ntp1950
Rp1951
(dp1952
g1658
g1666
sg1659
(lp1953
g1668
aS'GL'
p1954
aS'GLES 2.0'
p1955
asg328
S'c:/marmalade/7.2/s3e/h/GLES2/gl2platform.h'
p1956
sbsS'IwResManagerClass.h'
p1957
g302
(g1654
g304
Ntp1958
Rp1959
(dp1960
g1658
g1442
sg1659
(lp1961
g1310
ag1438
asg328
g1454
sbsS'queue'
p1962
g302
(g1654
g304
Ntp1963
Rp1964
(dp1965
g1658
g1666
sg1659
g1667
sg328
S'c:/marmalade/7.2/s3e/h/std/c++/queue'
p1966
sbsS'blackHole.h'
p1967
g302
(g1654
g304
Ntp1968
Rp1969
(dp1970
g1658
g1195
sg1659
g1930
sg328
g1214
sbsS'time_1.h'
p1971
g302
(g1654
g304
Ntp1972
Rp1973
(dp1974
g1658
g1666
sg1659
g1827
sg328
S'c:/marmalade/7.2/s3e/h/std/sys/time.h'
p1975
sbsS'IwSoundPCM.h'
p1976
g302
(g1654
g304
Ntp1977
Rp1978
(dp1979
g1658
g1096
sg1659
g1717
sg328
g1132
sbsS'Iw2D.h'
p1980
g302
(g1654
g304
Ntp1981
Rp1982
(dp1983
g1658
g1340
sg1659
g1768
sg328
g1341
sbsS'IwGeomVec2.h'
p1984
g302
(g1654
g304
Ntp1985
Rp1986
(dp1987
g1658
g1374
sg1659
g1733
sg328
g1405
sbsS'sendfile.h'
p1988
g302
(g1654
g304
Ntp1989
Rp1990
(dp1991
g1658
g1666
sg1659
g1827
sg328
S'c:/marmalade/7.2/s3e/h/std/sys/sendfile.h'
p1992
sbsS'malloc.h'
p1993
g302
(g1654
g304
Ntp1994
Rp1995
(dp1996
g1658
g1666
sg1659
g1688
sg328
S'c:/marmalade/7.2/s3e/h/std/malloc.h'
p1997
sbsS'timerManager.h'
p1998
g302
(g1654
g304
Ntp1999
Rp2000
(dp2001
g1658
g1195
sg1659
g1706
sg328
g1264
sbsS'stdarg.h'
p2002
g302
(g1654
g304
Ntp2003
Rp2004
(dp2005
g1658
g1666
sg1659
g1688
sg328
S'c:/marmalade/7.2/s3e/h/std/stdarg.h'
p2006
sbsS'IwGeomCore.h'
p2007
g302
(g1654
g304
Ntp2008
Rp2009
(dp2010
g1658
g1374
sg1659
g1733
sg328
g1389
sbsS'Iw2DSceneGraph.h'
p2011
g302
(g1654
g304
Ntp2012
Rp2013
(dp2014
g1658
g1316
sg1659
(lp2015
S"'Marmalade Studio'"
p2016
ag1312
asg328
g1320
sbsS'endian.h'
p2017
g302
(g1654
g304
Ntp2018
Rp2019
(dp2020
g1658
g1666
sg1659
g1688
sg328
S'c:/marmalade/7.2/s3e/h/std/endian.h'
p2021
sbsS'glob.h'
p2022
g302
(g1654
g304
Ntp2023
Rp2024
(dp2025
g1658
g1666
sg1659
g1688
sg328
S'c:/marmalade/7.2/s3e/h/std/glob.h'
p2026
sbsS'fstream'
p2027
g302
(g1654
g304
Ntp2028
Rp2029
(dp2030
g1658
g1666
sg1659
g1667
sg328
S'c:/marmalade/7.2/s3e/h/std/c++/fstream'
p2031
sbsS'include.h'
p2032
g302
(g1654
g304
Ntp2033
Rp2034
(dp2035
g1658
g1195
sg1659
(lp2036
S'stars'
p2037
ag1234
asg328
g1240
sbsS'jconfig.h'
p2038
g302
(g1654
g304
Ntp2039
Rp2040
(dp2041
g1658
g1052
sg1659
g1763
sg328
g1053
sbsS'memory'
p2042
g302
(g1654
g304
Ntp2043
Rp2044
(dp2045
g1658
g1666
sg1659
g1667
sg328
S'c:/marmalade/7.2/s3e/h/std/c++/memory'
p2046
sbsS'strstream'
p2047
g302
(g1654
g304
Ntp2048
Rp2049
(dp2050
g1658
g1666
sg1659
g1667
sg328
S'c:/marmalade/7.2/s3e/h/std/c++/strstream'
p2051
sbsS'egl.h'
p2052
g302
(g1654
g304
Ntp2053
Rp2054
(dp2055
g1658
g1666
sg1659
(lp2056
g1668
aS'GL'
p2057
aS'EGL'
p2058
asg328
S'c:/marmalade/7.2/s3e/h/EGL/egl.h'
p2059
sbsS'egl_1.h'
p2060
g302
(g1654
g304
Ntp2061
Rp2062
(dp2063
g1658
g1666
sg1659
(lp2064
g1668
aS'GL'
p2065
aS'GLES 1.x'
p2066
asg328
S'c:/marmalade/7.2/s3e/h/GLES/egl.h'
p2067
sbsS'IwMemManagerDL.h'
p2068
g302
(g1654
g304
Ntp2069
Rp2070
(dp2071
g1658
g1530
sg1659
g1700
sg328
g1585
sbsS'deque'
p2072
g302
(g1654
g304
Ntp2073
Rp2074
(dp2075
g1658
g1666
sg1659
g1667
sg328
S'c:/marmalade/7.2/s3e/h/std/c++/deque'
p2076
sbsS'IwString.h'
p2077
g302
(g1654
g304
Ntp2078
Rp2079
(dp2080
g1658
g1530
sg1659
g1700
sg328
g1571
sbsS'cwchar'
p2081
g302
(g1654
g304
Ntp2082
Rp2083
(dp2084
g1658
g1666
sg1659
g1667
sg328
S'c:/marmalade/7.2/s3e/h/std/c++/cwchar'
p2085
sbsS'iwutil.mkf'
p2086
g302
(g1654
g304
Ntp2087
Rp2088
(dp2089
g1658
g1615
sg1659
g1700
sg328
g1613
sbsS'csignal'
p2090
g302
(g1654
g304
Ntp2091
Rp2092
(dp2093
g1658
g1666
sg1659
g1667
sg328
S'c:/marmalade/7.2/s3e/h/std/c++/csignal'
p2094
sbsS'pthread_types.h'
p2095
g302
(g1654
g304
Ntp2096
Rp2097
(dp2098
g1658
g1666
sg1659
g1688
sg328
S'c:/marmalade/7.2/s3e/h/std/pthread_types.h'
p2099
sbsS'pthread_alloc'
p2100
g302
(g1654
g304
Ntp2101
Rp2102
(dp2103
g1658
g1666
sg1659
g1667
sg328
S'c:/marmalade/7.2/s3e/h/std/c++/pthread_alloc'
p2104
sbsS'getopt.h'
p2105
g302
(g1654
g304
Ntp2106
Rp2107
(dp2108
g1658
g1666
sg1659
g1688
sg328
S'c:/marmalade/7.2/s3e/h/std/getopt.h'
p2109
sbsS'IwOptimiseARM.h'
p2110
g302
(g1654
g304
Ntp2111
Rp2112
(dp2113
g1658
g1530
sg1659
g1700
sg328
g1609
sbsS'times.h'
p2114
g302
(g1654
g304
Ntp2115
Rp2116
(dp2117
g1658
g1666
sg1659
g1827
sg328
S'c:/marmalade/7.2/s3e/h/std/sys/times.h'
p2118
sbsS'IwGeomFSphere.h'
p2119
g302
(g1654
g304
Ntp2120
Rp2121
(dp2122
g1658
g1374
sg1659
g1733
sg328
g1422
sbsS'game.h'
p2123
g302
(g1654
g304
Ntp2124
Rp2125
(dp2126
g1658
g1195
sg1659
g1727
sg328
g1306
sbsS'functional'
p2127
g302
(g1654
g304
Ntp2128
Rp2129
(dp2130
g1658
g1666
sg1659
g1667
sg328
S'c:/marmalade/7.2/s3e/h/std/c++/functional'
p2131
sbsS'IwTypes.h'
p2132
g302
(g1654
g304
Ntp2133
Rp2134
(dp2135
g1658
g1530
sg1659
g1700
sg328
g1579
sbsS'IwGxMetrics.h'
p2136
g302
(g1654
g304
Ntp2137
Rp2138
(dp2139
g1658
g1466
sg1659
g1813
sg328
g1496
sbsS's3eCompression.h'
p2140
g302
(g1654
g304
Ntp2141
Rp2142
(dp2143
g1658
g1666
sg1659
g1682
sg328
S'c:/marmalade/7.2/s3e/h/s3eCompression.h'
p2144
sbsS'langinfo.h'
p2145
g302
(g1654
g304
Ntp2146
Rp2147
(dp2148
g1658
g1666
sg1659
g1688
sg328
S'c:/marmalade/7.2/s3e/h/std/langinfo.h'
p2149
sbsS's3edebugHeap.h'
p2150
g302
(g1654
g304
Ntp2151
Rp2152
(dp2153
g1658
g1666
sg1659
g1904
sg328
S'c:/marmalade/7.2/s3e/h/ext/s3edebugHeap.h'
p2154
sbsS'AirplayVersion.h'
p2155
g302
(g1654
g304
Ntp2156
Rp2157
(dp2158
g1658
g1666
sg1659
g1682
sg328
S'c:/marmalade/7.2/s3e/h/AirplayVersion.h'
p2159
sbsS'gl2extimg.h'
p2160
g302
(g1654
g304
Ntp2161
Rp2162
(dp2163
g1658
g1666
sg1659
g1953
sg328
S'c:/marmalade/7.2/s3e/h/GLES2/gl2extimg.h'
p2164
sbsS'app.config.txt'
p2165
g302
(g1654
g304
Ntp2166
Rp2167
(dp2168
g1658
(dp2169
sg1659
g4
sg328
S'c:/Users/Vinicius/Desktop/Yes or No/Stars/data/app.config.txt'
p2170
sbsS'IwGeomSqrt.h'
p2171
g302
(g1654
g304
Ntp2172
Rp2173
(dp2174
g1658
g1374
sg1659
g1733
sg328
g1385
sbsS'tiniconv_int.h'
p2175
g302
(g1654
g304
Ntp2176
Rp2177
(dp2178
g1658
g1086
sg1659
(lp2179
g1082
asg328
g1087
sbsS'syslog.h'
p2180
g302
(g1654
g304
Ntp2181
Rp2182
(dp2183
g1658
g1666
sg1659
g1688
sg328
S'c:/marmalade/7.2/s3e/h/std/syslog.h'
p2184
sbsS'IwGxFontTypes.h'
p2185
g302
(g1654
g304
Ntp2186
Rp2187
(dp2188
g1658
g1352
sg1659
g1660
sg328
g1363
sbsS'IwGeomFIntersect.h'
p2189
g302
(g1654
g304
Ntp2190
Rp2191
(dp2192
g1658
g1374
sg1659
g1733
sg328
g1417
sbsS'hash_map'
p2193
g302
(g1654
g304
Ntp2194
Rp2195
(dp2196
g1658
g1666
sg1659
g1667
sg328
S'c:/marmalade/7.2/s3e/h/std/c++/hash_map'
p2197
sbsS's3e.mkf'
p2198
g302
(g1654
g304
Ntp2199
Rp2200
(dp2201
g1658
(dp2202
sg1659
g1682
sg328
S'c:/marmalade/7.2/s3e/s3e.mkf'
p2203
sbsS's3eOSReadString.h'
p2204
g302
(g1654
g304
Ntp2205
Rp2206
(dp2207
g1658
g1666
sg1659
g1904
sg328
S'c:/marmalade/7.2/s3e/h/ext/s3eOSReadString.h'
p2208
sbsS'vortex.h'
p2209
g302
(g1654
g304
Ntp2210
Rp2211
(dp2212
g1658
g1195
sg1659
g1930
sg328
g1222
sbsS'player.cpp'
p2213
g302
(g1654
g304
Ntp2214
Rp2215
(dp2216
g1658
g1195
sg1659
g1930
sg328
g1224
sbsS'IwSound.h'
p2217
g302
(g1654
g304
Ntp2218
Rp2219
(dp2220
g1658
g1096
sg1659
g1717
sg328
g1124
sbsS'map'
p2221
g302
(g1654
g304
Ntp2222
Rp2223
(dp2224
g1658
g1666
sg1659
g1667
sg328
S'c:/marmalade/7.2/s3e/h/std/c++/map'
p2225
sbsS'iwtween.mkf'
p2226
g302
(g1654
g304
Ntp2227
Rp2228
(dp2229
g1658
g1645
sg1659
(lp2230
g1641
asg328
g1643
sbsS'IwOptimiseSpeed.h'
p2231
g302
(g1654
g304
Ntp2232
Rp2233
(dp2234
g1658
g1530
sg1659
g1700
sg328
g1620
sbsS'inputManager.h'
p2235
g302
(g1654
g304
Ntp2236
Rp2237
(dp2238
g1658
g1195
sg1659
g1706
sg328
g1248
sbsS'asteroid.cpp'
p2239
g302
(g1654
g304
Ntp2240
Rp2241
(dp2242
g1658
g1195
sg1659
g1930
sg328
g1208
sbsS'msl_string.h'
p2243
g302
(g1654
g304
Ntp2244
Rp2245
(dp2246
g1658
g1666
sg1659
g1667
sg328
S'c:/marmalade/7.2/s3e/h/std/c++/msl_string.h'
p2247
sbsS'sigcontext.h'
p2248
g302
(g1654
g304
Ntp2249
Rp2250
(dp2251
g1658
g1666
sg1659
g1688
sg328
S'c:/marmalade/7.2/s3e/h/std/sigcontext.h'
p2252
sbsS'select.h'
p2253
g302
(g1654
g304
Ntp2254
Rp2255
(dp2256
g1658
g1666
sg1659
g1827
sg328
S'c:/marmalade/7.2/s3e/h/std/sys/select.h'
p2257
sbsS'zlib.mkf'
p2258
g302
(g1654
g304
Ntp2259
Rp2260
(dp2261
g1658
g1640
sg1659
(lp2262
g1630
asg328
g1638
sbsS'signal.h'
p2263
g302
(g1654
g304
Ntp2264
Rp2265
(dp2266
g1658
g1666
sg1659
g1688
sg328
S'c:/marmalade/7.2/s3e/h/std/signal.h'
p2267
sbsS's3eLibrary.h'
p2268
g302
(g1654
g304
Ntp2269
Rp2270
(dp2271
g1658
g1666
sg1659
g1904
sg328
S'c:/marmalade/7.2/s3e/h/ext/s3eLibrary.h'
p2272
sbsS'libpng.mkf'
p2273
g302
(g1654
g304
Ntp2274
Rp2275
(dp2276
g1658
g1046
sg1659
(lp2277
g1035
asg328
g1044
sbsS's3eClipboard.h'
p2278
g302
(g1654
g304
Ntp2279
Rp2280
(dp2281
g1658
g1666
sg1659
g1682
sg328
S'c:/marmalade/7.2/s3e/h/s3eClipboard.h'
p2282
sbsS'IwGxFuncTable.h'
p2283
g302
(g1654
g304
Ntp2284
Rp2285
(dp2286
g1658
g1466
sg1659
g1813
sg328
g1502
sbsS'IwResHandlerGROUP.h'
p2287
g302
(g1654
g304
Ntp2288
Rp2289
(dp2290
g1658
g1442
sg1659
g1961
sg328
g1440
sbsS's3eDebug.h'
p2291
g302
(g1654
g304
Ntp2292
Rp2293
(dp2294
g1658
g1666
sg1659
g1682
sg328
S'c:/marmalade/7.2/s3e/h/s3eDebug.h'
p2295
sbsS'socket.h'
p2296
g302
(g1654
g304
Ntp2297
Rp2298
(dp2299
g1658
g1666
sg1659
g1827
sg328
S'c:/marmalade/7.2/s3e/h/std/sys/socket.h'
p2300
sbsS'glext.h'
p2301
g302
(g1654
g304
Ntp2302
Rp2303
(dp2304
g1658
g1666
sg1659
g2064
sg328
S'c:/marmalade/7.2/s3e/h/GLES/glext.h'
p2305
sbsS'typeinfo.h'
p2306
g302
(g1654
g304
Ntp2307
Rp2308
(dp2309
g1658
g1666
sg1659
g1667
sg328
S'c:/marmalade/7.2/s3e/h/std/c++/typeinfo.h'
p2310
sbsS'typeinfo'
p2311
g302
(g1654
g304
Ntp2312
Rp2313
(dp2314
g1658
g1666
sg1659
g1667
sg328
S'c:/marmalade/7.2/s3e/h/std/c++/typeinfo'
p2315
sbsS'iwsound.config.txt'
p2316
g302
(g1654
g304
Ntp2317
Rp2318
(dp2319
g1658
g1096
sg1659
(lp2320
g1092
ag1110
asg328
g1112
sbsS'fstream.h'
p2321
g302
(g1654
g304
Ntp2322
Rp2323
(dp2324
g1658
g1666
sg1659
g1667
sg328
S'c:/marmalade/7.2/s3e/h/std/c++/fstream.h'
p2325
sbsS'IwGeomMat.h'
p2326
g302
(g1654
g304
Ntp2327
Rp2328
(dp2329
g1658
g1374
sg1659
g1733
sg328
g1379
sbsS's3ePointer.h'
p2330
g302
(g1654
g304
Ntp2331
Rp2332
(dp2333
g1658
g1666
sg1659
g1682
sg328
S'c:/marmalade/7.2/s3e/h/s3ePointer.h'
p2334
sbsS'getStars.cpp'
p2335
g302
(g1654
g304
Ntp2336
Rp2337
(dp2338
g1658
g1195
sg1659
g1727
sg328
g1296
sbsS'options.cpp'
p2339
g302
(g1654
g304
Ntp2340
Rp2341
(dp2342
g1658
g1195
sg1659
g1727
sg328
g1304
sbsS's3eGL.h'
p2343
g302
(g1654
g304
Ntp2344
Rp2345
(dp2346
g1658
g1666
sg1659
g1682
sg328
S'c:/marmalade/7.2/s3e/h/s3eGL.h'
p2347
sbsS'IwGeomFVec2.h'
p2348
g302
(g1654
g304
Ntp2349
Rp2350
(dp2351
g1658
g1374
sg1659
g1733
sg328
g1393
sbsS'IwGeomSVec4.h'
p2352
g302
(g1654
g304
Ntp2353
Rp2354
(dp2355
g1658
g1374
sg1659
g1733
sg328
g1413
sbsS'poll.h'
p2356
g302
(g1654
g304
Ntp2357
Rp2358
(dp2359
g1658
g1666
sg1659
g1688
sg328
S'c:/marmalade/7.2/s3e/h/std/poll.h'
p2360
sbsS'IwMatAnim.h'
p2361
g302
(g1654
g304
Ntp2362
Rp2363
(dp2364
g1658
g1466
sg1659
g1813
sg328
g1473
sbsS'IwGeomFVec4.h'
p2365
g302
(g1654
g304
Ntp2366
Rp2367
(dp2368
g1658
g1374
sg1659
g1733
sg328
g1399
sbsS'IwGx.h'
p2369
g302
(g1654
g304
Ntp2370
Rp2371
(dp2372
g1658
g1466
sg1659
g1813
sg328
g1490
sbsS'valarray'
p2373
g302
(g1654
g304
Ntp2374
Rp2375
(dp2376
g1658
g1666
sg1659
g1667
sg328
S'c:/marmalade/7.2/s3e/h/std/c++/valarray'
p2377
sbsS'iosfwd'
p2378
g302
(g1654
g304
Ntp2379
Rp2380
(dp2381
g1658
g1666
sg1659
g1667
sg328
S'c:/marmalade/7.2/s3e/h/std/c++/iosfwd'
p2382
sbsS'gl2.h'
p2383
g302
(g1654
g304
Ntp2384
Rp2385
(dp2386
g1658
g1666
sg1659
g1953
sg328
S'c:/marmalade/7.2/s3e/h/GLES2/gl2.h'
p2387
sbsS'jpegint.h'
p2388
g302
(g1654
g304
Ntp2389
Rp2390
(dp2391
g1658
g1052
sg1659
g1763
sg328
g1057
sbsS'stdiostream.h'
p2392
g302
(g1654
g304
Ntp2393
Rp2394
(dp2395
g1658
g1666
sg1659
g1667
sg328
S'c:/marmalade/7.2/s3e/h/std/c++/stdiostream.h'
p2396
sbsS'mem.h'
p2397
g302
(g1654
g304
Ntp2398
Rp2399
(dp2400
g1658
g1666
sg1659
g1667
sg328
S'c:/marmalade/7.2/s3e/h/std/c++/mem.h'
p2401
sbsS'main.cpp'
p2402
g302
(g1654
g304
Ntp2403
Rp2404
(dp2405
g1658
g1195
sg1659
g2036
sg328
g1238
sbsS'zconf.h'
p2406
g302
(g1654
g304
Ntp2407
Rp2408
(dp2409
g1658
g1635
sg1659
(lp2410
g1630
ag1037
asg328
g1633
sbsS's3e.config.txt'
p2411
g302
(g1654
g304
Ntp2412
Rp2413
(dp2414
g1658
g1666
sg1659
g1682
sg328
S'c:/marmalade/7.2/s3e/s3e.config.txt'
p2415
sbsS'numeric'
p2416
g302
(g1654
g304
Ntp2417
Rp2418
(dp2419
g1658
g1666
sg1659
g1667
sg328
S'c:/marmalade/7.2/s3e/h/std/c++/numeric'
p2420
sbsS'utime.h'
p2421
g302
(g1654
g304
Ntp2422
Rp2423
(dp2424
g1658
g1666
sg1659
g1688
sg328
S'c:/marmalade/7.2/s3e/h/std/utime.h'
p2425
sbsS'jdhuff.h'
p2426
g302
(g1654
g304
Ntp2427
Rp2428
(dp2429
g1658
g1052
sg1659
g1763
sg328
g1069
sbsS'IwResHandlerWAV.cpp'
p2430
g302
(g1654
g304
Ntp2431
Rp2432
(dp2433
g1658
g1096
sg1659
g1717
sg328
g1114
sbsS'IwGxStream.h'
p2434
g302
(g1654
g304
Ntp2435
Rp2436
(dp2437
g1658
g1466
sg1659
g1813
sg328
g1467
sbsS'resourceManager.h'
p2438
g302
(g1654
g304
Ntp2439
Rp2440
(dp2441
g1658
g1195
sg1659
g1706
sg328
g1252
sbsS'IwImage.h'
p2442
g302
(g1654
g304
Ntp2443
Rp2444
(dp2445
g1658
g1530
sg1659
g1700
sg328
g1577
sbsS's3eImagePicker.h'
p2446
g302
(g1654
g304
Ntp2447
Rp2448
(dp2449
g1658
g1666
sg1659
g1904
sg328
S'c:/marmalade/7.2/s3e/h/ext/s3eImagePicker.h'
p2450
sbsS's3eWebView.defines.txt'
p2451
g302
(g1654
g304
Ntp2452
Rp2453
(dp2454
g1658
g1152
sg1659
(lp2455
S'Extensions'
p2456
ag1146
ag1148
asg328
g1150
sbsS'stdlib.h'
p2457
g302
(g1654
g304
Ntp2458
Rp2459
(dp2460
g1658
g1666
sg1659
g1688
sg328
S'c:/marmalade/7.2/s3e/h/std/stdlib.h'
p2461
sbsS'IwCopyingPtr.h'
p2462
g302
(g1654
g304
Ntp2463
Rp2464
(dp2465
g1658
g1530
sg1659
g1700
sg328
g1607
sbsS'iostream'
p2466
g302
(g1654
g304
Ntp2467
Rp2468
(dp2469
g1658
g1666
sg1659
g1667
sg328
S'c:/marmalade/7.2/s3e/h/std/c++/iostream'
p2470
sbsS'png.h'
p2471
g302
(g1654
g304
Ntp2472
Rp2473
(dp2474
g1658
g1041
sg1659
(lp2475
g1035
ag1037
asg328
g1039
sbsS'stddef.h'
p2476
g302
(g1654
g304
Ntp2477
Rp2478
(dp2479
g1658
g1666
sg1659
g1688
sg328
S'c:/marmalade/7.2/s3e/h/std/stddef.h'
p2480
sbsS'setjmp_win32.h'
p2481
g302
(g1654
g304
Ntp2482
Rp2483
(dp2484
g1658
g1666
sg1659
g1688
sg328
S'c:/marmalade/7.2/s3e/h/std/setjmp_win32.h'
p2485
sbsS'IwGxPrint.h'
p2486
g302
(g1654
g304
Ntp2487
Rp2488
(dp2489
g1658
g1466
sg1659
g1813
sg328
g1482
sbsS'iwgx_public.defines.txt'
p2490
g302
(g1654
g304
Ntp2491
Rp2492
(dp2493
g1658
g1466
sg1659
g1813
sg328
g1486
sbsS'streambuf.h'
p2494
g302
(g1654
g304
Ntp2495
Rp2496
(dp2497
g1658
g1666
sg1659
g1667
sg328
S'c:/marmalade/7.2/s3e/h/std/c++/streambuf.h'
p2498
sbsS'IwGeomFPlane.h'
p2499
g302
(g1654
g304
Ntp2500
Rp2501
(dp2502
g1658
g1374
sg1659
g1733
sg328
g1375
sbsS'un.h'
p2503
g302
(g1654
g304
Ntp2504
Rp2505
(dp2506
g1658
g1666
sg1659
g1827
sg328
S'c:/marmalade/7.2/s3e/h/std/sys/un.h'
p2507
sbsS'wchar.h'
p2508
g302
(g1654
g304
Ntp2509
Rp2510
(dp2511
g1658
g1666
sg1659
g1688
sg328
S'c:/marmalade/7.2/s3e/h/std/wchar.h'
p2512
sbsS's3eCameraCapture.h'
p2513
g302
(g1654
g304
Ntp2514
Rp2515
(dp2516
g1658
g1666
sg1659
g1904
sg328
S'c:/marmalade/7.2/s3e/h/ext/s3eCameraCapture.h'
p2517
sbsS'eglext.h'
p2518
g302
(g1654
g304
Ntp2519
Rp2520
(dp2521
g1658
g1666
sg1659
g2056
sg328
S'c:/marmalade/7.2/s3e/h/EGL/eglext.h'
p2522
sbsS'IwResHandlerImage.h'
p2523
g302
(g1654
g304
Ntp2524
Rp2525
(dp2526
g1658
g1442
sg1659
g1961
sg328
g1450
sbsS'strstream.h'
p2527
g302
(g1654
g304
Ntp2528
Rp2529
(dp2530
g1658
g1666
sg1659
g1667
sg328
S'c:/marmalade/7.2/s3e/h/std/c++/strstream.h'
p2531
sbsS'tiniconv.h'
p2532
g302
(g1654
g304
Ntp2533
Rp2534
(dp2535
g1658
g1086
sg1659
g2179
sg328
g1084
sbsS'IwGLExt.h'
p2536
g302
(g1654
g304
Ntp2537
Rp2538
(dp2539
g1658
g1328
sg1659
g1676
sg328
g1332
sbsS'app.icf'
p2540
g302
(g1654
g304
Ntp2541
Rp2542
(dp2543
g1658
(dp2544
sg1659
g4
sg328
S'c:/Users/Vinicius/Desktop/Yes or No/Stars/data/app.icf'
p2545
sbsS'IwClassFactory.h'
p2546
g302
(g1654
g304
Ntp2547
Rp2548
(dp2549
g1658
g1530
sg1659
g1700
sg328
g1593
sbsS'file.h'
p2550
g302
(g1654
g304
Ntp2551
Rp2552
(dp2553
g1658
g1666
sg1659
g1827
sg328
S'c:/marmalade/7.2/s3e/h/std/sys/file.h'
p2554
sbsS'cstring'
p2555
g302
(g1654
g304
Ntp2556
Rp2557
(dp2558
g1658
g1666
sg1659
g1667
sg328
S'c:/marmalade/7.2/s3e/h/std/c++/cstring'
p2559
sbsS'IwSoundInst.cpp'
p2560
g302
(g1654
g304
Ntp2561
Rp2562
(dp2563
g1658
g1096
sg1659
g1717
sg328
g1100
sbsS'iwutil.config.txt'
p2564
g302
(g1654
g304
Ntp2565
Rp2566
(dp2567
g1658
g1530
sg1659
g1700
sg328
g1591
sbsS's3eSMS.h'
p2568
g302
(g1654
g304
Ntp2569
Rp2570
(dp2571
g1658
g1666
sg1659
g1904
sg328
S'c:/marmalade/7.2/s3e/h/ext/s3eSMS.h'
p2572
sbsS'limits.h'
p2573
g302
(g1654
g304
Ntp2574
Rp2575
(dp2576
g1658
g1666
sg1659
g1688
sg328
S'c:/marmalade/7.2/s3e/h/std/limits.h'
p2577
sbsS'iwgl.config.txt'
p2578
g302
(g1654
g304
Ntp2579
Rp2580
(dp2581
g1658
g1328
sg1659
g1676
sg328
g1334
sbsS'savedataManager.cpp'
p2582
g302
(g1654
g304
Ntp2583
Rp2584
(dp2585
g1658
g1195
sg1659
g1706
sg328
g1268
sbsS'IwMaterial.h'
p2586
g302
(g1654
g304
Ntp2587
Rp2588
(dp2589
g1658
g1466
sg1659
g1813
sg328
g1471
sbsS's3eFlurry.defines.txt'
p2590
g302
(g1654
g304
Ntp2591
Rp2592
(dp2593
g1658
g1181
sg1659
(lp2594
g1144
ag1175
ag1177
asg328
g1182
sbsS'IwGxSurface.h'
p2595
g302
(g1654
g304
Ntp2596
Rp2597
(dp2598
g1658
g1466
sg1659
g1813
sg328
g1484
sbsS's3eSocket.h'
p2599
g302
(g1654
g304
Ntp2600
Rp2601
(dp2602
g1658
g1666
sg1659
g1682
sg328
S'c:/marmalade/7.2/s3e/h/s3eSocket.h'
p2603
sbsS'IwAutoFile.h'
p2604
g302
(g1654
g304
Ntp2605
Rp2606
(dp2607
g1658
g1530
sg1659
g1700
sg328
g1597
sbsS'ipc.h'
p2608
g302
(g1654
g304
Ntp2609
Rp2610
(dp2611
g1658
g1666
sg1659
g1827
sg328
S'c:/marmalade/7.2/s3e/h/std/sys/ipc.h'
p2612
sbsS'poll_1.h'
p2613
g302
(g1654
g304
Ntp2614
Rp2615
(dp2616
g1658
g1666
sg1659
g1827
sg328
S'c:/marmalade/7.2/s3e/h/std/sys/poll.h'
p2617
sbsS's3eThread.h'
p2618
g302
(g1654
g304
Ntp2619
Rp2620
(dp2621
g1658
g1666
sg1659
g1682
sg328
S'c:/marmalade/7.2/s3e/h/s3eThread.h'
p2622
sbsS'ostream'
p2623
g302
(g1654
g304
Ntp2624
Rp2625
(dp2626
g1658
g1666
sg1659
g1667
sg328
S'c:/marmalade/7.2/s3e/h/std/c++/ostream'
p2627
sbsS'ucontext.h'
p2628
g302
(g1654
g304
Ntp2629
Rp2630
(dp2631
g1658
g1666
sg1659
g1688
sg328
S'c:/marmalade/7.2/s3e/h/std/ucontext.h'
p2632
sbsS'time.h'
p2633
g302
(g1654
g304
Ntp2634
Rp2635
(dp2636
g1658
g1666
sg1659
g1688
sg328
S'c:/marmalade/7.2/s3e/h/std/time.h'
p2637
sbsS'jchuff.h'
p2638
g302
(g1654
g304
Ntp2639
Rp2640
(dp2641
g1658
g1052
sg1659
g1763
sg328
g1050
sbsS'IwSoundPCM.cpp'
p2642
g302
(g1654
g304
Ntp2643
Rp2644
(dp2645
g1658
g1096
sg1659
g1717
sg328
g1128
sbsS's3eSoundRecord.h'
p2646
g302
(g1654
g304
Ntp2647
Rp2648
(dp2649
g1658
g1666
sg1659
g1682
sg328
S'c:/marmalade/7.2/s3e/h/s3eSoundRecord.h'
p2650
sbsS'IwFibre.h'
p2651
g302
(g1654
g304
Ntp2652
Rp2653
(dp2654
g1658
g1530
sg1659
g1700
sg328
g1535
sbsS'IwMemBucket.h'
p2655
g302
(g1654
g304
Ntp2656
Rp2657
(dp2658
g1658
g1530
sg1659
g1700
sg328
g1611
sbsS'strings.h'
p2659
g302
(g1654
g304
Ntp2660
Rp2661
(dp2662
g1658
g1666
sg1659
g1688
sg328
S'c:/marmalade/7.2/s3e/h/std/strings.h'
p2663
sbsS's3eVersion.h'
p2664
g302
(g1654
g304
Ntp2665
Rp2666
(dp2667
g1658
g1666
sg1659
g1682
sg328
S'c:/marmalade/7.2/s3e/h/s3eVersion.h'
p2668
sbsS'IwSoundGroup.h'
p2669
g302
(g1654
g304
Ntp2670
Rp2671
(dp2672
g1658
g1096
sg1659
g1717
sg328
g1134
sbsS'triggersManager.cpp'
p2673
g302
(g1654
g304
Ntp2674
Rp2675
(dp2676
g1658
g1195
sg1659
g1706
sg328
g1262
sbsS'IwSoundWAV.h'
p2677
g302
(g1654
g304
Ntp2678
Rp2679
(dp2680
g1658
g1096
sg1659
g1717
sg328
g1126
sbsS'IwGxFontGlyph.h'
p2681
g302
(g1654
g304
Ntp2682
Rp2683
(dp2684
g1658
g1352
sg1659
g1660
sg328
g1359
sbsS's3eTypes.h'
p2685
g302
(g1654
g304
Ntp2686
Rp2687
(dp2688
g1658
g1666
sg1659
g1682
sg328
S'c:/marmalade/7.2/s3e/h/s3eTypes.h'
p2689
sbsS'IwSoundSpec.h'
p2690
g302
(g1654
g304
Ntp2691
Rp2692
(dp2693
g1658
g1096
sg1659
g1717
sg328
g1130
sbsS'signal_2.h'
p2694
g302
(g1654
g304
Ntp2695
Rp2696
(dp2697
g1658
g1666
sg1659
g1667
sg328
S'c:/marmalade/7.2/s3e/h/std/c++/signal.h'
p2698
sbsS'termios.h'
p2699
g302
(g1654
g304
Ntp2700
Rp2701
(dp2702
g1658
g1666
sg1659
g1688
sg328
S'c:/marmalade/7.2/s3e/h/std/termios.h'
p2703
sbsS'iw2dscenegraph.mkf'
p2704
g302
(g1654
g304
Ntp2705
Rp2706
(dp2707
g1658
g1319
sg1659
g2015
sg328
g1317
sbsS'slist'
p2708
g302
(g1654
g304
Ntp2709
Rp2710
(dp2711
g1658
g1666
sg1659
g1667
sg328
S'c:/marmalade/7.2/s3e/h/std/c++/slist'
p2712
sbsS'cstdlib'
p2713
g302
(g1654
g304
Ntp2714
Rp2715
(dp2716
g1658
g1666
sg1659
g1667
sg328
S'c:/marmalade/7.2/s3e/h/std/c++/cstdlib'
p2717
sbsS's3eLocation.h'
p2718
g302
(g1654
g304
Ntp2719
Rp2720
(dp2721
g1658
g1666
sg1659
g1682
sg328
S'c:/marmalade/7.2/s3e/h/s3eLocation.h'
p2722
sbsS'IwMemBucketHelpers.h'
p2723
g302
(g1654
g304
Ntp2724
Rp2725
(dp2726
g1658
g1530
sg1659
g1700
sg328
g1605
sbsS's3eHash.h'
p2727
g302
(g1654
g304
Ntp2728
Rp2729
(dp2730
g1658
g1666
sg1659
g1682
sg328
S'c:/marmalade/7.2/s3e/h/s3eHash.h'
p2731
sbsS'IwSoundGroup.cpp'
p2732
g302
(g1654
g304
Ntp2733
Rp2734
(dp2735
g1658
g1096
sg1659
g1717
sg328
g1122
sbsS'IwGeomFMat.h'
p2736
g302
(g1654
g304
Ntp2737
Rp2738
(dp2739
g1658
g1374
sg1659
g1733
sg328
g1407
sbsS'type_traits.h'
p2740
g302
(g1654
g304
Ntp2741
Rp2742
(dp2743
g1658
g1666
sg1659
g1667
sg328
S'c:/marmalade/7.2/s3e/h/std/c++/type_traits.h'
p2744
sbsS'IwMenu.h'
p2745
g302
(g1654
g304
Ntp2746
Rp2747
(dp2748
g1658
g1530
sg1659
g1700
sg328
g1555
sbsS'IwResHandlerITX.h'
p2749
g302
(g1654
g304
Ntp2750
Rp2751
(dp2752
g1658
g1442
sg1659
g1961
sg328
g1456
sbsS'IwSoundData.h'
p2753
g302
(g1654
g304
Ntp2754
Rp2755
(dp2756
g1658
g1096
sg1659
g1717
sg328
g1140
sbsS'IwArray.h'
p2757
g302
(g1654
g304
Ntp2758
Rp2759
(dp2760
g1658
g1530
sg1659
g1700
sg328
g1531
sbsS'IwUTF8.h'
p2761
g302
(g1654
g304
Ntp2762
Rp2763
(dp2764
g1658
g1530
sg1659
g1700
sg328
g1599
sbsS'math_rvct.h'
p2765
g302
(g1654
g304
Ntp2766
Rp2767
(dp2768
g1658
g1666
sg1659
g1688
sg328
S'c:/marmalade/7.2/s3e/h/std/math_rvct.h'
p2769
sbsS'IwUtil.h'
p2770
g302
(g1654
g304
Ntp2771
Rp2772
(dp2773
g1658
g1530
sg1659
g1700
sg328
g1589
sbsS'IwGeomVec3.h'
p2774
g302
(g1654
g304
Ntp2775
Rp2776
(dp2777
g1658
g1374
sg1659
g1733
sg328
g1411
sbsS'wctype.h'
p2778
g302
(g1654
g304
Ntp2779
Rp2780
(dp2781
g1658
g1666
sg1659
g1688
sg328
S'c:/marmalade/7.2/s3e/h/std/wctype.h'
p2782
sbsS'mainMenu.h'
p2783
g302
(g1654
g304
Ntp2784
Rp2785
(dp2786
g1658
g1195
sg1659
g1727
sg328
g1288
sbsS'cstddef'
p2787
g302
(g1654
g304
Ntp2788
Rp2789
(dp2790
g1658
g1666
sg1659
g1667
sg328
S'c:/marmalade/7.2/s3e/h/std/c++/cstddef'
p2791
sbsS'assert.h'
p2792
g302
(g1654
g304
Ntp2793
Rp2794
(dp2795
g1658
g1666
sg1659
g1688
sg328
S'c:/marmalade/7.2/s3e/h/std/assert.h'
p2796
sbsS'mman.h'
p2797
g302
(g1654
g304
Ntp2798
Rp2799
(dp2800
g1658
g1666
sg1659
g1827
sg328
S'c:/marmalade/7.2/s3e/h/std/sys/mman.h'
p2801
sbsS'IwRandom.h'
p2802
g302
(g1654
g304
Ntp2803
Rp2804
(dp2805
g1658
g1530
sg1659
g1700
sg328
g1539
sbsS'libgen.h'
p2806
g302
(g1654
g304
Ntp2807
Rp2808
(dp2809
g1658
g1666
sg1659
g1688
sg328
S'c:/marmalade/7.2/s3e/h/std/libgen.h'
p2810
sbsS'utsname.h'
p2811
g302
(g1654
g304
Ntp2812
Rp2813
(dp2814
g1658
g1666
sg1659
g1827
sg328
S'c:/marmalade/7.2/s3e/h/std/sys/utsname.h'
p2815
sbsS'gameObject.h'
p2816
g302
(g1654
g304
Ntp2817
Rp2818
(dp2819
g1658
g1195
sg1659
g1930
sg328
g1220
sbsS'wait.h'
p2820
g302
(g1654
g304
Ntp2821
Rp2822
(dp2823
g1658
g1666
sg1659
g1827
sg328
S'c:/marmalade/7.2/s3e/h/std/sys/wait.h'
p2824
sbsS'comet.h'
p2825
g302
(g1654
g304
Ntp2826
Rp2827
(dp2828
g1658
g1195
sg1659
g1930
sg328
g1200
sbsS'param.h'
p2829
g302
(g1654
g304
Ntp2830
Rp2831
(dp2832
g1658
g1666
sg1659
g1827
sg328
S'c:/marmalade/7.2/s3e/h/std/sys/param.h'
p2833
sbsS'IwDivide.h'
p2834
g302
(g1654
g304
Ntp2835
Rp2836
(dp2837
g1658
g1530
sg1659
g1700
sg328
g1626
sbsS'Iw2DSceneGraphCore.cpp'
p2838
g302
(g1654
g304
Ntp2839
Rp2840
(dp2841
g1658
g1523
sg1659
(lp2842
S"'Marmalade Studio'"
p2843
ag1516
asg328
g1524
sbsS'IwResManager.h'
p2844
g302
(g1654
g304
Ntp2845
Rp2846
(dp2847
g1658
g1442
sg1659
g1961
sg328
g1460
sbsS'IwSoundManager.h'
p2848
g302
(g1654
g304
Ntp2849
Rp2850
(dp2851
g1658
g1096
sg1659
g1717
sg328
g1104
sbsS'cwctype'
p2852
g302
(g1654
g304
Ntp2853
Rp2854
(dp2855
g1658
g1666
sg1659
g1667
sg328
S'c:/marmalade/7.2/s3e/h/std/c++/cwctype'
p2856
sbsS'set'
p2857
g302
(g1654
g304
Ntp2858
Rp2859
(dp2860
g1658
g1666
sg1659
g1667
sg328
S'c:/marmalade/7.2/s3e/h/std/c++/set'
p2861
sbsS'IwGeomSQuat.h'
p2862
g302
(g1654
g304
Ntp2863
Rp2864
(dp2865
g1658
g1374
sg1659
g1733
sg328
g1426
sbsS'locale'
p2866
g302
(g1654
g304
Ntp2867
Rp2868
(dp2869
g1658
g1666
sg1659
g1667
sg328
S'c:/marmalade/7.2/s3e/h/std/c++/locale'
p2870
sbsS'cstdio'
p2871
g302
(g1654
g304
Ntp2872
Rp2873
(dp2874
g1658
g1666
sg1659
g1667
sg328
S'c:/marmalade/7.2/s3e/h/std/c++/cstdio'
p2875
sbsS'cdjpeg.h'
p2876
g302
(g1654
g304
Ntp2877
Rp2878
(dp2879
g1658
g1052
sg1659
g1763
sg328
g1055
sbsS'IwList.h'
p2880
g302
(g1654
g304
Ntp2881
Rp2882
(dp2883
g1658
g1530
sg1659
g1700
sg328
g1543
sbsS's3eWebView_interface.cpp'
p2884
g302
(g1654
g304
Ntp2885
Rp2886
(dp2887
g1658
g1152
sg1659
g2455
sg328
g1153
sbsS'inttypes.h'
p2888
g302
(g1654
g304
Ntp2889
Rp2890
(dp2891
g1658
g1666
sg1659
g1688
sg328
S'c:/marmalade/7.2/s3e/h/std/inttypes.h'
p2892
sbsS'dirent.h'
p2893
g302
(g1654
g304
Ntp2894
Rp2895
(dp2896
g1658
g1666
sg1659
g1688
sg328
S'c:/marmalade/7.2/s3e/h/std/dirent.h'
p2897
sbsS'IwFColour.h'
p2898
g302
(g1654
g304
Ntp2899
Rp2900
(dp2901
g1658
g1466
sg1659
g1813
sg328
g1506
sbsS'transupp.h'
p2902
g302
(g1654
g304
Ntp2903
Rp2904
(dp2905
g1658
g1052
sg1659
g1763
sg328
g1059
sbsS'IwMath.h'
p2906
g302
(g1654
g304
Ntp2907
Rp2908
(dp2909
g1658
g1530
sg1659
g1700
sg328
g1549
sbsS'IwGeomQuat.h'
p2910
g302
(g1654
g304
Ntp2911
Rp2912
(dp2913
g1658
g1374
sg1659
g1733
sg328
g1428
sbsS'glplatform.h'
p2914
g302
(g1654
g304
Ntp2915
Rp2916
(dp2917
g1658
g1666
sg1659
g2064
sg328
S'c:/marmalade/7.2/s3e/h/GLES/glplatform.h'
p2918
sbsS'bitset'
p2919
g302
(g1654
g304
Ntp2920
Rp2921
(dp2922
g1658
g1666
sg1659
g1667
sg328
S'c:/marmalade/7.2/s3e/h/std/c++/bitset'
p2923
sbsS'alloca.h'
p2924
g302
(g1654
g304
Ntp2925
Rp2926
(dp2927
g1658
g1666
sg1659
g1688
sg328
S'c:/marmalade/7.2/s3e/h/std/alloca.h'
p2928
sbsS'IwResHandler.h'
p2929
g302
(g1654
g304
Ntp2930
Rp2931
(dp2932
g1658
g1442
sg1659
g1961
sg328
g1443
sbsS'comet.cpp'
p2933
g302
(g1654
g304
Ntp2934
Rp2935
(dp2936
g1658
g1195
sg1659
g1930
sg328
g1206
sbsS'IwResHandlerMTL.h'
p2937
g302
(g1654
g304
Ntp2938
Rp2939
(dp2940
g1658
g1466
sg1659
g1813
sg328
g1480
sbsS'IwRuntime.h'
p2941
g302
(g1654
g304
Ntp2942
Rp2943
(dp2944
g1658
g1530
sg1659
g1700
sg328
g1583
sbsS's3eFlurry.h'
p2945
g302
(g1654
g304
Ntp2946
Rp2947
(dp2948
g1658
g1181
sg1659
g1915
sg328
g1184
sbsS'limits'
p2949
g302
(g1654
g304
Ntp2950
Rp2951
(dp2952
g1658
g1666
sg1659
g1667
sg328
S'c:/marmalade/7.2/s3e/h/std/c++/limits'
p2953
sbsS'IwGeomBBox.h'
p2954
g302
(g1654
g304
Ntp2955
Rp2956
(dp2957
g1658
g1374
sg1659
g1733
sg328
g1403
sbsS'audioManager.h'
p2958
g302
(g1654
g304
Ntp2959
Rp2960
(dp2961
g1658
g1195
sg1659
g1706
sg328
g1270
sbsS's3eContacts.h'
p2962
g302
(g1654
g304
Ntp2963
Rp2964
(dp2965
g1658
g1666
sg1659
g1682
sg328
S'c:/marmalade/7.2/s3e/h/s3eContacts.h'
p2966
sbsS's3eLicense.h'
p2967
g302
(g1654
g304
Ntp2968
Rp2969
(dp2970
g1658
g1666
sg1659
g1682
sg328
S'c:/marmalade/7.2/s3e/h/s3eLicense.h'
p2971
sbsS'iwgx.config.txt'
p2972
g302
(g1654
g304
Ntp2973
Rp2974
(dp2975
g1658
g1466
sg1659
g1813
sg328
g1475
sbsS'IwTextParser.h'
p2976
g302
(g1654
g304
Ntp2977
Rp2978
(dp2979
g1658
g1530
sg1659
g1700
sg328
g1561
sbsS's3eTimer.h'
p2980
g302
(g1654
g304
Ntp2981
Rp2982
(dp2983
g1658
g1666
sg1659
g1682
sg328
S'c:/marmalade/7.2/s3e/h/s3eTimer.h'
p2984
sbsS'IwGeomVec.h'
p2985
g302
(g1654
g304
Ntp2986
Rp2987
(dp2988
g1658
g1374
sg1659
g1733
sg328
g1415
sbsS'IwSerialise.h'
p2989
g302
(g1654
g304
Ntp2990
Rp2991
(dp2992
g1658
g1530
sg1659
g1700
sg328
g1601
sbsS'cstdarg'
p2993
g302
(g1654
g304
Ntp2994
Rp2995
(dp2996
g1658
g1666
sg1659
g1667
sg328
S'c:/marmalade/7.2/s3e/h/std/c++/cstdarg'
p2997
sbsS'gl2ext.h'
p2998
g302
(g1654
g304
Ntp2999
Rp3000
(dp3001
g1658
g1666
sg1659
g1953
sg328
S'c:/marmalade/7.2/s3e/h/GLES2/gl2ext.h'
p3002
sbsS'IwChar.h'
p3003
g302
(g1654
g304
Ntp3004
Rp3005
(dp3006
g1658
g1530
sg1659
g1700
sg328
g1557
sbsS's3eSound.h'
p3007
g302
(g1654
g304
Ntp3008
Rp3009
(dp3010
g1658
g1666
sg1659
g1682
sg328
S'c:/marmalade/7.2/s3e/h/s3eSound.h'
p3011
sbsS'gameObject.cpp'
p3012
g302
(g1654
g304
Ntp3013
Rp3014
(dp3015
g1658
g1195
sg1659
g1930
sg328
g1218
sbsS's3eIOSBackgroundAudio.h'
p3016
g302
(g1654
g304
Ntp3017
Rp3018
(dp3019
g1658
g1666
sg1659
g1904
sg328
S'c:/marmalade/7.2/s3e/h/ext/s3eIOSBackgroundAudio.h'
p3020
sbsS'exception.h'
p3021
g302
(g1654
g304
Ntp3022
Rp3023
(dp3024
g1658
g1666
sg1659
g1667
sg328
S'c:/marmalade/7.2/s3e/h/std/c++/exception.h'
p3025
sbsS'iwgeom.config.txt'
p3026
g302
(g1654
g304
Ntp3027
Rp3028
(dp3029
g1658
g1374
sg1659
g1733
sg328
g1372
sbsS'iwgx.mkf'
p3030
g302
(g1654
g304
Ntp3031
Rp3032
(dp3033
g1658
g1479
sg1659
g1813
sg328
g1477
sbsS'gl.h'
p3034
g302
(g1654
g304
Ntp3035
Rp3036
(dp3037
g1658
g1666
sg1659
g2064
sg328
S'c:/marmalade/7.2/s3e/h/GLES/gl.h'
p3038
sbsS'savedataManager.h'
p3039
g302
(g1654
g304
Ntp3040
Rp3041
(dp3042
g1658
g1195
sg1659
g1706
sg328
g1254
sbsS's3eFacebook.defines.txt'
p3043
g302
(g1654
g304
Ntp3044
Rp3045
(dp3046
g1658
g1166
sg1659
(lp3047
S'Extensions'
p3048
ag1160
ag1162
asg328
g1167
sbsS'iwgl.mkf'
p3049
g302
(g1654
g304
Ntp3050
Rp3051
(dp3052
g1658
g1331
sg1659
g1676
sg328
g1329
sbsS'audioManager.cpp'
p3053
g302
(g1654
g304
Ntp3054
Rp3055
(dp3056
g1658
g1195
sg1659
g1706
sg328
g1274
sbsS'IwColour.h'
p3057
g302
(g1654
g304
Ntp3058
Rp3059
(dp3060
g1658
g1466
sg1659
g1813
sg328
g1508
sbsS'types.h'
p3061
g302
(g1654
g304
Ntp3062
Rp3063
(dp3064
g1658
g1666
sg1659
g1827
sg328
S'c:/marmalade/7.2/s3e/h/std/sys/types.h'
p3065
sbsS'ifaddrs.h'
p3066
g302
(g1654
g304
Ntp3067
Rp3068
(dp3069
g1658
g1666
sg1659
g1688
sg328
S'c:/marmalade/7.2/s3e/h/std/ifaddrs.h'
p3070
sbsS'triggersManager.h'
p3071
g302
(g1654
g304
Ntp3072
Rp3073
(dp3074
g1658
g1195
sg1659
g1706
sg328
g1256
sbsS'inputManager.cpp'
p3075
g302
(g1654
g304
Ntp3076
Rp3077
(dp3078
g1658
g1195
sg1659
g1706
sg328
g1272
sbsS'IwTween.cpp'
p3079
g302
(g1654
g304
Ntp3080
Rp3081
(dp3082
g1658
g1648
sg1659
g2230
sg328
g1646
sbsS'exception'
p3083
g302
(g1654
g304
Ntp3084
Rp3085
(dp3086
g1658
g1666
sg1659
g1667
sg328
S'c:/marmalade/7.2/s3e/h/std/c++/exception'
p3087
sbsS's3eFacebook_interface.cpp'
p3088
g302
(g1654
g304
Ntp3089
Rp3090
(dp3091
g1658
g1166
sg1659
g3047
sg328
g1164
sbsS'rlocks.h'
p3092
g302
(g1654
g304
Ntp3093
Rp3094
(dp3095
g1658
g1666
sg1659
g1667
sg328
S'c:/marmalade/7.2/s3e/h/std/c++/rlocks.h'
p3096
sbsS'ioctl.h'
p3097
g302
(g1654
g304
Ntp3098
Rp3099
(dp3100
g1658
g1666
sg1659
g1827
sg328
S'c:/marmalade/7.2/s3e/h/std/sys/ioctl.h'
p3101
sbsS'rope'
p3102
g302
(g1654
g304
Ntp3103
Rp3104
(dp3105
g1658
g1666
sg1659
g1667
sg328
S'c:/marmalade/7.2/s3e/h/std/c++/rope'
p3106
sbsS'jinclude.h'
p3107
g302
(g1654
g304
Ntp3108
Rp3109
(dp3110
g1658
g1052
sg1659
g1763
sg328
g1065
sbsS's3eFlurry_interface.cpp'
p3111
g302
(g1654
g304
Ntp3112
Rp3113
(dp3114
g1658
g1181
sg1659
g2594
sg328
g1179
sbsS's3eWebView.h'
p3115
g302
(g1654
g304
Ntp3116
Rp3117
(dp3118
g1658
g1152
sg1659
(lp3119
g2456
ag1146
asg328
g1155
sbsS'IwEvent.h'
p3120
g302
(g1654
g304
Ntp3121
Rp3122
(dp3123
g1658
g1530
sg1659
g1700
sg328
g1559
sbsS'IwOptimiseSize.h'
p3124
g302
(g1654
g304
Ntp3125
Rp3126
(dp3127
g1658
g1530
sg1659
g1700
sg328
g1563
sbsS'iwgxfont_public.defines.txt'
p3128
g302
(g1654
g304
Ntp3129
Rp3130
(dp3131
g1658
g1352
sg1659
g1660
sg328
g1357
sbsS'iconv.h'
p3132
g302
(g1654
g304
Ntp3133
Rp3134
(dp3135
g1658
g1666
sg1659
g1688
sg328
S'c:/marmalade/7.2/s3e/h/std/iconv.h'
p3136
sbsS's3eDevice.h'
p3137
g302
(g1654
g304
Ntp3138
Rp3139
(dp3140
g1658
g1666
sg1659
g1682
sg328
S'c:/marmalade/7.2/s3e/h/s3eDevice.h'
p3141
sbsS'IwGeomSphere.h'
p3142
g302
(g1654
g304
Ntp3143
Rp3144
(dp3145
g1658
g1374
sg1659
g1733
sg328
g1430
sbsS'tiniconv.mkf'
p3146
g302
(g1654
g304
Ntp3147
Rp3148
(dp3149
g1658
g1091
sg1659
g2179
sg328
g1089
sbsS'iw2dscenegraph.defines.txt'
p3150
g302
(g1654
g304
Ntp3151
Rp3152
(dp3153
g1658
g1316
sg1659
g2015
sg328
g1322
sbsS'jdct.h'
p3154
g302
(g1654
g304
Ntp3155
Rp3156
(dp3157
g1658
g1052
sg1659
g1763
sg328
g1067
sbsS'cctype'
p3158
g302
(g1654
g304
Ntp3159
Rp3160
(dp3161
g1658
g1666
sg1659
g1667
sg328
S'c:/marmalade/7.2/s3e/h/std/c++/cctype'
p3162
sbsS'IwSoundADPCM.cpp'
p3163
g302
(g1654
g304
Ntp3164
Rp3165
(dp3166
g1658
g1096
sg1659
g1717
sg328
g1102
sbsS's3eConfig.h'
p3167
g302
(g1654
g304
Ntp3168
Rp3169
(dp3170
g1658
g1666
sg1659
g1682
sg328
S'c:/marmalade/7.2/s3e/h/s3eConfig.h'
p3171
sbsS'IwHashString.h'
p3172
g302
(g1654
g304
Ntp3173
Rp3174
(dp3175
g1658
g1530
sg1659
g1700
sg328
g1628
sbsS'stat.h'
p3176
g302
(g1654
g304
Ntp3177
Rp3178
(dp3179
g1658
g1666
sg1659
g1827
sg328
S'c:/marmalade/7.2/s3e/h/std/sys/stat.h'
p3180
sbsS'byteswap.h'
p3181
g302
(g1654
g304
Ntp3182
Rp3183
(dp3184
g1658
g1666
sg1659
g1688
sg328
S'c:/marmalade/7.2/s3e/h/std/byteswap.h'
p3185
sbsS'iwresmanager.mkf'
p3186
g302
(g1654
g304
Ntp3187
Rp3188
(dp3189
g1658
g1447
sg1659
g1961
sg328
g1445
sbsS'IwUtilInitTerm.h'
p3190
g302
(g1654
g304
Ntp3191
Rp3192
(dp3193
g1658
g1530
sg1659
g1700
sg328
g1595
sbsS'star.h'
p3194
g302
(g1654
g304
Ntp3195
Rp3196
(dp3197
g1658
g1195
sg1659
g1930
sg328
g1198
sbsS'pthread_1.h'
p3198
g302
(g1654
g304
Ntp3199
Rp3200
(dp3201
g1658
g1666
sg1659
g1667
sg328
S'c:/marmalade/7.2/s3e/h/std/c++/pthread.h'
p3202
sbsS'iw2d.mkf'
p3203
g302
(g1654
g304
Ntp3204
Rp3205
(dp3206
g1658
g1347
sg1659
g1768
sg328
g1345
sbsS'complex'
p3207
g302
(g1654
g304
Ntp3208
Rp3209
(dp3210
g1658
g1666
sg1659
g1667
sg328
S'c:/marmalade/7.2/s3e/h/std/c++/complex'
p3211
sbsS'game.cpp'
p3212
g302
(g1654
g304
Ntp3213
Rp3214
(dp3215
g1658
g1195
sg1659
g1727
sg328
g1308
sbsS'algorithm'
p3216
g302
(g1654
g304
Ntp3217
Rp3218
(dp3219
g1658
g1666
sg1659
g1667
sg328
S'c:/marmalade/7.2/s3e/h/std/c++/algorithm'
p3220
sbsS's3e.icf'
p3221
g302
(g1654
g304
Ntp3222
Rp3223
(dp3224
g1658
g1666
sg1659
g1682
sg328
S'c:/marmalade/7.2/s3e/s3e.icf'
p3225
sbsS'sem.h'
p3226
g302
(g1654
g304
Ntp3227
Rp3228
(dp3229
g1658
g1666
sg1659
g1827
sg328
S'c:/marmalade/7.2/s3e/h/std/sys/sem.h'
p3230
sbsS'IwGxFontState.h'
p3231
g302
(g1654
g304
Ntp3232
Rp3233
(dp3234
g1658
g1352
sg1659
g1660
sg328
g1361
sbsS'stdio.h'
p3235
g302
(g1654
g304
Ntp3236
Rp3237
(dp3238
g1658
g1666
sg1659
g1688
sg328
S'c:/marmalade/7.2/s3e/h/std/stdio.h'
p3239
sbsS's3eFacebook.h'
p3240
g302
(g1654
g304
Ntp3241
Rp3242
(dp3243
g1658
g1166
sg1659
(lp3244
g3048
ag1160
ag1037
asg328
g1170
sbsS'jmemsys.h'
p3245
g302
(g1654
g304
Ntp3246
Rp3247
(dp3248
g1658
g1052
sg1659
g1763
sg328
g1071
sbsS'ios'
p3249
g302
(g1654
g304
Ntp3250
Rp3251
(dp3252
g1658
g1666
sg1659
g1667
sg328
S'c:/marmalade/7.2/s3e/h/std/c++/ios'
p3253
sbsS'IwTween.h'
p3254
g302
(g1654
g304
Ntp3255
Rp3256
(dp3257
g1658
g1648
sg1659
g2230
sg328
g1649
sbsS'stack'
p3258
g302
(g1654
g304
Ntp3259
Rp3260
(dp3261
g1658
g1666
sg1659
g1667
sg328
S'c:/marmalade/7.2/s3e/h/std/c++/stack'
p3262
sbsS'utils.h'
p3263
g302
(g1654
g304
Ntp3264
Rp3265
(dp3266
g1658
g1195
sg1659
g1695
sg328
g1230
sbsS'IwSoundParams.h'
p3267
g302
(g1654
g304
Ntp3268
Rp3269
(dp3270
g1658
g1096
sg1659
g1717
sg328
g1138
sbsS'new.h'
p3271
g302
(g1654
g304
Ntp3272
Rp3273
(dp3274
g1658
g1666
sg1659
g1667
sg328
S'c:/marmalade/7.2/s3e/h/std/c++/new.h'
p3275
sbsS'satellite.cpp'
p3276
g302
(g1654
g304
Ntp3277
Rp3278
(dp3279
g1658
g1195
sg1659
g1930
sg328
g1204
sbsS's3eEMail.h'
p3280
g302
(g1654
g304
Ntp3281
Rp3282
(dp3283
g1658
g1666
sg1659
g1904
sg328
S'c:/marmalade/7.2/s3e/h/ext/s3eEMail.h'
p3284
sbsS's3eVideo.h'
p3285
g302
(g1654
g304
Ntp3286
Rp3287
(dp3288
g1658
g1666
sg1659
g1682
sg328
S'c:/marmalade/7.2/s3e/h/s3eVideo.h'
p3289
sbsS'pngconf.h'
p3290
g302
(g1654
g304
Ntp3291
Rp3292
(dp3293
g1658
g1041
sg1659
g2475
sg328
g1042
sbsS'pwd.h'
p3294
g302
(g1654
g304
Ntp3295
Rp3296
(dp3297
g1658
g1666
sg1659
g1688
sg328
S'c:/marmalade/7.2/s3e/h/std/pwd.h'
p3298
sbsS'IwOptimiseThumb.h'
p3299
g302
(g1654
g304
Ntp3300
Rp3301
(dp3302
g1658
g1530
sg1659
g1700
sg328
g1587
sbsS'IwClip.h'
p3303
g302
(g1654
g304
Ntp3304
Rp3305
(dp3306
g1658
g1466
sg1659
g1813
sg328
g1488
sbsS'IwSoundInst.h'
p3307
g302
(g1654
g304
Ntp3308
Rp3309
(dp3310
g1658
g1096
sg1659
g1717
sg328
g1116
sbsS'iwresmanager.config.txt'
p3311
g302
(g1654
g304
Ntp3312
Rp3313
(dp3314
g1658
g1442
sg1659
g1961
sg328
g1452
sbsS'IwGxShaderTechnique.h'
p3315
g302
(g1654
g304
Ntp3316
Rp3317
(dp3318
g1658
g1466
sg1659
g1813
sg328
g1510
sbsS'getStars.h'
p3319
g302
(g1654
g304
Ntp3320
Rp3321
(dp3322
g1658
g1195
sg1659
g1727
sg328
g1290
sbsS'IwCore.h'
p3323
g302
(g1654
g304
Ntp3324
Rp3325
(dp3326
g1658
g1530
sg1659
g1700
sg328
g1528
sbsS'cfloat'
p3327
g302
(g1654
g304
Ntp3328
Rp3329
(dp3330
g1658
g1666
sg1659
g1667
sg328
S'c:/marmalade/7.2/s3e/h/std/c++/cfloat'
p3331
sbsS'IwGeomMat2D.h'
p3332
g302
(g1654
g304
Ntp3333
Rp3334
(dp3335
g1658
g1374
sg1659
g1733
sg328
g1381
sbsS'IwAllocator.h'
p3336
g302
(g1654
g304
Ntp3337
Rp3338
(dp3339
g1658
g1530
sg1659
g1700
sg328
g1567
sbsS'timerManager.cpp'
p3340
g302
(g1654
g304
Ntp3341
Rp3342
(dp3343
g1658
g1195
sg1659
g1706
sg328
g1244
sbsS'customize.h'
p3344
g302
(g1654
g304
Ntp3345
Rp3346
(dp3347
g1658
g1195
sg1659
g1727
sg328
g1284
sbsS'IwPath.h'
p3348
g302
(g1654
g304
Ntp3349
Rp3350
(dp3351
g1658
g1530
sg1659
g1700
sg328
g1603
sbsS'iwgxfont.mkf'
p3352
g302
(g1654
g304
Ntp3353
Rp3354
(dp3355
g1658
g1367
sg1659
g1660
sg328
g1365
sbsS'IwTexture.h'
p3356
g302
(g1654
g304
Ntp3357
Rp3358
(dp3359
g1658
g1466
sg1659
g1813
sg328
g1504
sbsS'vortex.cpp'
p3360
g302
(g1654
g304
Ntp3361
Rp3362
(dp3363
g1658
g1195
sg1659
g1930
sg328
g1216
sbsS's3eAccelerometer.h'
p3364
g302
(g1654
g304
Ntp3365
Rp3366
(dp3367
g1658
g1666
sg1659
g1682
sg328
S'c:/marmalade/7.2/s3e/h/s3eAccelerometer.h'
p3368
sbsS'setjmp.h'
p3369
g302
(g1654
g304
Ntp3370
Rp3371
(dp3372
g1658
g1666
sg1659
g1688
sg328
S'c:/marmalade/7.2/s3e/h/std/setjmp.h'
p3373
sbsS'items.cpp'
p3374
g302
(g1654
g304
Ntp3375
Rp3376
(dp3377
g1658
g1195
sg1659
g1727
sg328
g1282
sbsS'IwSoundParams.cpp'
p3378
g302
(g1654
g304
Ntp3379
Rp3380
(dp3381
g1658
g1096
sg1659
g1717
sg328
g1106
sbsS'IwFile.h'
p3382
g302
(g1654
g304
Ntp3383
Rp3384
(dp3385
g1658
g1530
sg1659
g1700
sg328
g1569
sbsS'IwTextParseable.h'
p3386
g302
(g1654
g304
Ntp3387
Rp3388
(dp3389
g1658
g1530
sg1659
g1700
sg328
g1622
sbsS'istream.h'
p3390
g302
(g1654
g304
Ntp3391
Rp3392
(dp3393
g1658
g1666
sg1659
g1667
sg328
S'c:/marmalade/7.2/s3e/h/std/c++/istream.h'
p3394
sbsS'stdint.h'
p3395
g302
(g1654
g304
Ntp3396
Rp3397
(dp3398
g1658
g1666
sg1659
g1688
sg328
S'c:/marmalade/7.2/s3e/h/std/stdint.h'
p3399
sbsS'semaphore.h'
p3400
g302
(g1654
g304
Ntp3401
Rp3402
(dp3403
g1658
g1666
sg1659
g1688
sg328
S'c:/marmalade/7.2/s3e/h/std/semaphore.h'
p3404
sbsS'ctime'
p3405
g302
(g1654
g304
Ntp3406
Rp3407
(dp3408
g1658
g1666
sg1659
g1667
sg328
S'c:/marmalade/7.2/s3e/h/std/c++/ctime'
p3409
sbsS'sstream'
p3410
g302
(g1654
g304
Ntp3411
Rp3412
(dp3413
g1658
g1666
sg1659
g1667
sg328
S'c:/marmalade/7.2/s3e/h/std/c++/sstream'
p3414
sbsS'IwGeomFBBox.h'
p3415
g302
(g1654
g304
Ntp3416
Rp3417
(dp3418
g1658
g1374
sg1659
g1733
sg328
g1436
sbsS'IwDebugPrim.h'
p3419
g302
(g1654
g304
Ntp3420
Rp3421
(dp3422
g1658
g1466
sg1659
g1813
sg328
g1494
sbsS'parallaxManager.cpp'
p3423
g302
(g1654
g304
Ntp3424
Rp3425
(dp3426
g1658
g1195
sg1659
g1706
sg328
g1258
sbsS'blackHole.cpp'
p3427
g302
(g1654
g304
Ntp3428
Rp3429
(dp3430
g1658
g1195
sg1659
g1930
sg328
g1210
sbsS'parallaxManager.h'
p3431
g302
(g1654
g304
Ntp3432
Rp3433
(dp3434
g1658
g1195
sg1659
g1706
sg328
g1276
sbsS'IwGxFontContainer.h'
p3435
g302
(g1654
g304
Ntp3436
Rp3437
(dp3438
g1658
g1352
sg1659
g1660
sg328
g1355
sbsS'player.h'
p3439
g302
(g1654
g304
Ntp3440
Rp3441
(dp3442
g1658
g1195
sg1659
g1930
sg328
g1193
sbsS'iw2dscenegraphcore.mkf'
p3443
g302
(g1654
g304
Ntp3444
Rp3445
(dp3446
g1658
g1520
sg1659
g2842
sg328
g1518
sbsS'resourceManager.cpp'
p3447
g302
(g1654
g304
Ntp3448
Rp3449
(dp3450
g1658
g1195
sg1659
g1706
sg328
g1278
sbsS's3eExt.h'
p3451
g302
(g1654
g304
Ntp3452
Rp3453
(dp3454
g1658
g1666
sg1659
g1682
sg328
S'c:/marmalade/7.2/s3e/h/s3eExt.h'
p3455
sbsS'IwGeomFVec3.h'
p3456
g302
(g1654
g304
Ntp3457
Rp3458
(dp3459
g1658
g1374
sg1659
g1733
sg328
g1391
sbsS'IwClip.inl'
p3460
g302
(g1654
g304
Ntp3461
Rp3462
(dp3463
g1658
g1466
sg1659
g1813
sg328
g1500
sbsS'streambuf'
p3464
g302
(g1654
g304
Ntp3465
Rp3466
(dp3467
g1658
g1666
sg1659
g1667
sg328
S'c:/marmalade/7.2/s3e/h/std/c++/streambuf'
p3468
sbsS'asteroid.h'
p3469
g302
(g1654
g304
Ntp3470
Rp3471
(dp3472
g1658
g1195
sg1659
g1930
sg328
g1212
sbsS's3eMetrics.h'
p3473
g302
(g1654
g304
Ntp3474
Rp3475
(dp3476
g1658
g1666
sg1659
g1904
sg328
S'c:/marmalade/7.2/s3e/h/ext/s3eMetrics.h'
p3477
sbsS'IwGxFont.h'
p3478
g302
(g1654
g304
Ntp3479
Rp3480
(dp3481
g1658
g1352
sg1659
g1660
sg328
g1350
sbsS's3eSecureStorage.h'
p3482
g302
(g1654
g304
Ntp3483
Rp3484
(dp3485
g1658
g1666
sg1659
g1682
sg328
S'c:/marmalade/7.2/s3e/h/s3eSecureStorage.h'
p3486
sbsS'string.h'
p3487
g302
(g1654
g304
Ntp3488
Rp3489
(dp3490
g1658
g1666
sg1659
g1688
sg328
S'c:/marmalade/7.2/s3e/h/std/string.h'
p3491
sbsS'IwResource.h'
p3492
g302
(g1654
g304
Ntp3493
Rp3494
(dp3495
g1658
g1530
sg1659
g1700
sg328
g1533
sbsS'IwGeomSVec2.h'
p3496
g302
(g1654
g304
Ntp3497
Rp3498
(dp3499
g1658
g1374
sg1659
g1733
sg328
g1397
sbsS'libjpeg.mkf'
p3500
g302
(g1654
g304
Ntp3501
Rp3502
(dp3503
g1658
g1081
sg1659
(lp3504
g1047
asg328
g1079
sbsS'IwGxDebug.h'
p3505
g302
(g1654
g304
Ntp3506
Rp3507
(dp3508
g1658
g1466
sg1659
g1813
sg328
g1492
sbsS'float.h'
p3509
g302
(g1654
g304
Ntp3510
Rp3511
(dp3512
g1658
g1666
sg1659
g1688
sg328
S'c:/marmalade/7.2/s3e/h/std/float.h'
p3513
sbsS'iomanip.h'
p3514
g302
(g1654
g304
Ntp3515
Rp3516
(dp3517
g1658
g1666
sg1659
g1667
sg328
S'c:/marmalade/7.2/s3e/h/std/c++/iomanip.h'
p3518
sbsS'IwKeymap.h'
p3519
g302
(g1654
g304
Ntp3520
Rp3521
(dp3522
g1658
g1530
sg1659
g1700
sg328
g1616
sbsS'IwDebug.h'
p3523
g302
(g1654
g304
Ntp3524
Rp3525
(dp3526
g1658
g1530
sg1659
g1700
sg328
g1624
sbsS'IwVariableBitField.h'
p3527
g302
(g1654
g304
Ntp3528
Rp3529
(dp3530
g1658
g1530
sg1659
g1700
sg328
g1573
sbsS'IwGeomMenu.h'
p3531
g302
(g1654
g304
Ntp3532
Rp3533
(dp3534
g1658
g1374
sg1659
g1733
sg328
g1383
sbsS'IwDivTable.h'
p3535
g302
(g1654
g304
Ntp3536
Rp3537
(dp3538
g1658
g1530
sg1659
g1700
sg328
g1551
sbsS'ctype.h'
p3539
g302
(g1654
g304
Ntp3540
Rp3541
(dp3542
g1658
g1666
sg1659
g1688
sg328
S'c:/marmalade/7.2/s3e/h/std/ctype.h'
p3543
sbsS'mainMenu.cpp'
p3544
g302
(g1654
g304
Ntp3545
Rp3546
(dp3547
g1658
g1195
sg1659
g1727
sg328
g1298
sbsS'IwResGroup.h'
p3548
g302
(g1654
g304
Ntp3549
Rp3550
(dp3551
g1658
g1442
sg1659
g1961
sg328
g1448
sbsS'signal_1.h'
p3552
g302
(g1654
g304
Ntp3553
Rp3554
(dp3555
g1658
g1666
sg1659
g1827
sg328
S'c:/marmalade/7.2/s3e/h/std/sys/signal.h'
p3556
sbsS'IwSoundData.cpp'
p3557
g302
(g1654
g304
Ntp3558
Rp3559
(dp3560
g1658
g1096
sg1659
g1717
sg328
g1108
sbsS'jerror.h'
p3561
g302
(g1654
g304
Ntp3562
Rp3563
(dp3564
g1658
g1052
sg1659
g1763
sg328
g1075
sbsS'shm.h'
p3565
g302
(g1654
g304
Ntp3566
Rp3567
(dp3568
g1658
g1666
sg1659
g1827
sg328
S'c:/marmalade/7.2/s3e/h/std/sys/shm.h'
p3569
sbsS'IwManagedList.h'
p3570
g302
(g1654
g304
Ntp3571
Rp3572
(dp3573
g1658
g1530
sg1659
g1700
sg328
g1541
sbsS'prctl.h'
p3574
g302
(g1654
g304
Ntp3575
Rp3576
(dp3577
g1658
g1666
sg1659
g1827
sg328
S'c:/marmalade/7.2/s3e/h/std/sys/prctl.h'
p3578
sbsS's3eCamera.h'
p3579
g302
(g1654
g304
Ntp3580
Rp3581
(dp3582
g1658
g1666
sg1659
g1682
sg328
S'c:/marmalade/7.2/s3e/h/s3eCamera.h'
p3583
sbsS'utility'
p3584
g302
(g1654
g304
Ntp3585
Rp3586
(dp3587
g1658
g1666
sg1659
g1667
sg328
S'c:/marmalade/7.2/s3e/h/std/c++/utility'
p3588
sbsS's3ewebview.mkf'
p3589
g302
(g1654
g304
Ntp3590
Rp3591
(dp3592
g1658
g1159
sg1659
g3119
sg328
g1157
sbsS'IwGeomLegacy.h'
p3593
g302
(g1654
g304
Ntp3594
Rp3595
(dp3596
g1658
g1374
sg1659
g1733
sg328
g1432
sbsS'IwTPage.h'
p3597
g302
(g1654
g304
Ntp3598
Rp3599
(dp3600
g1658
g1466
sg1659
g1813
sg328
g1464
sbsS'IwResSerialise.h'
p3601
g302
(g1654
g304
Ntp3602
Rp3603
(dp3604
g1658
g1442
sg1659
g1961
sg328
g1458
sbsS's3eCrypto.h'
p3605
g302
(g1654
g304
Ntp3606
Rp3607
(dp3608
g1658
g1666
sg1659
g1682
sg328
S'c:/marmalade/7.2/s3e/h/s3eCrypto.h'
p3609
sbsS's3eKeyboard.h'
p3610
g302
(g1654
g304
Ntp3611
Rp3612
(dp3613
g1658
g1666
sg1659
g1682
sg328
S'c:/marmalade/7.2/s3e/h/s3eKeyboard.h'
p3614
sbsS'fcntl.h'
p3615
g302
(g1654
g304
Ntp3616
Rp3617
(dp3618
g1658
g1666
sg1659
g1688
sg328
S'c:/marmalade/7.2/s3e/h/std/fcntl.h'
p3619
sbsS'Iw2DSceneGraphCore.h'
p3620
g302
(g1654
g304
Ntp3621
Rp3622
(dp3623
g1658
g1523
sg1659
g2842
sg328
g1521
sbsS'memory.h'
p3624
g302
(g1654
g304
Ntp3625
Rp3626
(dp3627
g1658
g1666
sg1659
g1688
sg328
S'c:/marmalade/7.2/s3e/h/std/memory.h'
p3628
sbsS'pthread.h'
p3629
g302
(g1654
g304
Ntp3630
Rp3631
(dp3632
g1658
g1666
sg1659
g1688
sg328
S'c:/marmalade/7.2/s3e/h/std/pthread.h'
p3633
sbsS'IwGeomIntersect.h'
p3634
g302
(g1654
g304
Ntp3635
Rp3636
(dp3637
g1658
g1374
sg1659
g1733
sg328
g1424
sbsS'netdb.h'
p3638
g302
(g1654
g304
Ntp3639
Rp3640
(dp3641
g1658
g1666
sg1659
g1688
sg328
S'c:/marmalade/7.2/s3e/h/std/netdb.h'
p3642
sbsS'sceneManager.h'
p3643
g302
(g1654
g304
Ntp3644
Rp3645
(dp3646
g1658
g1195
sg1659
g1706
sg328
g1266
sbsS'sceneManager.cpp'
p3647
g302
(g1654
g304
Ntp3648
Rp3649
(dp3650
g1658
g1195
sg1659
g1706
sg328
g1250
sbsS'Iw2DSceneGraph.cpp'
p3651
g302
(g1654
g304
Ntp3652
Rp3653
(dp3654
g1658
g1316
sg1659
g2015
sg328
g1314
sbsS'ostream.h'
p3655
g302
(g1654
g304
Ntp3656
Rp3657
(dp3658
g1658
g1666
sg1659
g1667
sg328
S'c:/marmalade/7.2/s3e/h/std/c++/ostream.h'
p3659
sbsS'stl_user_config.h'
p3660
g302
(g1654
g304
Ntp3661
Rp3662
(dp3663
g1658
g1666
sg1659
g1667
sg328
S'c:/marmalade/7.2/s3e/h/std/c++/stl_user_config.h'
p3664
sbsS'satellite.h'
p3665
g302
(g1654
g304
Ntp3666
Rp3667
(dp3668
g1658
g1195
sg1659
g1930
sg328
g1202
sbsS'IwProfileMenu.h'
p3669
g302
(g1654
g304
Ntp3670
Rp3671
(dp3672
g1658
g1530
sg1659
g1700
sg328
g1545
sbsS'MarmaladeVersion.h'
p3673
g302
(g1654
g304
Ntp3674
Rp3675
(dp3676
g1658
g1666
sg1659
g1682
sg328
S'c:/marmalade/7.2/s3e/h/MarmaladeVersion.h'
p3677
sbsS'IwResHandlerWAV.h'
p3678
g302
(g1654
g304
Ntp3679
Rp3680
(dp3681
g1658
g1096
sg1659
g1717
sg328
g1136
sbsS'options.h'
p3682
g302
(g1654
g304
Ntp3683
Rp3684
(dp3685
g1658
g1195
sg1659
g1727
sg328
g1294
sbsS'ios.h'
p3686
g302
(g1654
g304
Ntp3687
Rp3688
(dp3689
g1658
g1666
sg1659
g1667
sg328
S'c:/marmalade/7.2/s3e/h/std/c++/ios.h'
p3690
sbsS'store.cpp'
p3691
g302
(g1654
g304
Ntp3692
Rp3693
(dp3694
g1658
g1195
sg1659
g1727
sg328
g1302
sbsS'IwImageHelper.h'
p3695
g302
(g1654
g304
Ntp3696
Rp3697
(dp3698
g1658
g1530
sg1659
g1700
sg328
g1618
sbsS'zlib.h'
p3699
g302
(g1654
g304
Ntp3700
Rp3701
(dp3702
g1658
g1635
sg1659
g2410
sg328
g1636
sbsS'hash_set'
p3703
g302
(g1654
g304
Ntp3704
Rp3705
(dp3706
g1658
g1666
sg1659
g1667
sg328
S'c:/marmalade/7.2/s3e/h/std/c++/hash_set'
p3707
sbsS'IwGeomFQuat.h'
p3708
g302
(g1654
g304
Ntp3709
Rp3710
(dp3711
g1658
g1374
sg1659
g1733
sg328
g1409
sbsS'jmorecfg.h'
p3712
g302
(g1654
g304
Ntp3713
Rp3714
(dp3715
g1658
g1052
sg1659
g1763
sg328
g1073
sbsS'eglplatform.h'
p3716
g302
(g1654
g304
Ntp3717
Rp3718
(dp3719
g1658
g1666
sg1659
g2056
sg328
S'c:/marmalade/7.2/s3e/h/EGL/eglplatform.h'
p3720
sbsS'cmath'
p3721
g302
(g1654
g304
Ntp3722
Rp3723
(dp3724
g1658
g1666
sg1659
g1667
sg328
S'c:/marmalade/7.2/s3e/h/std/c++/cmath'
p3725
sbsS'math_gcc.h'
p3726
g302
(g1654
g304
Ntp3727
Rp3728
(dp3729
g1658
g1666
sg1659
g1688
sg328
S'c:/marmalade/7.2/s3e/h/std/math_gcc.h'
p3730
sbsS's3eMemory.h'
p3731
g302
(g1654
g304
Ntp3732
Rp3733
(dp3734
g1658
g1666
sg1659
g1682
sg328
S'c:/marmalade/7.2/s3e/h/s3eMemory.h'
p3735
sbsS'IwGeomSVec3.h'
p3736
g302
(g1654
g304
Ntp3737
Rp3738
(dp3739
g1658
g1374
sg1659
g1733
sg328
g1401
sbsS's3eFile.h'
p3740
g302
(g1654
g304
Ntp3741
Rp3742
(dp3743
g1658
g1666
sg1659
g1682
sg328
S'c:/marmalade/7.2/s3e/h/s3eFile.h'
p3744
sbsS'IwGxTypes.h'
p3745
g302
(g1654
g304
Ntp3746
Rp3747
(dp3748
g1658
g1466
sg1659
g1813
sg328
g1512
sbsS'cerrno'
p3749
g302
(g1654
g304
Ntp3750
Rp3751
(dp3752
g1658
g1666
sg1659
g1667
sg328
S'c:/marmalade/7.2/s3e/h/std/c++/cerrno'
p3753
sbsS'IwSoundManager.cpp'
p3754
g302
(g1654
g304
Ntp3755
Rp3756
(dp3757
g1658
g1096
sg1659
g1717
sg328
g1094
sbsS'main.h'
p3758
g302
(g1654
g304
Ntp3759
Rp3760
(dp3761
g1658
g1195
sg1659
g2036
sg328
g1236
sbsS'soundengine.mkf'
p3762
g302
(g1654
g304
Ntp3763
Rp3764
(dp3765
g1658
g1099
sg1659
g1717
sg328
g1097
sbsS'resource.h'
p3766
g302
(g1654
g304
Ntp3767
Rp3768
(dp3769
g1658
g1666
sg1659
g1827
sg328
S'c:/marmalade/7.2/s3e/h/std/sys/resource.h'
p3770
sbsS'clocale'
p3771
g302
(g1654
g304
Ntp3772
Rp3773
(dp3774
g1658
g1666
sg1659
g1667
sg328
S'c:/marmalade/7.2/s3e/h/std/c++/clocale'
p3775
sbsS'csetjmp'
p3776
g302
(g1654
g304
Ntp3777
Rp3778
(dp3779
g1658
g1666
sg1659
g1667
sg328
S'c:/marmalade/7.2/s3e/h/std/c++/csetjmp'
p3780
sbsS'IwTextParserITX.h'
p3781
g302
(g1654
g304
Ntp3782
Rp3783
(dp3784
g1658
g1530
sg1659
g1700
sg328
g1553
sbsS's3eAndroidJNI.h'
p3785
g302
(g1654
g304
Ntp3786
Rp3787
(dp3788
g1658
g1666
sg1659
g1904
sg328
S'c:/marmalade/7.2/s3e/h/ext/s3eAndroidJNI.h'
p3789
sbsS'stdexcept'
p3790
g302
(g1654
g304
Ntp3791
Rp3792
(dp3793
g1658
g1666
sg1659
g1667
sg328
S'c:/marmalade/7.2/s3e/h/std/c++/stdexcept'
p3794
sbsS'math.h'
p3795
g302
(g1654
g304
Ntp3796
Rp3797
(dp3798
g1658
g1666
sg1659
g1688
sg328
S'c:/marmalade/7.2/s3e/h/std/math.h'
p3799
sbsS'stdbool.h'
p3800
g302
(g1654
g304
Ntp3801
Rp3802
(dp3803
g1658
g1666
sg1659
g1688
sg328
S'c:/marmalade/7.2/s3e/h/std/stdbool.h'
p3804
sbsS'uio.h'
p3805
g302
(g1654
g304
Ntp3806
Rp3807
(dp3808
g1658
g1666
sg1659
g1827
sg328
S'c:/marmalade/7.2/s3e/h/std/sys/uio.h'
p3809
sbsS'IwUncopyable.h'
p3810
g302
(g1654
g304
Ntp3811
Rp3812
(dp3813
g1658
g1530
sg1659
g1700
sg328
g1575
sbsS's3efacebook.mkf'
p3814
g302
(g1654
g304
Ntp3815
Rp3816
(dp3817
g1658
g1174
sg1659
(lp3818
g3048
ag1160
asg328
g1172
sbssS'juice_build_type'
p3819
g4
sS'tests'
p3820
(lp3821
sS'project_name'
p3822
g310
sS'root_file'
p3823
g119
sS'current_root'
p3824
S'c:/Users/Vinicius/Desktop/Yes or No/Stars'
p3825
sS'dependencies'
p3826
(lp3827
sS'include_paths'
p3828
(lp3829
S'c:/marmalade/7.2/extensions/s3ewebview/h'
p3830
aS'c:/marmalade/7.2/modules/iwutil/h'
p3831
aS'c:/marmalade/7.2/modules/third_party/libjpeg/h'
p3832
aS'c:/marmalade/7.2/modules/third_party/zlib/h'
p3833
aS'c:/marmalade/7.2/modules/third_party/libpng/h'
p3834
aS'c:/marmalade/7.2/extensions/s3efacebook/h'
p3835
aS'c:/marmalade/7.2/modules/iw2d/h'
p3836
aS'c:/marmalade/7.2/modules/iwgx/h'
p3837
aS'c:/marmalade/7.2/modules/iwgl/h'
p3838
aS'c:/marmalade/7.2/modules/iwgeom/h'
p3839
aS'c:/marmalade/7.2/modules/iwresmanager/h'
p3840
aS'c:/marmalade/7.2/modules/iwgxfont/h'
p3841
aS'c:/marmalade/7.2/modules/third_party/tiniconv/source'
p3842
aS'c:/marmalade/7.2/modules/iw2dscenegraph/h'
p3843
aS'c:/marmalade/7.2/modules/iw2dscenegraphcore/h'
p3844
aS'c:/marmalade/7.2/modules/iwtween/h'
p3845
aS'c:/users/vinicius/desktop/yes or no/stars/modules/soundengine/h'
p3846
aS'c:/users/vinicius/desktop/yes or no/stars/modules/soundengine/source'
p3847
aS'c:/marmalade/7.2/extensions/s3eflurry/h'
p3848
aS'c:/marmalade/7.2/s3e/h'
p3849
aS'c:/marmalade/7.2/s3e/h/ext'
p3850
aS'c:/marmalade/7.2/s3e/h/std'
p3851
aS'c:/marmalade/7.2/s3e/h/std/c++'
p3852
aS'c:/marmalade/7.2/s3e/h/ext_legacy'
p3853
aS'c:/marmalade/7.2/s3e/h/legacy'
p3854
asS'weak_frameworks'
p3855
(lp3856
sS'extprojects'
p3857
(dp3858
sg605
(dp3859
g599
(lp3860
(S'c:/Users/Vinicius/Desktop/Yes or No/Stars/data/audio'
p3861
S'audio'
p3862
I0
tp3863
a(S'c:/Users/Vinicius/Desktop/Yes or No/Stars/data/textures'
p3864
S'textures'
p3865
I0
tp3866
a(S'c:/Users/Vinicius/Desktop/Yes or No/Stars/data-ram/data-gles1,c:/Users/Vinicius/Desktop/Yes or No/Stars/data'
p3867
S'.'
p3868
I0
tp3869
a(S'c:/marmalade/7.2/extensions/s3ewebview/s3eWebView.js'
p3870
S's3eWebView.js'
p3871
I0
tp3872
a(S'c:/marmalade/7.2/extensions/s3efacebook/source/iphone/facebook-ios-sdk/FacebookSDK.framework/Versions/A/Resources/FacebookSDKResources.bundle/FBDialog/images/fbicon.png'
p3873
S'FacebookSDKResources.bundle/FBDialog/images/fbicon.png'
p3874
I0
tp3875
a(S'c:/marmalade/7.2/extensions/s3efacebook/source/iphone/facebook-ios-sdk/FacebookSDK.framework/Versions/A/Resources/FacebookSDKResources.bundle/FBDialog/images/close.png'
p3876
S'FacebookSDKResources.bundle/FBDialog/images/close.png'
p3877
I0
tp3878
a(S'c:/marmalade/7.2/extensions/s3efacebook/source/iphone/facebook-ios-sdk/FacebookSDK.framework/Versions/A/Resources/FacebookSDKResources.bundle/FBDialog/images/close@2x.png'
p3879
S'FacebookSDKResources.bundle/FBDialog/images/close@2x.png'
p3880
I0
tp3881
a(S'c:/marmalade/7.2/extensions/s3efacebook/facebook-winclient-sdk-master/Source/Facebook.Client-WindowsStore/FacebookDialogPage.xaml'
p3882
S'FacebookDialogPage.xaml'
p3883
I0
tp3884
asS'WebView32Assets'
p3885
(lp3886
(S'c:/marmalade/7.2/extensions/s3ewebview/lib/win32/locales'
p3887
S'locales'
p3888
I0
tp3889
a(S'c:/marmalade/7.2/extensions/s3ewebview/lib/win32/avcodec-53.dll'
p3890
S'avcodec-53.dll'
p3891
I0
tp3892
a(S'c:/marmalade/7.2/extensions/s3ewebview/lib/win32/avformat-53.dll'
p3893
S'avformat-53.dll'
p3894
I0
tp3895
a(S'c:/marmalade/7.2/extensions/s3ewebview/lib/win32/avutil-51.dll'
p3896
S'avutil-51.dll'
p3897
I0
tp3898
a(S'c:/marmalade/7.2/extensions/s3ewebview/lib/win32/chrome.pak'
p3899
S'chrome.pak'
p3900
I0
tp3901
a(S'c:/marmalade/7.2/extensions/s3ewebview/lib/win32/d3dcompiler_43.dll'
p3902
S'd3dcompiler_43.dll'
p3903
I0
tp3904
a(S'c:/marmalade/7.2/extensions/s3ewebview/lib/win32/d3dx9_43.dll'
p3905
S'd3dx9_43.dll'
p3906
I0
tp3907
a(S'c:/marmalade/7.2/extensions/s3ewebview/lib/win32/icudt.dll'
p3908
S'icudt.dll'
p3909
I0
tp3910
a(S'c:/marmalade/7.2/extensions/s3ewebview/lib/win32/libcef.dll'
p3911
S'libcef.dll'
p3912
I0
tp3913
a(S'c:/marmalade/7.2/extensions/s3ewebview/lib/win32/libEGL.dll'
p3914
S'libEGL.dll'
p3915
I0
tp3916
a(S'c:/marmalade/7.2/extensions/s3ewebview/lib/win32/libGLESv2.dll'
p3917
S'libGLESv2.dll'
p3918
I0
tp3919
assS'macro_types'
p3920
(dp3921
g528
I0
sg530
I0
sg531
I0
sg532
I0
sg534
I1
sg535
I0
sg536
I0
sg537
I0
sg538
I0
sg539
I0
sg540
I0
sg541
I0
sg543
I0
sg544
I0
sg545
I0
sg546
I0
sg547
I0
sg549
I0
sg550
I0
sg551
I0
sg552
I0
sg553
I0
sg554
I0
sg555
I0
sg556
I0
sg557
I1
sg558
I0
sg559
I0
sg560
I0
sg561
I0
sg562
I0
sg563
I0
sg564
I0
sg565
I01
sg566
I1
sg567
I0
sg568
I0
sg569
I0
sg570
I0
sg571
I0
sg572
I0
sg573
I0
sg574
I0
ssS'commands'
p3922
(lp3923
sg607
(g1028
S'VC12X'
p3924
S'X86ARM'
p3925
tp3926
sS'build_libs'
p3927
(dp3928
sg609
g0
sS'frameworks'
p3929
(lp3930
sS'environ'
p3931
(dp3932
sS'target_name_debug'
p3933
g310
sS'builders'
p3934
(dp3935
g599
(dp3936
S'.S'
p3937
(dp3938
S'rvct'
p3939
(lp3940
S'.obj'
p3941
aS'echo ARM Assembling(RVCT) ${SOURCE}...'
p3942
aS'c:/marmalade/7.2/s3e\\rvct\\bin\\armasm -o ${TARGET} ${SOURCE}'
p3943
asS'gcc'
p3944
(lp3945
g3941
aS'echo ARM Assembling(GCC) ${SOURCE}...'
p3946
aS'c:/marmalade/7.2/s3e\\gcc\\bin\\arm-none-eabi-gcc -c -o ${TARGET} ${SOURCE}'
p3947
asS'ppu'
p3948
(lp3949
S'.a'
p3950
aS'echo PPU Assembling(SNC) ${SOURCE}...'
p3951
aS'c:/marmalade/7.2/s3e\\rvct\\bin\\armasm -o ${TARGET} ${SOURCE}'
p3952
assS'.s'
p3953
g3938
sS'.vp'
p3954
(lp3955
NaS'"C:/Marmalade/7.2/s3e/python/python.exe" "c:/marmalade/7.2/modules/iwgx/tools/compile_shaders.py" ${SOURCE}'
p3956
asssS'extproject_names'
p3957
(lp3958
sbtp3959
.