((dp0
S'arm_dbg_args'
p1
S'-via:"c:\\Users\\Vinicius\\Desktop\\Yes or No\\Stars\\build_stars_vc12x\\Stars_vc12x_arm_debug.via" -qemu'
p2
sS'game-icf'
p3
S''
p4
sS'dist'
p5
NsS'csproj'
p6
g4
sS'module_path_append'
p7
NsS'global_path'
p8
S'c:\\users\\vinicius\\desktop\\yes or no'
p9
sS'system_path'
p10
S'c:\\marmalade\\7.2\\s3e\\makefile_builder'
p11
sS'android_x86_dbg_args'
p12
S'../../tools/DeployTool/DeployTool.exe --dir "c:\\Users\\Vinicius\\Desktop\\Yes or No\\Stars\\build_stars_vc12x"'
p13
sS'use_prebuilt'
p14
NsS'arm_rel_rtsm_args'
p15
S'-via:"c:\\Users\\Vinicius\\Desktop\\Yes or No\\Stars\\build_stars_vc12x\\Stars_vc12x_arm_release.via" -qemu'
p16
sS'amd64'
p17
NsS'line-width'
p18
I80
sS'gcc_dbg_args'
p19
S'-via:"c:\\Users\\Vinicius\\Desktop\\Yes or No\\Stars\\build_stars_vc12x\\Stars_vc12x_gcc_debug.via" -qemu'
p20
sS'android-x86'
p21
NsS'x86_dbg_exe'
p22
S'c:/marmalade/7.2/s3e\\win32\\s3e_simulator_debug.exe'
p23
sS'disable-runtime-checks'
p24
NsS'release'
p25
NsS'no-make'
p26
NsS'optimise-size'
p27
NsS'output-name-debug'
p28
g4
sS'arm-fpu'
p29
S'vfp'
p30
sS'proj_name'
p31
S'Stars_vc12x'
p32
sS'rvct-version'
p33
S'none'
p34
sS'compiler'
p35
g4
sS'execute'
p36
NsS'compile-static'
p37
NsS'msvc-project'
p38
NsS'buildenv'
p39
S'VC12X'
p40
sS'quick'
p41
NsS'module_path'
p42
(lp43
S'c:/Users/Vinicius/Desktop/Yes or No/Stars/modules'
p44
asS'use-release-std-libs'
p45
NsS'using_perforce'
p46
I00
sS'tizen-x86'
p47
NsS'mips-s3e'
p48
NsS'ios-no-pic'
p49
NsS'shared-arm-lib'
p50
NsS'arm-cpu'
p51
g4
sS'compile-thumb'
p52
NsS'no-ide'
p53
NsS'msvc-version'
p54
S'6.0'
p55
sS'arm'
p56
NsS'builddir'
p57
g4
sS'compile-debug-as-release'
p58
I0
sS'brief'
p59
NsS'dll'
p60
NsS'buildenv-toolset'
p61
g4
sS'version'
p62
NsS'ccache'
p63
I0
sS'offline'
p64
NsS'ios-version'
p65
g4
sS'hub_data'
p66
g4
sS'fake_vc_call'
p67
I01
sS'jobs'
p68
I0
sS'linkflags'
p69
NsS'tizen-x86-toolsroot'
p70
S'c:/marmalade/7.2/s3e\\..\\tools\\gcc\\x86\\tizen_windows'
p71
sS'debug'
p72
NsS'xcode-build-order'
p73
g4
sS'gcc_rel_rtsm_args'
p74
S'-via:"c:\\Users\\Vinicius\\Desktop\\Yes or No\\Stars\\build_stars_vc12x\\Stars_vc12x_gcc_release.via" -qemu'
p75
sS'done_defaults'
p76
I1
sS'path'
p77
NsS's3e-data-dir'
p78
S'c:/Users/Vinicius/Desktop/Yes or No/Stars\\data'
p79
sS'enable-exceptions'
p80
NsS'osx-dll'
p81
NsS'extension'
p82
g4
sS'no-vc6'
p83
NsS'non-interactive'
p84
NsS'win32-console'
p85
NsS'dist-format'
p86
g4
sS's3e-force-arch'
p87
NsS'dump_defines'
p88
NsS'verbose'
p89
I0
sS'gcc-version'
p90
g4
sS'x86_dbg_args'
p91
S'-via:"c:\\Users\\Vinicius\\Desktop\\Yes or No\\Stars\\build_stars_vc12x\\Stars_vc12x_debug.via"'
p92
sS'tizen_x86_dbg_args'
p93
g13
sS'arm-debugger'
p94
g4
sS'use_temp_extension'
p95
NsS'log'
p96
NsS'no-strip'
p97
NsS'rebuild'
p98
NsS'win32-simulator-dll'
p99
NsS'strict'
p100
NsS'mips_dbg_args'
p101
g13
sS'enable-global-path'
p102
NsS'cflags'
p103
NsS'dist-dir'
p104
g4
sS'jflags'
p105
NsS'csprojSDKRefs'
p106
g4
sS'tizen_x86_rel_exe'
p107
S'c:\\marmalade\\7.2\\s3e\\makefile_builder\\tool_launcher.exe'
p108
sS'test-assets'
p109
g4
sS'distcc'
p110
NsS'external-compiler'
p111
NsS'no-distcc'
p112
NsS'preinclude'
p113
NsS'using_sdk'
p114
I01
sS'nologo'
p115
NsS'warn-level'
p116
I2
sS'mips_dbg_exe'
p117
g108
sS'mkb_in'
p118
S'c:/Users/Vinicius/Desktop/Yes or No/Stars/Stars.mkb'
p119
sS'tizen_x86_dbg_exe'
p120
g108
sS'arm_dbg_exe'
p121
S'c:/marmalade/7.2/s3e\\bin\\armdebug.exe'
p122
sS'csprojDLLRef'
p123
NsS'tizen_x86_rel_args'
p124
g13
sS'android_x86_dbg_exe'
p125
g108
sS'test-config'
p126
g4
sS'list-targets'
p127
NsS'arm_rel_exe'
p128
g108
sS'arm_rel_args'
p129
g13
sS'makedeps'
p130
NsS'android_x86_rel_exe'
p131
g108
sS'default-buildenv'
p132
S'VC12X'
p133
sS'x86_rel_exe'
p134
g23
sS'preprocess-java'
p135
NsS'mips_rel_args'
p136
g13
sS'defines'
p137
NsS'lib'
p138
NsS'global_argv'
p139
(lp140
S'C:\\Marmalade\\7.2\\s3e\\makefile_builder\\mkb.py'
p141
aS'C:/Users/Vinicius/Desktop/Yes or No/Stars/Stars.mkb'
p142
aS'--buildenv=VC12X'
p143
aS'--fake-vc-call'
p144
asS'make'
p145
NsS'optimise-speed'
p146
NsS'internal'
p147
NsS'enable-stdinc'
p148
NsS'deploy-only'
p149
NsS'x86'
p150
NsS'deploy'
p151
g4
sS'x86_run_exe'
p152
S'c:/marmalade/7.2/s3e\\win32\\s3e_console.exe'
p153
sS'x86_rel_args'
p154
S'-via:"c:\\Users\\Vinicius\\Desktop\\Yes or No\\Stars\\build_stars_vc12x\\Stars_vc12x_release.via"'
p155
sS'gcc_rel_args'
p156
g13
sS'mips'
p157
NsS'xcode-build-settings'
p158
g4
sS'incredibuild'
p159
NsS'strict-compile'
p160
NsS'use-auto-subdirs'
p161
NsS'mips_rel_exe'
p162
g108
sS'android_x86_rel_args'
p163
g13
sS'app-icf'
p164
g4
sS'deployargs'
p165
NsS'iosnativedebug'
p166
NsS'mkf_in'
p167
(lp168
S'c:\\marmalade\\7.2\\extensions\\s3ewebview\\s3ewebview.mkf'
p169
aS'c:\\marmalade\\7.2\\modules\\iwutil\\iwutil.mkf'
p170
aS'c:\\marmalade\\7.2\\modules\\third_party\\libjpeg\\libjpeg.mkf'
p171
aS'c:\\marmalade\\7.2\\modules\\third_party\\libpng\\libpng.mkf'
p172
aS'c:\\marmalade\\7.2\\modules\\third_party\\zlib\\zlib.mkf'
p173
aS'c:\\marmalade\\7.2\\extensions\\s3efacebook\\s3efacebook.mkf'
p174
aS'c:\\marmalade\\7.2\\modules\\iw2d\\iw2d.mkf'
p175
aS'c:\\marmalade\\7.2\\modules\\iwgx\\iwgx.mkf'
p176
aS'c:\\marmalade\\7.2\\modules\\iwgl\\iwgl.mkf'
p177
aS'c:\\marmalade\\7.2\\modules\\iwgeom\\iwgeom.mkf'
p178
aS'c:\\marmalade\\7.2\\modules\\iwresmanager\\iwresmanager.mkf'
p179
aS'c:\\marmalade\\7.2\\modules\\iwgxfont\\iwgxfont.mkf'
p180
aS'c:\\marmalade\\7.2\\modules\\third_party\\tiniconv\\tiniconv.mkf'
p181
aS'c:\\marmalade\\7.2\\modules\\iw2dscenegraph\\iw2dscenegraph.mkf'
p182
aS'c:\\marmalade\\7.2\\modules\\iw2dscenegraphcore\\iw2dscenegraphcore.mkf'
p183
aS'c:\\marmalade\\7.2\\modules\\iwtween\\iwtween.mkf'
p184
aS'c:\\users\\vinicius\\desktop\\yes or no\\stars\\modules\\soundengine\\soundengine.mkf'
p185
aS'c:\\marmalade\\7.2\\extensions\\s3eflurry\\s3eflurry.mkf'
p186
asS'strict-mkb'
p187
NsS'executeargs'
p188
NsS'clean'
p189
NsS'no-asm'
p190
NsS'output-name'
p191
g4
sS'no-modules'
p192
NsS'find_define'
p193
g4
s(dp194
S'c:\\marmalade\\7.2\\s3e\\makefile_builder\\templates\\ws8_sln.pyc'
p195
F1396656910.0
sS'c:\\marmalade\\7.2\\s3e\\makefile_builder\\plugins\\java.pyc'
p196
F1396656908.0
sS'c:\\marmalade\\7.2\\s3e\\makefile_builder\\plugins\\S3EEmitter.pyc'
p197
F1396656908.0
sS'c:\\marmalade\\7.2\\s3e\\makefile_builder\\templates\\win32_vcxproj_filters.pyc'
p198
F1396656910.0
sS'c:\\marmalade\\7.2\\s3e\\makefile_builder\\plugins\\xcode4_schememanagement.py'
p199
F1396655700.0
sS'c:\\marmalade\\7.2\\s3e\\makefile_builder\\plugins\\linux_scons.pyc'
p200
F1396656910.0
sS'c:\\marmalade\\7.2\\s3e\\makefile_builder\\templates\\wp8_sln.pyc'
p201
F1396656910.0
sS'c:\\marmalade\\7.2\\s3e\\makefile_builder\\templates\\ws8_ext_sln.pyc'
p202
F1396656910.0
sS'c:\\marmalade\\7.2\\s3e\\makefile_builder\\templates\\MainWindow.xib'
p203
F1396655700.0
sS'c:\\marmalade\\7.2\\s3e\\makefile_builder\\templates\\ws81_ext_sln.pyc'
p204
F1396656910.0
sS'c:\\marmalade\\7.2\\s3e\\makefile_builder\\plugins\\Win8Emitter.pyc'
p205
F1396656910.0
sS'c:\\marmalade\\7.2\\s3e\\makefile_builder\\templates\\win8_ext_csproj.pyc'
p206
F1396656910.0
sS'c:\\marmalade\\7.2\\s3e\\makefile_builder\\templates\\rvct_linker_script'
p207
F1396655702.0
sS'c:\\marmalade\\7.2\\s3e\\makefile_builder\\templates\\win8_sln.pyc'
p208
F1396656910.0
sS'c:\\marmalade\\7.2\\s3e\\makefile_builder\\templates\\ws8_ext_csproj.pyc'
p209
F1396656910.0
sS'c:\\marmalade\\7.2\\s3e\\makefile_builder\\plugins\\s3e_make.pyc'
p210
F1396656908.0
sS'c:\\marmalade\\7.2\\s3e\\makefile_builder\\templates\\wp8_csproj_user.pyc'
p211
F1396656910.0
sS'c:\\marmalade\\7.2\\s3e\\makefile_builder\\plugins\\s3e_scons.pyc'
p212
F1396656908.0
sS'c:\\marmalade\\7.2\\s3e\\makefile_builder\\plugins\\s3e_qmake.py'
p213
F1396655700.0
sS'c:\\marmalade\\7.2\\s3e\\makefile_builder\\docs\\deprecated.options.txt'
p214
F1396655698.0
sS'c:\\marmalade\\7.2\\s3e\\makefile_builder\\plugins\\ws8_ws8.pyc'
p215
F1396656910.0
sS'c:\\marmalade\\7.2\\s3e\\makefile_builder\\templates\\ws81_sln.pyc'
p216
F1396656910.0
sS'c:\\marmalade\\7.2\\s3e\\makefile_builder\\templates\\ws81_ext_csproj.pyc'
p217
F1396656910.0
sS'c:\\marmalade\\7.2\\s3e\\makefile_builder\\templates\\wp8_vcxproj.pyc'
p218
F1396656910.0
sS'c:\\marmalade\\7.2\\s3e\\makefile_builder\\templates\\vc6_opt.pyc'
p219
F1396656910.0
sS'c:\\marmalade\\7.2\\s3e\\makefile_builder\\plugins\\deploy.pyc'
p220
F1396656908.0
sS'c:\\marmalade\\7.2\\s3e\\makefile_builder\\templates\\scons.pyc'
p221
F1396656910.0
sS'c:\\marmalade\\7.2\\s3e\\makefile_builder\\templates\\win32_vcproj.pyc'
p222
F1396656910.0
sS'c:\\marmalade\\7.2\\s3e\\makefile_builder\\templates\\win8_csproj.pyc'
p223
F1396656910.0
sS'c:\\marmalade\\7.2\\s3e\\makefile_builder\\extensions\\make_dist.py'
p224
F1396655698.0
sS'c:\\marmalade\\7.2\\s3e\\makefile_builder\\templates\\gdb_start.txt'
p225
F1396655702.0
sS'c:\\marmalade\\7.2\\s3e\\makefile_builder\\templates\\vc8_user.pyc'
p226
F1396656910.0
sS'c:\\marmalade\\7.2\\s3e\\makefile_builder\\plugins\\s3e_win8.pyc'
p227
F1396656910.0
sS'c:\\marmalade\\7.2\\s3e\\makefile_builder\\templates\\win32_sln.pyc'
p228
F1396656910.0
sS'c:\\marmalade\\7.2\\s3e\\makefile_builder\\docs\\options.txt'
p229
F1396655698.0
sS'c:\\marmalade\\7.2\\s3e\\makefile_builder\\mkb.py'
p230
F1396655698.0
sS'c:\\marmalade\\7.2\\s3e\\makefile_builder\\templates\\Info.plist'
p231
F1396655700.0
sS'c:\\marmalade\\7.2\\s3e\\makefile_builder\\docs\\parse_options.pyc'
p232
F1396656912.0
sS'c:\\marmalade\\7.2\\s3e\\makefile_builder\\templates\\ws8_csproj.pyc'
p233
F1396656910.0
sS'c:\\marmalade\\7.2\\s3e\\makefile_builder\\templates\\ws81_csproj.pyc'
p234
F1396656910.0
sS'c:\\marmalade\\7.2\\s3e\\makefile_builder\\plugins\\osx_xcode.pyc'
p235
F1396656910.0
sS'c:\\marmalade\\7.2\\s3e\\makefile_builder\\plugins\\s3e_xcode.pyc'
p236
F1397674110.1375155
sS'c:\\marmalade\\7.2\\s3e\\makefile_builder\\plugins\\xcode4_schememanagement.pyc'
p237
F1397674109.1068296
sS'c:\\marmalade\\7.2\\s3e\\makefile_builder\\templates\\xcode4.xcscheme'
p238
F1396655704.0
sS'c:\\marmalade\\7.2\\s3e\\makefile_builder\\plugins\\Emitter.pyc'
p239
F1396656908.0
sS'c:\\marmalade\\7.2\\s3e\\makefile_builder\\templates\\mips_linker_script'
p240
F1396655702.0
sS'c:\\marmalade\\7.2\\s3e\\makefile_builder\\templates\\ws8_vcxproj.pyc'
p241
F1396656910.0
sS'c:\\marmalade\\7.2\\s3e\\makefile_builder\\plugins\\win32_vc6.pyc'
p242
F1396656910.0
sS'c:\\marmalade\\7.2\\s3e\\makefile_builder\\mkb_parser.pyc'
p243
F1396656908.0
sS'c:\\marmalade\\7.2\\s3e\\makefile_builder\\templates\\ws81_csproj_user.pyc'
p244
F1396656910.0
sS'c:\\marmalade\\7.2\\s3e\\makefile_builder\\templates\\linker_script'
p245
F1396655702.0
sS'c:\\marmalade\\7.2\\s3e\\makefile_builder\\docs\\deprecated.defines.txt'
p246
F1396655698.0
sS'c:\\marmalade\\7.2\\s3e\\makefile_builder\\templates\\template.suo'
p247
F1396655702.0
sS'c:\\marmalade\\7.2\\s3e\\makefile_builder\\templates\\make.py'
p248
F1396655702.0
sS'c:\\marmalade\\7.2\\s3e\\makefile_builder\\extensions'
p249
F1397673792.7230873
sS'c:\\marmalade\\7.2\\s3e\\makefile_builder\\templates\\win32_dsp.pyc'
p250
F1396656910.0
sS'c:\\marmalade\\7.2\\s3e\\makefile_builder\\templates\\wp8_ext_csproj.pyc'
p251
F1396656910.0
sS'c:\\marmalade\\7.2\\s3e\\makefile_builder\\plugins\\MakeEmitter.pyc'
p252
F1396656908.0
sS'c:\\marmalade\\7.2\\s3e\\makefile_builder\\plugins\\XcodeEmitter.pyc'
p253
F1397674109.0167696
sS'c:\\marmalade\\7.2\\s3e\\makefile_builder\\templates\\win32_dsw.pyc'
p254
F1396656910.0
sS'c:\\marmalade\\7.2\\s3e\\makefile_builder\\docs\\mkb.defines.txt'
p255
F1396655698.0
sS'c:\\marmalade\\7.2\\s3e\\makefile_builder\\docs\\deployment_options.txt'
p256
F1396655698.0
sS'c:\\marmalade\\7.2\\s3e\\makefile_builder\\plugins\\s3e_qmake.pyc'
p257
F1397674109.7792768
sS'c:\\marmalade\\7.2\\s3e\\makefile_builder\\plugins\\ws81_ws81.pyc'
p258
F1396656910.0
sS'c:\\marmalade\\7.2\\s3e\\makefile_builder\\templates\\win32_vcxproj.pyc'
p259
F1396656910.0
sS'c:\\marmalade\\7.2\\s3e\\makefile_builder\\docs'
p260
F1397673793.1573761
sS'c:\\marmalade\\7.2\\s3e\\makefile_builder\\plugins\\XcodeEmitter.py'
p261
F1396655698.0
sS'c:\\marmalade\\7.2\\s3e\\makefile_builder\\templates\\template.opt'
p262
F1396655702.0
sS'c:\\marmalade\\7.2\\s3e\\makefile_builder\\tool_launcher.exe'
p263
F1396656088.0
sS'c:\\marmalade\\7.2\\s3e\\makefile_builder\\templates\\xcode.py'
p264
F1396655702.0
sS'c:\\marmalade\\7.2\\s3e\\makefile_builder\\plugins\\VisualStudioEmitter.pyc'
p265
F1396656908.0
sS'c:\\marmalade\\7.2\\s3e\\makefile_builder\\plugins\\osx_scons.pyc'
p266
F1396656910.0
sS'c:\\marmalade\\7.2\\s3e\\makefile_builder\\templates'
p267
F1397673792.65204
sS'c:\\marmalade\\7.2\\s3e\\makefile_builder\\templates\\ws81_vcxproj.pyc'
p268
F1396656910.0
sS'c:\\marmalade\\7.2\\s3e\\makefile_builder\\templates\\win8_vcxproj.pyc'
p269
F1396656910.0
sS'c:\\marmalade\\7.2\\s3e\\makefile_builder\\plugins\\s3e_ws8.pyc'
p270
F1396656910.0
sS'c:\\marmalade\\7.2\\s3e\\makefile_builder\\templates\\wp8_csproj.pyc'
p271
F1396656910.0
sS'c:\\marmalade\\7.2\\s3e\\makefile_builder\\templates\\vc7_suo.pyc'
p272
F1396656910.0
sS'c:\\marmalade\\7.2\\s3e\\makefile_builder\\plugins\\SConsEmitter.pyc'
p273
F1396656908.0
sS'c:\\marmalade\\7.2\\s3e\\makefile_builder\\mkb_option.pyc'
p274
F1396656908.0
sS'c:\\marmalade\\7.2\\s3e\\makefile_builder\\templates\\ws8_csproj_user.pyc'
p275
F1396656910.0
sS'c:\\marmalade\\7.2\\s3e\\makefile_builder\\mkb_main.pyc'
p276
F1396656908.0
sS'c:\\marmalade\\7.2\\s3e\\makefile_builder\\plugins'
p277
F1397674110.1315114
sS'c:\\marmalade\\7.2\\s3e\\makefile_builder\\plugins\\s3e_web.pyc'
p278
F1396656908.0
sS'c:\\marmalade\\7.2\\s3e\\makefile_builder\\plugins\\s3e_ws81.pyc'
p279
F1396656910.0
sS'c:\\marmalade\\7.2\\s3e\\makefile_builder\\mkb_globals.pyc'
p280
F1396656908.0
sS'c:\\marmalade\\7.2\\s3e\\makefile_builder\\plugins\\iphone.pyc'
p281
F1396656910.0
sS'c:\\marmalade\\7.2\\s3e\\makefile_builder\\mkb_launcher.exe'
p282
F1396656088.0
sS'c:\\marmalade\\7.2\\s3e\\makefile_builder\\plugins\\vc7_utils.pyc'
p283
F1396656908.0
sS'c:\\marmalade\\7.2\\s3e\\makefile_builder\\plugins\\s3e_wp8.pyc'
p284
F1396656910.0
sS'c:\\marmalade\\7.2\\s3e\\makefile_builder\\plugins\\vc6_utils.pyc'
p285
F1396656908.0
sS'c:\\marmalade\\7.2\\s3e\\makefile_builder\\deployment.pyc'
p286
F1396656908.0
sS'c:\\marmalade\\7.2\\s3e\\makefile_builder\\plugins\\s3e_vc6.pyc'
p287
F1396656908.0
sS'c:\\marmalade\\7.2\\s3e\\makefile_builder\\plugins\\null.pyc'
p288
F1396656908.0
sS'c:\\marmalade\\7.2\\s3e\\makefile_builder\\templates\\qmake.py'
p289
F1396655702.0
sS'c:\\marmalade\\7.2\\s3e\\makefile_builder\\templates\\xcode4_DeployTool.xcscheme'
p290
F1396655704.0
sS'c:\\marmalade\\7.2\\s3e\\makefile_builder\\templates\\win8_csproj_user.pyc'
p291
F1396656910.0
sS'c:\\marmalade\\7.2\\s3e\\makefile_builder\\plugins\\win8_utils.pyc'
p292
F1396656908.0
sS'c:\\marmalade\\7.2\\s3e\\makefile_builder\\mkb_util.pyc'
p293
F1396656908.0
sS'c:\\marmalade\\7.2\\s3e\\makefile_builder\\plugins\\wp8_wp8.pyc'
p294
F1396656910.0
sS'c:\\marmalade\\7.2\\s3e\\makefile_builder\\plugins\\s3e_xcode.py'
p295
F1396655700.0
sS'c:\\marmalade\\7.2\\s3e\\makefile_builder\\templates\\vc10_user.pyc'
p296
F1396656910.0
sS'c:\\marmalade\\7.2\\s3e\\makefile_builder\\templates\\qmake_user.py'
p297
F1396655702.0
sS'c:\\marmalade\\7.2\\s3e\\makefile_builder\\templates\\xcode_pbxuser.py'
p298
F1396655704.0
sccopy_reg
_reconstructor
p299
(cmkb_main
MkbFile
p300
c__builtin__
object
p301
Ntp302
Rp303
(dp304
g5
(lp305
sS'target_name'
p306
S'Stars'
p307
sS'current_file'
p308
g119
sS'package_path'
p309
(lp310
sS'post_build'
p311
(lp312
(lp313
S'c:/marmalade/7.2/s3e/tools'
p314
aS'C:\\Marmalade\\7.2\\s3e\\python\\python.exe .\\process_map.py "$(TargetPath)"'
p315
aa(S'c:\\marmalade\\7.2\\s3e\\bin'
p316
S'"s3e_plink" -l "$(TargetPath)" '
p317
g150
tp318
asS'librarys'
p319
(lp320
g299
(cmkb_main
Library
p321
g301
Ntp322
Rp323
(dp324
S'name'
p325
S'vc6_compat.lib'
p326
sS'expand_name'
p327
I00
sS'include_spec_rvct_objs'
p328
(lp329
sS'include_all_objs'
p330
I00
sS'share_arm'
p331
I00
sS'arch'
p332
S'x86'
p333
sS'nodebug'
p334
I00
sg35
Nsbag299
(g321
g301
Ntp335
Rp336
(dp337
g325
S'iwutil'
p338
sg327
I01
sg328
(lp339
sg330
Nsg331
Nsg332
Nsg334
I00
sg35
Nsbag299
(g321
g301
Ntp340
Rp341
(dp342
g325
S'jpeg'
p343
sg327
I01
sg328
g339
sg330
Nsg331
Nsg332
Nsg334
I00
sg35
Nsbag299
(g321
g301
Ntp344
Rp345
(dp346
g325
S'z'
p347
sg327
I01
sg328
g339
sg330
Nsg331
Nsg332
Nsg334
I00
sg35
Nsbag299
(g321
g301
Ntp348
Rp349
(dp350
g325
S'png'
p351
sg327
I01
sg328
g339
sg330
Nsg331
Nsg332
Nsg334
I00
sg35
Nsbag299
(g321
g301
Ntp352
Rp353
(dp354
g325
S'iw2d'
p355
sg327
I01
sg328
g339
sg330
Nsg331
Nsg332
Nsg334
I00
sg35
Nsbag299
(g321
g301
Ntp356
Rp357
(dp358
g325
S'ATI_Compress_MT_VC7.lib'
p359
sg327
I00
sg328
g339
sg330
Nsg331
Nsg332
S'x86'
p360
sg334
I00
sg35
Nsbag299
(g321
g301
Ntp361
Rp362
(dp363
g325
S'iwgx'
p364
sg327
I01
sg328
g339
sg330
Nsg331
Nsg332
Nsg334
I00
sg35
Nsbag299
(g321
g301
Ntp365
Rp366
(dp367
g325
S'iwgl'
p368
sg327
I01
sg328
g339
sg330
Nsg331
Nsg332
Nsg334
I00
sg35
Nsbag299
(g321
g301
Ntp369
Rp370
(dp371
g325
S'iwgeom'
p372
sg327
I01
sg328
g339
sg330
Nsg331
Nsg332
Nsg334
I00
sg35
Nsbag299
(g321
g301
Ntp373
Rp374
(dp375
g325
S'iwresmanager'
p376
sg327
I01
sg328
g339
sg330
Nsg331
Nsg332
Nsg334
I00
sg35
Nsbag299
(g321
g301
Ntp377
Rp378
(dp379
g325
S'iwgxfont'
p380
sg327
I01
sg328
g339
sg330
Nsg331
Nsg332
Nsg334
I00
sg35
Nsbag299
(g321
g301
Ntp381
Rp382
(dp383
g325
S'tiniconv'
p384
sg327
I01
sg328
g339
sg330
Nsg331
Nsg332
Nsg334
I00
sg35
Nsbag299
(g321
g301
Ntp385
Rp386
(dp387
g325
S's3e_cpp'
p388
sg327
I01
sg328
g329
sg330
I00
sg331
I00
sg332
Nsg334
I00
sg35
Nsbag299
(g321
g301
Ntp389
Rp390
(dp391
g325
S's3e'
p392
sg327
I01
sg328
(lp393
S'iwcrt.o'
p394
asg330
I00
sg331
I00
sg332
Nsg334
I00
sg35
Nsbag299
(g321
g301
Ntp395
Rp396
(dp397
g325
S's3e_api'
p398
sg327
I01
sg328
g329
sg330
I00
sg331
I00
sg332
S'x86'
p399
sg334
I01
sg35
Nsbag299
(g321
g301
Ntp400
Rp401
(dp402
g325
S's3e_api'
p403
sg327
I01
sg328
g329
sg330
I00
sg331
I00
sg332
S'!x86'
p404
sg334
I01
sg35
Nsbag299
(g321
g301
Ntp405
Rp406
(dp407
g325
S'stdc++'
p408
sg327
I00
sg328
g329
sg330
I00
sg331
I00
sg332
S'mips'
p409
sg334
I00
sg35
Nsbag299
(g321
g301
Ntp410
Rp411
(dp412
g325
S'c'
p413
sg327
I00
sg328
g329
sg330
I00
sg331
I00
sg332
S'mips'
p414
sg334
I00
sg35
Nsbag299
(g321
g301
Ntp415
Rp416
(dp417
g325
S'm'
p418
sg327
I00
sg328
g329
sg330
I00
sg331
I00
sg332
S'mips'
p419
sg334
I00
sg35
Nsbag299
(g321
g301
Ntp420
Rp421
(dp422
g325
S'gcc'
p423
sg327
I00
sg328
g329
sg330
I00
sg331
I00
sg332
S'mips'
p424
sg334
I00
sg35
Nsbag299
(g321
g301
Ntp425
Rp426
(dp427
g325
S'stdc++'
p428
sg327
I00
sg328
g329
sg330
I00
sg331
I00
sg332
S'gcc_x86_tizen'
p429
sg334
I00
sg35
Nsbag299
(g321
g301
Ntp430
Rp431
(dp432
g325
g413
sg327
I00
sg328
g329
sg330
I00
sg331
I00
sg332
S'gcc_x86_tizen'
p433
sg334
I00
sg35
Nsbag299
(g321
g301
Ntp434
Rp435
(dp436
g325
g418
sg327
I00
sg328
g329
sg330
I00
sg331
I00
sg332
S'gcc_x86_tizen'
p437
sg334
I00
sg35
Nsbag299
(g321
g301
Ntp438
Rp439
(dp440
g325
S'gcc'
p441
sg327
I00
sg328
g329
sg330
I00
sg331
I00
sg332
S'gcc_x86_tizen'
p442
sg334
I00
sg35
Nsbag299
(g321
g301
Ntp443
Rp444
(dp445
g325
S'gcc_eh'
p446
sg327
I00
sg328
g329
sg330
I00
sg331
I00
sg332
S'gcc_x86_tizen'
p447
sg334
I00
sg35
Nsbag299
(g321
g301
Ntp448
Rp449
(dp450
g325
S'stdc++'
p451
sg327
I00
sg328
g329
sg330
I00
sg331
I00
sg332
S'gcc_x86_android'
p452
sg334
I00
sg35
Nsbag299
(g321
g301
Ntp453
Rp454
(dp455
g325
g413
sg327
I00
sg328
g329
sg330
I00
sg331
I00
sg332
S'gcc_x86_android'
p456
sg334
I00
sg35
Nsbag299
(g321
g301
Ntp457
Rp458
(dp459
g325
g418
sg327
I00
sg328
g329
sg330
I00
sg331
I00
sg332
S'gcc_x86_android'
p460
sg334
I00
sg35
Nsbag299
(g321
g301
Ntp461
Rp462
(dp463
g325
S'gcc'
p464
sg327
I00
sg328
g329
sg330
I00
sg331
I00
sg332
S'gcc_x86_android'
p465
sg334
I00
sg35
NsbasS'library_paths'
p466
(lp467
g299
(cmkb_main
LibraryPath
p468
g301
Ntp469
Rp470
(dp471
S'expand_path'
p472
I01
sS'add_cpu_variant'
p473
I00
sg325
S'c:/marmalade/7.2/modules/iwutil'
p474
sbag299
(g468
g301
Ntp475
Rp476
(dp477
g472
I01
sg473
I00
sg325
S'c:/marmalade/7.2/modules/third_party/libjpeg'
p478
sbag299
(g468
g301
Ntp479
Rp480
(dp481
g472
I01
sg473
I00
sg325
S'c:/marmalade/7.2/modules/third_party/zlib'
p482
sbag299
(g468
g301
Ntp483
Rp484
(dp485
g472
I01
sg473
I00
sg325
S'c:/marmalade/7.2/modules/third_party/libpng'
p486
sbag299
(g468
g301
Ntp487
Rp488
(dp489
g472
I01
sg473
I00
sg325
S'c:/marmalade/7.2/modules/iw2d'
p490
sbag299
(g468
g301
Ntp491
Rp492
(dp493
g472
I00
sg473
I00
sg325
S'c:/marmalade/7.2/modules/iwgx/atitools'
p494
sbag299
(g468
g301
Ntp495
Rp496
(dp497
g472
I01
sg473
I00
sg325
S'c:/marmalade/7.2/modules/iwgx'
p498
sbag299
(g468
g301
Ntp499
Rp500
(dp501
g472
I01
sg473
I00
sg325
S'c:/marmalade/7.2/modules/iwgl'
p502
sbag299
(g468
g301
Ntp503
Rp504
(dp505
g472
I01
sg473
I00
sg325
S'c:/marmalade/7.2/modules/iwgeom'
p506
sbag299
(g468
g301
Ntp507
Rp508
(dp509
g472
I01
sg473
I00
sg325
S'c:/marmalade/7.2/modules/iwresmanager'
p510
sbag299
(g468
g301
Ntp511
Rp512
(dp513
g472
I01
sg473
I00
sg325
S'c:/marmalade/7.2/modules/iwgxfont'
p514
sbag299
(g468
g301
Ntp515
Rp516
(dp517
g472
I01
sg473
I00
sg325
S'c:/marmalade/7.2/modules/third_party/tiniconv'
p518
sbag299
(g468
g301
Ntp519
Rp520
(dp521
g472
I01
sg473
I00
sg325
S'c:/marmalade/7.2/s3e'
p522
sbasS'macros'
p523
(dp524
S'IW_TRACE_CHANNEL_WEBVIEW_VERBOSE'
p525
S'2'
p526
sS'IW_MKF_S3EFACEBOOK'
p527
NsS'I3D_PLATFORM_S3E'
p528
NsS'IW_TRACE_CHANNEL_FLURRY'
p529
S'1'
p530
sS'IW_USE_CALLSTACK'
p531
NsS'__S3E__'
p532
NsS'IW_TRACE_CHANNEL_WEBVIEW'
p533
g530
sS'IW_MKF_LIBJPEG'
p534
NsS'I3D_OS_S3E'
p535
NsS'IW_ASSERTION_CHANNEL_FLURRY'
p536
g530
sS'IW_MKF_TINICONV'
p537
NsS'IW_APP_VERSION'
p538
S'"1.0"'
p539
sS'IW_MKF_IWRESMANAGER'
p540
NsS'IW_MKF_IWUTIL'
p541
NsS'IW_PLATFORM_S3E'
p542
NsS'IW_ASSERTION_CHANNEL_2D'
p543
g530
sS'IW_APP_NAME'
p544
S'"Stars"'
p545
sS'IW_MKF_IWGXFONT'
p546
NsS'IW_MKF_IWTWEEN'
p547
NsS'IW_MKF_S3EFLURRY'
p548
NsS'IW_MKF_ZLIB'
p549
NsS'IW_MKF_IWGX'
p550
NsS'IW_MKF_IW2DSCENEGRAPH'
p551
NsS'IW_MKF_SOUNDENGINE'
p552
NsS'IW_ASSERTION_CHANNEL_WEBVIEW'
p553
g530
sS'IW_USE_ASSERTIONS'
p554
NsS'_CRT_SECURE_NO_DEPRECATE'
p555
NsS'IW_MKF_IWGL'
p556
NsS'IW_MKF_LIBPNG'
p557
NsS'IW_MKF_S3EWEBVIEW'
p558
NsS'IW_TRACE_CHANNEL_IW_2DSCENEGRAPH'
p559
g530
sS'IW_ASSERTION_CHANNEL_FACEBOOK'
p560
g530
sS'IW_TRACE_CHANNEL_FACEBOOK_VERBOSE'
p561
g526
sS'IW_DEBUG'
p562
NsS'IW_USE_TRACING'
p563
NsS'IW_ASSERTION_CHANNEL_IW_2DSCENEGRAPH'
p564
g530
sS'IW_SDK'
p565
NsS'S3E_INCLUDE_LEGACY'
p566
NsS'IW_MKF_IW2DSCENEGRAPHCORE'
p567
NsS'IW_TRACE_CHANNEL_FACEBOOK'
p568
g530
sS'IW_TRACE_CHANNEL_FLURRY_VERBOSE'
p569
g526
sS'IW_MKF_IW2D'
p570
NsS'IW_MKF_IWGEOM'
p571
NssS'done_warnings'
p572
(dp573
sS'subprojects'
p574
(dp575
g180
S'iwgxfont'
p576
sg174
S's3eFacebook'
p577
sg169
S's3eWebView'
p578
sg170
S'iwutil'
p579
sg176
S'iwgx'
p580
sg183
S'../iw2dscenegraphcore'
p581
sg171
S'libjpeg'
p582
sg172
S'libpng'
p583
sg177
S'iwgl'
p584
sg184
S'iwtween'
p585
sg182
S'iw2dscenegraph'
p586
sg175
S'iw2d'
p587
sg178
S'iwgeom'
p588
sg181
S'tiniconv'
p589
sg173
S'zlib'
p590
sg185
S'SoundEngine'
p591
sg179
S'iwresmanager'
p592
sg186
S's3eFlurry'
p593
ssS'deployments'
p594
(dp595
S'Default'
p596
g299
(cdeployment
Deployment
p597
g301
Ntp598
Rp599
(dp600
S'got_version'
p601
I0
sS'assets'
p602
g596
sS'mkb'
p603
g303
sS'target'
p604
Nsg332
(lp605
sS'options'
p606
(dp607
S'iphone-link-lib'
p608
(lp609
S's3eWebView'
p610
aS's3eFacebook'
p611
aS'FlurryAnalytics'
p612
aS's3eFlurry'
p613
asS'game-icf'
p614
NsS'winmobile-icon32'
p615
NsS'ws8-logo-image150x150'
p616
NsS'ws81-product-version'
p617
NsS'osx-ext-dll'
p618
(lp619
S'c:/marmalade/7.2/extensions/s3ewebview/lib/osx/libs3eWebView.dylib'
p620
aS'c:/marmalade/7.2/extensions/s3eflurry/lib/osx/libs3eFlurry.dylib'
p621
asS'iphone-provisioning-profile'
p622
NsS'ws8-splash-screen-image620x300'
p623
NsS'ws8-ext-capabilities'
p624
(lp625
sS'android-icon-hdpi'
p626
NsS'brew-icon-large'
p627
NsS'iphone-splash-full-orient'
p628
NsS'wp8-tile-fliptemplate-supports-large'
p629
NsS'iphone-show-status-bar'
p630
NsS'roku-requires-mkv'
p631
NsS'long-caption'
p632
NsS'android-pkgname'
p633
NsS'blackberry-permissions-read-device-identifying-information'
p634
NsS'ws81-certificate-end-date'
p635
NsS'psp-dlgcontentid'
p636
NsS'target-folder'
p637
NsS'tizen-dist1-CA-path'
p638
NsS'symbian-icon2-format'
p639
NsS'iphone-region'
p640
NsS'uiq3-icon3-mask'
p641
NsS'brew-encoding'
p642
NsS'android-x86'
p643
NsS'nds-initialcode'
p644
NsS'iphone-persistent-wifi'
p645
NsS'psp-snd0'
p646
NsS'osx-signing-identity-inst'
p647
NsS'winmobile-install-folder'
p648
NsS'android-external-res'
p649
(lp650
S'c:/marmalade/7.2/extensions/s3efacebook/facebook-android-sdk/facebook/res'
p651
asS'ws8-product-version'
p652
NsS'brew-priviledges'
p653
NsS'symbian-icon2-mask-black'
p654
NsS'iphone-icon-ipad'
p655
NsS'roku-hidden'
p656
NsS'psp-titlename'
p657
NsS'symbian-icon1-mask'
p658
NsS'psp-parentallevel'
p659
NsS'splashscreen-use-all'
p660
NsS'wp8-author'
p661
NsS'symbian-disable-ecompxl'
p662
NsS'splashscreen-auto-onblack'
p663
NsS'win32-ext-dll'
p664
(lp665
S'c:/marmalade/7.2/extensions/s3ewebview/lib/win32/s3eWebView.dll'
p666
aS'c:/marmalade/7.2/extensions/s3eflurry/lib/win32/s3eFlurry.dll'
p667
asS'iphone-development-key'
p668
NsS'winmobile-icon48'
p669
NsS'android-unsigned'
p670
NsS'osx-appstore-category'
p671
NsS'version-revision'
p672
NsS'roku-icon-focus-sd'
p673
NsS'android-keystore'
p674
NsS'winmobile-png90'
p675
NsS'iphone-icon-ipad-high-res'
p676
NsS'iphone-disable-ipad'
p677
NsS'wp8-product-id'
p678
NsS'wp8-ext-capabilities'
p679
(lp680
sS'iphone-ipad-only'
p681
NsS'symbian-icon1-mask-black'
p682
NsS'iphone-bundle-localisations'
p683
NsS'winmobile-png60'
p684
NsS'blackberry-permissions-access-shared'
p685
NsS'blackberry-author'
p686
NsS'android-icon-xxxhdpi'
p687
NsS'olddeploytoolstyle'
p688
NsS'android_icon_gallery'
p689
NsS'winmobile-cab-compress'
p690
NsS'ws81-ext-managed-dll'
p691
(lp692
sS'win32-icon'
p693
NsS'symbian-key'
p694
NsS'app-icf'
p695
NsS'blackberry-storepass'
p696
NsS'wp8-tile-fliptemplate-back-title'
p697
NsS'brew-compress-loader'
p698
NsS'win32-pref-windowposy'
p699
NsS'win32-pref-windowposx'
p700
NsS'roku-requires-audiometadata'
p701
NsS'wp8-exclude-low-mem'
p702
NsS'wp8-tile-fliptemplate-title'
p703
NsS'iphone-icon-ipad-search-high-res'
p704
NsS'iphone-link-libdir'
p705
(lp706
S'c:/marmalade/7.2/extensions/s3ewebview/lib/iphone'
p707
aS'c:/marmalade/7.2/extensions/s3efacebook/lib/iphone'
p708
aS'c:/marmalade/7.2/extensions/s3eflurry/lib/iphone'
p709
asS'blackberry-permissions-read-geolocation'
p710
NsS'winmobile-nouninstall'
p711
NsS'tizen-signed'
p712
NsS'android-extra-application-manifest'
p713
(lp714
S'c:/marmalade/7.2/extensions/s3efacebook/source/android/extra_app_manifest.xml'
p715
asS'ws8-ext-native-dll'
p716
(lp717
sS'symbian-icon2-mask'
p718
NsS'iphone-backgroundmode-audio'
p719
NsS'webos-memory'
p720
NsS'android-keypass'
p721
NsS'name'
p722
NsS'uiq3-icon2-format'
p723
NsS'roku-splash-screen-sd'
p724
NsS'auto-derbh'
p725
NsS'roku-icon-side-sd'
p726
NsS'symbian-maxheapsize'
p727
NsS'nds-publicsavedatasize'
p728
NsS'splashscreen'
p729
NsS'brew-mif'
p730
NsS'iphone-icon-settings-high-res'
p731
NsS'android-manifest'
p732
NsS'ws81-splash-screen-image620x300'
p733
NsS's3e-compression'
p734
NsS'tizen-author-password'
p735
NsS'wp8-tile-fliptemplate-back-content'
p736
NsS'symbian-icon1'
p737
NsS'symbian-icon2'
p738
NsS'android-extra-styles-file'
p739
NsS'nds-bannertitle-jp'
p740
NsS'osx-sign-for-store'
p741
NsS'symbian7-uid'
p742
NsS'wp8-tile-fliptemplate-large-back-content'
p743
NsS'nds-bannertitle-cn'
p744
NsS'iphone-distribution-key'
p745
NsS'android-icon-gallery'
p746
NsS'blackberry-keystore'
p747
NsS'iphone-nosign'
p748
NsS'caption'
p749
NsS'android-extra-manifest'
p750
(lp751
sS'android-icon-xxhdpi'
p752
NsS'version-minor'
p753
NsS'iphone-link-libdirs'
p754
(lp755
sS'iphone-icon-large'
p756
NsS'symbian-keypwd'
p757
NsS'symbian8-uid'
p758
NsS'symbian-cert-key'
p759
NsS'winmobile-ampd-part-number'
p760
NsS'arch'
p761
NsS'nds-romheadertemplate'
p762
NsS'webos-icon'
p763
NsS'psp-dlgprotectdocument'
p764
NsS'android-icon-mdpi'
p765
NsS'nds-icon'
p766
NsS'ws8-custom-manifest-fill'
p767
NsS'iphone-development-cert'
p768
NsS'blackberry-phone-icon'
p769
NsS'iphone-enable-4inch-retina'
p770
NsS'ws8-custom-manifest'
p771
NsS'version-major'
p772
NsS'wp8-genre-isgame'
p773
NsS'uiq3-uid'
p774
NsS'iphone-splash-retina-generate'
p775
NsS'tizen-hw-acceleration'
p776
NsS'iphone_bundle_localisations'
p777
NsS'tizen-dist1-key'
p778
NsS'wp8-custom-manifest'
p779
NsS'nds-bannertitle-ge'
p780
NsS'iphone-sign-for-distribution'
p781
NsS'wp8-tile-fliptemplate-medium-back-image'
p782
NsS'wp8-publisher-id'
p783
NsS'icon'
p784
NsS'wp8-exclude-wxga'
p785
NsS'uiq3-icon2-mask'
p786
NsS'iphone-splashscreen-portrait'
p787
NsS'iphone-icon-high-res'
p788
NsS'ws81-distribution-pfx-password'
p789
NsS'playbook-author'
p790
NsS'android-icon-xhdpi'
p791
NsS'linux-ext-lib'
p792
(lp793
sS'blackberry-permissions-access-internet'
p794
NsS'wp8-exclude-720p'
p795
NsS'lgtv-use-drm'
p796
NsS'symbian-platsecflags'
p797
NsS'ws8-description'
p798
NsS'blackberry-playbook-icon'
p799
NsS'copyright'
p800
NsS'version'
p801
NsS'ws81-logo-image150x150'
p802
NsS'osx-signing-identity-app'
p803
NsS'tizen-project-url'
p804
NsS'symbian-icon-svg'
p805
NsS'android-aliasname'
p806
NsS'psp-dlgmanual'
p807
NsS'brew-uid'
p808
NsS'symbian-locationsupport'
p809
NsS'ws8-ext-managed-dll'
p810
(lp811
sS'nds-bannertitle-it'
p812
NsS'ws8-ext-sdk-manifest-part'
p813
(lp814
sS'uiq3-icon1-mask'
p815
NsS'winmobile-icon16'
p816
NsS'ws8-product-name'
p817
NsS'blackberry-cskpass'
p818
NsS'winmobile-start-menu-folder'
p819
NsS'brew-clsid'
p820
NsS'roku-requires-bluetooth'
p821
NsS'ws8-ext-device-capabilities'
p822
(lp823
sS'blackberry-permissions-use-camera'
p824
NsS'iphone-prerendered-icon'
p825
NsS'iphone-appid'
p826
S'com.yesornogames.countingstarts'
p827
sS'ws8-identity-name'
p828
NsS'tizen-dist2-CA-path'
p829
NsS'winmobile-icon64'
p830
NsS'blackberry-permissions-post-notification'
p831
NsS'winmobile-setup-dll'
p832
NsS'android-external-jars'
p833
(lp834
S'c:/marmalade/7.2/extensions/s3ewebview/lib/android/s3eWebView.jar'
p835
aS'c:/marmalade/7.2/extensions/s3efacebook/lib/android/s3eFacebook.jar'
p836
aS'c:/marmalade/7.2/extensions/s3efacebook/facebook-android-sdk/libs/android-support-v4.jar'
p837
aS'c:/marmalade/7.2/extensions/s3efacebook/lib/android/annotations-4.1.1.4.jar'
p838
aS'c:/marmalade/7.2/extensions/s3eflurry/lib/android/s3eFlurry.jar'
p839
aS'c:/marmalade/7.2/extensions/s3eflurry/lib/android/FlurryAgent.jar'
p840
asS'symbian9-uid'
p841
NsS'iphone-icon-ipad-ios7'
p842
NsS'winmobile-trace-file'
p843
NsS'roku-splash-color'
p844
NsS'psp-appversion'
p845
NsS'ws8-publisher-id'
p846
NsS'android-supports-gl-texture'
p847
(lp848
sS'winmobile-png45'
p849
NsS'android-storepass'
p850
NsS'roku-icon-focus-hd'
p851
NsS'android-custom-activity'
p852
NsS'psp-discversion'
p853
NsS'psp-copyright'
p854
NsS'embed-icf'
p855
NsS'tizen-manifest'
p856
NsS'osx-icon'
p857
NsS'webos-appinfo'
p858
NsS'psp-dlghealthwarning'
p859
NsS'webos-appid'
p860
NsS'roku-icon-side-hd'
p861
NsS'iphone-icon-ipad-search-high-res-ios7'
p862
NsS'ws81-ext-sdk-manifest-part'
p863
(lp864
sS'loader_name_prefix'
p865
NsS'nds-titlename'
p866
NsS'ws81-logo-image50x50'
p867
NsS'osx-entitlements-plist'
p868
NsS'psp-dlgicon0'
p869
NsS'ws81-ext-device-capabilities'
p870
(lp871
sS'psp-discid'
p872
NsS'tizen-dist2-password'
p873
NsS'ws8-ext-sdk-ref'
p874
(lp875
sS'iphone-extra-string'
p876
(lp877
sS'version-string'
p878
NsS'iphone-icon-high-res-ios7'
p879
NsS'blackberry-permissions-record-audio'
p880
NsS'ws8-certificate-end-date'
p881
NsS'tizen-so'
p882
(lp883
sS'wp8-tile-fliptemplate-small-image'
p884
NsS'pkguid-as-uid'
p885
NsS'iphone-signing-identity'
p886
NsS'roku-persist-quota'
p887
NsS'nds-bannertitle-fr'
p888
NsS'ws8-distribution-pfx'
p889
NsS'ws8-publisher-display-name'
p890
NsS'brew-icon-small'
p891
NsS'psp-dlgpic2'
p892
NsS'psp-dlgpic0'
p893
NsS'psp-pic0'
p894
NsS'psp-pic1'
p895
NsS'psp-icon0'
p896
NsS'psp-icon1'
p897
NsS'ws81-identity-name'
p898
NsS'winmobile-icon'
p899
NsS'iphone-no-splash'
p900
NsS'iphone-splash'
p901
NsS'iphone-app-fonts'
p902
NsS'wp8-ext-native-dll'
p903
(lp904
S'c:/marmalade/7.2/extensions/s3ewebview/lib/wp8/s3eWebViewExtension.dll'
p905
aS'c:/marmalade/7.2/extensions/s3efacebook/lib/wp8/s3eFacebookExtension.dll'
p906
aS'c:/marmalade/7.2/extensions/s3eflurry/lib/wp8/s3eFlurryExtension.dll'
p907
asS'ws81-distribution-cer'
p908
NsS'uiq3-icon2'
p909
NsS'uiq3-icon3'
p910
NsS'uiq3-icon1'
p911
NsS'uiq3-icon1-format'
p912
NsS'ws8-logo-image50x50'
p913
NsS'iphone-icon-ipad-search'
p914
NsS'symbian-run-on-install'
p915
NsS'ws81-publisher-display-name'
p916
NsS'ws81-custom-manifest-fill'
p917
NsS'symbian-soundrecordsupport'
p918
NsS'nds-bannertitle-sp'
p919
NsS'psp-producer'
p920
NsS'iphone-apple-wwdr-cert'
p921
NsS'android-icon-nonstandard'
p922
NsS'win32-pref-processtitle'
p923
NsS'nds-bannertitle-hn'
p924
NsS'tizen-dist2-key'
p925
NsS'brew-depends'
p926
NsS'ws81-custom-manifest'
p927
NsS'iphone-icon-ipad-search-ios7'
p928
NsS'brew-icon-medium'
p929
NsS'iphone-bundle-url-name'
p930
S'com.yesornogames.countingstarts'
p931
sS'wp8-tile-fliptemplate-large-front-image'
p932
NsS'tizen-dist2-CA-root-path'
p933
NsS'ws81-description'
p934
NsS'uiq3-icon3-format'
p935
NsS'ws81-logo-image30x30'
p936
NsS'iphone-signing-host'
p937
NsS'tizen-icon'
p938
NsS'osx-info-plist'
p939
NsS'symbian-icon1-format'
p940
NsS'ws81-distribution-pfx'
p941
NsS'blackberry-authorid'
p942
NsS'ws81-publisher-id'
p943
NsS'ws81-ext-sdk-ref'
p944
(lp945
sS'wp8-description'
p946
NsS'iphone-link-opts'
p947
(lp948
S'-F$MARMALADE_ROOT/extensions/s3eFacebook/source/iphone/facebook-ios-sdk -framework FacebookSDK -weak_framework AdSupport -weak_framework Accounts -weak_framework Social -lsqlite3'
p949
aS'-framework SystemConfiguration -framework Security'
p950
asS'roku-splash-min-time'
p951
NsS'wp8-tile-fliptemplate-medium-front-image'
p952
NsS'provider'
p953
NsS'playbook-keystore'
p954
NsS'tizen-appid'
p955
NsS'tizen-author-key'
p956
NsS'symbian-osexecsupport'
p957
NsS'android-install-location'
p958
NsS'nds-privatesavedatasize'
p959
NsS'playbook-storepass'
p960
NsS'android-icon-ldpi'
p961
NsS'manufacturer'
p962
NsS'itunes-artwork'
p963
NsS'iphone-extra-sections'
p964
NsS'ws81-product-name'
p965
NsS'ws81-ext-native-dll'
p966
(lp967
sS'iphone-info-plist'
p968
NsS'ws8-distribution-pfx-password'
p969
NsS'ws8-logo-image30x30'
p970
NsS'wp8-ext-managed-dll'
p971
(lp972
S'c:/marmalade/7.2/extensions/s3ewebview/lib/wp8/s3eWebViewManaged.dll'
p973
aS'c:/marmalade/7.2/extensions/s3efacebook/lib/wp8/s3eFacebookManaged.dll'
p974
aS'c:/marmalade/7.2/extensions/s3efacebook/facebook_wp8_lib/Facebook.Client.dll'
p975
aS'c:/marmalade/7.2/extensions/s3efacebook/facebook_wp8_lib/Facebook.dll'
p976
aS'c:/marmalade/7.2/extensions/s3eflurry/lib/wp8/FlurryWP8SDK.dll'
p977
aS'c:/marmalade/7.2/extensions/s3eflurry/lib/wp8/s3eFlurryManaged.dll'
p978
asS'iphone-splashscreen-landscape'
p979
NsS'nds-makercode'
p980
NsS'priv-sign-key'
p981
NsS'networking'
p982
NsS'android-icon'
p983
NsS'iphone-icon-settings'
p984
NsS'iphone-distribution-cert'
p985
NsS'android_extra_strings'
p986
NsS'nds-bannertitle-en'
p987
NsS'playbook-cskpass'
p988
NsS'android-so'
p989
(lp990
S'c:/marmalade/7.2/extensions/s3ewebview/lib/android/libs3eWebView.so'
p991
aS'c:/marmalade/7.2/extensions/s3efacebook/lib/android/libs3eFacebook.so'
p992
aS'c:/marmalade/7.2/extensions/s3eflurry/lib/android/libs3eFlurry.so'
p993
asS'wp8-higher-mem'
p994
NsS'roku-splash-screen-hd'
p995
NsS'iphone-bundle-url-schemes'
p996
S'fd<FACEBOOK_APP_ID>'
p997
sS'roku-screensaver-private'
p998
NsS'osx-extra-res'
p999
(lp1000
sS'playbook-icon'
p1001
NsS'uid'
p1002
NsS'playbook-authorid'
p1003
NsS'win32-pref-windowtitle'
p1004
NsS'tizen-dist1-password'
p1005
NsS'roku-screensaver-title'
p1006
NsS'osx-minimum-osx-version'
p1007
NsS'symbian-cert'
p1008
NsS'iphone-icon'
p1009
NsS'ws81-ext-capabilities'
p1010
(lp1011
sS'ws8-distribution-cer'
p1012
NsS'playbook-access-shared'
p1013
NsS'iphone-icon-ipad-high-res-ios7'
p1014
NsS'iphone-link-libs'
p1015
(lp1016
sS'wp8-exclude-wvga'
p1017
NsS'assets'
p1018
NsS'wp8-tile-fliptemplate-large-back-image'
p1019
NsS'wp8-custom-manifest-fill'
p1020
NsS'pub-sign-key'
p1021
NsS'android-extra-strings'
p1022
NsS'tizen-author-CA-path'
p1023
Nssg325
g596
sbssS'platform'
p1024
S'S3E'
p1025
sg62
S'1.0'
p1026
sS'arcade_platform'
p1027
g4
sS'extensions'
p1028
(dp1029
sS'source_groups_tree'
p1030
(dp1031
S'(libpng)'
p1032
(dp1033
S'h'
p1034
(dp1035
S'c:/marmalade/7.2/modules/third_party/libpng/h/png.h'
p1036
(lp1037
I1
a(dp1038
asS'c:/marmalade/7.2/modules/third_party/libpng/h/pngconf.h'
p1039
(lp1040
I1
ag1038
assS'c:/marmalade/7.2/modules/third_party/libpng/libpng.mkf'
p1041
(lp1042
I1
a(dp1043
assS'(libjpeg)'
p1044
(dp1045
g1034
(dp1046
S'c:/marmalade/7.2/modules/third_party/libjpeg/h/jchuff.h'
p1047
(lp1048
I1
a(dp1049
asS'c:/marmalade/7.2/modules/third_party/libjpeg/h/jconfig.h'
p1050
(lp1051
I1
ag1049
asS'c:/marmalade/7.2/modules/third_party/libjpeg/h/cdjpeg.h'
p1052
(lp1053
I1
ag1049
asS'c:/marmalade/7.2/modules/third_party/libjpeg/h/jpegint.h'
p1054
(lp1055
I1
ag1049
asS'c:/marmalade/7.2/modules/third_party/libjpeg/h/transupp.h'
p1056
(lp1057
I1
ag1049
asS'c:/marmalade/7.2/modules/third_party/libjpeg/h/jversion.h'
p1058
(lp1059
I1
ag1049
asS'c:/marmalade/7.2/modules/third_party/libjpeg/h/jpeglib.h'
p1060
(lp1061
I1
ag1049
asS'c:/marmalade/7.2/modules/third_party/libjpeg/h/jinclude.h'
p1062
(lp1063
I1
ag1049
asS'c:/marmalade/7.2/modules/third_party/libjpeg/h/jdct.h'
p1064
(lp1065
I1
ag1049
asS'c:/marmalade/7.2/modules/third_party/libjpeg/h/jdhuff.h'
p1066
(lp1067
I1
ag1049
asS'c:/marmalade/7.2/modules/third_party/libjpeg/h/jmemsys.h'
p1068
(lp1069
I1
ag1049
asS'c:/marmalade/7.2/modules/third_party/libjpeg/h/jmorecfg.h'
p1070
(lp1071
I1
ag1049
asS'c:/marmalade/7.2/modules/third_party/libjpeg/h/jerror.h'
p1072
(lp1073
I1
ag1049
asS'c:/marmalade/7.2/modules/third_party/libjpeg/h/cderror.h'
p1074
(lp1075
I1
ag1049
assS'c:/marmalade/7.2/modules/third_party/libjpeg/libjpeg.mkf'
p1076
(lp1077
I1
a(dp1078
assS'(tiniconv)'
p1079
(dp1080
S'c:/marmalade/7.2/modules/third_party/tiniconv/source/tiniconv.h'
p1081
(lp1082
I1
a(dp1083
asS'c:/marmalade/7.2/modules/third_party/tiniconv/source/tiniconv_int.h'
p1084
(lp1085
I1
ag1083
asS'c:/marmalade/7.2/modules/third_party/tiniconv/tiniconv.mkf'
p1086
(lp1087
I1
a(dp1088
assS'(SoundEngine)'
p1089
(dp1090
S'c:/users/vinicius/desktop/yes or no/stars/modules/soundengine/source/IwSoundManager.cpp'
p1091
(lp1092
I1
a(dp1093
asS'c:/users/vinicius/desktop/yes or no/stars/modules/soundengine/soundengine.mkf'
p1094
(lp1095
I1
a(dp1096
asS'c:/users/vinicius/desktop/yes or no/stars/modules/soundengine/source/IwSoundInst.cpp'
p1097
(lp1098
I1
ag1093
asS'c:/users/vinicius/desktop/yes or no/stars/modules/soundengine/source/IwSoundADPCM.cpp'
p1099
(lp1100
I1
ag1093
asS'c:/users/vinicius/desktop/yes or no/stars/modules/soundengine/h/IwSoundManager.h'
p1101
(lp1102
I1
ag1093
asS'c:/users/vinicius/desktop/yes or no/stars/modules/soundengine/source/IwSoundParams.cpp'
p1103
(lp1104
I1
ag1093
asS'c:/users/vinicius/desktop/yes or no/stars/modules/soundengine/source/IwSoundData.cpp'
p1105
(lp1106
I1
ag1093
asS'Docs'
p1107
(dp1108
S'c:/users/vinicius/desktop/yes or no/stars/modules/soundengine/docs/iwsound.config.txt'
p1109
(lp1110
I1
ag1093
assS'c:/users/vinicius/desktop/yes or no/stars/modules/soundengine/source/IwResHandlerWAV.cpp'
p1111
(lp1112
I1
ag1093
asS'c:/users/vinicius/desktop/yes or no/stars/modules/soundengine/h/IwSoundInst.h'
p1113
(lp1114
I1
ag1093
asS'c:/users/vinicius/desktop/yes or no/stars/modules/soundengine/h/IwSoundADPCM.h'
p1115
(lp1116
I1
ag1093
asS'c:/users/vinicius/desktop/yes or no/stars/modules/soundengine/source/IwSoundWAV.cpp'
p1117
(lp1118
I1
ag1093
asS'c:/users/vinicius/desktop/yes or no/stars/modules/soundengine/source/IwSoundGroup.cpp'
p1119
(lp1120
I1
ag1093
asS'c:/users/vinicius/desktop/yes or no/stars/modules/soundengine/h/IwSound.h'
p1121
(lp1122
I1
ag1093
asS'c:/users/vinicius/desktop/yes or no/stars/modules/soundengine/h/IwSoundWAV.h'
p1123
(lp1124
I1
ag1093
asS'c:/users/vinicius/desktop/yes or no/stars/modules/soundengine/source/IwSoundPCM.cpp'
p1125
(lp1126
I1
ag1093
asS'c:/users/vinicius/desktop/yes or no/stars/modules/soundengine/h/IwSoundSpec.h'
p1127
(lp1128
I1
ag1093
asS'c:/users/vinicius/desktop/yes or no/stars/modules/soundengine/h/IwSoundPCM.h'
p1129
(lp1130
I1
ag1093
asS'c:/users/vinicius/desktop/yes or no/stars/modules/soundengine/h/IwSoundGroup.h'
p1131
(lp1132
I1
ag1093
asS'c:/users/vinicius/desktop/yes or no/stars/modules/soundengine/h/IwResHandlerWAV.h'
p1133
(lp1134
I1
ag1093
asS'c:/users/vinicius/desktop/yes or no/stars/modules/soundengine/h/IwSoundParams.h'
p1135
(lp1136
I1
ag1093
asS'c:/users/vinicius/desktop/yes or no/stars/modules/soundengine/h/IwSoundData.h'
p1137
(lp1138
I1
ag1093
asS'c:/users/vinicius/desktop/yes or no/stars/modules/soundengine/source/IwSoundSpec.cpp'
p1139
(lp1140
I1
ag1093
assS'Extensions'
p1141
(dp1142
S's3eWebView'
p1143
(dp1144
S'interface'
p1145
(dp1146
S'c:/marmalade/7.2/extensions/s3ewebview/interface/s3eWebView.defines.txt'
p1147
(lp1148
I1
a(dp1149
asS'c:/marmalade/7.2/extensions/s3ewebview/interface/s3eWebView_interface.cpp'
p1150
(lp1151
I1
ag1149
assS'c:/marmalade/7.2/extensions/s3ewebview/h/s3eWebView.h'
p1152
(lp1153
I1
ag1149
asS'c:/marmalade/7.2/extensions/s3ewebview/s3ewebview.mkf'
p1154
(lp1155
I1
a(dp1156
assS's3eFacebook'
p1157
(dp1158
S'interface'
p1159
(dp1160
S'c:/marmalade/7.2/extensions/s3efacebook/interface/s3eFacebook_interface.cpp'
p1161
(lp1162
I1
a(dp1163
asS'c:/marmalade/7.2/extensions/s3efacebook/interface/s3eFacebook.defines.txt'
p1164
(lp1165
I1
ag1163
assg1034
(dp1166
S'c:/marmalade/7.2/extensions/s3efacebook/h/s3eFacebook.h'
p1167
(lp1168
I1
ag1163
assS'c:/marmalade/7.2/extensions/s3efacebook/s3efacebook.mkf'
p1169
(lp1170
I1
a(dp1171
assS's3eFlurry'
p1172
(dp1173
S'interface'
p1174
(dp1175
S'c:/marmalade/7.2/extensions/s3eflurry/interface/s3eFlurry_interface.cpp'
p1176
(lp1177
I1
a(dp1178
asS'c:/marmalade/7.2/extensions/s3eflurry/interface/s3eFlurry.defines.txt'
p1179
(lp1180
I1
ag1178
assS'c:/marmalade/7.2/extensions/s3eflurry/h/s3eFlurry.h'
p1181
(lp1182
I1
ag1178
asS'c:/marmalade/7.2/extensions/s3eflurry/s3eflurry.mkf'
p1183
(lp1184
I1
a(dp1185
asssS'stars'
p1186
(dp1187
S'entities'
p1188
(dp1189
S'c:/Users/Vinicius/Desktop/Yes or No/Stars/source/player.h'
p1190
(lp1191
I1
a(dp1192
asS'c:/Users/Vinicius/Desktop/Yes or No/Stars/source/star.cpp'
p1193
(lp1194
I1
ag1192
asS'c:/Users/Vinicius/Desktop/Yes or No/Stars/source/star.h'
p1195
(lp1196
I1
ag1192
asS'c:/Users/Vinicius/Desktop/Yes or No/Stars/source/comet.h'
p1197
(lp1198
I1
ag1192
asS'c:/Users/Vinicius/Desktop/Yes or No/Stars/source/satellite.h'
p1199
(lp1200
I1
ag1192
asS'c:/Users/Vinicius/Desktop/Yes or No/Stars/source/satellite.cpp'
p1201
(lp1202
I1
ag1192
asS'c:/Users/Vinicius/Desktop/Yes or No/Stars/source/comet.cpp'
p1203
(lp1204
I1
ag1192
asS'c:/Users/Vinicius/Desktop/Yes or No/Stars/source/asteroid.cpp'
p1205
(lp1206
I1
ag1192
asS'c:/Users/Vinicius/Desktop/Yes or No/Stars/source/blackHole.cpp'
p1207
(lp1208
I1
ag1192
asS'c:/Users/Vinicius/Desktop/Yes or No/Stars/source/asteroid.h'
p1209
(lp1210
I1
ag1192
asS'c:/Users/Vinicius/Desktop/Yes or No/Stars/source/blackHole.h'
p1211
(lp1212
I1
ag1192
asS'c:/Users/Vinicius/Desktop/Yes or No/Stars/source/vortex.cpp'
p1213
(lp1214
I1
ag1192
asS'c:/Users/Vinicius/Desktop/Yes or No/Stars/source/gameObject.cpp'
p1215
(lp1216
I1
ag1192
asS'c:/Users/Vinicius/Desktop/Yes or No/Stars/source/gameObject.h'
p1217
(lp1218
I1
ag1192
asS'c:/Users/Vinicius/Desktop/Yes or No/Stars/source/vortex.h'
p1219
(lp1220
I1
ag1192
asS'c:/Users/Vinicius/Desktop/Yes or No/Stars/source/player.cpp'
p1221
(lp1222
I1
ag1192
assS'utils'
p1223
(dp1224
S'c:/Users/Vinicius/Desktop/Yes or No/Stars/source/easyArray.h'
p1225
(lp1226
I1
ag1192
asS'c:/Users/Vinicius/Desktop/Yes or No/Stars/source/utils.h'
p1227
(lp1228
I1
ag1192
asS'c:/Users/Vinicius/Desktop/Yes or No/Stars/source/utils.cpp'
p1229
(lp1230
I1
ag1192
assS'main'
p1231
(dp1232
S'c:/Users/Vinicius/Desktop/Yes or No/Stars/source/main.h'
p1233
(lp1234
I1
ag1192
asS'c:/Users/Vinicius/Desktop/Yes or No/Stars/source/main.cpp'
p1235
(lp1236
I1
ag1192
asS'c:/Users/Vinicius/Desktop/Yes or No/Stars/source/include.h'
p1237
(lp1238
I1
ag1192
assS'managers'
p1239
(dp1240
S'c:/Users/Vinicius/Desktop/Yes or No/Stars/source/timerManager.cpp'
p1241
(lp1242
I1
ag1192
asS'c:/Users/Vinicius/Desktop/Yes or No/Stars/source/spriteManager.cpp'
p1243
(lp1244
I1
ag1192
asS'c:/Users/Vinicius/Desktop/Yes or No/Stars/source/inputManager.h'
p1245
(lp1246
I1
ag1192
asS'c:/Users/Vinicius/Desktop/Yes or No/Stars/source/sceneManager.cpp'
p1247
(lp1248
I1
ag1192
asS'c:/Users/Vinicius/Desktop/Yes or No/Stars/source/resourceManager.h'
p1249
(lp1250
I1
ag1192
asS'c:/Users/Vinicius/Desktop/Yes or No/Stars/source/savedataManager.h'
p1251
(lp1252
I1
ag1192
asS'c:/Users/Vinicius/Desktop/Yes or No/Stars/source/triggersManager.h'
p1253
(lp1254
I1
ag1192
asS'c:/Users/Vinicius/Desktop/Yes or No/Stars/source/parallaxManager.cpp'
p1255
(lp1256
I1
ag1192
asS'c:/Users/Vinicius/Desktop/Yes or No/Stars/source/spriteManager.h'
p1257
(lp1258
I1
ag1192
asS'c:/Users/Vinicius/Desktop/Yes or No/Stars/source/triggersManager.cpp'
p1259
(lp1260
I1
ag1192
asS'c:/Users/Vinicius/Desktop/Yes or No/Stars/source/timerManager.h'
p1261
(lp1262
I1
ag1192
asS'c:/Users/Vinicius/Desktop/Yes or No/Stars/source/sceneManager.h'
p1263
(lp1264
I1
ag1192
asS'c:/Users/Vinicius/Desktop/Yes or No/Stars/source/savedataManager.cpp'
p1265
(lp1266
I1
ag1192
asS'c:/Users/Vinicius/Desktop/Yes or No/Stars/source/audioManager.h'
p1267
(lp1268
I1
ag1192
asS'c:/Users/Vinicius/Desktop/Yes or No/Stars/source/inputManager.cpp'
p1269
(lp1270
I1
ag1192
asS'c:/Users/Vinicius/Desktop/Yes or No/Stars/source/audioManager.cpp'
p1271
(lp1272
I1
ag1192
asS'c:/Users/Vinicius/Desktop/Yes or No/Stars/source/parallaxManager.h'
p1273
(lp1274
I1
ag1192
asS'c:/Users/Vinicius/Desktop/Yes or No/Stars/source/resourceManager.cpp'
p1275
(lp1276
I1
ag1192
assS'scenes'
p1277
(dp1278
S'c:/Users/Vinicius/Desktop/Yes or No/Stars/source/items.cpp'
p1279
(lp1280
I1
ag1192
asS'c:/Users/Vinicius/Desktop/Yes or No/Stars/source/customize.h'
p1281
(lp1282
I1
ag1192
asS'c:/Users/Vinicius/Desktop/Yes or No/Stars/source/customize.cpp'
p1283
(lp1284
I1
ag1192
asS'c:/Users/Vinicius/Desktop/Yes or No/Stars/source/mainMenu.h'
p1285
(lp1286
I1
ag1192
asS'c:/Users/Vinicius/Desktop/Yes or No/Stars/source/getStars.h'
p1287
(lp1288
I1
ag1192
asS'c:/Users/Vinicius/Desktop/Yes or No/Stars/source/store.h'
p1289
(lp1290
I1
ag1192
asS'c:/Users/Vinicius/Desktop/Yes or No/Stars/source/options.h'
p1291
(lp1292
I1
ag1192
asS'c:/Users/Vinicius/Desktop/Yes or No/Stars/source/getStars.cpp'
p1293
(lp1294
I1
ag1192
asS'c:/Users/Vinicius/Desktop/Yes or No/Stars/source/mainMenu.cpp'
p1295
(lp1296
I1
ag1192
asS'c:/Users/Vinicius/Desktop/Yes or No/Stars/source/items.h'
p1297
(lp1298
I1
ag1192
asS'c:/Users/Vinicius/Desktop/Yes or No/Stars/source/store.cpp'
p1299
(lp1300
I1
ag1192
asS'c:/Users/Vinicius/Desktop/Yes or No/Stars/source/options.cpp'
p1301
(lp1302
I1
ag1192
asS'c:/Users/Vinicius/Desktop/Yes or No/Stars/source/game.h'
p1303
(lp1304
I1
ag1192
asS'c:/Users/Vinicius/Desktop/Yes or No/Stars/source/game.cpp'
p1305
(lp1306
I1
ag1192
asssS"'Marmalade Studio'"
p1307
(dp1308
S'iw2dscenegraph'
p1309
(dp1310
S'c:/marmalade/7.2/modules/iw2dscenegraph/source/Iw2DSceneGraph.cpp'
p1311
(lp1312
I1
a(dp1313
asS'c:/marmalade/7.2/modules/iw2dscenegraph/iw2dscenegraph.mkf'
p1314
(lp1315
I1
a(dp1316
asS'c:/marmalade/7.2/modules/iw2dscenegraph/h/Iw2DSceneGraph.h'
p1317
(lp1318
I1
ag1313
asS'c:/marmalade/7.2/modules/iw2dscenegraph/docs/iw2dscenegraph.defines.txt'
p1319
(lp1320
I1
ag1313
assS'iwgl'
p1321
(dp1322
S'c:/marmalade/7.2/modules/iwgl/h/IwGL.h'
p1323
(lp1324
I1
a(dp1325
asS'c:/marmalade/7.2/modules/iwgl/iwgl.mkf'
p1326
(lp1327
I1
a(dp1328
asS'c:/marmalade/7.2/modules/iwgl/h/IwGLExt.h'
p1329
(lp1330
I1
ag1325
asS'c:/marmalade/7.2/modules/iwgl/docs/iwgl.config.txt'
p1331
(lp1332
I1
ag1325
assS'iw2d'
p1333
(dp1334
S'c:/marmalade/7.2/modules/iw2d/docs/iw2d_public.defines.txt'
p1335
(lp1336
I1
a(dp1337
asS'c:/marmalade/7.2/modules/iw2d/h/Iw2D.h'
p1338
(lp1339
I1
ag1337
asS'c:/marmalade/7.2/modules/iw2d/docs/iw2d.config.txt'
p1340
(lp1341
I1
ag1337
asS'c:/marmalade/7.2/modules/iw2d/iw2d.mkf'
p1342
(lp1343
I1
a(dp1344
assS'iwgxfont'
p1345
(dp1346
S'c:/marmalade/7.2/modules/iwgxfont/h/IwGxFont.h'
p1347
(lp1348
I1
a(dp1349
asS'c:/marmalade/7.2/modules/iwgxfont/h/IwGxFontPreparedData.h'
p1350
(lp1351
I1
ag1349
asS'c:/marmalade/7.2/modules/iwgxfont/h/IwGxFontContainer.h'
p1352
(lp1353
I1
ag1349
asS'c:/marmalade/7.2/modules/iwgxfont/docs/iwgxfont_public.defines.txt'
p1354
(lp1355
I1
ag1349
asS'c:/marmalade/7.2/modules/iwgxfont/h/IwGxFontGlyph.h'
p1356
(lp1357
I1
ag1349
asS'c:/marmalade/7.2/modules/iwgxfont/h/IwGxFontState.h'
p1358
(lp1359
I1
ag1349
asS'c:/marmalade/7.2/modules/iwgxfont/h/IwGxFontTypes.h'
p1360
(lp1361
I1
ag1349
asS'c:/marmalade/7.2/modules/iwgxfont/iwgxfont.mkf'
p1362
(lp1363
I1
a(dp1364
asS'c:/marmalade/7.2/modules/iwgxfont/docs/iwgxfont.config.txt'
p1365
(lp1366
I1
ag1349
assS'iwgeom'
p1367
(dp1368
S'c:/marmalade/7.2/modules/iwgeom/docs/iwgeom.config.txt'
p1369
(lp1370
I1
a(dp1371
asS'c:/marmalade/7.2/modules/iwgeom/h/IwGeomFPlane.h'
p1372
(lp1373
I1
ag1371
asS'c:/marmalade/7.2/modules/iwgeom/h/IwGeomPlane.h'
p1374
(lp1375
I1
ag1371
asS'c:/marmalade/7.2/modules/iwgeom/h/IwGeomMat.h'
p1376
(lp1377
I1
ag1371
asS'c:/marmalade/7.2/modules/iwgeom/h/IwGeomMat2D.h'
p1378
(lp1379
I1
ag1371
asS'c:/marmalade/7.2/modules/iwgeom/h/IwGeomMenu.h'
p1380
(lp1381
I1
ag1371
asS'c:/marmalade/7.2/modules/iwgeom/h/IwGeomSqrt.h'
p1382
(lp1383
I1
ag1371
asS'c:/marmalade/7.2/modules/iwgeom/h/IwGeomFMat2D.h'
p1384
(lp1385
I1
ag1371
asS'c:/marmalade/7.2/modules/iwgeom/h/IwGeomCore.h'
p1386
(lp1387
I1
ag1371
asS'c:/marmalade/7.2/modules/iwgeom/h/IwGeomFVec3.h'
p1388
(lp1389
I1
ag1371
asS'c:/marmalade/7.2/modules/iwgeom/h/IwGeomFVec2.h'
p1390
(lp1391
I1
ag1371
asS'c:/marmalade/7.2/modules/iwgeom/h/IwGeom.h'
p1392
(lp1393
I1
ag1371
asS'c:/marmalade/7.2/modules/iwgeom/h/IwGeomSVec2.h'
p1394
(lp1395
I1
ag1371
asS'c:/marmalade/7.2/modules/iwgeom/h/IwGeomFVec4.h'
p1396
(lp1397
I1
ag1371
asS'c:/marmalade/7.2/modules/iwgeom/h/IwGeomSVec3.h'
p1398
(lp1399
I1
ag1371
asS'c:/marmalade/7.2/modules/iwgeom/h/IwGeomBBox.h'
p1400
(lp1401
I1
ag1371
asS'c:/marmalade/7.2/modules/iwgeom/h/IwGeomVec2.h'
p1402
(lp1403
I1
ag1371
asS'c:/marmalade/7.2/modules/iwgeom/h/IwGeomFMat.h'
p1404
(lp1405
I1
ag1371
asS'c:/marmalade/7.2/modules/iwgeom/h/IwGeomFQuat.h'
p1406
(lp1407
I1
ag1371
asS'c:/marmalade/7.2/modules/iwgeom/h/IwGeomVec3.h'
p1408
(lp1409
I1
ag1371
asS'c:/marmalade/7.2/modules/iwgeom/h/IwGeomSVec4.h'
p1410
(lp1411
I1
ag1371
asS'c:/marmalade/7.2/modules/iwgeom/h/IwGeomVec.h'
p1412
(lp1413
I1
ag1371
asS'c:/marmalade/7.2/modules/iwgeom/h/IwGeomFIntersect.h'
p1414
(lp1415
I1
ag1371
asS'c:/marmalade/7.2/modules/iwgeom/iwgeom.mkf'
p1416
(lp1417
I1
a(dp1418
asS'c:/marmalade/7.2/modules/iwgeom/h/IwGeomFSphere.h'
p1419
(lp1420
I1
ag1371
asS'c:/marmalade/7.2/modules/iwgeom/h/IwGeomIntersect.h'
p1421
(lp1422
I1
ag1371
asS'c:/marmalade/7.2/modules/iwgeom/h/IwGeomSQuat.h'
p1423
(lp1424
I1
ag1371
asS'c:/marmalade/7.2/modules/iwgeom/h/IwGeomQuat.h'
p1425
(lp1426
I1
ag1371
asS'c:/marmalade/7.2/modules/iwgeom/h/IwGeomSphere.h'
p1427
(lp1428
I1
ag1371
asS'c:/marmalade/7.2/modules/iwgeom/h/IwGeomLegacy.h'
p1429
(lp1430
I1
ag1371
asS'c:/marmalade/7.2/modules/iwgeom/h/IwGeomVec4.h'
p1431
(lp1432
I1
ag1371
asS'c:/marmalade/7.2/modules/iwgeom/h/IwGeomFBBox.h'
p1433
(lp1434
I1
ag1371
assS'iwresmanager'
p1435
(dp1436
S'c:/marmalade/7.2/modules/iwresmanager/h/IwResHandlerGROUP.h'
p1437
(lp1438
I1
a(dp1439
asS'c:/marmalade/7.2/modules/iwresmanager/h/IwResHandler.h'
p1440
(lp1441
I1
ag1439
asS'c:/marmalade/7.2/modules/iwresmanager/iwresmanager.mkf'
p1442
(lp1443
I1
a(dp1444
asS'c:/marmalade/7.2/modules/iwresmanager/h/IwResGroup.h'
p1445
(lp1446
I1
ag1439
asS'c:/marmalade/7.2/modules/iwresmanager/h/IwResHandlerImage.h'
p1447
(lp1448
I1
ag1439
asS'c:/marmalade/7.2/modules/iwresmanager/docs/iwresmanager.config.txt'
p1449
(lp1450
I1
ag1439
asS'c:/marmalade/7.2/modules/iwresmanager/h/IwResManagerClass.h'
p1451
(lp1452
I1
ag1439
asS'c:/marmalade/7.2/modules/iwresmanager/h/IwResHandlerITX.h'
p1453
(lp1454
I1
ag1439
asS'c:/marmalade/7.2/modules/iwresmanager/h/IwResSerialise.h'
p1455
(lp1456
I1
ag1439
asS'c:/marmalade/7.2/modules/iwresmanager/h/IwResManager.h'
p1457
(lp1458
I1
ag1439
assS'iwgx'
p1459
(dp1460
S'c:/marmalade/7.2/modules/iwgx/h/IwTPage.h'
p1461
(lp1462
I1
a(dp1463
asS'c:/marmalade/7.2/modules/iwgx/h/IwGxStream.h'
p1464
(lp1465
I1
ag1463
asS'c:/marmalade/7.2/modules/iwgx/h/IwGxTransformSW.h'
p1466
(lp1467
I1
ag1463
asS'c:/marmalade/7.2/modules/iwgx/h/IwMaterial.h'
p1468
(lp1469
I1
ag1463
asS'c:/marmalade/7.2/modules/iwgx/h/IwMatAnim.h'
p1470
(lp1471
I1
ag1463
asS'c:/marmalade/7.2/modules/iwgx/docs/iwgx.config.txt'
p1472
(lp1473
I1
ag1463
asS'c:/marmalade/7.2/modules/iwgx/iwgx.mkf'
p1474
(lp1475
I1
a(dp1476
asS'c:/marmalade/7.2/modules/iwgx/h/IwResHandlerMTL.h'
p1477
(lp1478
I1
ag1463
asS'c:/marmalade/7.2/modules/iwgx/h/IwGxPrint.h'
p1479
(lp1480
I1
ag1463
asS'c:/marmalade/7.2/modules/iwgx/h/IwGxSurface.h'
p1481
(lp1482
I1
ag1463
asS'c:/marmalade/7.2/modules/iwgx/docs/iwgx_public.defines.txt'
p1483
(lp1484
I1
ag1463
asS'c:/marmalade/7.2/modules/iwgx/h/IwClip.h'
p1485
(lp1486
I1
ag1463
asS'c:/marmalade/7.2/modules/iwgx/h/IwGx.h'
p1487
(lp1488
I1
ag1463
asS'c:/marmalade/7.2/modules/iwgx/h/IwGxDebug.h'
p1489
(lp1490
I1
ag1463
asS'c:/marmalade/7.2/modules/iwgx/h/IwDebugPrim.h'
p1491
(lp1492
I1
ag1463
asS'c:/marmalade/7.2/modules/iwgx/h/IwGxMetrics.h'
p1493
(lp1494
I1
ag1463
asS'c:/marmalade/7.2/modules/iwgx/h/IwGxError.h'
p1495
(lp1496
I1
ag1463
asS'c:/marmalade/7.2/modules/iwgx/h/IwClip.inl'
p1497
(lp1498
I1
ag1463
asS'c:/marmalade/7.2/modules/iwgx/h/IwGxFuncTable.h'
p1499
(lp1500
I1
ag1463
asS'c:/marmalade/7.2/modules/iwgx/h/IwTexture.h'
p1501
(lp1502
I1
ag1463
asS'c:/marmalade/7.2/modules/iwgx/h/IwFColour.h'
p1503
(lp1504
I1
ag1463
asS'c:/marmalade/7.2/modules/iwgx/h/IwColour.h'
p1505
(lp1506
I1
ag1463
asS'c:/marmalade/7.2/modules/iwgx/h/IwGxShaderTechnique.h'
p1507
(lp1508
I1
ag1463
asS'c:/marmalade/7.2/modules/iwgx/h/IwGxTypes.h'
p1509
(lp1510
I1
ag1463
asS'c:/marmalade/7.2/modules/iwgx/h/IwGxState.h'
p1511
(lp1512
I1
ag1463
assS'iw2dscenegraphcore'
p1513
(dp1514
S'c:/marmalade/7.2/modules/iw2dscenegraphcore/iw2dscenegraphcore.mkf'
p1515
(lp1516
I1
a(dp1517
asS'c:/marmalade/7.2/modules/iw2dscenegraphcore/h/Iw2DSceneGraphCore.h'
p1518
(lp1519
I1
a(dp1520
asS'c:/marmalade/7.2/modules/iw2dscenegraphcore/source/Iw2DSceneGraphCore.cpp'
p1521
(lp1522
I1
ag1520
assS'iwutil'
p1523
(dp1524
S'c:/marmalade/7.2/modules/iwutil/h/IwCore.h'
p1525
(lp1526
I1
a(dp1527
asS'c:/marmalade/7.2/modules/iwutil/h/IwArray.h'
p1528
(lp1529
I1
ag1527
asS'c:/marmalade/7.2/modules/iwutil/h/IwResource.h'
p1530
(lp1531
I1
ag1527
asS'c:/marmalade/7.2/modules/iwutil/h/IwFibre.h'
p1532
(lp1533
I1
ag1527
asS'c:/marmalade/7.2/modules/iwutil/h/IwBuffer.h'
p1534
(lp1535
I1
ag1527
asS'c:/marmalade/7.2/modules/iwutil/h/IwRandom.h'
p1536
(lp1537
I1
ag1527
asS'c:/marmalade/7.2/modules/iwutil/h/IwManagedList.h'
p1538
(lp1539
I1
ag1527
asS'c:/marmalade/7.2/modules/iwutil/h/IwList.h'
p1540
(lp1541
I1
ag1527
asS'c:/marmalade/7.2/modules/iwutil/h/IwProfileMenu.h'
p1542
(lp1543
I1
ag1527
asS'c:/marmalade/7.2/modules/iwutil/h/IwMemory.h'
p1544
(lp1545
I1
ag1527
asS'c:/marmalade/7.2/modules/iwutil/h/IwMath.h'
p1546
(lp1547
I1
ag1527
asS'c:/marmalade/7.2/modules/iwutil/h/IwDivTable.h'
p1548
(lp1549
I1
ag1527
asS'c:/marmalade/7.2/modules/iwutil/h/IwTextParserITX.h'
p1550
(lp1551
I1
ag1527
asS'c:/marmalade/7.2/modules/iwutil/h/IwMenu.h'
p1552
(lp1553
I1
ag1527
asS'c:/marmalade/7.2/modules/iwutil/h/IwChar.h'
p1554
(lp1555
I1
ag1527
asS'c:/marmalade/7.2/modules/iwutil/h/IwEvent.h'
p1556
(lp1557
I1
ag1527
asS'c:/marmalade/7.2/modules/iwutil/h/IwTextParser.h'
p1558
(lp1559
I1
ag1527
asS'c:/marmalade/7.2/modules/iwutil/h/IwOptimiseSize.h'
p1560
(lp1561
I1
ag1527
asS'c:/marmalade/7.2/modules/iwutil/h/IwSingleton.h'
p1562
(lp1563
I1
ag1527
asS'c:/marmalade/7.2/modules/iwutil/h/IwAllocator.h'
p1564
(lp1565
I1
ag1527
asS'c:/marmalade/7.2/modules/iwutil/h/IwFile.h'
p1566
(lp1567
I1
ag1527
asS'c:/marmalade/7.2/modules/iwutil/h/IwString.h'
p1568
(lp1569
I1
ag1527
asS'c:/marmalade/7.2/modules/iwutil/h/IwVariableBitField.h'
p1570
(lp1571
I1
ag1527
asS'c:/marmalade/7.2/modules/iwutil/h/IwUncopyable.h'
p1572
(lp1573
I1
ag1527
asS'c:/marmalade/7.2/modules/iwutil/h/IwImage.h'
p1574
(lp1575
I1
ag1527
asS'c:/marmalade/7.2/modules/iwutil/h/IwTypes.h'
p1576
(lp1577
I1
ag1527
asS'c:/marmalade/7.2/modules/iwutil/h/IwManaged.h'
p1578
(lp1579
I1
ag1527
asS'c:/marmalade/7.2/modules/iwutil/h/IwRuntime.h'
p1580
(lp1581
I1
ag1527
asS'c:/marmalade/7.2/modules/iwutil/h/IwMemManagerDL.h'
p1582
(lp1583
I1
ag1527
asS'c:/marmalade/7.2/modules/iwutil/h/IwOptimiseThumb.h'
p1584
(lp1585
I1
ag1527
asS'c:/marmalade/7.2/modules/iwutil/h/IwUtil.h'
p1586
(lp1587
I1
ag1527
asS'c:/marmalade/7.2/modules/iwutil/docs/iwutil.config.txt'
p1588
(lp1589
I1
ag1527
asS'c:/marmalade/7.2/modules/iwutil/h/IwClassFactory.h'
p1590
(lp1591
I1
ag1527
asS'c:/marmalade/7.2/modules/iwutil/h/IwUtilInitTerm.h'
p1592
(lp1593
I1
ag1527
asS'c:/marmalade/7.2/modules/iwutil/h/IwAutoFile.h'
p1594
(lp1595
I1
ag1527
asS'c:/marmalade/7.2/modules/iwutil/h/IwUTF8.h'
p1596
(lp1597
I1
ag1527
asS'c:/marmalade/7.2/modules/iwutil/h/IwSerialise.h'
p1598
(lp1599
I1
ag1527
asS'c:/marmalade/7.2/modules/iwutil/h/IwPath.h'
p1600
(lp1601
I1
ag1527
asS'c:/marmalade/7.2/modules/iwutil/h/IwMemBucketHelpers.h'
p1602
(lp1603
I1
ag1527
asS'c:/marmalade/7.2/modules/iwutil/h/IwCopyingPtr.h'
p1604
(lp1605
I1
ag1527
asS'c:/marmalade/7.2/modules/iwutil/h/IwOptimiseARM.h'
p1606
(lp1607
I1
ag1527
asS'c:/marmalade/7.2/modules/iwutil/h/IwMemBucket.h'
p1608
(lp1609
I1
ag1527
asS'c:/marmalade/7.2/modules/iwutil/iwutil.mkf'
p1610
(lp1611
I1
a(dp1612
asS'c:/marmalade/7.2/modules/iwutil/h/IwKeymap.h'
p1613
(lp1614
I1
ag1527
asS'c:/marmalade/7.2/modules/iwutil/h/IwImageHelper.h'
p1615
(lp1616
I1
ag1527
asS'c:/marmalade/7.2/modules/iwutil/h/IwOptimiseSpeed.h'
p1617
(lp1618
I1
ag1527
asS'c:/marmalade/7.2/modules/iwutil/h/IwTextParseable.h'
p1619
(lp1620
I1
ag1527
asS'c:/marmalade/7.2/modules/iwutil/h/IwDebug.h'
p1621
(lp1622
I1
ag1527
asS'c:/marmalade/7.2/modules/iwutil/h/IwDivide.h'
p1623
(lp1624
I1
ag1527
asS'c:/marmalade/7.2/modules/iwutil/h/IwHashString.h'
p1625
(lp1626
I1
ag1527
asssS'(zlib)'
p1627
(dp1628
g1034
(dp1629
S'c:/marmalade/7.2/modules/third_party/zlib/h/zconf.h'
p1630
(lp1631
I1
a(dp1632
asS'c:/marmalade/7.2/modules/third_party/zlib/h/zlib.h'
p1633
(lp1634
I1
ag1632
assS'c:/marmalade/7.2/modules/third_party/zlib/zlib.mkf'
p1635
(lp1636
I1
a(dp1637
assS'(iwtween)'
p1638
(dp1639
S'c:/marmalade/7.2/modules/iwtween/iwtween.mkf'
p1640
(lp1641
I1
a(dp1642
asS'c:/marmalade/7.2/modules/iwtween/source/IwTween.cpp'
p1643
(lp1644
I1
a(dp1645
asS'c:/marmalade/7.2/modules/iwtween/h/IwTween.h'
p1646
(lp1647
I1
ag1645
asssS'files'
p1648
(dp1649
S'IwGxFontPreparedData.h'
p1650
g299
(cmkb_main
File
p1651
g301
Ntp1652
Rp1653
(dp1654
S'flags'
p1655
g1349
sS'group'
p1656
(lp1657
S"'Marmalade Studio'"
p1658
ag1345
asg325
g1350
sbsS'iterator'
p1659
g299
(g1651
g301
Ntp1660
Rp1661
(dp1662
g1655
(dp1663
sg1656
(lp1664
S"'Marmalade System (S3E)'"
p1665
aS'stdc headers'
p1666
aS'c++'
p1667
asg325
S'c:/marmalade/7.2/s3e/h/std/c++/iterator'
p1668
sbsS'IwGL.h'
p1669
g299
(g1651
g301
Ntp1670
Rp1671
(dp1672
g1655
g1325
sg1656
(lp1673
S"'Marmalade Studio'"
p1674
ag1321
asg325
g1323
sbsS's3e.h'
p1675
g299
(g1651
g301
Ntp1676
Rp1677
(dp1678
g1655
g1663
sg1656
(lp1679
g1665
asg325
S'c:/marmalade/7.2/s3e/h/s3e.h'
p1680
sbsS'errno.h'
p1681
g299
(g1651
g301
Ntp1682
Rp1683
(dp1684
g1655
g1663
sg1656
(lp1685
g1665
aS'stdc headers'
p1686
asg325
S'c:/marmalade/7.2/s3e/h/std/errno.h'
p1687
sbsS'utils.cpp'
p1688
g299
(g1651
g301
Ntp1689
Rp1690
(dp1691
g1655
g1192
sg1656
(lp1692
g1186
ag1223
asg325
g1229
sbsS'IwSingleton.h'
p1693
g299
(g1651
g301
Ntp1694
Rp1695
(dp1696
g1655
g1527
sg1656
(lp1697
S"'Marmalade Studio'"
p1698
ag1523
asg325
g1562
sbsS'spriteManager.cpp'
p1699
g299
(g1651
g301
Ntp1700
Rp1701
(dp1702
g1655
g1192
sg1656
(lp1703
S'stars'
p1704
ag1239
asg325
g1243
sbsS'dlfcn.h'
p1705
g299
(g1651
g301
Ntp1706
Rp1707
(dp1708
g1655
g1663
sg1656
g1685
sg325
S'c:/marmalade/7.2/s3e/h/std/dlfcn.h'
p1709
sbsS'IwSoundWAV.cpp'
p1710
g299
(g1651
g301
Ntp1711
Rp1712
(dp1713
g1655
g1093
sg1656
(lp1714
g1089
asg325
g1117
sbsS'sched.h'
p1715
g299
(g1651
g301
Ntp1716
Rp1717
(dp1718
g1655
g1663
sg1656
g1685
sg325
S'c:/marmalade/7.2/s3e/h/std/sched.h'
p1719
sbsS'customize.cpp'
p1720
g299
(g1651
g301
Ntp1721
Rp1722
(dp1723
g1655
g1192
sg1656
(lp1724
S'stars'
p1725
ag1277
asg325
g1283
sbsS'IwGeomFMat2D.h'
p1726
g299
(g1651
g301
Ntp1727
Rp1728
(dp1729
g1655
g1371
sg1656
(lp1730
S"'Marmalade Studio'"
p1731
ag1367
asg325
g1384
sbsS'cassert'
p1732
g299
(g1651
g301
Ntp1733
Rp1734
(dp1735
g1655
g1663
sg1656
g1664
sg325
S'c:/marmalade/7.2/s3e/h/std/c++/cassert'
p1736
sbsS'grp.h'
p1737
g299
(g1651
g301
Ntp1738
Rp1739
(dp1740
g1655
g1663
sg1656
g1685
sg325
S'c:/marmalade/7.2/s3e/h/std/grp.h'
p1741
sbsS'list'
p1742
g299
(g1651
g301
Ntp1743
Rp1744
(dp1745
g1655
g1663
sg1656
g1664
sg325
S'c:/marmalade/7.2/s3e/h/std/c++/list'
p1746
sbsS'IwSoundSpec.cpp'
p1747
g299
(g1651
g301
Ntp1748
Rp1749
(dp1750
g1655
g1093
sg1656
g1714
sg325
g1139
sbsS'istream'
p1751
g299
(g1651
g301
Ntp1752
Rp1753
(dp1754
g1655
g1663
sg1656
g1664
sg325
S'c:/marmalade/7.2/s3e/h/std/c++/istream'
p1755
sbsS'jpeglib.h'
p1756
g299
(g1651
g301
Ntp1757
Rp1758
(dp1759
g1655
g1049
sg1656
(lp1760
g1044
ag1034
asg325
g1060
sbsS'iw2d_public.defines.txt'
p1761
g299
(g1651
g301
Ntp1762
Rp1763
(dp1764
g1655
g1337
sg1656
(lp1765
S"'Marmalade Studio'"
p1766
ag1333
asg325
g1335
sbsS'iostream.h'
p1767
g299
(g1651
g301
Ntp1768
Rp1769
(dp1770
g1655
g1663
sg1656
g1664
sg325
S'c:/marmalade/7.2/s3e/h/std/c++/iostream.h'
p1771
sbsS'IwSoundADPCM.h'
p1772
g299
(g1651
g301
Ntp1773
Rp1774
(dp1775
g1655
g1093
sg1656
g1714
sg325
g1115
sbsS'string'
p1776
g299
(g1651
g301
Ntp1777
Rp1778
(dp1779
g1655
g1663
sg1656
g1664
sg325
S'c:/marmalade/7.2/s3e/h/std/c++/string'
p1780
sbsS'IwMemory.h'
p1781
g299
(g1651
g301
Ntp1782
Rp1783
(dp1784
g1655
g1527
sg1656
g1697
sg325
g1544
sbsS'IwGeomPlane.h'
p1785
g299
(g1651
g301
Ntp1786
Rp1787
(dp1788
g1655
g1371
sg1656
g1730
sg325
g1374
sbsS'items.h'
p1789
g299
(g1651
g301
Ntp1790
Rp1791
(dp1792
g1655
g1192
sg1656
g1724
sg325
g1297
sbsS'iw2d.config.txt'
p1793
g299
(g1651
g301
Ntp1794
Rp1795
(dp1796
g1655
g1337
sg1656
g1765
sg325
g1340
sbsS'iomanip'
p1797
g299
(g1651
g301
Ntp1798
Rp1799
(dp1800
g1655
g1663
sg1656
g1664
sg325
S'c:/marmalade/7.2/s3e/h/std/c++/iomanip'
p1801
sbsS'iwgeom.mkf'
p1802
g299
(g1651
g301
Ntp1803
Rp1804
(dp1805
g1655
g1418
sg1656
g1730
sg325
g1416
sbsS'IwGxError.h'
p1806
g299
(g1651
g301
Ntp1807
Rp1808
(dp1809
g1655
g1463
sg1656
(lp1810
S"'Marmalade Studio'"
p1811
ag1459
asg325
g1495
sbsS'IwGeom.h'
p1812
g299
(g1651
g301
Ntp1813
Rp1814
(dp1815
g1655
g1371
sg1656
g1730
sg325
g1392
sbsS'IwGeomVec4.h'
p1816
g299
(g1651
g301
Ntp1817
Rp1818
(dp1819
g1655
g1371
sg1656
g1730
sg325
g1431
sbsS'dir.h'
p1820
g299
(g1651
g301
Ntp1821
Rp1822
(dp1823
g1655
g1663
sg1656
(lp1824
g1665
aS'stdc headers'
p1825
aS'sys'
p1826
asg325
S'c:/marmalade/7.2/s3e/h/std/sys/dir.h'
p1827
sbsS'locale.h'
p1828
g299
(g1651
g301
Ntp1829
Rp1830
(dp1831
g1655
g1663
sg1656
g1685
sg325
S'c:/marmalade/7.2/s3e/h/std/locale.h'
p1832
sbsS'vector'
p1833
g299
(g1651
g301
Ntp1834
Rp1835
(dp1836
g1655
g1663
sg1656
g1664
sg325
S'c:/marmalade/7.2/s3e/h/std/c++/vector'
p1837
sbsS'IwManaged.h'
p1838
g299
(g1651
g301
Ntp1839
Rp1840
(dp1841
g1655
g1527
sg1656
g1697
sg325
g1578
sbsS's3eCompass.h'
p1842
g299
(g1651
g301
Ntp1843
Rp1844
(dp1845
g1655
g1663
sg1656
g1679
sg325
S'c:/marmalade/7.2/s3e/h/s3eCompass.h'
p1846
sbsS'cderror.h'
p1847
g299
(g1651
g301
Ntp1848
Rp1849
(dp1850
g1655
g1049
sg1656
g1760
sg325
g1074
sbsS'climits'
p1851
g299
(g1651
g301
Ntp1852
Rp1853
(dp1854
g1655
g1663
sg1656
g1664
sg325
S'c:/marmalade/7.2/s3e/h/std/c++/climits'
p1855
sbsS'easyArray.h'
p1856
g299
(g1651
g301
Ntp1857
Rp1858
(dp1859
g1655
g1192
sg1656
g1692
sg325
g1225
sbsS's3eVibra.h'
p1860
g299
(g1651
g301
Ntp1861
Rp1862
(dp1863
g1655
g1663
sg1656
g1679
sg325
S'c:/marmalade/7.2/s3e/h/s3eVibra.h'
p1864
sbsS'jversion.h'
p1865
g299
(g1651
g301
Ntp1866
Rp1867
(dp1868
g1655
g1049
sg1656
g1760
sg325
g1058
sbsS'fnmatch.h'
p1869
g299
(g1651
g301
Ntp1870
Rp1871
(dp1872
g1655
g1663
sg1656
g1685
sg325
S'c:/marmalade/7.2/s3e/h/std/fnmatch.h'
p1873
sbsS'IwGxState.h'
p1874
g299
(g1651
g301
Ntp1875
Rp1876
(dp1877
g1655
g1463
sg1656
g1810
sg325
g1511
sbsS's3eAudio.h'
p1878
g299
(g1651
g301
Ntp1879
Rp1880
(dp1881
g1655
g1663
sg1656
g1679
sg325
S'c:/marmalade/7.2/s3e/h/s3eAudio.h'
p1882
sbsS'store.h'
p1883
g299
(g1651
g301
Ntp1884
Rp1885
(dp1886
g1655
g1192
sg1656
g1724
sg325
g1289
sbsS's3eSurface.h'
p1887
g299
(g1651
g301
Ntp1888
Rp1889
(dp1890
g1655
g1663
sg1656
g1679
sg325
S'c:/marmalade/7.2/s3e/h/s3eSurface.h'
p1891
sbsS'new'
p1892
g299
(g1651
g301
Ntp1893
Rp1894
(dp1895
g1655
g1663
sg1656
g1664
sg325
S'c:/marmalade/7.2/s3e/h/std/c++/new'
p1896
sbsS's3eWindow.h'
p1897
g299
(g1651
g301
Ntp1898
Rp1899
(dp1900
g1655
g1663
sg1656
(lp1901
g1665
aS'Extensions'
p1902
asg325
S'c:/marmalade/7.2/s3e/h/ext/s3eWindow.h'
p1903
sbsS'IwBuffer.h'
p1904
g299
(g1651
g301
Ntp1905
Rp1906
(dp1907
g1655
g1527
sg1656
g1697
sg325
g1534
sbsS's3eflurry.mkf'
p1908
g299
(g1651
g301
Ntp1909
Rp1910
(dp1911
g1655
g1185
sg1656
(lp1912
g1141
ag1172
asg325
g1183
sbsS'stdio_streambuf'
p1913
g299
(g1651
g301
Ntp1914
Rp1915
(dp1916
g1655
g1663
sg1656
g1664
sg325
S'c:/marmalade/7.2/s3e/h/std/c++/stdio_streambuf'
p1917
sbsS's3eOSExec.h'
p1918
g299
(g1651
g301
Ntp1919
Rp1920
(dp1921
g1655
g1663
sg1656
g1901
sg325
S'c:/marmalade/7.2/s3e/h/ext/s3eOSExec.h'
p1922
sbsS'star.cpp'
p1923
g299
(g1651
g301
Ntp1924
Rp1925
(dp1926
g1655
g1192
sg1656
(lp1927
S'stars'
p1928
ag1188
asg325
g1193
sbsS'IwGxTransformSW.h'
p1929
g299
(g1651
g301
Ntp1930
Rp1931
(dp1932
g1655
g1463
sg1656
g1810
sg325
g1466
sbsS'unistd.h'
p1933
g299
(g1651
g301
Ntp1934
Rp1935
(dp1936
g1655
g1663
sg1656
g1685
sg325
S'c:/marmalade/7.2/s3e/h/std/unistd.h'
p1937
sbsS'spriteManager.h'
p1938
g299
(g1651
g301
Ntp1939
Rp1940
(dp1941
g1655
g1192
sg1656
g1703
sg325
g1257
sbsS'iwgxfont.config.txt'
p1942
g299
(g1651
g301
Ntp1943
Rp1944
(dp1945
g1655
g1349
sg1656
g1657
sg325
g1365
sbsS'gl2platform.h'
p1946
g299
(g1651
g301
Ntp1947
Rp1948
(dp1949
g1655
g1663
sg1656
(lp1950
g1665
aS'GL'
p1951
aS'GLES 2.0'
p1952
asg325
S'c:/marmalade/7.2/s3e/h/GLES2/gl2platform.h'
p1953
sbsS'IwResManagerClass.h'
p1954
g299
(g1651
g301
Ntp1955
Rp1956
(dp1957
g1655
g1439
sg1656
(lp1958
g1307
ag1435
asg325
g1451
sbsS'queue'
p1959
g299
(g1651
g301
Ntp1960
Rp1961
(dp1962
g1655
g1663
sg1656
g1664
sg325
S'c:/marmalade/7.2/s3e/h/std/c++/queue'
p1963
sbsS'blackHole.h'
p1964
g299
(g1651
g301
Ntp1965
Rp1966
(dp1967
g1655
g1192
sg1656
g1927
sg325
g1211
sbsS'time_1.h'
p1968
g299
(g1651
g301
Ntp1969
Rp1970
(dp1971
g1655
g1663
sg1656
g1824
sg325
S'c:/marmalade/7.2/s3e/h/std/sys/time.h'
p1972
sbsS'IwSoundPCM.h'
p1973
g299
(g1651
g301
Ntp1974
Rp1975
(dp1976
g1655
g1093
sg1656
g1714
sg325
g1129
sbsS'Iw2D.h'
p1977
g299
(g1651
g301
Ntp1978
Rp1979
(dp1980
g1655
g1337
sg1656
g1765
sg325
g1338
sbsS'IwGeomVec2.h'
p1981
g299
(g1651
g301
Ntp1982
Rp1983
(dp1984
g1655
g1371
sg1656
g1730
sg325
g1402
sbsS'sendfile.h'
p1985
g299
(g1651
g301
Ntp1986
Rp1987
(dp1988
g1655
g1663
sg1656
g1824
sg325
S'c:/marmalade/7.2/s3e/h/std/sys/sendfile.h'
p1989
sbsS'malloc.h'
p1990
g299
(g1651
g301
Ntp1991
Rp1992
(dp1993
g1655
g1663
sg1656
g1685
sg325
S'c:/marmalade/7.2/s3e/h/std/malloc.h'
p1994
sbsS'timerManager.h'
p1995
g299
(g1651
g301
Ntp1996
Rp1997
(dp1998
g1655
g1192
sg1656
g1703
sg325
g1261
sbsS'stdarg.h'
p1999
g299
(g1651
g301
Ntp2000
Rp2001
(dp2002
g1655
g1663
sg1656
g1685
sg325
S'c:/marmalade/7.2/s3e/h/std/stdarg.h'
p2003
sbsS'IwGeomCore.h'
p2004
g299
(g1651
g301
Ntp2005
Rp2006
(dp2007
g1655
g1371
sg1656
g1730
sg325
g1386
sbsS'Iw2DSceneGraph.h'
p2008
g299
(g1651
g301
Ntp2009
Rp2010
(dp2011
g1655
g1313
sg1656
(lp2012
S"'Marmalade Studio'"
p2013
ag1309
asg325
g1317
sbsS'endian.h'
p2014
g299
(g1651
g301
Ntp2015
Rp2016
(dp2017
g1655
g1663
sg1656
g1685
sg325
S'c:/marmalade/7.2/s3e/h/std/endian.h'
p2018
sbsS'glob.h'
p2019
g299
(g1651
g301
Ntp2020
Rp2021
(dp2022
g1655
g1663
sg1656
g1685
sg325
S'c:/marmalade/7.2/s3e/h/std/glob.h'
p2023
sbsS'fstream'
p2024
g299
(g1651
g301
Ntp2025
Rp2026
(dp2027
g1655
g1663
sg1656
g1664
sg325
S'c:/marmalade/7.2/s3e/h/std/c++/fstream'
p2028
sbsS'include.h'
p2029
g299
(g1651
g301
Ntp2030
Rp2031
(dp2032
g1655
g1192
sg1656
(lp2033
S'stars'
p2034
ag1231
asg325
g1237
sbsS'jconfig.h'
p2035
g299
(g1651
g301
Ntp2036
Rp2037
(dp2038
g1655
g1049
sg1656
g1760
sg325
g1050
sbsS'memory'
p2039
g299
(g1651
g301
Ntp2040
Rp2041
(dp2042
g1655
g1663
sg1656
g1664
sg325
S'c:/marmalade/7.2/s3e/h/std/c++/memory'
p2043
sbsS'strstream'
p2044
g299
(g1651
g301
Ntp2045
Rp2046
(dp2047
g1655
g1663
sg1656
g1664
sg325
S'c:/marmalade/7.2/s3e/h/std/c++/strstream'
p2048
sbsS'egl.h'
p2049
g299
(g1651
g301
Ntp2050
Rp2051
(dp2052
g1655
g1663
sg1656
(lp2053
g1665
aS'GL'
p2054
aS'EGL'
p2055
asg325
S'c:/marmalade/7.2/s3e/h/EGL/egl.h'
p2056
sbsS'egl_1.h'
p2057
g299
(g1651
g301
Ntp2058
Rp2059
(dp2060
g1655
g1663
sg1656
(lp2061
g1665
aS'GL'
p2062
aS'GLES 1.x'
p2063
asg325
S'c:/marmalade/7.2/s3e/h/GLES/egl.h'
p2064
sbsS'IwMemManagerDL.h'
p2065
g299
(g1651
g301
Ntp2066
Rp2067
(dp2068
g1655
g1527
sg1656
g1697
sg325
g1582
sbsS'deque'
p2069
g299
(g1651
g301
Ntp2070
Rp2071
(dp2072
g1655
g1663
sg1656
g1664
sg325
S'c:/marmalade/7.2/s3e/h/std/c++/deque'
p2073
sbsS'IwString.h'
p2074
g299
(g1651
g301
Ntp2075
Rp2076
(dp2077
g1655
g1527
sg1656
g1697
sg325
g1568
sbsS'cwchar'
p2078
g299
(g1651
g301
Ntp2079
Rp2080
(dp2081
g1655
g1663
sg1656
g1664
sg325
S'c:/marmalade/7.2/s3e/h/std/c++/cwchar'
p2082
sbsS'iwutil.mkf'
p2083
g299
(g1651
g301
Ntp2084
Rp2085
(dp2086
g1655
g1612
sg1656
g1697
sg325
g1610
sbsS'csignal'
p2087
g299
(g1651
g301
Ntp2088
Rp2089
(dp2090
g1655
g1663
sg1656
g1664
sg325
S'c:/marmalade/7.2/s3e/h/std/c++/csignal'
p2091
sbsS'pthread_types.h'
p2092
g299
(g1651
g301
Ntp2093
Rp2094
(dp2095
g1655
g1663
sg1656
g1685
sg325
S'c:/marmalade/7.2/s3e/h/std/pthread_types.h'
p2096
sbsS'pthread_alloc'
p2097
g299
(g1651
g301
Ntp2098
Rp2099
(dp2100
g1655
g1663
sg1656
g1664
sg325
S'c:/marmalade/7.2/s3e/h/std/c++/pthread_alloc'
p2101
sbsS'getopt.h'
p2102
g299
(g1651
g301
Ntp2103
Rp2104
(dp2105
g1655
g1663
sg1656
g1685
sg325
S'c:/marmalade/7.2/s3e/h/std/getopt.h'
p2106
sbsS'IwOptimiseARM.h'
p2107
g299
(g1651
g301
Ntp2108
Rp2109
(dp2110
g1655
g1527
sg1656
g1697
sg325
g1606
sbsS'times.h'
p2111
g299
(g1651
g301
Ntp2112
Rp2113
(dp2114
g1655
g1663
sg1656
g1824
sg325
S'c:/marmalade/7.2/s3e/h/std/sys/times.h'
p2115
sbsS'IwGeomFSphere.h'
p2116
g299
(g1651
g301
Ntp2117
Rp2118
(dp2119
g1655
g1371
sg1656
g1730
sg325
g1419
sbsS'game.h'
p2120
g299
(g1651
g301
Ntp2121
Rp2122
(dp2123
g1655
g1192
sg1656
g1724
sg325
g1303
sbsS'functional'
p2124
g299
(g1651
g301
Ntp2125
Rp2126
(dp2127
g1655
g1663
sg1656
g1664
sg325
S'c:/marmalade/7.2/s3e/h/std/c++/functional'
p2128
sbsS'IwTypes.h'
p2129
g299
(g1651
g301
Ntp2130
Rp2131
(dp2132
g1655
g1527
sg1656
g1697
sg325
g1576
sbsS'IwGxMetrics.h'
p2133
g299
(g1651
g301
Ntp2134
Rp2135
(dp2136
g1655
g1463
sg1656
g1810
sg325
g1493
sbsS's3eCompression.h'
p2137
g299
(g1651
g301
Ntp2138
Rp2139
(dp2140
g1655
g1663
sg1656
g1679
sg325
S'c:/marmalade/7.2/s3e/h/s3eCompression.h'
p2141
sbsS'langinfo.h'
p2142
g299
(g1651
g301
Ntp2143
Rp2144
(dp2145
g1655
g1663
sg1656
g1685
sg325
S'c:/marmalade/7.2/s3e/h/std/langinfo.h'
p2146
sbsS's3edebugHeap.h'
p2147
g299
(g1651
g301
Ntp2148
Rp2149
(dp2150
g1655
g1663
sg1656
g1901
sg325
S'c:/marmalade/7.2/s3e/h/ext/s3edebugHeap.h'
p2151
sbsS'AirplayVersion.h'
p2152
g299
(g1651
g301
Ntp2153
Rp2154
(dp2155
g1655
g1663
sg1656
g1679
sg325
S'c:/marmalade/7.2/s3e/h/AirplayVersion.h'
p2156
sbsS'gl2extimg.h'
p2157
g299
(g1651
g301
Ntp2158
Rp2159
(dp2160
g1655
g1663
sg1656
g1950
sg325
S'c:/marmalade/7.2/s3e/h/GLES2/gl2extimg.h'
p2161
sbsS'app.config.txt'
p2162
g299
(g1651
g301
Ntp2163
Rp2164
(dp2165
g1655
(dp2166
sg1656
g4
sg325
S'c:/Users/Vinicius/Desktop/Yes or No/Stars/data/app.config.txt'
p2167
sbsS'IwGeomSqrt.h'
p2168
g299
(g1651
g301
Ntp2169
Rp2170
(dp2171
g1655
g1371
sg1656
g1730
sg325
g1382
sbsS'tiniconv_int.h'
p2172
g299
(g1651
g301
Ntp2173
Rp2174
(dp2175
g1655
g1083
sg1656
(lp2176
g1079
asg325
g1084
sbsS'syslog.h'
p2177
g299
(g1651
g301
Ntp2178
Rp2179
(dp2180
g1655
g1663
sg1656
g1685
sg325
S'c:/marmalade/7.2/s3e/h/std/syslog.h'
p2181
sbsS'IwGxFontTypes.h'
p2182
g299
(g1651
g301
Ntp2183
Rp2184
(dp2185
g1655
g1349
sg1656
g1657
sg325
g1360
sbsS'IwGeomFIntersect.h'
p2186
g299
(g1651
g301
Ntp2187
Rp2188
(dp2189
g1655
g1371
sg1656
g1730
sg325
g1414
sbsS'hash_map'
p2190
g299
(g1651
g301
Ntp2191
Rp2192
(dp2193
g1655
g1663
sg1656
g1664
sg325
S'c:/marmalade/7.2/s3e/h/std/c++/hash_map'
p2194
sbsS's3e.mkf'
p2195
g299
(g1651
g301
Ntp2196
Rp2197
(dp2198
g1655
(dp2199
sg1656
g1679
sg325
S'c:/marmalade/7.2/s3e/s3e.mkf'
p2200
sbsS's3eOSReadString.h'
p2201
g299
(g1651
g301
Ntp2202
Rp2203
(dp2204
g1655
g1663
sg1656
g1901
sg325
S'c:/marmalade/7.2/s3e/h/ext/s3eOSReadString.h'
p2205
sbsS'vortex.h'
p2206
g299
(g1651
g301
Ntp2207
Rp2208
(dp2209
g1655
g1192
sg1656
g1927
sg325
g1219
sbsS'player.cpp'
p2210
g299
(g1651
g301
Ntp2211
Rp2212
(dp2213
g1655
g1192
sg1656
g1927
sg325
g1221
sbsS'IwSound.h'
p2214
g299
(g1651
g301
Ntp2215
Rp2216
(dp2217
g1655
g1093
sg1656
g1714
sg325
g1121
sbsS'map'
p2218
g299
(g1651
g301
Ntp2219
Rp2220
(dp2221
g1655
g1663
sg1656
g1664
sg325
S'c:/marmalade/7.2/s3e/h/std/c++/map'
p2222
sbsS'iwtween.mkf'
p2223
g299
(g1651
g301
Ntp2224
Rp2225
(dp2226
g1655
g1642
sg1656
(lp2227
g1638
asg325
g1640
sbsS'IwOptimiseSpeed.h'
p2228
g299
(g1651
g301
Ntp2229
Rp2230
(dp2231
g1655
g1527
sg1656
g1697
sg325
g1617
sbsS'inputManager.h'
p2232
g299
(g1651
g301
Ntp2233
Rp2234
(dp2235
g1655
g1192
sg1656
g1703
sg325
g1245
sbsS'asteroid.cpp'
p2236
g299
(g1651
g301
Ntp2237
Rp2238
(dp2239
g1655
g1192
sg1656
g1927
sg325
g1205
sbsS'msl_string.h'
p2240
g299
(g1651
g301
Ntp2241
Rp2242
(dp2243
g1655
g1663
sg1656
g1664
sg325
S'c:/marmalade/7.2/s3e/h/std/c++/msl_string.h'
p2244
sbsS'sigcontext.h'
p2245
g299
(g1651
g301
Ntp2246
Rp2247
(dp2248
g1655
g1663
sg1656
g1685
sg325
S'c:/marmalade/7.2/s3e/h/std/sigcontext.h'
p2249
sbsS'select.h'
p2250
g299
(g1651
g301
Ntp2251
Rp2252
(dp2253
g1655
g1663
sg1656
g1824
sg325
S'c:/marmalade/7.2/s3e/h/std/sys/select.h'
p2254
sbsS'zlib.mkf'
p2255
g299
(g1651
g301
Ntp2256
Rp2257
(dp2258
g1655
g1637
sg1656
(lp2259
g1627
asg325
g1635
sbsS'signal.h'
p2260
g299
(g1651
g301
Ntp2261
Rp2262
(dp2263
g1655
g1663
sg1656
g1685
sg325
S'c:/marmalade/7.2/s3e/h/std/signal.h'
p2264
sbsS's3eLibrary.h'
p2265
g299
(g1651
g301
Ntp2266
Rp2267
(dp2268
g1655
g1663
sg1656
g1901
sg325
S'c:/marmalade/7.2/s3e/h/ext/s3eLibrary.h'
p2269
sbsS'libpng.mkf'
p2270
g299
(g1651
g301
Ntp2271
Rp2272
(dp2273
g1655
g1043
sg1656
(lp2274
g1032
asg325
g1041
sbsS's3eClipboard.h'
p2275
g299
(g1651
g301
Ntp2276
Rp2277
(dp2278
g1655
g1663
sg1656
g1679
sg325
S'c:/marmalade/7.2/s3e/h/s3eClipboard.h'
p2279
sbsS'IwGxFuncTable.h'
p2280
g299
(g1651
g301
Ntp2281
Rp2282
(dp2283
g1655
g1463
sg1656
g1810
sg325
g1499
sbsS'IwResHandlerGROUP.h'
p2284
g299
(g1651
g301
Ntp2285
Rp2286
(dp2287
g1655
g1439
sg1656
g1958
sg325
g1437
sbsS's3eDebug.h'
p2288
g299
(g1651
g301
Ntp2289
Rp2290
(dp2291
g1655
g1663
sg1656
g1679
sg325
S'c:/marmalade/7.2/s3e/h/s3eDebug.h'
p2292
sbsS'socket.h'
p2293
g299
(g1651
g301
Ntp2294
Rp2295
(dp2296
g1655
g1663
sg1656
g1824
sg325
S'c:/marmalade/7.2/s3e/h/std/sys/socket.h'
p2297
sbsS'glext.h'
p2298
g299
(g1651
g301
Ntp2299
Rp2300
(dp2301
g1655
g1663
sg1656
g2061
sg325
S'c:/marmalade/7.2/s3e/h/GLES/glext.h'
p2302
sbsS'typeinfo.h'
p2303
g299
(g1651
g301
Ntp2304
Rp2305
(dp2306
g1655
g1663
sg1656
g1664
sg325
S'c:/marmalade/7.2/s3e/h/std/c++/typeinfo.h'
p2307
sbsS'typeinfo'
p2308
g299
(g1651
g301
Ntp2309
Rp2310
(dp2311
g1655
g1663
sg1656
g1664
sg325
S'c:/marmalade/7.2/s3e/h/std/c++/typeinfo'
p2312
sbsS'iwsound.config.txt'
p2313
g299
(g1651
g301
Ntp2314
Rp2315
(dp2316
g1655
g1093
sg1656
(lp2317
g1089
ag1107
asg325
g1109
sbsS'fstream.h'
p2318
g299
(g1651
g301
Ntp2319
Rp2320
(dp2321
g1655
g1663
sg1656
g1664
sg325
S'c:/marmalade/7.2/s3e/h/std/c++/fstream.h'
p2322
sbsS'IwGeomMat.h'
p2323
g299
(g1651
g301
Ntp2324
Rp2325
(dp2326
g1655
g1371
sg1656
g1730
sg325
g1376
sbsS's3ePointer.h'
p2327
g299
(g1651
g301
Ntp2328
Rp2329
(dp2330
g1655
g1663
sg1656
g1679
sg325
S'c:/marmalade/7.2/s3e/h/s3ePointer.h'
p2331
sbsS'getStars.cpp'
p2332
g299
(g1651
g301
Ntp2333
Rp2334
(dp2335
g1655
g1192
sg1656
g1724
sg325
g1293
sbsS'options.cpp'
p2336
g299
(g1651
g301
Ntp2337
Rp2338
(dp2339
g1655
g1192
sg1656
g1724
sg325
g1301
sbsS's3eGL.h'
p2340
g299
(g1651
g301
Ntp2341
Rp2342
(dp2343
g1655
g1663
sg1656
g1679
sg325
S'c:/marmalade/7.2/s3e/h/s3eGL.h'
p2344
sbsS'IwGeomFVec2.h'
p2345
g299
(g1651
g301
Ntp2346
Rp2347
(dp2348
g1655
g1371
sg1656
g1730
sg325
g1390
sbsS'IwGeomSVec4.h'
p2349
g299
(g1651
g301
Ntp2350
Rp2351
(dp2352
g1655
g1371
sg1656
g1730
sg325
g1410
sbsS'poll.h'
p2353
g299
(g1651
g301
Ntp2354
Rp2355
(dp2356
g1655
g1663
sg1656
g1685
sg325
S'c:/marmalade/7.2/s3e/h/std/poll.h'
p2357
sbsS'IwMatAnim.h'
p2358
g299
(g1651
g301
Ntp2359
Rp2360
(dp2361
g1655
g1463
sg1656
g1810
sg325
g1470
sbsS'IwGeomFVec4.h'
p2362
g299
(g1651
g301
Ntp2363
Rp2364
(dp2365
g1655
g1371
sg1656
g1730
sg325
g1396
sbsS'IwGx.h'
p2366
g299
(g1651
g301
Ntp2367
Rp2368
(dp2369
g1655
g1463
sg1656
g1810
sg325
g1487
sbsS'valarray'
p2370
g299
(g1651
g301
Ntp2371
Rp2372
(dp2373
g1655
g1663
sg1656
g1664
sg325
S'c:/marmalade/7.2/s3e/h/std/c++/valarray'
p2374
sbsS'iosfwd'
p2375
g299
(g1651
g301
Ntp2376
Rp2377
(dp2378
g1655
g1663
sg1656
g1664
sg325
S'c:/marmalade/7.2/s3e/h/std/c++/iosfwd'
p2379
sbsS'gl2.h'
p2380
g299
(g1651
g301
Ntp2381
Rp2382
(dp2383
g1655
g1663
sg1656
g1950
sg325
S'c:/marmalade/7.2/s3e/h/GLES2/gl2.h'
p2384
sbsS'jpegint.h'
p2385
g299
(g1651
g301
Ntp2386
Rp2387
(dp2388
g1655
g1049
sg1656
g1760
sg325
g1054
sbsS'stdiostream.h'
p2389
g299
(g1651
g301
Ntp2390
Rp2391
(dp2392
g1655
g1663
sg1656
g1664
sg325
S'c:/marmalade/7.2/s3e/h/std/c++/stdiostream.h'
p2393
sbsS'mem.h'
p2394
g299
(g1651
g301
Ntp2395
Rp2396
(dp2397
g1655
g1663
sg1656
g1664
sg325
S'c:/marmalade/7.2/s3e/h/std/c++/mem.h'
p2398
sbsS'main.cpp'
p2399
g299
(g1651
g301
Ntp2400
Rp2401
(dp2402
g1655
g1192
sg1656
g2033
sg325
g1235
sbsS'zconf.h'
p2403
g299
(g1651
g301
Ntp2404
Rp2405
(dp2406
g1655
g1632
sg1656
(lp2407
g1627
ag1034
asg325
g1630
sbsS's3e.config.txt'
p2408
g299
(g1651
g301
Ntp2409
Rp2410
(dp2411
g1655
g1663
sg1656
g1679
sg325
S'c:/marmalade/7.2/s3e/s3e.config.txt'
p2412
sbsS'numeric'
p2413
g299
(g1651
g301
Ntp2414
Rp2415
(dp2416
g1655
g1663
sg1656
g1664
sg325
S'c:/marmalade/7.2/s3e/h/std/c++/numeric'
p2417
sbsS'utime.h'
p2418
g299
(g1651
g301
Ntp2419
Rp2420
(dp2421
g1655
g1663
sg1656
g1685
sg325
S'c:/marmalade/7.2/s3e/h/std/utime.h'
p2422
sbsS'jdhuff.h'
p2423
g299
(g1651
g301
Ntp2424
Rp2425
(dp2426
g1655
g1049
sg1656
g1760
sg325
g1066
sbsS'IwResHandlerWAV.cpp'
p2427
g299
(g1651
g301
Ntp2428
Rp2429
(dp2430
g1655
g1093
sg1656
g1714
sg325
g1111
sbsS'IwGxStream.h'
p2431
g299
(g1651
g301
Ntp2432
Rp2433
(dp2434
g1655
g1463
sg1656
g1810
sg325
g1464
sbsS'resourceManager.h'
p2435
g299
(g1651
g301
Ntp2436
Rp2437
(dp2438
g1655
g1192
sg1656
g1703
sg325
g1249
sbsS'IwImage.h'
p2439
g299
(g1651
g301
Ntp2440
Rp2441
(dp2442
g1655
g1527
sg1656
g1697
sg325
g1574
sbsS's3eImagePicker.h'
p2443
g299
(g1651
g301
Ntp2444
Rp2445
(dp2446
g1655
g1663
sg1656
g1901
sg325
S'c:/marmalade/7.2/s3e/h/ext/s3eImagePicker.h'
p2447
sbsS's3eWebView.defines.txt'
p2448
g299
(g1651
g301
Ntp2449
Rp2450
(dp2451
g1655
g1149
sg1656
(lp2452
S'Extensions'
p2453
ag1143
ag1145
asg325
g1147
sbsS'stdlib.h'
p2454
g299
(g1651
g301
Ntp2455
Rp2456
(dp2457
g1655
g1663
sg1656
g1685
sg325
S'c:/marmalade/7.2/s3e/h/std/stdlib.h'
p2458
sbsS'IwCopyingPtr.h'
p2459
g299
(g1651
g301
Ntp2460
Rp2461
(dp2462
g1655
g1527
sg1656
g1697
sg325
g1604
sbsS'iostream'
p2463
g299
(g1651
g301
Ntp2464
Rp2465
(dp2466
g1655
g1663
sg1656
g1664
sg325
S'c:/marmalade/7.2/s3e/h/std/c++/iostream'
p2467
sbsS'png.h'
p2468
g299
(g1651
g301
Ntp2469
Rp2470
(dp2471
g1655
g1038
sg1656
(lp2472
g1032
ag1034
asg325
g1036
sbsS'stddef.h'
p2473
g299
(g1651
g301
Ntp2474
Rp2475
(dp2476
g1655
g1663
sg1656
g1685
sg325
S'c:/marmalade/7.2/s3e/h/std/stddef.h'
p2477
sbsS'setjmp_win32.h'
p2478
g299
(g1651
g301
Ntp2479
Rp2480
(dp2481
g1655
g1663
sg1656
g1685
sg325
S'c:/marmalade/7.2/s3e/h/std/setjmp_win32.h'
p2482
sbsS'IwGxPrint.h'
p2483
g299
(g1651
g301
Ntp2484
Rp2485
(dp2486
g1655
g1463
sg1656
g1810
sg325
g1479
sbsS'iwgx_public.defines.txt'
p2487
g299
(g1651
g301
Ntp2488
Rp2489
(dp2490
g1655
g1463
sg1656
g1810
sg325
g1483
sbsS'streambuf.h'
p2491
g299
(g1651
g301
Ntp2492
Rp2493
(dp2494
g1655
g1663
sg1656
g1664
sg325
S'c:/marmalade/7.2/s3e/h/std/c++/streambuf.h'
p2495
sbsS'IwGeomFPlane.h'
p2496
g299
(g1651
g301
Ntp2497
Rp2498
(dp2499
g1655
g1371
sg1656
g1730
sg325
g1372
sbsS'un.h'
p2500
g299
(g1651
g301
Ntp2501
Rp2502
(dp2503
g1655
g1663
sg1656
g1824
sg325
S'c:/marmalade/7.2/s3e/h/std/sys/un.h'
p2504
sbsS'wchar.h'
p2505
g299
(g1651
g301
Ntp2506
Rp2507
(dp2508
g1655
g1663
sg1656
g1685
sg325
S'c:/marmalade/7.2/s3e/h/std/wchar.h'
p2509
sbsS's3eCameraCapture.h'
p2510
g299
(g1651
g301
Ntp2511
Rp2512
(dp2513
g1655
g1663
sg1656
g1901
sg325
S'c:/marmalade/7.2/s3e/h/ext/s3eCameraCapture.h'
p2514
sbsS'eglext.h'
p2515
g299
(g1651
g301
Ntp2516
Rp2517
(dp2518
g1655
g1663
sg1656
g2053
sg325
S'c:/marmalade/7.2/s3e/h/EGL/eglext.h'
p2519
sbsS'IwResHandlerImage.h'
p2520
g299
(g1651
g301
Ntp2521
Rp2522
(dp2523
g1655
g1439
sg1656
g1958
sg325
g1447
sbsS'strstream.h'
p2524
g299
(g1651
g301
Ntp2525
Rp2526
(dp2527
g1655
g1663
sg1656
g1664
sg325
S'c:/marmalade/7.2/s3e/h/std/c++/strstream.h'
p2528
sbsS'tiniconv.h'
p2529
g299
(g1651
g301
Ntp2530
Rp2531
(dp2532
g1655
g1083
sg1656
g2176
sg325
g1081
sbsS'IwGLExt.h'
p2533
g299
(g1651
g301
Ntp2534
Rp2535
(dp2536
g1655
g1325
sg1656
g1673
sg325
g1329
sbsS'app.icf'
p2537
g299
(g1651
g301
Ntp2538
Rp2539
(dp2540
g1655
(dp2541
sg1656
g4
sg325
S'c:/Users/Vinicius/Desktop/Yes or No/Stars/data/app.icf'
p2542
sbsS'IwClassFactory.h'
p2543
g299
(g1651
g301
Ntp2544
Rp2545
(dp2546
g1655
g1527
sg1656
g1697
sg325
g1590
sbsS'file.h'
p2547
g299
(g1651
g301
Ntp2548
Rp2549
(dp2550
g1655
g1663
sg1656
g1824
sg325
S'c:/marmalade/7.2/s3e/h/std/sys/file.h'
p2551
sbsS'cstring'
p2552
g299
(g1651
g301
Ntp2553
Rp2554
(dp2555
g1655
g1663
sg1656
g1664
sg325
S'c:/marmalade/7.2/s3e/h/std/c++/cstring'
p2556
sbsS'IwSoundInst.cpp'
p2557
g299
(g1651
g301
Ntp2558
Rp2559
(dp2560
g1655
g1093
sg1656
g1714
sg325
g1097
sbsS'iwutil.config.txt'
p2561
g299
(g1651
g301
Ntp2562
Rp2563
(dp2564
g1655
g1527
sg1656
g1697
sg325
g1588
sbsS's3eSMS.h'
p2565
g299
(g1651
g301
Ntp2566
Rp2567
(dp2568
g1655
g1663
sg1656
g1901
sg325
S'c:/marmalade/7.2/s3e/h/ext/s3eSMS.h'
p2569
sbsS'limits.h'
p2570
g299
(g1651
g301
Ntp2571
Rp2572
(dp2573
g1655
g1663
sg1656
g1685
sg325
S'c:/marmalade/7.2/s3e/h/std/limits.h'
p2574
sbsS'iwgl.config.txt'
p2575
g299
(g1651
g301
Ntp2576
Rp2577
(dp2578
g1655
g1325
sg1656
g1673
sg325
g1331
sbsS'savedataManager.cpp'
p2579
g299
(g1651
g301
Ntp2580
Rp2581
(dp2582
g1655
g1192
sg1656
g1703
sg325
g1265
sbsS'IwMaterial.h'
p2583
g299
(g1651
g301
Ntp2584
Rp2585
(dp2586
g1655
g1463
sg1656
g1810
sg325
g1468
sbsS's3eFlurry.defines.txt'
p2587
g299
(g1651
g301
Ntp2588
Rp2589
(dp2590
g1655
g1178
sg1656
(lp2591
g1141
ag1172
ag1174
asg325
g1179
sbsS'IwGxSurface.h'
p2592
g299
(g1651
g301
Ntp2593
Rp2594
(dp2595
g1655
g1463
sg1656
g1810
sg325
g1481
sbsS's3eSocket.h'
p2596
g299
(g1651
g301
Ntp2597
Rp2598
(dp2599
g1655
g1663
sg1656
g1679
sg325
S'c:/marmalade/7.2/s3e/h/s3eSocket.h'
p2600
sbsS'IwAutoFile.h'
p2601
g299
(g1651
g301
Ntp2602
Rp2603
(dp2604
g1655
g1527
sg1656
g1697
sg325
g1594
sbsS'ipc.h'
p2605
g299
(g1651
g301
Ntp2606
Rp2607
(dp2608
g1655
g1663
sg1656
g1824
sg325
S'c:/marmalade/7.2/s3e/h/std/sys/ipc.h'
p2609
sbsS'poll_1.h'
p2610
g299
(g1651
g301
Ntp2611
Rp2612
(dp2613
g1655
g1663
sg1656
g1824
sg325
S'c:/marmalade/7.2/s3e/h/std/sys/poll.h'
p2614
sbsS's3eThread.h'
p2615
g299
(g1651
g301
Ntp2616
Rp2617
(dp2618
g1655
g1663
sg1656
g1679
sg325
S'c:/marmalade/7.2/s3e/h/s3eThread.h'
p2619
sbsS'ostream'
p2620
g299
(g1651
g301
Ntp2621
Rp2622
(dp2623
g1655
g1663
sg1656
g1664
sg325
S'c:/marmalade/7.2/s3e/h/std/c++/ostream'
p2624
sbsS'ucontext.h'
p2625
g299
(g1651
g301
Ntp2626
Rp2627
(dp2628
g1655
g1663
sg1656
g1685
sg325
S'c:/marmalade/7.2/s3e/h/std/ucontext.h'
p2629
sbsS'time.h'
p2630
g299
(g1651
g301
Ntp2631
Rp2632
(dp2633
g1655
g1663
sg1656
g1685
sg325
S'c:/marmalade/7.2/s3e/h/std/time.h'
p2634
sbsS'jchuff.h'
p2635
g299
(g1651
g301
Ntp2636
Rp2637
(dp2638
g1655
g1049
sg1656
g1760
sg325
g1047
sbsS'IwSoundPCM.cpp'
p2639
g299
(g1651
g301
Ntp2640
Rp2641
(dp2642
g1655
g1093
sg1656
g1714
sg325
g1125
sbsS's3eSoundRecord.h'
p2643
g299
(g1651
g301
Ntp2644
Rp2645
(dp2646
g1655
g1663
sg1656
g1679
sg325
S'c:/marmalade/7.2/s3e/h/s3eSoundRecord.h'
p2647
sbsS'IwFibre.h'
p2648
g299
(g1651
g301
Ntp2649
Rp2650
(dp2651
g1655
g1527
sg1656
g1697
sg325
g1532
sbsS'IwMemBucket.h'
p2652
g299
(g1651
g301
Ntp2653
Rp2654
(dp2655
g1655
g1527
sg1656
g1697
sg325
g1608
sbsS'strings.h'
p2656
g299
(g1651
g301
Ntp2657
Rp2658
(dp2659
g1655
g1663
sg1656
g1685
sg325
S'c:/marmalade/7.2/s3e/h/std/strings.h'
p2660
sbsS's3eVersion.h'
p2661
g299
(g1651
g301
Ntp2662
Rp2663
(dp2664
g1655
g1663
sg1656
g1679
sg325
S'c:/marmalade/7.2/s3e/h/s3eVersion.h'
p2665
sbsS'IwSoundGroup.h'
p2666
g299
(g1651
g301
Ntp2667
Rp2668
(dp2669
g1655
g1093
sg1656
g1714
sg325
g1131
sbsS'triggersManager.cpp'
p2670
g299
(g1651
g301
Ntp2671
Rp2672
(dp2673
g1655
g1192
sg1656
g1703
sg325
g1259
sbsS'IwSoundWAV.h'
p2674
g299
(g1651
g301
Ntp2675
Rp2676
(dp2677
g1655
g1093
sg1656
g1714
sg325
g1123
sbsS'IwGxFontGlyph.h'
p2678
g299
(g1651
g301
Ntp2679
Rp2680
(dp2681
g1655
g1349
sg1656
g1657
sg325
g1356
sbsS's3eTypes.h'
p2682
g299
(g1651
g301
Ntp2683
Rp2684
(dp2685
g1655
g1663
sg1656
g1679
sg325
S'c:/marmalade/7.2/s3e/h/s3eTypes.h'
p2686
sbsS'IwSoundSpec.h'
p2687
g299
(g1651
g301
Ntp2688
Rp2689
(dp2690
g1655
g1093
sg1656
g1714
sg325
g1127
sbsS'signal_2.h'
p2691
g299
(g1651
g301
Ntp2692
Rp2693
(dp2694
g1655
g1663
sg1656
g1664
sg325
S'c:/marmalade/7.2/s3e/h/std/c++/signal.h'
p2695
sbsS'termios.h'
p2696
g299
(g1651
g301
Ntp2697
Rp2698
(dp2699
g1655
g1663
sg1656
g1685
sg325
S'c:/marmalade/7.2/s3e/h/std/termios.h'
p2700
sbsS'iw2dscenegraph.mkf'
p2701
g299
(g1651
g301
Ntp2702
Rp2703
(dp2704
g1655
g1316
sg1656
g2012
sg325
g1314
sbsS'slist'
p2705
g299
(g1651
g301
Ntp2706
Rp2707
(dp2708
g1655
g1663
sg1656
g1664
sg325
S'c:/marmalade/7.2/s3e/h/std/c++/slist'
p2709
sbsS'cstdlib'
p2710
g299
(g1651
g301
Ntp2711
Rp2712
(dp2713
g1655
g1663
sg1656
g1664
sg325
S'c:/marmalade/7.2/s3e/h/std/c++/cstdlib'
p2714
sbsS's3eLocation.h'
p2715
g299
(g1651
g301
Ntp2716
Rp2717
(dp2718
g1655
g1663
sg1656
g1679
sg325
S'c:/marmalade/7.2/s3e/h/s3eLocation.h'
p2719
sbsS'IwMemBucketHelpers.h'
p2720
g299
(g1651
g301
Ntp2721
Rp2722
(dp2723
g1655
g1527
sg1656
g1697
sg325
g1602
sbsS's3eHash.h'
p2724
g299
(g1651
g301
Ntp2725
Rp2726
(dp2727
g1655
g1663
sg1656
g1679
sg325
S'c:/marmalade/7.2/s3e/h/s3eHash.h'
p2728
sbsS'IwSoundGroup.cpp'
p2729
g299
(g1651
g301
Ntp2730
Rp2731
(dp2732
g1655
g1093
sg1656
g1714
sg325
g1119
sbsS'IwGeomFMat.h'
p2733
g299
(g1651
g301
Ntp2734
Rp2735
(dp2736
g1655
g1371
sg1656
g1730
sg325
g1404
sbsS'type_traits.h'
p2737
g299
(g1651
g301
Ntp2738
Rp2739
(dp2740
g1655
g1663
sg1656
g1664
sg325
S'c:/marmalade/7.2/s3e/h/std/c++/type_traits.h'
p2741
sbsS'IwMenu.h'
p2742
g299
(g1651
g301
Ntp2743
Rp2744
(dp2745
g1655
g1527
sg1656
g1697
sg325
g1552
sbsS'IwResHandlerITX.h'
p2746
g299
(g1651
g301
Ntp2747
Rp2748
(dp2749
g1655
g1439
sg1656
g1958
sg325
g1453
sbsS'IwSoundData.h'
p2750
g299
(g1651
g301
Ntp2751
Rp2752
(dp2753
g1655
g1093
sg1656
g1714
sg325
g1137
sbsS'IwArray.h'
p2754
g299
(g1651
g301
Ntp2755
Rp2756
(dp2757
g1655
g1527
sg1656
g1697
sg325
g1528
sbsS'IwUTF8.h'
p2758
g299
(g1651
g301
Ntp2759
Rp2760
(dp2761
g1655
g1527
sg1656
g1697
sg325
g1596
sbsS'math_rvct.h'
p2762
g299
(g1651
g301
Ntp2763
Rp2764
(dp2765
g1655
g1663
sg1656
g1685
sg325
S'c:/marmalade/7.2/s3e/h/std/math_rvct.h'
p2766
sbsS'IwUtil.h'
p2767
g299
(g1651
g301
Ntp2768
Rp2769
(dp2770
g1655
g1527
sg1656
g1697
sg325
g1586
sbsS'IwGeomVec3.h'
p2771
g299
(g1651
g301
Ntp2772
Rp2773
(dp2774
g1655
g1371
sg1656
g1730
sg325
g1408
sbsS'wctype.h'
p2775
g299
(g1651
g301
Ntp2776
Rp2777
(dp2778
g1655
g1663
sg1656
g1685
sg325
S'c:/marmalade/7.2/s3e/h/std/wctype.h'
p2779
sbsS'mainMenu.h'
p2780
g299
(g1651
g301
Ntp2781
Rp2782
(dp2783
g1655
g1192
sg1656
g1724
sg325
g1285
sbsS'cstddef'
p2784
g299
(g1651
g301
Ntp2785
Rp2786
(dp2787
g1655
g1663
sg1656
g1664
sg325
S'c:/marmalade/7.2/s3e/h/std/c++/cstddef'
p2788
sbsS'assert.h'
p2789
g299
(g1651
g301
Ntp2790
Rp2791
(dp2792
g1655
g1663
sg1656
g1685
sg325
S'c:/marmalade/7.2/s3e/h/std/assert.h'
p2793
sbsS'mman.h'
p2794
g299
(g1651
g301
Ntp2795
Rp2796
(dp2797
g1655
g1663
sg1656
g1824
sg325
S'c:/marmalade/7.2/s3e/h/std/sys/mman.h'
p2798
sbsS'IwRandom.h'
p2799
g299
(g1651
g301
Ntp2800
Rp2801
(dp2802
g1655
g1527
sg1656
g1697
sg325
g1536
sbsS'libgen.h'
p2803
g299
(g1651
g301
Ntp2804
Rp2805
(dp2806
g1655
g1663
sg1656
g1685
sg325
S'c:/marmalade/7.2/s3e/h/std/libgen.h'
p2807
sbsS'utsname.h'
p2808
g299
(g1651
g301
Ntp2809
Rp2810
(dp2811
g1655
g1663
sg1656
g1824
sg325
S'c:/marmalade/7.2/s3e/h/std/sys/utsname.h'
p2812
sbsS'gameObject.h'
p2813
g299
(g1651
g301
Ntp2814
Rp2815
(dp2816
g1655
g1192
sg1656
g1927
sg325
g1217
sbsS'wait.h'
p2817
g299
(g1651
g301
Ntp2818
Rp2819
(dp2820
g1655
g1663
sg1656
g1824
sg325
S'c:/marmalade/7.2/s3e/h/std/sys/wait.h'
p2821
sbsS'comet.h'
p2822
g299
(g1651
g301
Ntp2823
Rp2824
(dp2825
g1655
g1192
sg1656
g1927
sg325
g1197
sbsS'param.h'
p2826
g299
(g1651
g301
Ntp2827
Rp2828
(dp2829
g1655
g1663
sg1656
g1824
sg325
S'c:/marmalade/7.2/s3e/h/std/sys/param.h'
p2830
sbsS'IwDivide.h'
p2831
g299
(g1651
g301
Ntp2832
Rp2833
(dp2834
g1655
g1527
sg1656
g1697
sg325
g1623
sbsS'Iw2DSceneGraphCore.cpp'
p2835
g299
(g1651
g301
Ntp2836
Rp2837
(dp2838
g1655
g1520
sg1656
(lp2839
S"'Marmalade Studio'"
p2840
ag1513
asg325
g1521
sbsS'IwResManager.h'
p2841
g299
(g1651
g301
Ntp2842
Rp2843
(dp2844
g1655
g1439
sg1656
g1958
sg325
g1457
sbsS'IwSoundManager.h'
p2845
g299
(g1651
g301
Ntp2846
Rp2847
(dp2848
g1655
g1093
sg1656
g1714
sg325
g1101
sbsS'cwctype'
p2849
g299
(g1651
g301
Ntp2850
Rp2851
(dp2852
g1655
g1663
sg1656
g1664
sg325
S'c:/marmalade/7.2/s3e/h/std/c++/cwctype'
p2853
sbsS'set'
p2854
g299
(g1651
g301
Ntp2855
Rp2856
(dp2857
g1655
g1663
sg1656
g1664
sg325
S'c:/marmalade/7.2/s3e/h/std/c++/set'
p2858
sbsS'IwGeomSQuat.h'
p2859
g299
(g1651
g301
Ntp2860
Rp2861
(dp2862
g1655
g1371
sg1656
g1730
sg325
g1423
sbsS'locale'
p2863
g299
(g1651
g301
Ntp2864
Rp2865
(dp2866
g1655
g1663
sg1656
g1664
sg325
S'c:/marmalade/7.2/s3e/h/std/c++/locale'
p2867
sbsS'cstdio'
p2868
g299
(g1651
g301
Ntp2869
Rp2870
(dp2871
g1655
g1663
sg1656
g1664
sg325
S'c:/marmalade/7.2/s3e/h/std/c++/cstdio'
p2872
sbsS'cdjpeg.h'
p2873
g299
(g1651
g301
Ntp2874
Rp2875
(dp2876
g1655
g1049
sg1656
g1760
sg325
g1052
sbsS'IwList.h'
p2877
g299
(g1651
g301
Ntp2878
Rp2879
(dp2880
g1655
g1527
sg1656
g1697
sg325
g1540
sbsS's3eWebView_interface.cpp'
p2881
g299
(g1651
g301
Ntp2882
Rp2883
(dp2884
g1655
g1149
sg1656
g2452
sg325
g1150
sbsS'inttypes.h'
p2885
g299
(g1651
g301
Ntp2886
Rp2887
(dp2888
g1655
g1663
sg1656
g1685
sg325
S'c:/marmalade/7.2/s3e/h/std/inttypes.h'
p2889
sbsS'dirent.h'
p2890
g299
(g1651
g301
Ntp2891
Rp2892
(dp2893
g1655
g1663
sg1656
g1685
sg325
S'c:/marmalade/7.2/s3e/h/std/dirent.h'
p2894
sbsS'IwFColour.h'
p2895
g299
(g1651
g301
Ntp2896
Rp2897
(dp2898
g1655
g1463
sg1656
g1810
sg325
g1503
sbsS'transupp.h'
p2899
g299
(g1651
g301
Ntp2900
Rp2901
(dp2902
g1655
g1049
sg1656
g1760
sg325
g1056
sbsS'IwMath.h'
p2903
g299
(g1651
g301
Ntp2904
Rp2905
(dp2906
g1655
g1527
sg1656
g1697
sg325
g1546
sbsS'IwGeomQuat.h'
p2907
g299
(g1651
g301
Ntp2908
Rp2909
(dp2910
g1655
g1371
sg1656
g1730
sg325
g1425
sbsS'glplatform.h'
p2911
g299
(g1651
g301
Ntp2912
Rp2913
(dp2914
g1655
g1663
sg1656
g2061
sg325
S'c:/marmalade/7.2/s3e/h/GLES/glplatform.h'
p2915
sbsS'bitset'
p2916
g299
(g1651
g301
Ntp2917
Rp2918
(dp2919
g1655
g1663
sg1656
g1664
sg325
S'c:/marmalade/7.2/s3e/h/std/c++/bitset'
p2920
sbsS'alloca.h'
p2921
g299
(g1651
g301
Ntp2922
Rp2923
(dp2924
g1655
g1663
sg1656
g1685
sg325
S'c:/marmalade/7.2/s3e/h/std/alloca.h'
p2925
sbsS'IwResHandler.h'
p2926
g299
(g1651
g301
Ntp2927
Rp2928
(dp2929
g1655
g1439
sg1656
g1958
sg325
g1440
sbsS'comet.cpp'
p2930
g299
(g1651
g301
Ntp2931
Rp2932
(dp2933
g1655
g1192
sg1656
g1927
sg325
g1203
sbsS'IwResHandlerMTL.h'
p2934
g299
(g1651
g301
Ntp2935
Rp2936
(dp2937
g1655
g1463
sg1656
g1810
sg325
g1477
sbsS'IwRuntime.h'
p2938
g299
(g1651
g301
Ntp2939
Rp2940
(dp2941
g1655
g1527
sg1656
g1697
sg325
g1580
sbsS's3eFlurry.h'
p2942
g299
(g1651
g301
Ntp2943
Rp2944
(dp2945
g1655
g1178
sg1656
g1912
sg325
g1181
sbsS'limits'
p2946
g299
(g1651
g301
Ntp2947
Rp2948
(dp2949
g1655
g1663
sg1656
g1664
sg325
S'c:/marmalade/7.2/s3e/h/std/c++/limits'
p2950
sbsS'IwGeomBBox.h'
p2951
g299
(g1651
g301
Ntp2952
Rp2953
(dp2954
g1655
g1371
sg1656
g1730
sg325
g1400
sbsS'audioManager.h'
p2955
g299
(g1651
g301
Ntp2956
Rp2957
(dp2958
g1655
g1192
sg1656
g1703
sg325
g1267
sbsS's3eContacts.h'
p2959
g299
(g1651
g301
Ntp2960
Rp2961
(dp2962
g1655
g1663
sg1656
g1679
sg325
S'c:/marmalade/7.2/s3e/h/s3eContacts.h'
p2963
sbsS's3eLicense.h'
p2964
g299
(g1651
g301
Ntp2965
Rp2966
(dp2967
g1655
g1663
sg1656
g1679
sg325
S'c:/marmalade/7.2/s3e/h/s3eLicense.h'
p2968
sbsS'iwgx.config.txt'
p2969
g299
(g1651
g301
Ntp2970
Rp2971
(dp2972
g1655
g1463
sg1656
g1810
sg325
g1472
sbsS'IwTextParser.h'
p2973
g299
(g1651
g301
Ntp2974
Rp2975
(dp2976
g1655
g1527
sg1656
g1697
sg325
g1558
sbsS's3eTimer.h'
p2977
g299
(g1651
g301
Ntp2978
Rp2979
(dp2980
g1655
g1663
sg1656
g1679
sg325
S'c:/marmalade/7.2/s3e/h/s3eTimer.h'
p2981
sbsS'IwGeomVec.h'
p2982
g299
(g1651
g301
Ntp2983
Rp2984
(dp2985
g1655
g1371
sg1656
g1730
sg325
g1412
sbsS'IwSerialise.h'
p2986
g299
(g1651
g301
Ntp2987
Rp2988
(dp2989
g1655
g1527
sg1656
g1697
sg325
g1598
sbsS'cstdarg'
p2990
g299
(g1651
g301
Ntp2991
Rp2992
(dp2993
g1655
g1663
sg1656
g1664
sg325
S'c:/marmalade/7.2/s3e/h/std/c++/cstdarg'
p2994
sbsS'gl2ext.h'
p2995
g299
(g1651
g301
Ntp2996
Rp2997
(dp2998
g1655
g1663
sg1656
g1950
sg325
S'c:/marmalade/7.2/s3e/h/GLES2/gl2ext.h'
p2999
sbsS'IwChar.h'
p3000
g299
(g1651
g301
Ntp3001
Rp3002
(dp3003
g1655
g1527
sg1656
g1697
sg325
g1554
sbsS's3eSound.h'
p3004
g299
(g1651
g301
Ntp3005
Rp3006
(dp3007
g1655
g1663
sg1656
g1679
sg325
S'c:/marmalade/7.2/s3e/h/s3eSound.h'
p3008
sbsS'gameObject.cpp'
p3009
g299
(g1651
g301
Ntp3010
Rp3011
(dp3012
g1655
g1192
sg1656
g1927
sg325
g1215
sbsS's3eIOSBackgroundAudio.h'
p3013
g299
(g1651
g301
Ntp3014
Rp3015
(dp3016
g1655
g1663
sg1656
g1901
sg325
S'c:/marmalade/7.2/s3e/h/ext/s3eIOSBackgroundAudio.h'
p3017
sbsS'exception.h'
p3018
g299
(g1651
g301
Ntp3019
Rp3020
(dp3021
g1655
g1663
sg1656
g1664
sg325
S'c:/marmalade/7.2/s3e/h/std/c++/exception.h'
p3022
sbsS'iwgeom.config.txt'
p3023
g299
(g1651
g301
Ntp3024
Rp3025
(dp3026
g1655
g1371
sg1656
g1730
sg325
g1369
sbsS'iwgx.mkf'
p3027
g299
(g1651
g301
Ntp3028
Rp3029
(dp3030
g1655
g1476
sg1656
g1810
sg325
g1474
sbsS'gl.h'
p3031
g299
(g1651
g301
Ntp3032
Rp3033
(dp3034
g1655
g1663
sg1656
g2061
sg325
S'c:/marmalade/7.2/s3e/h/GLES/gl.h'
p3035
sbsS'savedataManager.h'
p3036
g299
(g1651
g301
Ntp3037
Rp3038
(dp3039
g1655
g1192
sg1656
g1703
sg325
g1251
sbsS's3eFacebook.defines.txt'
p3040
g299
(g1651
g301
Ntp3041
Rp3042
(dp3043
g1655
g1163
sg1656
(lp3044
S'Extensions'
p3045
ag1157
ag1159
asg325
g1164
sbsS'iwgl.mkf'
p3046
g299
(g1651
g301
Ntp3047
Rp3048
(dp3049
g1655
g1328
sg1656
g1673
sg325
g1326
sbsS'audioManager.cpp'
p3050
g299
(g1651
g301
Ntp3051
Rp3052
(dp3053
g1655
g1192
sg1656
g1703
sg325
g1271
sbsS'IwColour.h'
p3054
g299
(g1651
g301
Ntp3055
Rp3056
(dp3057
g1655
g1463
sg1656
g1810
sg325
g1505
sbsS'types.h'
p3058
g299
(g1651
g301
Ntp3059
Rp3060
(dp3061
g1655
g1663
sg1656
g1824
sg325
S'c:/marmalade/7.2/s3e/h/std/sys/types.h'
p3062
sbsS'ifaddrs.h'
p3063
g299
(g1651
g301
Ntp3064
Rp3065
(dp3066
g1655
g1663
sg1656
g1685
sg325
S'c:/marmalade/7.2/s3e/h/std/ifaddrs.h'
p3067
sbsS'triggersManager.h'
p3068
g299
(g1651
g301
Ntp3069
Rp3070
(dp3071
g1655
g1192
sg1656
g1703
sg325
g1253
sbsS'inputManager.cpp'
p3072
g299
(g1651
g301
Ntp3073
Rp3074
(dp3075
g1655
g1192
sg1656
g1703
sg325
g1269
sbsS'IwTween.cpp'
p3076
g299
(g1651
g301
Ntp3077
Rp3078
(dp3079
g1655
g1645
sg1656
g2227
sg325
g1643
sbsS'exception'
p3080
g299
(g1651
g301
Ntp3081
Rp3082
(dp3083
g1655
g1663
sg1656
g1664
sg325
S'c:/marmalade/7.2/s3e/h/std/c++/exception'
p3084
sbsS's3eFacebook_interface.cpp'
p3085
g299
(g1651
g301
Ntp3086
Rp3087
(dp3088
g1655
g1163
sg1656
g3044
sg325
g1161
sbsS'rlocks.h'
p3089
g299
(g1651
g301
Ntp3090
Rp3091
(dp3092
g1655
g1663
sg1656
g1664
sg325
S'c:/marmalade/7.2/s3e/h/std/c++/rlocks.h'
p3093
sbsS'ioctl.h'
p3094
g299
(g1651
g301
Ntp3095
Rp3096
(dp3097
g1655
g1663
sg1656
g1824
sg325
S'c:/marmalade/7.2/s3e/h/std/sys/ioctl.h'
p3098
sbsS'rope'
p3099
g299
(g1651
g301
Ntp3100
Rp3101
(dp3102
g1655
g1663
sg1656
g1664
sg325
S'c:/marmalade/7.2/s3e/h/std/c++/rope'
p3103
sbsS'jinclude.h'
p3104
g299
(g1651
g301
Ntp3105
Rp3106
(dp3107
g1655
g1049
sg1656
g1760
sg325
g1062
sbsS's3eFlurry_interface.cpp'
p3108
g299
(g1651
g301
Ntp3109
Rp3110
(dp3111
g1655
g1178
sg1656
g2591
sg325
g1176
sbsS's3eWebView.h'
p3112
g299
(g1651
g301
Ntp3113
Rp3114
(dp3115
g1655
g1149
sg1656
(lp3116
g2453
ag1143
asg325
g1152
sbsS'IwEvent.h'
p3117
g299
(g1651
g301
Ntp3118
Rp3119
(dp3120
g1655
g1527
sg1656
g1697
sg325
g1556
sbsS'IwOptimiseSize.h'
p3121
g299
(g1651
g301
Ntp3122
Rp3123
(dp3124
g1655
g1527
sg1656
g1697
sg325
g1560
sbsS'iwgxfont_public.defines.txt'
p3125
g299
(g1651
g301
Ntp3126
Rp3127
(dp3128
g1655
g1349
sg1656
g1657
sg325
g1354
sbsS'iconv.h'
p3129
g299
(g1651
g301
Ntp3130
Rp3131
(dp3132
g1655
g1663
sg1656
g1685
sg325
S'c:/marmalade/7.2/s3e/h/std/iconv.h'
p3133
sbsS's3eDevice.h'
p3134
g299
(g1651
g301
Ntp3135
Rp3136
(dp3137
g1655
g1663
sg1656
g1679
sg325
S'c:/marmalade/7.2/s3e/h/s3eDevice.h'
p3138
sbsS'IwGeomSphere.h'
p3139
g299
(g1651
g301
Ntp3140
Rp3141
(dp3142
g1655
g1371
sg1656
g1730
sg325
g1427
sbsS'tiniconv.mkf'
p3143
g299
(g1651
g301
Ntp3144
Rp3145
(dp3146
g1655
g1088
sg1656
g2176
sg325
g1086
sbsS'iw2dscenegraph.defines.txt'
p3147
g299
(g1651
g301
Ntp3148
Rp3149
(dp3150
g1655
g1313
sg1656
g2012
sg325
g1319
sbsS'jdct.h'
p3151
g299
(g1651
g301
Ntp3152
Rp3153
(dp3154
g1655
g1049
sg1656
g1760
sg325
g1064
sbsS'cctype'
p3155
g299
(g1651
g301
Ntp3156
Rp3157
(dp3158
g1655
g1663
sg1656
g1664
sg325
S'c:/marmalade/7.2/s3e/h/std/c++/cctype'
p3159
sbsS'IwSoundADPCM.cpp'
p3160
g299
(g1651
g301
Ntp3161
Rp3162
(dp3163
g1655
g1093
sg1656
g1714
sg325
g1099
sbsS's3eConfig.h'
p3164
g299
(g1651
g301
Ntp3165
Rp3166
(dp3167
g1655
g1663
sg1656
g1679
sg325
S'c:/marmalade/7.2/s3e/h/s3eConfig.h'
p3168
sbsS'IwHashString.h'
p3169
g299
(g1651
g301
Ntp3170
Rp3171
(dp3172
g1655
g1527
sg1656
g1697
sg325
g1625
sbsS'stat.h'
p3173
g299
(g1651
g301
Ntp3174
Rp3175
(dp3176
g1655
g1663
sg1656
g1824
sg325
S'c:/marmalade/7.2/s3e/h/std/sys/stat.h'
p3177
sbsS'byteswap.h'
p3178
g299
(g1651
g301
Ntp3179
Rp3180
(dp3181
g1655
g1663
sg1656
g1685
sg325
S'c:/marmalade/7.2/s3e/h/std/byteswap.h'
p3182
sbsS'iwresmanager.mkf'
p3183
g299
(g1651
g301
Ntp3184
Rp3185
(dp3186
g1655
g1444
sg1656
g1958
sg325
g1442
sbsS'IwUtilInitTerm.h'
p3187
g299
(g1651
g301
Ntp3188
Rp3189
(dp3190
g1655
g1527
sg1656
g1697
sg325
g1592
sbsS'star.h'
p3191
g299
(g1651
g301
Ntp3192
Rp3193
(dp3194
g1655
g1192
sg1656
g1927
sg325
g1195
sbsS'pthread_1.h'
p3195
g299
(g1651
g301
Ntp3196
Rp3197
(dp3198
g1655
g1663
sg1656
g1664
sg325
S'c:/marmalade/7.2/s3e/h/std/c++/pthread.h'
p3199
sbsS'iw2d.mkf'
p3200
g299
(g1651
g301
Ntp3201
Rp3202
(dp3203
g1655
g1344
sg1656
g1765
sg325
g1342
sbsS'complex'
p3204
g299
(g1651
g301
Ntp3205
Rp3206
(dp3207
g1655
g1663
sg1656
g1664
sg325
S'c:/marmalade/7.2/s3e/h/std/c++/complex'
p3208
sbsS'game.cpp'
p3209
g299
(g1651
g301
Ntp3210
Rp3211
(dp3212
g1655
g1192
sg1656
g1724
sg325
g1305
sbsS'algorithm'
p3213
g299
(g1651
g301
Ntp3214
Rp3215
(dp3216
g1655
g1663
sg1656
g1664
sg325
S'c:/marmalade/7.2/s3e/h/std/c++/algorithm'
p3217
sbsS's3e.icf'
p3218
g299
(g1651
g301
Ntp3219
Rp3220
(dp3221
g1655
g1663
sg1656
g1679
sg325
S'c:/marmalade/7.2/s3e/s3e.icf'
p3222
sbsS'sem.h'
p3223
g299
(g1651
g301
Ntp3224
Rp3225
(dp3226
g1655
g1663
sg1656
g1824
sg325
S'c:/marmalade/7.2/s3e/h/std/sys/sem.h'
p3227
sbsS'IwGxFontState.h'
p3228
g299
(g1651
g301
Ntp3229
Rp3230
(dp3231
g1655
g1349
sg1656
g1657
sg325
g1358
sbsS'stdio.h'
p3232
g299
(g1651
g301
Ntp3233
Rp3234
(dp3235
g1655
g1663
sg1656
g1685
sg325
S'c:/marmalade/7.2/s3e/h/std/stdio.h'
p3236
sbsS's3eFacebook.h'
p3237
g299
(g1651
g301
Ntp3238
Rp3239
(dp3240
g1655
g1163
sg1656
(lp3241
g3045
ag1157
ag1034
asg325
g1167
sbsS'jmemsys.h'
p3242
g299
(g1651
g301
Ntp3243
Rp3244
(dp3245
g1655
g1049
sg1656
g1760
sg325
g1068
sbsS'ios'
p3246
g299
(g1651
g301
Ntp3247
Rp3248
(dp3249
g1655
g1663
sg1656
g1664
sg325
S'c:/marmalade/7.2/s3e/h/std/c++/ios'
p3250
sbsS'IwTween.h'
p3251
g299
(g1651
g301
Ntp3252
Rp3253
(dp3254
g1655
g1645
sg1656
g2227
sg325
g1646
sbsS'stack'
p3255
g299
(g1651
g301
Ntp3256
Rp3257
(dp3258
g1655
g1663
sg1656
g1664
sg325
S'c:/marmalade/7.2/s3e/h/std/c++/stack'
p3259
sbsS'utils.h'
p3260
g299
(g1651
g301
Ntp3261
Rp3262
(dp3263
g1655
g1192
sg1656
g1692
sg325
g1227
sbsS'IwSoundParams.h'
p3264
g299
(g1651
g301
Ntp3265
Rp3266
(dp3267
g1655
g1093
sg1656
g1714
sg325
g1135
sbsS'new.h'
p3268
g299
(g1651
g301
Ntp3269
Rp3270
(dp3271
g1655
g1663
sg1656
g1664
sg325
S'c:/marmalade/7.2/s3e/h/std/c++/new.h'
p3272
sbsS'satellite.cpp'
p3273
g299
(g1651
g301
Ntp3274
Rp3275
(dp3276
g1655
g1192
sg1656
g1927
sg325
g1201
sbsS's3eEMail.h'
p3277
g299
(g1651
g301
Ntp3278
Rp3279
(dp3280
g1655
g1663
sg1656
g1901
sg325
S'c:/marmalade/7.2/s3e/h/ext/s3eEMail.h'
p3281
sbsS's3eVideo.h'
p3282
g299
(g1651
g301
Ntp3283
Rp3284
(dp3285
g1655
g1663
sg1656
g1679
sg325
S'c:/marmalade/7.2/s3e/h/s3eVideo.h'
p3286
sbsS'pngconf.h'
p3287
g299
(g1651
g301
Ntp3288
Rp3289
(dp3290
g1655
g1038
sg1656
g2472
sg325
g1039
sbsS'pwd.h'
p3291
g299
(g1651
g301
Ntp3292
Rp3293
(dp3294
g1655
g1663
sg1656
g1685
sg325
S'c:/marmalade/7.2/s3e/h/std/pwd.h'
p3295
sbsS'IwOptimiseThumb.h'
p3296
g299
(g1651
g301
Ntp3297
Rp3298
(dp3299
g1655
g1527
sg1656
g1697
sg325
g1584
sbsS'IwClip.h'
p3300
g299
(g1651
g301
Ntp3301
Rp3302
(dp3303
g1655
g1463
sg1656
g1810
sg325
g1485
sbsS'IwSoundInst.h'
p3304
g299
(g1651
g301
Ntp3305
Rp3306
(dp3307
g1655
g1093
sg1656
g1714
sg325
g1113
sbsS'iwresmanager.config.txt'
p3308
g299
(g1651
g301
Ntp3309
Rp3310
(dp3311
g1655
g1439
sg1656
g1958
sg325
g1449
sbsS'IwGxShaderTechnique.h'
p3312
g299
(g1651
g301
Ntp3313
Rp3314
(dp3315
g1655
g1463
sg1656
g1810
sg325
g1507
sbsS'getStars.h'
p3316
g299
(g1651
g301
Ntp3317
Rp3318
(dp3319
g1655
g1192
sg1656
g1724
sg325
g1287
sbsS'IwCore.h'
p3320
g299
(g1651
g301
Ntp3321
Rp3322
(dp3323
g1655
g1527
sg1656
g1697
sg325
g1525
sbsS'cfloat'
p3324
g299
(g1651
g301
Ntp3325
Rp3326
(dp3327
g1655
g1663
sg1656
g1664
sg325
S'c:/marmalade/7.2/s3e/h/std/c++/cfloat'
p3328
sbsS'IwGeomMat2D.h'
p3329
g299
(g1651
g301
Ntp3330
Rp3331
(dp3332
g1655
g1371
sg1656
g1730
sg325
g1378
sbsS'IwAllocator.h'
p3333
g299
(g1651
g301
Ntp3334
Rp3335
(dp3336
g1655
g1527
sg1656
g1697
sg325
g1564
sbsS'timerManager.cpp'
p3337
g299
(g1651
g301
Ntp3338
Rp3339
(dp3340
g1655
g1192
sg1656
g1703
sg325
g1241
sbsS'customize.h'
p3341
g299
(g1651
g301
Ntp3342
Rp3343
(dp3344
g1655
g1192
sg1656
g1724
sg325
g1281
sbsS'IwPath.h'
p3345
g299
(g1651
g301
Ntp3346
Rp3347
(dp3348
g1655
g1527
sg1656
g1697
sg325
g1600
sbsS'iwgxfont.mkf'
p3349
g299
(g1651
g301
Ntp3350
Rp3351
(dp3352
g1655
g1364
sg1656
g1657
sg325
g1362
sbsS'IwTexture.h'
p3353
g299
(g1651
g301
Ntp3354
Rp3355
(dp3356
g1655
g1463
sg1656
g1810
sg325
g1501
sbsS'vortex.cpp'
p3357
g299
(g1651
g301
Ntp3358
Rp3359
(dp3360
g1655
g1192
sg1656
g1927
sg325
g1213
sbsS's3eAccelerometer.h'
p3361
g299
(g1651
g301
Ntp3362
Rp3363
(dp3364
g1655
g1663
sg1656
g1679
sg325
S'c:/marmalade/7.2/s3e/h/s3eAccelerometer.h'
p3365
sbsS'setjmp.h'
p3366
g299
(g1651
g301
Ntp3367
Rp3368
(dp3369
g1655
g1663
sg1656
g1685
sg325
S'c:/marmalade/7.2/s3e/h/std/setjmp.h'
p3370
sbsS'items.cpp'
p3371
g299
(g1651
g301
Ntp3372
Rp3373
(dp3374
g1655
g1192
sg1656
g1724
sg325
g1279
sbsS'IwSoundParams.cpp'
p3375
g299
(g1651
g301
Ntp3376
Rp3377
(dp3378
g1655
g1093
sg1656
g1714
sg325
g1103
sbsS'IwFile.h'
p3379
g299
(g1651
g301
Ntp3380
Rp3381
(dp3382
g1655
g1527
sg1656
g1697
sg325
g1566
sbsS'IwTextParseable.h'
p3383
g299
(g1651
g301
Ntp3384
Rp3385
(dp3386
g1655
g1527
sg1656
g1697
sg325
g1619
sbsS'istream.h'
p3387
g299
(g1651
g301
Ntp3388
Rp3389
(dp3390
g1655
g1663
sg1656
g1664
sg325
S'c:/marmalade/7.2/s3e/h/std/c++/istream.h'
p3391
sbsS'stdint.h'
p3392
g299
(g1651
g301
Ntp3393
Rp3394
(dp3395
g1655
g1663
sg1656
g1685
sg325
S'c:/marmalade/7.2/s3e/h/std/stdint.h'
p3396
sbsS'semaphore.h'
p3397
g299
(g1651
g301
Ntp3398
Rp3399
(dp3400
g1655
g1663
sg1656
g1685
sg325
S'c:/marmalade/7.2/s3e/h/std/semaphore.h'
p3401
sbsS'ctime'
p3402
g299
(g1651
g301
Ntp3403
Rp3404
(dp3405
g1655
g1663
sg1656
g1664
sg325
S'c:/marmalade/7.2/s3e/h/std/c++/ctime'
p3406
sbsS'sstream'
p3407
g299
(g1651
g301
Ntp3408
Rp3409
(dp3410
g1655
g1663
sg1656
g1664
sg325
S'c:/marmalade/7.2/s3e/h/std/c++/sstream'
p3411
sbsS'IwGeomFBBox.h'
p3412
g299
(g1651
g301
Ntp3413
Rp3414
(dp3415
g1655
g1371
sg1656
g1730
sg325
g1433
sbsS'IwDebugPrim.h'
p3416
g299
(g1651
g301
Ntp3417
Rp3418
(dp3419
g1655
g1463
sg1656
g1810
sg325
g1491
sbsS'parallaxManager.cpp'
p3420
g299
(g1651
g301
Ntp3421
Rp3422
(dp3423
g1655
g1192
sg1656
g1703
sg325
g1255
sbsS'blackHole.cpp'
p3424
g299
(g1651
g301
Ntp3425
Rp3426
(dp3427
g1655
g1192
sg1656
g1927
sg325
g1207
sbsS'parallaxManager.h'
p3428
g299
(g1651
g301
Ntp3429
Rp3430
(dp3431
g1655
g1192
sg1656
g1703
sg325
g1273
sbsS'IwGxFontContainer.h'
p3432
g299
(g1651
g301
Ntp3433
Rp3434
(dp3435
g1655
g1349
sg1656
g1657
sg325
g1352
sbsS'player.h'
p3436
g299
(g1651
g301
Ntp3437
Rp3438
(dp3439
g1655
g1192
sg1656
g1927
sg325
g1190
sbsS'iw2dscenegraphcore.mkf'
p3440
g299
(g1651
g301
Ntp3441
Rp3442
(dp3443
g1655
g1517
sg1656
g2839
sg325
g1515
sbsS'resourceManager.cpp'
p3444
g299
(g1651
g301
Ntp3445
Rp3446
(dp3447
g1655
g1192
sg1656
g1703
sg325
g1275
sbsS's3eExt.h'
p3448
g299
(g1651
g301
Ntp3449
Rp3450
(dp3451
g1655
g1663
sg1656
g1679
sg325
S'c:/marmalade/7.2/s3e/h/s3eExt.h'
p3452
sbsS'IwGeomFVec3.h'
p3453
g299
(g1651
g301
Ntp3454
Rp3455
(dp3456
g1655
g1371
sg1656
g1730
sg325
g1388
sbsS'IwClip.inl'
p3457
g299
(g1651
g301
Ntp3458
Rp3459
(dp3460
g1655
g1463
sg1656
g1810
sg325
g1497
sbsS'streambuf'
p3461
g299
(g1651
g301
Ntp3462
Rp3463
(dp3464
g1655
g1663
sg1656
g1664
sg325
S'c:/marmalade/7.2/s3e/h/std/c++/streambuf'
p3465
sbsS'asteroid.h'
p3466
g299
(g1651
g301
Ntp3467
Rp3468
(dp3469
g1655
g1192
sg1656
g1927
sg325
g1209
sbsS's3eMetrics.h'
p3470
g299
(g1651
g301
Ntp3471
Rp3472
(dp3473
g1655
g1663
sg1656
g1901
sg325
S'c:/marmalade/7.2/s3e/h/ext/s3eMetrics.h'
p3474
sbsS'IwGxFont.h'
p3475
g299
(g1651
g301
Ntp3476
Rp3477
(dp3478
g1655
g1349
sg1656
g1657
sg325
g1347
sbsS's3eSecureStorage.h'
p3479
g299
(g1651
g301
Ntp3480
Rp3481
(dp3482
g1655
g1663
sg1656
g1679
sg325
S'c:/marmalade/7.2/s3e/h/s3eSecureStorage.h'
p3483
sbsS'string.h'
p3484
g299
(g1651
g301
Ntp3485
Rp3486
(dp3487
g1655
g1663
sg1656
g1685
sg325
S'c:/marmalade/7.2/s3e/h/std/string.h'
p3488
sbsS'IwResource.h'
p3489
g299
(g1651
g301
Ntp3490
Rp3491
(dp3492
g1655
g1527
sg1656
g1697
sg325
g1530
sbsS'IwGeomSVec2.h'
p3493
g299
(g1651
g301
Ntp3494
Rp3495
(dp3496
g1655
g1371
sg1656
g1730
sg325
g1394
sbsS'libjpeg.mkf'
p3497
g299
(g1651
g301
Ntp3498
Rp3499
(dp3500
g1655
g1078
sg1656
(lp3501
g1044
asg325
g1076
sbsS'IwGxDebug.h'
p3502
g299
(g1651
g301
Ntp3503
Rp3504
(dp3505
g1655
g1463
sg1656
g1810
sg325
g1489
sbsS'float.h'
p3506
g299
(g1651
g301
Ntp3507
Rp3508
(dp3509
g1655
g1663
sg1656
g1685
sg325
S'c:/marmalade/7.2/s3e/h/std/float.h'
p3510
sbsS'iomanip.h'
p3511
g299
(g1651
g301
Ntp3512
Rp3513
(dp3514
g1655
g1663
sg1656
g1664
sg325
S'c:/marmalade/7.2/s3e/h/std/c++/iomanip.h'
p3515
sbsS'IwKeymap.h'
p3516
g299
(g1651
g301
Ntp3517
Rp3518
(dp3519
g1655
g1527
sg1656
g1697
sg325
g1613
sbsS'IwDebug.h'
p3520
g299
(g1651
g301
Ntp3521
Rp3522
(dp3523
g1655
g1527
sg1656
g1697
sg325
g1621
sbsS'IwVariableBitField.h'
p3524
g299
(g1651
g301
Ntp3525
Rp3526
(dp3527
g1655
g1527
sg1656
g1697
sg325
g1570
sbsS'IwGeomMenu.h'
p3528
g299
(g1651
g301
Ntp3529
Rp3530
(dp3531
g1655
g1371
sg1656
g1730
sg325
g1380
sbsS'IwDivTable.h'
p3532
g299
(g1651
g301
Ntp3533
Rp3534
(dp3535
g1655
g1527
sg1656
g1697
sg325
g1548
sbsS'ctype.h'
p3536
g299
(g1651
g301
Ntp3537
Rp3538
(dp3539
g1655
g1663
sg1656
g1685
sg325
S'c:/marmalade/7.2/s3e/h/std/ctype.h'
p3540
sbsS'mainMenu.cpp'
p3541
g299
(g1651
g301
Ntp3542
Rp3543
(dp3544
g1655
g1192
sg1656
g1724
sg325
g1295
sbsS'IwResGroup.h'
p3545
g299
(g1651
g301
Ntp3546
Rp3547
(dp3548
g1655
g1439
sg1656
g1958
sg325
g1445
sbsS'signal_1.h'
p3549
g299
(g1651
g301
Ntp3550
Rp3551
(dp3552
g1655
g1663
sg1656
g1824
sg325
S'c:/marmalade/7.2/s3e/h/std/sys/signal.h'
p3553
sbsS'IwSoundData.cpp'
p3554
g299
(g1651
g301
Ntp3555
Rp3556
(dp3557
g1655
g1093
sg1656
g1714
sg325
g1105
sbsS'jerror.h'
p3558
g299
(g1651
g301
Ntp3559
Rp3560
(dp3561
g1655
g1049
sg1656
g1760
sg325
g1072
sbsS'shm.h'
p3562
g299
(g1651
g301
Ntp3563
Rp3564
(dp3565
g1655
g1663
sg1656
g1824
sg325
S'c:/marmalade/7.2/s3e/h/std/sys/shm.h'
p3566
sbsS'IwManagedList.h'
p3567
g299
(g1651
g301
Ntp3568
Rp3569
(dp3570
g1655
g1527
sg1656
g1697
sg325
g1538
sbsS'prctl.h'
p3571
g299
(g1651
g301
Ntp3572
Rp3573
(dp3574
g1655
g1663
sg1656
g1824
sg325
S'c:/marmalade/7.2/s3e/h/std/sys/prctl.h'
p3575
sbsS's3eCamera.h'
p3576
g299
(g1651
g301
Ntp3577
Rp3578
(dp3579
g1655
g1663
sg1656
g1679
sg325
S'c:/marmalade/7.2/s3e/h/s3eCamera.h'
p3580
sbsS'utility'
p3581
g299
(g1651
g301
Ntp3582
Rp3583
(dp3584
g1655
g1663
sg1656
g1664
sg325
S'c:/marmalade/7.2/s3e/h/std/c++/utility'
p3585
sbsS's3ewebview.mkf'
p3586
g299
(g1651
g301
Ntp3587
Rp3588
(dp3589
g1655
g1156
sg1656
g3116
sg325
g1154
sbsS'IwGeomLegacy.h'
p3590
g299
(g1651
g301
Ntp3591
Rp3592
(dp3593
g1655
g1371
sg1656
g1730
sg325
g1429
sbsS'IwTPage.h'
p3594
g299
(g1651
g301
Ntp3595
Rp3596
(dp3597
g1655
g1463
sg1656
g1810
sg325
g1461
sbsS'IwResSerialise.h'
p3598
g299
(g1651
g301
Ntp3599
Rp3600
(dp3601
g1655
g1439
sg1656
g1958
sg325
g1455
sbsS's3eCrypto.h'
p3602
g299
(g1651
g301
Ntp3603
Rp3604
(dp3605
g1655
g1663
sg1656
g1679
sg325
S'c:/marmalade/7.2/s3e/h/s3eCrypto.h'
p3606
sbsS's3eKeyboard.h'
p3607
g299
(g1651
g301
Ntp3608
Rp3609
(dp3610
g1655
g1663
sg1656
g1679
sg325
S'c:/marmalade/7.2/s3e/h/s3eKeyboard.h'
p3611
sbsS'fcntl.h'
p3612
g299
(g1651
g301
Ntp3613
Rp3614
(dp3615
g1655
g1663
sg1656
g1685
sg325
S'c:/marmalade/7.2/s3e/h/std/fcntl.h'
p3616
sbsS'Iw2DSceneGraphCore.h'
p3617
g299
(g1651
g301
Ntp3618
Rp3619
(dp3620
g1655
g1520
sg1656
g2839
sg325
g1518
sbsS'memory.h'
p3621
g299
(g1651
g301
Ntp3622
Rp3623
(dp3624
g1655
g1663
sg1656
g1685
sg325
S'c:/marmalade/7.2/s3e/h/std/memory.h'
p3625
sbsS'pthread.h'
p3626
g299
(g1651
g301
Ntp3627
Rp3628
(dp3629
g1655
g1663
sg1656
g1685
sg325
S'c:/marmalade/7.2/s3e/h/std/pthread.h'
p3630
sbsS'IwGeomIntersect.h'
p3631
g299
(g1651
g301
Ntp3632
Rp3633
(dp3634
g1655
g1371
sg1656
g1730
sg325
g1421
sbsS'netdb.h'
p3635
g299
(g1651
g301
Ntp3636
Rp3637
(dp3638
g1655
g1663
sg1656
g1685
sg325
S'c:/marmalade/7.2/s3e/h/std/netdb.h'
p3639
sbsS'sceneManager.h'
p3640
g299
(g1651
g301
Ntp3641
Rp3642
(dp3643
g1655
g1192
sg1656
g1703
sg325
g1263
sbsS'sceneManager.cpp'
p3644
g299
(g1651
g301
Ntp3645
Rp3646
(dp3647
g1655
g1192
sg1656
g1703
sg325
g1247
sbsS'Iw2DSceneGraph.cpp'
p3648
g299
(g1651
g301
Ntp3649
Rp3650
(dp3651
g1655
g1313
sg1656
g2012
sg325
g1311
sbsS'ostream.h'
p3652
g299
(g1651
g301
Ntp3653
Rp3654
(dp3655
g1655
g1663
sg1656
g1664
sg325
S'c:/marmalade/7.2/s3e/h/std/c++/ostream.h'
p3656
sbsS'stl_user_config.h'
p3657
g299
(g1651
g301
Ntp3658
Rp3659
(dp3660
g1655
g1663
sg1656
g1664
sg325
S'c:/marmalade/7.2/s3e/h/std/c++/stl_user_config.h'
p3661
sbsS'satellite.h'
p3662
g299
(g1651
g301
Ntp3663
Rp3664
(dp3665
g1655
g1192
sg1656
g1927
sg325
g1199
sbsS'IwProfileMenu.h'
p3666
g299
(g1651
g301
Ntp3667
Rp3668
(dp3669
g1655
g1527
sg1656
g1697
sg325
g1542
sbsS'MarmaladeVersion.h'
p3670
g299
(g1651
g301
Ntp3671
Rp3672
(dp3673
g1655
g1663
sg1656
g1679
sg325
S'c:/marmalade/7.2/s3e/h/MarmaladeVersion.h'
p3674
sbsS'IwResHandlerWAV.h'
p3675
g299
(g1651
g301
Ntp3676
Rp3677
(dp3678
g1655
g1093
sg1656
g1714
sg325
g1133
sbsS'options.h'
p3679
g299
(g1651
g301
Ntp3680
Rp3681
(dp3682
g1655
g1192
sg1656
g1724
sg325
g1291
sbsS'ios.h'
p3683
g299
(g1651
g301
Ntp3684
Rp3685
(dp3686
g1655
g1663
sg1656
g1664
sg325
S'c:/marmalade/7.2/s3e/h/std/c++/ios.h'
p3687
sbsS'store.cpp'
p3688
g299
(g1651
g301
Ntp3689
Rp3690
(dp3691
g1655
g1192
sg1656
g1724
sg325
g1299
sbsS'IwImageHelper.h'
p3692
g299
(g1651
g301
Ntp3693
Rp3694
(dp3695
g1655
g1527
sg1656
g1697
sg325
g1615
sbsS'zlib.h'
p3696
g299
(g1651
g301
Ntp3697
Rp3698
(dp3699
g1655
g1632
sg1656
g2407
sg325
g1633
sbsS'hash_set'
p3700
g299
(g1651
g301
Ntp3701
Rp3702
(dp3703
g1655
g1663
sg1656
g1664
sg325
S'c:/marmalade/7.2/s3e/h/std/c++/hash_set'
p3704
sbsS'IwGeomFQuat.h'
p3705
g299
(g1651
g301
Ntp3706
Rp3707
(dp3708
g1655
g1371
sg1656
g1730
sg325
g1406
sbsS'jmorecfg.h'
p3709
g299
(g1651
g301
Ntp3710
Rp3711
(dp3712
g1655
g1049
sg1656
g1760
sg325
g1070
sbsS'eglplatform.h'
p3713
g299
(g1651
g301
Ntp3714
Rp3715
(dp3716
g1655
g1663
sg1656
g2053
sg325
S'c:/marmalade/7.2/s3e/h/EGL/eglplatform.h'
p3717
sbsS'cmath'
p3718
g299
(g1651
g301
Ntp3719
Rp3720
(dp3721
g1655
g1663
sg1656
g1664
sg325
S'c:/marmalade/7.2/s3e/h/std/c++/cmath'
p3722
sbsS'math_gcc.h'
p3723
g299
(g1651
g301
Ntp3724
Rp3725
(dp3726
g1655
g1663
sg1656
g1685
sg325
S'c:/marmalade/7.2/s3e/h/std/math_gcc.h'
p3727
sbsS's3eMemory.h'
p3728
g299
(g1651
g301
Ntp3729
Rp3730
(dp3731
g1655
g1663
sg1656
g1679
sg325
S'c:/marmalade/7.2/s3e/h/s3eMemory.h'
p3732
sbsS'IwGeomSVec3.h'
p3733
g299
(g1651
g301
Ntp3734
Rp3735
(dp3736
g1655
g1371
sg1656
g1730
sg325
g1398
sbsS's3eFile.h'
p3737
g299
(g1651
g301
Ntp3738
Rp3739
(dp3740
g1655
g1663
sg1656
g1679
sg325
S'c:/marmalade/7.2/s3e/h/s3eFile.h'
p3741
sbsS'IwGxTypes.h'
p3742
g299
(g1651
g301
Ntp3743
Rp3744
(dp3745
g1655
g1463
sg1656
g1810
sg325
g1509
sbsS'cerrno'
p3746
g299
(g1651
g301
Ntp3747
Rp3748
(dp3749
g1655
g1663
sg1656
g1664
sg325
S'c:/marmalade/7.2/s3e/h/std/c++/cerrno'
p3750
sbsS'IwSoundManager.cpp'
p3751
g299
(g1651
g301
Ntp3752
Rp3753
(dp3754
g1655
g1093
sg1656
g1714
sg325
g1091
sbsS'main.h'
p3755
g299
(g1651
g301
Ntp3756
Rp3757
(dp3758
g1655
g1192
sg1656
g2033
sg325
g1233
sbsS'soundengine.mkf'
p3759
g299
(g1651
g301
Ntp3760
Rp3761
(dp3762
g1655
g1096
sg1656
g1714
sg325
g1094
sbsS'resource.h'
p3763
g299
(g1651
g301
Ntp3764
Rp3765
(dp3766
g1655
g1663
sg1656
g1824
sg325
S'c:/marmalade/7.2/s3e/h/std/sys/resource.h'
p3767
sbsS'clocale'
p3768
g299
(g1651
g301
Ntp3769
Rp3770
(dp3771
g1655
g1663
sg1656
g1664
sg325
S'c:/marmalade/7.2/s3e/h/std/c++/clocale'
p3772
sbsS'csetjmp'
p3773
g299
(g1651
g301
Ntp3774
Rp3775
(dp3776
g1655
g1663
sg1656
g1664
sg325
S'c:/marmalade/7.2/s3e/h/std/c++/csetjmp'
p3777
sbsS'IwTextParserITX.h'
p3778
g299
(g1651
g301
Ntp3779
Rp3780
(dp3781
g1655
g1527
sg1656
g1697
sg325
g1550
sbsS's3eAndroidJNI.h'
p3782
g299
(g1651
g301
Ntp3783
Rp3784
(dp3785
g1655
g1663
sg1656
g1901
sg325
S'c:/marmalade/7.2/s3e/h/ext/s3eAndroidJNI.h'
p3786
sbsS'stdexcept'
p3787
g299
(g1651
g301
Ntp3788
Rp3789
(dp3790
g1655
g1663
sg1656
g1664
sg325
S'c:/marmalade/7.2/s3e/h/std/c++/stdexcept'
p3791
sbsS'math.h'
p3792
g299
(g1651
g301
Ntp3793
Rp3794
(dp3795
g1655
g1663
sg1656
g1685
sg325
S'c:/marmalade/7.2/s3e/h/std/math.h'
p3796
sbsS'stdbool.h'
p3797
g299
(g1651
g301
Ntp3798
Rp3799
(dp3800
g1655
g1663
sg1656
g1685
sg325
S'c:/marmalade/7.2/s3e/h/std/stdbool.h'
p3801
sbsS'uio.h'
p3802
g299
(g1651
g301
Ntp3803
Rp3804
(dp3805
g1655
g1663
sg1656
g1824
sg325
S'c:/marmalade/7.2/s3e/h/std/sys/uio.h'
p3806
sbsS'IwUncopyable.h'
p3807
g299
(g1651
g301
Ntp3808
Rp3809
(dp3810
g1655
g1527
sg1656
g1697
sg325
g1572
sbsS's3efacebook.mkf'
p3811
g299
(g1651
g301
Ntp3812
Rp3813
(dp3814
g1655
g1171
sg1656
(lp3815
g3045
ag1157
asg325
g1169
sbssS'juice_build_type'
p3816
g4
sS'tests'
p3817
(lp3818
sS'project_name'
p3819
g307
sS'root_file'
p3820
g119
sS'current_root'
p3821
S'c:/Users/Vinicius/Desktop/Yes or No/Stars'
p3822
sS'dependencies'
p3823
(lp3824
sS'include_paths'
p3825
(lp3826
S'c:/marmalade/7.2/extensions/s3ewebview/h'
p3827
aS'c:/marmalade/7.2/modules/iwutil/h'
p3828
aS'c:/marmalade/7.2/modules/third_party/libjpeg/h'
p3829
aS'c:/marmalade/7.2/modules/third_party/zlib/h'
p3830
aS'c:/marmalade/7.2/modules/third_party/libpng/h'
p3831
aS'c:/marmalade/7.2/extensions/s3efacebook/h'
p3832
aS'c:/marmalade/7.2/modules/iw2d/h'
p3833
aS'c:/marmalade/7.2/modules/iwgx/h'
p3834
aS'c:/marmalade/7.2/modules/iwgl/h'
p3835
aS'c:/marmalade/7.2/modules/iwgeom/h'
p3836
aS'c:/marmalade/7.2/modules/iwresmanager/h'
p3837
aS'c:/marmalade/7.2/modules/iwgxfont/h'
p3838
aS'c:/marmalade/7.2/modules/third_party/tiniconv/source'
p3839
aS'c:/marmalade/7.2/modules/iw2dscenegraph/h'
p3840
aS'c:/marmalade/7.2/modules/iw2dscenegraphcore/h'
p3841
aS'c:/marmalade/7.2/modules/iwtween/h'
p3842
aS'c:/users/vinicius/desktop/yes or no/stars/modules/soundengine/h'
p3843
aS'c:/users/vinicius/desktop/yes or no/stars/modules/soundengine/source'
p3844
aS'c:/marmalade/7.2/extensions/s3eflurry/h'
p3845
aS'c:/marmalade/7.2/s3e/h'
p3846
aS'c:/marmalade/7.2/s3e/h/ext'
p3847
aS'c:/marmalade/7.2/s3e/h/std'
p3848
aS'c:/marmalade/7.2/s3e/h/std/c++'
p3849
aS'c:/marmalade/7.2/s3e/h/ext_legacy'
p3850
aS'c:/marmalade/7.2/s3e/h/legacy'
p3851
asS'weak_frameworks'
p3852
(lp3853
sS'extprojects'
p3854
(dp3855
sg602
(dp3856
g596
(lp3857
(S'c:/Users/Vinicius/Desktop/Yes or No/Stars/data/audio'
p3858
S'audio'
p3859
I0
tp3860
a(S'c:/Users/Vinicius/Desktop/Yes or No/Stars/data/textures'
p3861
S'textures'
p3862
I0
tp3863
a(S'c:/Users/Vinicius/Desktop/Yes or No/Stars/data-ram/data-gles1,c:/Users/Vinicius/Desktop/Yes or No/Stars/data'
p3864
S'.'
p3865
I0
tp3866
a(S'c:/marmalade/7.2/extensions/s3ewebview/s3eWebView.js'
p3867
S's3eWebView.js'
p3868
I0
tp3869
a(S'c:/marmalade/7.2/extensions/s3efacebook/source/iphone/facebook-ios-sdk/FacebookSDK.framework/Versions/A/Resources/FacebookSDKResources.bundle/FBDialog/images/fbicon.png'
p3870
S'FacebookSDKResources.bundle/FBDialog/images/fbicon.png'
p3871
I0
tp3872
a(S'c:/marmalade/7.2/extensions/s3efacebook/source/iphone/facebook-ios-sdk/FacebookSDK.framework/Versions/A/Resources/FacebookSDKResources.bundle/FBDialog/images/close.png'
p3873
S'FacebookSDKResources.bundle/FBDialog/images/close.png'
p3874
I0
tp3875
a(S'c:/marmalade/7.2/extensions/s3efacebook/source/iphone/facebook-ios-sdk/FacebookSDK.framework/Versions/A/Resources/FacebookSDKResources.bundle/FBDialog/images/close@2x.png'
p3876
S'FacebookSDKResources.bundle/FBDialog/images/close@2x.png'
p3877
I0
tp3878
a(S'c:/marmalade/7.2/extensions/s3efacebook/facebook-winclient-sdk-master/Source/Facebook.Client-WindowsStore/FacebookDialogPage.xaml'
p3879
S'FacebookDialogPage.xaml'
p3880
I0
tp3881
asS'WebView32Assets'
p3882
(lp3883
(S'c:/marmalade/7.2/extensions/s3ewebview/lib/win32/locales'
p3884
S'locales'
p3885
I0
tp3886
a(S'c:/marmalade/7.2/extensions/s3ewebview/lib/win32/avcodec-53.dll'
p3887
S'avcodec-53.dll'
p3888
I0
tp3889
a(S'c:/marmalade/7.2/extensions/s3ewebview/lib/win32/avformat-53.dll'
p3890
S'avformat-53.dll'
p3891
I0
tp3892
a(S'c:/marmalade/7.2/extensions/s3ewebview/lib/win32/avutil-51.dll'
p3893
S'avutil-51.dll'
p3894
I0
tp3895
a(S'c:/marmalade/7.2/extensions/s3ewebview/lib/win32/chrome.pak'
p3896
S'chrome.pak'
p3897
I0
tp3898
a(S'c:/marmalade/7.2/extensions/s3ewebview/lib/win32/d3dcompiler_43.dll'
p3899
S'd3dcompiler_43.dll'
p3900
I0
tp3901
a(S'c:/marmalade/7.2/extensions/s3ewebview/lib/win32/d3dx9_43.dll'
p3902
S'd3dx9_43.dll'
p3903
I0
tp3904
a(S'c:/marmalade/7.2/extensions/s3ewebview/lib/win32/icudt.dll'
p3905
S'icudt.dll'
p3906
I0
tp3907
a(S'c:/marmalade/7.2/extensions/s3ewebview/lib/win32/libcef.dll'
p3908
S'libcef.dll'
p3909
I0
tp3910
a(S'c:/marmalade/7.2/extensions/s3ewebview/lib/win32/libEGL.dll'
p3911
S'libEGL.dll'
p3912
I0
tp3913
a(S'c:/marmalade/7.2/extensions/s3ewebview/lib/win32/libGLESv2.dll'
p3914
S'libGLESv2.dll'
p3915
I0
tp3916
assS'macro_types'
p3917
(dp3918
g525
I0
sg527
I0
sg528
I0
sg529
I0
sg531
I1
sg532
I0
sg533
I0
sg534
I0
sg535
I0
sg536
I0
sg537
I0
sg538
I0
sg540
I0
sg541
I0
sg542
I0
sg543
I0
sg544
I0
sg546
I0
sg547
I0
sg548
I0
sg549
I0
sg550
I0
sg551
I0
sg552
I0
sg553
I0
sg554
I1
sg555
I0
sg556
I0
sg557
I0
sg558
I0
sg559
I0
sg560
I0
sg561
I0
sg562
I01
sg563
I1
sg564
I0
sg565
I0
sg566
I0
sg567
I0
sg568
I0
sg569
I0
sg570
I0
sg571
I0
ssS'commands'
p3919
(lp3920
sg604
(g1025
S'VC12X'
p3921
S'X86ARM'
p3922
tp3923
sS'build_libs'
p3924
(dp3925
sg606
g0
sS'frameworks'
p3926
(lp3927
sS'environ'
p3928
(dp3929
sS'target_name_debug'
p3930
g307
sS'builders'
p3931
(dp3932
g596
(dp3933
S'.S'
p3934
(dp3935
S'rvct'
p3936
(lp3937
S'.obj'
p3938
aS'echo ARM Assembling(RVCT) ${SOURCE}...'
p3939
aS'c:/marmalade/7.2/s3e\\rvct\\bin\\armasm -o ${TARGET} ${SOURCE}'
p3940
asS'gcc'
p3941
(lp3942
g3938
aS'echo ARM Assembling(GCC) ${SOURCE}...'
p3943
aS'c:/marmalade/7.2/s3e\\gcc\\bin\\arm-none-eabi-gcc -c -o ${TARGET} ${SOURCE}'
p3944
asS'ppu'
p3945
(lp3946
S'.a'
p3947
aS'echo PPU Assembling(SNC) ${SOURCE}...'
p3948
aS'c:/marmalade/7.2/s3e\\rvct\\bin\\armasm -o ${TARGET} ${SOURCE}'
p3949
assS'.s'
p3950
g3935
sS'.vp'
p3951
(lp3952
NaS'"C:/Marmalade/7.2/s3e/python/python.exe" "c:/marmalade/7.2/modules/iwgx/tools/compile_shaders.py" ${SOURCE}'
p3953
asssS'extproject_names'
p3954
(lp3955
sbtp3956
.