((dp0
S'arm_dbg_args'
p1
S'-via:"c:\\Users\\Vinicius\\Desktop\\Yes or No\\Stars\\build_stars_vc12x\\Stars_vc12x_arm_debug.via" -qemu'
p2
sS'game-icf'
p3
S''
p4
sS'dist'
p5
NsS'csproj'
p6
g4
sS'module_path_append'
p7
NsS'global_path'
p8
S'c:\\users\\vinicius\\desktop\\yes or no'
p9
sS'system_path'
p10
S'c:\\marmalade\\7.2\\s3e\\makefile_builder'
p11
sS'android_x86_dbg_args'
p12
S'../../tools/DeployTool/DeployTool.exe --dir "c:\\Users\\Vinicius\\Desktop\\Yes or No\\Stars\\build_stars_vc12x"'
p13
sS'use_prebuilt'
p14
NsS'arm_rel_rtsm_args'
p15
S'-via:"c:\\Users\\Vinicius\\Desktop\\Yes or No\\Stars\\build_stars_vc12x\\Stars_vc12x_arm_release.via" -qemu'
p16
sS'amd64'
p17
NsS'line-width'
p18
I80
sS'gcc_dbg_args'
p19
S'-via:"c:\\Users\\Vinicius\\Desktop\\Yes or No\\Stars\\build_stars_vc12x\\Stars_vc12x_gcc_debug.via" -qemu'
p20
sS'android-x86'
p21
NsS'x86_dbg_exe'
p22
S'c:/marmalade/7.2/s3e\\win32\\s3e_simulator_debug.exe'
p23
sS'disable-runtime-checks'
p24
NsS'release'
p25
NsS'no-make'
p26
NsS'optimise-size'
p27
NsS'output-name-debug'
p28
g4
sS'arm-fpu'
p29
S'vfp'
p30
sS'proj_name'
p31
S'Stars_vc12x'
p32
sS'rvct-version'
p33
S'none'
p34
sS'compiler'
p35
g4
sS'execute'
p36
NsS'compile-static'
p37
NsS'msvc-project'
p38
NsS'buildenv'
p39
S'VC12X'
p40
sS'quick'
p41
NsS'module_path'
p42
(lp43
S'c:/Users/Vinicius/Desktop/Yes or No/Stars/modules'
p44
asS'use-release-std-libs'
p45
NsS'using_perforce'
p46
I00
sS'tizen-x86'
p47
NsS'mips-s3e'
p48
NsS'ios-no-pic'
p49
NsS'shared-arm-lib'
p50
NsS'arm-cpu'
p51
g4
sS'compile-thumb'
p52
NsS'no-ide'
p53
NsS'msvc-version'
p54
S'6.0'
p55
sS'arm'
p56
NsS'builddir'
p57
g4
sS'compile-debug-as-release'
p58
I0
sS'brief'
p59
NsS'dll'
p60
NsS'buildenv-toolset'
p61
g4
sS'version'
p62
NsS'ccache'
p63
I0
sS'offline'
p64
NsS'ios-version'
p65
g4
sS'hub_data'
p66
g4
sS'fake_vc_call'
p67
I01
sS'jobs'
p68
I0
sS'linkflags'
p69
NsS'tizen-x86-toolsroot'
p70
S'c:/marmalade/7.2/s3e\\..\\tools\\gcc\\x86\\tizen_windows'
p71
sS'debug'
p72
NsS'xcode-build-order'
p73
g4
sS'gcc_rel_rtsm_args'
p74
S'-via:"c:\\Users\\Vinicius\\Desktop\\Yes or No\\Stars\\build_stars_vc12x\\Stars_vc12x_gcc_release.via" -qemu'
p75
sS'done_defaults'
p76
I1
sS'path'
p77
NsS's3e-data-dir'
p78
S'c:/Users/Vinicius/Desktop/Yes or No/Stars\\data'
p79
sS'enable-exceptions'
p80
NsS'osx-dll'
p81
NsS'extension'
p82
g4
sS'no-vc6'
p83
NsS'non-interactive'
p84
NsS'win32-console'
p85
NsS'dist-format'
p86
g4
sS's3e-force-arch'
p87
NsS'dump_defines'
p88
NsS'verbose'
p89
I0
sS'gcc-version'
p90
g4
sS'x86_dbg_args'
p91
S'-via:"c:\\Users\\Vinicius\\Desktop\\Yes or No\\Stars\\build_stars_vc12x\\Stars_vc12x_debug.via"'
p92
sS'tizen_x86_dbg_args'
p93
g13
sS'arm-debugger'
p94
g4
sS'use_temp_extension'
p95
NsS'log'
p96
NsS'no-strip'
p97
NsS'rebuild'
p98
NsS'win32-simulator-dll'
p99
NsS'strict'
p100
NsS'mips_dbg_args'
p101
g13
sS'enable-global-path'
p102
NsS'cflags'
p103
NsS'dist-dir'
p104
g4
sS'jflags'
p105
NsS'csprojSDKRefs'
p106
g4
sS'tizen_x86_rel_exe'
p107
S'c:\\marmalade\\7.2\\s3e\\makefile_builder\\tool_launcher.exe'
p108
sS'test-assets'
p109
g4
sS'distcc'
p110
NsS'external-compiler'
p111
NsS'no-distcc'
p112
NsS'preinclude'
p113
NsS'using_sdk'
p114
I01
sS'nologo'
p115
NsS'warn-level'
p116
I2
sS'mips_dbg_exe'
p117
g108
sS'mkb_in'
p118
S'c:/Users/Vinicius/Desktop/Yes or No/Stars/Stars.mkb'
p119
sS'tizen_x86_dbg_exe'
p120
g108
sS'arm_dbg_exe'
p121
S'c:/marmalade/7.2/s3e\\bin\\armdebug.exe'
p122
sS'csprojDLLRef'
p123
NsS'tizen_x86_rel_args'
p124
g13
sS'android_x86_dbg_exe'
p125
g108
sS'test-config'
p126
g4
sS'list-targets'
p127
NsS'arm_rel_exe'
p128
g108
sS'arm_rel_args'
p129
g13
sS'makedeps'
p130
NsS'android_x86_rel_exe'
p131
g108
sS'default-buildenv'
p132
S'VC12X'
p133
sS'x86_rel_exe'
p134
g23
sS'preprocess-java'
p135
NsS'mips_rel_args'
p136
g13
sS'defines'
p137
NsS'lib'
p138
NsS'global_argv'
p139
(lp140
S'C:\\Marmalade\\7.2\\s3e\\makefile_builder\\mkb.py'
p141
aS'C:/Users/Vinicius/Desktop/Yes or No/Stars/Stars.mkb'
p142
aS'--buildenv=VC12X'
p143
aS'--fake-vc-call'
p144
asS'make'
p145
NsS'optimise-speed'
p146
NsS'internal'
p147
NsS'enable-stdinc'
p148
NsS'deploy-only'
p149
NsS'x86'
p150
NsS'deploy'
p151
g4
sS'x86_run_exe'
p152
S'c:/marmalade/7.2/s3e\\win32\\s3e_console.exe'
p153
sS'x86_rel_args'
p154
S'-via:"c:\\Users\\Vinicius\\Desktop\\Yes or No\\Stars\\build_stars_vc12x\\Stars_vc12x_release.via"'
p155
sS'gcc_rel_args'
p156
g13
sS'mips'
p157
NsS'xcode-build-settings'
p158
g4
sS'incredibuild'
p159
NsS'strict-compile'
p160
NsS'use-auto-subdirs'
p161
NsS'mips_rel_exe'
p162
g108
sS'android_x86_rel_args'
p163
g13
sS'app-icf'
p164
g4
sS'deployargs'
p165
NsS'iosnativedebug'
p166
NsS'mkf_in'
p167
(lp168
S'c:\\marmalade\\7.2\\extensions\\s3ewebview\\s3ewebview.mkf'
p169
aS'c:\\marmalade\\7.2\\modules\\iwutil\\iwutil.mkf'
p170
aS'c:\\marmalade\\7.2\\modules\\third_party\\libjpeg\\libjpeg.mkf'
p171
aS'c:\\marmalade\\7.2\\modules\\third_party\\libpng\\libpng.mkf'
p172
aS'c:\\marmalade\\7.2\\modules\\third_party\\zlib\\zlib.mkf'
p173
aS'c:\\marmalade\\7.2\\extensions\\s3efacebook\\s3efacebook.mkf'
p174
aS'c:\\marmalade\\7.2\\modules\\iw2d\\iw2d.mkf'
p175
aS'c:\\marmalade\\7.2\\modules\\iwgx\\iwgx.mkf'
p176
aS'c:\\marmalade\\7.2\\modules\\iwgl\\iwgl.mkf'
p177
aS'c:\\marmalade\\7.2\\modules\\iwgeom\\iwgeom.mkf'
p178
aS'c:\\marmalade\\7.2\\modules\\iwresmanager\\iwresmanager.mkf'
p179
aS'c:\\marmalade\\7.2\\modules\\iwgxfont\\iwgxfont.mkf'
p180
aS'c:\\marmalade\\7.2\\modules\\third_party\\tiniconv\\tiniconv.mkf'
p181
aS'c:\\marmalade\\7.2\\modules\\iw2dscenegraph\\iw2dscenegraph.mkf'
p182
aS'c:\\marmalade\\7.2\\modules\\iw2dscenegraphcore\\iw2dscenegraphcore.mkf'
p183
aS'c:\\marmalade\\7.2\\modules\\iwtween\\iwtween.mkf'
p184
aS'c:\\users\\vinicius\\desktop\\yes or no\\stars\\modules\\soundengine\\soundengine.mkf'
p185
aS'c:\\marmalade\\7.2\\extensions\\s3eflurry\\s3eflurry.mkf'
p186
asS'strict-mkb'
p187
NsS'executeargs'
p188
NsS'clean'
p189
NsS'no-asm'
p190
NsS'output-name'
p191
g4
sS'no-modules'
p192
NsS'find_define'
p193
g4
s(dp194
S'c:\\marmalade\\7.2\\s3e\\makefile_builder\\templates\\ws8_sln.pyc'
p195
F1396656910.0
sS'c:\\marmalade\\7.2\\s3e\\makefile_builder\\plugins\\java.pyc'
p196
F1396656908.0
sS'c:\\marmalade\\7.2\\s3e\\makefile_builder\\plugins\\S3EEmitter.pyc'
p197
F1396656908.0
sS'c:\\marmalade\\7.2\\s3e\\makefile_builder\\templates\\win32_vcxproj_filters.pyc'
p198
F1396656910.0
sS'c:\\marmalade\\7.2\\s3e\\makefile_builder\\plugins\\xcode4_schememanagement.py'
p199
F1396655700.0
sS'c:\\marmalade\\7.2\\s3e\\makefile_builder\\plugins\\linux_scons.pyc'
p200
F1396656910.0
sS'c:\\marmalade\\7.2\\s3e\\makefile_builder\\templates\\wp8_sln.pyc'
p201
F1396656910.0
sS'c:\\marmalade\\7.2\\s3e\\makefile_builder\\templates\\ws8_ext_sln.pyc'
p202
F1396656910.0
sS'c:\\marmalade\\7.2\\s3e\\makefile_builder\\templates\\MainWindow.xib'
p203
F1396655700.0
sS'c:\\marmalade\\7.2\\s3e\\makefile_builder\\templates\\ws81_ext_sln.pyc'
p204
F1396656910.0
sS'c:\\marmalade\\7.2\\s3e\\makefile_builder\\plugins\\Win8Emitter.pyc'
p205
F1396656910.0
sS'c:\\marmalade\\7.2\\s3e\\makefile_builder\\templates\\win8_ext_csproj.pyc'
p206
F1396656910.0
sS'c:\\marmalade\\7.2\\s3e\\makefile_builder\\templates\\rvct_linker_script'
p207
F1396655702.0
sS'c:\\marmalade\\7.2\\s3e\\makefile_builder\\templates\\win8_sln.pyc'
p208
F1396656910.0
sS'c:\\marmalade\\7.2\\s3e\\makefile_builder\\templates\\ws8_ext_csproj.pyc'
p209
F1396656910.0
sS'c:\\marmalade\\7.2\\s3e\\makefile_builder\\plugins\\s3e_make.pyc'
p210
F1396656908.0
sS'c:\\marmalade\\7.2\\s3e\\makefile_builder\\templates\\wp8_csproj_user.pyc'
p211
F1396656910.0
sS'c:\\marmalade\\7.2\\s3e\\makefile_builder\\plugins\\s3e_scons.pyc'
p212
F1396656908.0
sS'c:\\marmalade\\7.2\\s3e\\makefile_builder\\plugins\\s3e_qmake.py'
p213
F1396655700.0
sS'c:\\marmalade\\7.2\\s3e\\makefile_builder\\docs\\deprecated.options.txt'
p214
F1396655698.0
sS'c:\\marmalade\\7.2\\s3e\\makefile_builder\\plugins\\ws8_ws8.pyc'
p215
F1396656910.0
sS'c:\\marmalade\\7.2\\s3e\\makefile_builder\\templates\\ws81_sln.pyc'
p216
F1396656910.0
sS'c:\\marmalade\\7.2\\s3e\\makefile_builder\\templates\\ws81_ext_csproj.pyc'
p217
F1396656910.0
sS'c:\\marmalade\\7.2\\s3e\\makefile_builder\\templates\\wp8_vcxproj.pyc'
p218
F1396656910.0
sS'c:\\marmalade\\7.2\\s3e\\makefile_builder\\templates\\vc6_opt.pyc'
p219
F1396656910.0
sS'c:\\marmalade\\7.2\\s3e\\makefile_builder\\plugins\\deploy.pyc'
p220
F1396656908.0
sS'c:\\marmalade\\7.2\\s3e\\makefile_builder\\templates\\scons.pyc'
p221
F1396656910.0
sS'c:\\marmalade\\7.2\\s3e\\makefile_builder\\templates\\win32_vcproj.pyc'
p222
F1396656910.0
sS'c:\\marmalade\\7.2\\s3e\\makefile_builder\\templates\\win8_csproj.pyc'
p223
F1396656910.0
sS'c:\\marmalade\\7.2\\s3e\\makefile_builder\\extensions\\make_dist.py'
p224
F1396655698.0
sS'c:\\marmalade\\7.2\\s3e\\makefile_builder\\templates\\gdb_start.txt'
p225
F1396655702.0
sS'c:\\marmalade\\7.2\\s3e\\makefile_builder\\templates\\vc8_user.pyc'
p226
F1396656910.0
sS'c:\\marmalade\\7.2\\s3e\\makefile_builder\\plugins\\s3e_win8.pyc'
p227
F1396656910.0
sS'c:\\marmalade\\7.2\\s3e\\makefile_builder\\templates\\win32_sln.pyc'
p228
F1396656910.0
sS'c:\\marmalade\\7.2\\s3e\\makefile_builder\\docs\\options.txt'
p229
F1396655698.0
sS'c:\\marmalade\\7.2\\s3e\\makefile_builder\\mkb.py'
p230
F1396655698.0
sS'c:\\marmalade\\7.2\\s3e\\makefile_builder\\templates\\Info.plist'
p231
F1396655700.0
sS'c:\\marmalade\\7.2\\s3e\\makefile_builder\\docs\\parse_options.pyc'
p232
F1396656912.0
sS'c:\\marmalade\\7.2\\s3e\\makefile_builder\\templates\\ws8_csproj.pyc'
p233
F1396656910.0
sS'c:\\marmalade\\7.2\\s3e\\makefile_builder\\templates\\ws81_csproj.pyc'
p234
F1396656910.0
sS'c:\\marmalade\\7.2\\s3e\\makefile_builder\\plugins\\osx_xcode.pyc'
p235
F1396656910.0
sS'c:\\marmalade\\7.2\\s3e\\makefile_builder\\plugins\\s3e_xcode.pyc'
p236
F1397674110.1375155
sS'c:\\marmalade\\7.2\\s3e\\makefile_builder\\plugins\\xcode4_schememanagement.pyc'
p237
F1397674109.1068296
sS'c:\\marmalade\\7.2\\s3e\\makefile_builder\\templates\\xcode4.xcscheme'
p238
F1396655704.0
sS'c:\\marmalade\\7.2\\s3e\\makefile_builder\\plugins\\Emitter.pyc'
p239
F1396656908.0
sS'c:\\marmalade\\7.2\\s3e\\makefile_builder\\templates\\mips_linker_script'
p240
F1396655702.0
sS'c:\\marmalade\\7.2\\s3e\\makefile_builder\\templates\\ws8_vcxproj.pyc'
p241
F1396656910.0
sS'c:\\marmalade\\7.2\\s3e\\makefile_builder\\plugins\\win32_vc6.pyc'
p242
F1396656910.0
sS'c:\\marmalade\\7.2\\s3e\\makefile_builder\\mkb_parser.pyc'
p243
F1396656908.0
sS'c:\\marmalade\\7.2\\s3e\\makefile_builder\\templates\\ws81_csproj_user.pyc'
p244
F1396656910.0
sS'c:\\marmalade\\7.2\\s3e\\makefile_builder\\templates\\linker_script'
p245
F1396655702.0
sS'c:\\marmalade\\7.2\\s3e\\makefile_builder\\docs\\deprecated.defines.txt'
p246
F1396655698.0
sS'c:\\marmalade\\7.2\\s3e\\makefile_builder\\templates\\template.suo'
p247
F1396655702.0
sS'c:\\marmalade\\7.2\\s3e\\makefile_builder\\templates\\make.py'
p248
F1396655702.0
sS'c:\\marmalade\\7.2\\s3e\\makefile_builder\\extensions'
p249
F1397673792.7230873
sS'c:\\marmalade\\7.2\\s3e\\makefile_builder\\templates\\win32_dsp.pyc'
p250
F1396656910.0
sS'c:\\marmalade\\7.2\\s3e\\makefile_builder\\templates\\wp8_ext_csproj.pyc'
p251
F1396656910.0
sS'c:\\marmalade\\7.2\\s3e\\makefile_builder\\plugins\\MakeEmitter.pyc'
p252
F1396656908.0
sS'c:\\marmalade\\7.2\\s3e\\makefile_builder\\plugins\\XcodeEmitter.pyc'
p253
F1397674109.0167696
sS'c:\\marmalade\\7.2\\s3e\\makefile_builder\\templates\\win32_dsw.pyc'
p254
F1396656910.0
sS'c:\\marmalade\\7.2\\s3e\\makefile_builder\\docs\\mkb.defines.txt'
p255
F1396655698.0
sS'c:\\marmalade\\7.2\\s3e\\makefile_builder\\docs\\deployment_options.txt'
p256
F1396655698.0
sS'c:\\marmalade\\7.2\\s3e\\makefile_builder\\plugins\\s3e_qmake.pyc'
p257
F1397674109.7792768
sS'c:\\marmalade\\7.2\\s3e\\makefile_builder\\plugins\\ws81_ws81.pyc'
p258
F1396656910.0
sS'c:\\marmalade\\7.2\\s3e\\makefile_builder\\templates\\win32_vcxproj.pyc'
p259
F1396656910.0
sS'c:\\marmalade\\7.2\\s3e\\makefile_builder\\docs'
p260
F1397673793.1573761
sS'c:\\marmalade\\7.2\\s3e\\makefile_builder\\plugins\\XcodeEmitter.py'
p261
F1396655698.0
sS'c:\\marmalade\\7.2\\s3e\\makefile_builder\\templates\\template.opt'
p262
F1396655702.0
sS'c:\\marmalade\\7.2\\s3e\\makefile_builder\\tool_launcher.exe'
p263
F1396656088.0
sS'c:\\marmalade\\7.2\\s3e\\makefile_builder\\templates\\xcode.py'
p264
F1396655702.0
sS'c:\\marmalade\\7.2\\s3e\\makefile_builder\\plugins\\VisualStudioEmitter.pyc'
p265
F1396656908.0
sS'c:\\marmalade\\7.2\\s3e\\makefile_builder\\plugins\\osx_scons.pyc'
p266
F1396656910.0
sS'c:\\marmalade\\7.2\\s3e\\makefile_builder\\templates'
p267
F1397673792.65204
sS'c:\\marmalade\\7.2\\s3e\\makefile_builder\\templates\\ws81_vcxproj.pyc'
p268
F1396656910.0
sS'c:\\marmalade\\7.2\\s3e\\makefile_builder\\templates\\win8_vcxproj.pyc'
p269
F1396656910.0
sS'c:\\marmalade\\7.2\\s3e\\makefile_builder\\plugins\\s3e_ws8.pyc'
p270
F1396656910.0
sS'c:\\marmalade\\7.2\\s3e\\makefile_builder\\templates\\wp8_csproj.pyc'
p271
F1396656910.0
sS'c:\\marmalade\\7.2\\s3e\\makefile_builder\\templates\\vc7_suo.pyc'
p272
F1396656910.0
sS'c:\\marmalade\\7.2\\s3e\\makefile_builder\\plugins\\SConsEmitter.pyc'
p273
F1396656908.0
sS'c:\\marmalade\\7.2\\s3e\\makefile_builder\\mkb_option.pyc'
p274
F1396656908.0
sS'c:\\marmalade\\7.2\\s3e\\makefile_builder\\templates\\ws8_csproj_user.pyc'
p275
F1396656910.0
sS'c:\\marmalade\\7.2\\s3e\\makefile_builder\\mkb_main.pyc'
p276
F1396656908.0
sS'c:\\marmalade\\7.2\\s3e\\makefile_builder\\plugins'
p277
F1397674110.1315114
sS'c:\\marmalade\\7.2\\s3e\\makefile_builder\\plugins\\s3e_web.pyc'
p278
F1396656908.0
sS'c:\\marmalade\\7.2\\s3e\\makefile_builder\\plugins\\s3e_ws81.pyc'
p279
F1396656910.0
sS'c:\\marmalade\\7.2\\s3e\\makefile_builder\\mkb_globals.pyc'
p280
F1396656908.0
sS'c:\\marmalade\\7.2\\s3e\\makefile_builder\\plugins\\iphone.pyc'
p281
F1396656910.0
sS'c:\\marmalade\\7.2\\s3e\\makefile_builder\\mkb_launcher.exe'
p282
F1396656088.0
sS'c:\\marmalade\\7.2\\s3e\\makefile_builder\\plugins\\vc7_utils.pyc'
p283
F1396656908.0
sS'c:\\marmalade\\7.2\\s3e\\makefile_builder\\plugins\\s3e_wp8.pyc'
p284
F1396656910.0
sS'c:\\marmalade\\7.2\\s3e\\makefile_builder\\plugins\\vc6_utils.pyc'
p285
F1396656908.0
sS'c:\\marmalade\\7.2\\s3e\\makefile_builder\\deployment.pyc'
p286
F1396656908.0
sS'c:\\marmalade\\7.2\\s3e\\makefile_builder\\plugins\\s3e_vc6.pyc'
p287
F1396656908.0
sS'c:\\marmalade\\7.2\\s3e\\makefile_builder\\plugins\\null.pyc'
p288
F1396656908.0
sS'c:\\marmalade\\7.2\\s3e\\makefile_builder\\templates\\qmake.py'
p289
F1396655702.0
sS'c:\\marmalade\\7.2\\s3e\\makefile_builder\\templates\\xcode4_DeployTool.xcscheme'
p290
F1396655704.0
sS'c:\\marmalade\\7.2\\s3e\\makefile_builder\\templates\\win8_csproj_user.pyc'
p291
F1396656910.0
sS'c:\\marmalade\\7.2\\s3e\\makefile_builder\\plugins\\win8_utils.pyc'
p292
F1396656908.0
sS'c:\\marmalade\\7.2\\s3e\\makefile_builder\\mkb_util.pyc'
p293
F1396656908.0
sS'c:\\marmalade\\7.2\\s3e\\makefile_builder\\plugins\\wp8_wp8.pyc'
p294
F1396656910.0
sS'c:\\marmalade\\7.2\\s3e\\makefile_builder\\plugins\\s3e_xcode.py'
p295
F1396655700.0
sS'c:\\marmalade\\7.2\\s3e\\makefile_builder\\templates\\vc10_user.pyc'
p296
F1396656910.0
sS'c:\\marmalade\\7.2\\s3e\\makefile_builder\\templates\\qmake_user.py'
p297
F1396655702.0
sS'c:\\marmalade\\7.2\\s3e\\makefile_builder\\templates\\xcode_pbxuser.py'
p298
F1396655704.0
sccopy_reg
_reconstructor
p299
(cmkb_main
MkbFile
p300
c__builtin__
object
p301
Ntp302
Rp303
(dp304
g5
(lp305
sS'target_name'
p306
S'Stars'
p307
sS'current_file'
p308
g119
sS'package_path'
p309
(lp310
sS'post_build'
p311
(lp312
(lp313
S'c:/marmalade/7.2/s3e/tools'
p314
aS'C:\\Marmalade\\7.2\\s3e\\python\\python.exe .\\process_map.py "$(TargetPath)"'
p315
aa(S'c:\\marmalade\\7.2\\s3e\\bin'
p316
S'"s3e_plink" -l "$(TargetPath)" '
p317
g150
tp318
asS'librarys'
p319
(lp320
g299
(cmkb_main
Library
p321
g301
Ntp322
Rp323
(dp324
S'name'
p325
S'vc6_compat.lib'
p326
sS'expand_name'
p327
I00
sS'include_spec_rvct_objs'
p328
(lp329
sS'include_all_objs'
p330
I00
sS'share_arm'
p331
I00
sS'arch'
p332
S'x86'
p333
sS'nodebug'
p334
I00
sg35
Nsbag299
(g321
g301
Ntp335
Rp336
(dp337
g325
S'iwutil'
p338
sg327
I01
sg328
(lp339
sg330
Nsg331
Nsg332
Nsg334
I00
sg35
Nsbag299
(g321
g301
Ntp340
Rp341
(dp342
g325
S'jpeg'
p343
sg327
I01
sg328
g339
sg330
Nsg331
Nsg332
Nsg334
I00
sg35
Nsbag299
(g321
g301
Ntp344
Rp345
(dp346
g325
S'z'
p347
sg327
I01
sg328
g339
sg330
Nsg331
Nsg332
Nsg334
I00
sg35
Nsbag299
(g321
g301
Ntp348
Rp349
(dp350
g325
S'png'
p351
sg327
I01
sg328
g339
sg330
Nsg331
Nsg332
Nsg334
I00
sg35
Nsbag299
(g321
g301
Ntp352
Rp353
(dp354
g325
S'iw2d'
p355
sg327
I01
sg328
g339
sg330
Nsg331
Nsg332
Nsg334
I00
sg35
Nsbag299
(g321
g301
Ntp356
Rp357
(dp358
g325
S'ATI_Compress_MT_VC7.lib'
p359
sg327
I00
sg328
g339
sg330
Nsg331
Nsg332
S'x86'
p360
sg334
I00
sg35
Nsbag299
(g321
g301
Ntp361
Rp362
(dp363
g325
S'iwgx'
p364
sg327
I01
sg328
g339
sg330
Nsg331
Nsg332
Nsg334
I00
sg35
Nsbag299
(g321
g301
Ntp365
Rp366
(dp367
g325
S'iwgl'
p368
sg327
I01
sg328
g339
sg330
Nsg331
Nsg332
Nsg334
I00
sg35
Nsbag299
(g321
g301
Ntp369
Rp370
(dp371
g325
S'iwgeom'
p372
sg327
I01
sg328
g339
sg330
Nsg331
Nsg332
Nsg334
I00
sg35
Nsbag299
(g321
g301
Ntp373
Rp374
(dp375
g325
S'iwresmanager'
p376
sg327
I01
sg328
g339
sg330
Nsg331
Nsg332
Nsg334
I00
sg35
Nsbag299
(g321
g301
Ntp377
Rp378
(dp379
g325
S'iwgxfont'
p380
sg327
I01
sg328
g339
sg330
Nsg331
Nsg332
Nsg334
I00
sg35
Nsbag299
(g321
g301
Ntp381
Rp382
(dp383
g325
S'tiniconv'
p384
sg327
I01
sg328
g339
sg330
Nsg331
Nsg332
Nsg334
I00
sg35
Nsbag299
(g321
g301
Ntp385
Rp386
(dp387
g325
S's3e_cpp'
p388
sg327
I01
sg328
g329
sg330
I00
sg331
I00
sg332
Nsg334
I00
sg35
Nsbag299
(g321
g301
Ntp389
Rp390
(dp391
g325
S's3e'
p392
sg327
I01
sg328
(lp393
S'iwcrt.o'
p394
asg330
I00
sg331
I00
sg332
Nsg334
I00
sg35
Nsbag299
(g321
g301
Ntp395
Rp396
(dp397
g325
S's3e_api'
p398
sg327
I01
sg328
g329
sg330
I00
sg331
I00
sg332
S'x86'
p399
sg334
I01
sg35
Nsbag299
(g321
g301
Ntp400
Rp401
(dp402
g325
S's3e_api'
p403
sg327
I01
sg328
g329
sg330
I00
sg331
I00
sg332
S'!x86'
p404
sg334
I01
sg35
Nsbag299
(g321
g301
Ntp405
Rp406
(dp407
g325
S'stdc++'
p408
sg327
I00
sg328
g329
sg330
I00
sg331
I00
sg332
S'mips'
p409
sg334
I00
sg35
Nsbag299
(g321
g301
Ntp410
Rp411
(dp412
g325
S'c'
p413
sg327
I00
sg328
g329
sg330
I00
sg331
I00
sg332
S'mips'
p414
sg334
I00
sg35
Nsbag299
(g321
g301
Ntp415
Rp416
(dp417
g325
S'm'
p418
sg327
I00
sg328
g329
sg330
I00
sg331
I00
sg332
S'mips'
p419
sg334
I00
sg35
Nsbag299
(g321
g301
Ntp420
Rp421
(dp422
g325
S'gcc'
p423
sg327
I00
sg328
g329
sg330
I00
sg331
I00
sg332
S'mips'
p424
sg334
I00
sg35
Nsbag299
(g321
g301
Ntp425
Rp426
(dp427
g325
S'stdc++'
p428
sg327
I00
sg328
g329
sg330
I00
sg331
I00
sg332
S'gcc_x86_tizen'
p429
sg334
I00
sg35
Nsbag299
(g321
g301
Ntp430
Rp431
(dp432
g325
g413
sg327
I00
sg328
g329
sg330
I00
sg331
I00
sg332
S'gcc_x86_tizen'
p433
sg334
I00
sg35
Nsbag299
(g321
g301
Ntp434
Rp435
(dp436
g325
g418
sg327
I00
sg328
g329
sg330
I00
sg331
I00
sg332
S'gcc_x86_tizen'
p437
sg334
I00
sg35
Nsbag299
(g321
g301
Ntp438
Rp439
(dp440
g325
S'gcc'
p441
sg327
I00
sg328
g329
sg330
I00
sg331
I00
sg332
S'gcc_x86_tizen'
p442
sg334
I00
sg35
Nsbag299
(g321
g301
Ntp443
Rp444
(dp445
g325
S'gcc_eh'
p446
sg327
I00
sg328
g329
sg330
I00
sg331
I00
sg332
S'gcc_x86_tizen'
p447
sg334
I00
sg35
Nsbag299
(g321
g301
Ntp448
Rp449
(dp450
g325
S'stdc++'
p451
sg327
I00
sg328
g329
sg330
I00
sg331
I00
sg332
S'gcc_x86_android'
p452
sg334
I00
sg35
Nsbag299
(g321
g301
Ntp453
Rp454
(dp455
g325
g413
sg327
I00
sg328
g329
sg330
I00
sg331
I00
sg332
S'gcc_x86_android'
p456
sg334
I00
sg35
Nsbag299
(g321
g301
Ntp457
Rp458
(dp459
g325
g418
sg327
I00
sg328
g329
sg330
I00
sg331
I00
sg332
S'gcc_x86_android'
p460
sg334
I00
sg35
Nsbag299
(g321
g301
Ntp461
Rp462
(dp463
g325
S'gcc'
p464
sg327
I00
sg328
g329
sg330
I00
sg331
I00
sg332
S'gcc_x86_android'
p465
sg334
I00
sg35
NsbasS'library_paths'
p466
(lp467
g299
(cmkb_main
LibraryPath
p468
g301
Ntp469
Rp470
(dp471
S'expand_path'
p472
I01
sS'add_cpu_variant'
p473
I00
sg325
S'c:/marmalade/7.2/modules/iwutil'
p474
sbag299
(g468
g301
Ntp475
Rp476
(dp477
g472
I01
sg473
I00
sg325
S'c:/marmalade/7.2/modules/third_party/libjpeg'
p478
sbag299
(g468
g301
Ntp479
Rp480
(dp481
g472
I01
sg473
I00
sg325
S'c:/marmalade/7.2/modules/third_party/zlib'
p482
sbag299
(g468
g301
Ntp483
Rp484
(dp485
g472
I01
sg473
I00
sg325
S'c:/marmalade/7.2/modules/third_party/libpng'
p486
sbag299
(g468
g301
Ntp487
Rp488
(dp489
g472
I01
sg473
I00
sg325
S'c:/marmalade/7.2/modules/iw2d'
p490
sbag299
(g468
g301
Ntp491
Rp492
(dp493
g472
I00
sg473
I00
sg325
S'c:/marmalade/7.2/modules/iwgx/atitools'
p494
sbag299
(g468
g301
Ntp495
Rp496
(dp497
g472
I01
sg473
I00
sg325
S'c:/marmalade/7.2/modules/iwgx'
p498
sbag299
(g468
g301
Ntp499
Rp500
(dp501
g472
I01
sg473
I00
sg325
S'c:/marmalade/7.2/modules/iwgl'
p502
sbag299
(g468
g301
Ntp503
Rp504
(dp505
g472
I01
sg473
I00
sg325
S'c:/marmalade/7.2/modules/iwgeom'
p506
sbag299
(g468
g301
Ntp507
Rp508
(dp509
g472
I01
sg473
I00
sg325
S'c:/marmalade/7.2/modules/iwresmanager'
p510
sbag299
(g468
g301
Ntp511
Rp512
(dp513
g472
I01
sg473
I00
sg325
S'c:/marmalade/7.2/modules/iwgxfont'
p514
sbag299
(g468
g301
Ntp515
Rp516
(dp517
g472
I01
sg473
I00
sg325
S'c:/marmalade/7.2/modules/third_party/tiniconv'
p518
sbag299
(g468
g301
Ntp519
Rp520
(dp521
g472
I01
sg473
I00
sg325
S'c:/marmalade/7.2/s3e'
p522
sbasS'macros'
p523
(dp524
S'IW_TRACE_CHANNEL_WEBVIEW_VERBOSE'
p525
S'2'
p526
sS'IW_MKF_S3EFACEBOOK'
p527
NsS'I3D_PLATFORM_S3E'
p528
NsS'IW_TRACE_CHANNEL_FLURRY'
p529
S'1'
p530
sS'IW_USE_CALLSTACK'
p531
NsS'__S3E__'
p532
NsS'IW_TRACE_CHANNEL_WEBVIEW'
p533
g530
sS'IW_MKF_LIBJPEG'
p534
NsS'I3D_OS_S3E'
p535
NsS'IW_ASSERTION_CHANNEL_FLURRY'
p536
g530
sS'IW_MKF_TINICONV'
p537
NsS'IW_APP_VERSION'
p538
S'"1.0"'
p539
sS'IW_MKF_IWRESMANAGER'
p540
NsS'IW_MKF_IWUTIL'
p541
NsS'IW_PLATFORM_S3E'
p542
NsS'IW_ASSERTION_CHANNEL_2D'
p543
g530
sS'IW_APP_NAME'
p544
S'"Stars"'
p545
sS'IW_MKF_IWGXFONT'
p546
NsS'IW_MKF_IWTWEEN'
p547
NsS'IW_MKF_S3EFLURRY'
p548
NsS'IW_MKF_ZLIB'
p549
NsS'IW_MKF_IWGX'
p550
NsS'IW_MKF_IW2DSCENEGRAPH'
p551
NsS'IW_MKF_SOUNDENGINE'
p552
NsS'IW_ASSERTION_CHANNEL_WEBVIEW'
p553
g530
sS'IW_USE_ASSERTIONS'
p554
NsS'_CRT_SECURE_NO_DEPRECATE'
p555
NsS'IW_MKF_IWGL'
p556
NsS'IW_MKF_LIBPNG'
p557
NsS'IW_MKF_S3EWEBVIEW'
p558
NsS'IW_TRACE_CHANNEL_IW_2DSCENEGRAPH'
p559
g530
sS'IW_ASSERTION_CHANNEL_FACEBOOK'
p560
g530
sS'IW_TRACE_CHANNEL_FACEBOOK_VERBOSE'
p561
g526
sS'IW_DEBUG'
p562
NsS'IW_USE_TRACING'
p563
NsS'IW_ASSERTION_CHANNEL_IW_2DSCENEGRAPH'
p564
g530
sS'IW_SDK'
p565
NsS'S3E_INCLUDE_LEGACY'
p566
NsS'IW_MKF_IW2DSCENEGRAPHCORE'
p567
NsS'IW_TRACE_CHANNEL_FACEBOOK'
p568
g530
sS'IW_TRACE_CHANNEL_FLURRY_VERBOSE'
p569
g526
sS'IW_MKF_IW2D'
p570
NsS'IW_MKF_IWGEOM'
p571
NssS'done_warnings'
p572
(dp573
sS'subprojects'
p574
(dp575
g180
S'iwgxfont'
p576
sg174
S's3eFacebook'
p577
sg169
S's3eWebView'
p578
sg170
S'iwutil'
p579
sg176
S'iwgx'
p580
sg183
S'../iw2dscenegraphcore'
p581
sg171
S'libjpeg'
p582
sg172
S'libpng'
p583
sg177
S'iwgl'
p584
sg184
S'iwtween'
p585
sg182
S'iw2dscenegraph'
p586
sg175
S'iw2d'
p587
sg178
S'iwgeom'
p588
sg181
S'tiniconv'
p589
sg173
S'zlib'
p590
sg185
S'SoundEngine'
p591
sg179
S'iwresmanager'
p592
sg186
S's3eFlurry'
p593
ssS'deployments'
p594
(dp595
S'Default'
p596
g299
(cdeployment
Deployment
p597
g301
Ntp598
Rp599
(dp600
S'got_version'
p601
I0
sS'assets'
p602
g596
sS'mkb'
p603
g303
sS'target'
p604
Nsg332
(lp605
sS'options'
p606
(dp607
S'iphone-link-lib'
p608
(lp609
S's3eWebView'
p610
aS's3eFacebook'
p611
aS'FlurryAnalytics'
p612
aS's3eFlurry'
p613
asS'game-icf'
p614
NsS'winmobile-icon32'
p615
NsS'ws8-logo-image150x150'
p616
NsS'ws81-product-version'
p617
NsS'osx-ext-dll'
p618
(lp619
S'c:/marmalade/7.2/extensions/s3ewebview/lib/osx/libs3eWebView.dylib'
p620
aS'c:/marmalade/7.2/extensions/s3eflurry/lib/osx/libs3eFlurry.dylib'
p621
asS'iphone-provisioning-profile'
p622
NsS'ws8-splash-screen-image620x300'
p623
NsS'ws8-ext-capabilities'
p624
(lp625
sS'android-icon-hdpi'
p626
NsS'brew-icon-large'
p627
NsS'iphone-splash-full-orient'
p628
NsS'wp8-tile-fliptemplate-supports-large'
p629
NsS'iphone-show-status-bar'
p630
NsS'roku-requires-mkv'
p631
NsS'long-caption'
p632
NsS'android-pkgname'
p633
NsS'blackberry-permissions-read-device-identifying-information'
p634
NsS'ws81-certificate-end-date'
p635
NsS'psp-dlgcontentid'
p636
NsS'target-folder'
p637
NsS'tizen-dist1-CA-path'
p638
NsS'symbian-icon2-format'
p639
NsS'iphone-region'
p640
NsS'uiq3-icon3-mask'
p641
NsS'brew-encoding'
p642
NsS'android-x86'
p643
NsS'nds-initialcode'
p644
NsS'iphone-persistent-wifi'
p645
NsS'psp-snd0'
p646
NsS'osx-signing-identity-inst'
p647
NsS'winmobile-install-folder'
p648
NsS'android-external-res'
p649
(lp650
S'c:/marmalade/7.2/extensions/s3efacebook/facebook-android-sdk/facebook/res'
p651
asS'ws8-product-version'
p652
NsS'brew-priviledges'
p653
NsS'symbian-icon2-mask-black'
p654
NsS'iphone-icon-ipad'
p655
NsS'roku-hidden'
p656
NsS'psp-titlename'
p657
NsS'symbian-icon1-mask'
p658
NsS'psp-parentallevel'
p659
NsS'splashscreen-use-all'
p660
NsS'wp8-author'
p661
NsS'symbian-disable-ecompxl'
p662
NsS'splashscreen-auto-onblack'
p663
NsS'win32-ext-dll'
p664
(lp665
S'c:/marmalade/7.2/extensions/s3ewebview/lib/win32/s3eWebView.dll'
p666
aS'c:/marmalade/7.2/extensions/s3eflurry/lib/win32/s3eFlurry.dll'
p667
asS'iphone-development-key'
p668
NsS'winmobile-icon48'
p669
NsS'android-unsigned'
p670
NsS'osx-appstore-category'
p671
NsS'version-revision'
p672
NsS'roku-icon-focus-sd'
p673
NsS'android-keystore'
p674
NsS'winmobile-png90'
p675
NsS'iphone-icon-ipad-high-res'
p676
NsS'iphone-disable-ipad'
p677
NsS'wp8-product-id'
p678
NsS'wp8-ext-capabilities'
p679
(lp680
sS'iphone-ipad-only'
p681
NsS'symbian-icon1-mask-black'
p682
NsS'iphone-bundle-localisations'
p683
NsS'winmobile-png60'
p684
NsS'blackberry-permissions-access-shared'
p685
NsS'blackberry-author'
p686
NsS'android-icon-xxxhdpi'
p687
NsS'olddeploytoolstyle'
p688
NsS'android_icon_gallery'
p689
NsS'winmobile-cab-compress'
p690
NsS'ws81-ext-managed-dll'
p691
(lp692
sS'win32-icon'
p693
NsS'symbian-key'
p694
NsS'app-icf'
p695
NsS'blackberry-storepass'
p696
NsS'wp8-tile-fliptemplate-back-title'
p697
NsS'brew-compress-loader'
p698
NsS'win32-pref-windowposy'
p699
NsS'win32-pref-windowposx'
p700
NsS'roku-requires-audiometadata'
p701
NsS'wp8-exclude-low-mem'
p702
NsS'wp8-tile-fliptemplate-title'
p703
NsS'iphone-icon-ipad-search-high-res'
p704
NsS'iphone-link-libdir'
p705
(lp706
S'c:/marmalade/7.2/extensions/s3ewebview/lib/iphone'
p707
aS'c:/marmalade/7.2/extensions/s3efacebook/lib/iphone'
p708
aS'c:/marmalade/7.2/extensions/s3eflurry/lib/iphone'
p709
asS'blackberry-permissions-read-geolocation'
p710
NsS'winmobile-nouninstall'
p711
NsS'tizen-signed'
p712
NsS'android-extra-application-manifest'
p713
(lp714
S'c:/marmalade/7.2/extensions/s3efacebook/source/android/extra_app_manifest.xml'
p715
asS'ws8-ext-native-dll'
p716
(lp717
sS'symbian-icon2-mask'
p718
NsS'iphone-backgroundmode-audio'
p719
NsS'webos-memory'
p720
NsS'android-keypass'
p721
NsS'name'
p722
NsS'uiq3-icon2-format'
p723
NsS'roku-splash-screen-sd'
p724
NsS'auto-derbh'
p725
NsS'roku-icon-side-sd'
p726
NsS'symbian-maxheapsize'
p727
NsS'nds-publicsavedatasize'
p728
NsS'splashscreen'
p729
NsS'brew-mif'
p730
NsS'iphone-icon-settings-high-res'
p731
NsS'android-manifest'
p732
NsS'ws81-splash-screen-image620x300'
p733
NsS's3e-compression'
p734
NsS'tizen-author-password'
p735
NsS'wp8-tile-fliptemplate-back-content'
p736
NsS'symbian-icon1'
p737
NsS'symbian-icon2'
p738
NsS'android-extra-styles-file'
p739
NsS'nds-bannertitle-jp'
p740
NsS'osx-sign-for-store'
p741
NsS'symbian7-uid'
p742
NsS'wp8-tile-fliptemplate-large-back-content'
p743
NsS'nds-bannertitle-cn'
p744
NsS'iphone-distribution-key'
p745
NsS'android-icon-gallery'
p746
NsS'blackberry-keystore'
p747
NsS'iphone-nosign'
p748
NsS'caption'
p749
NsS'android-extra-manifest'
p750
(lp751
sS'android-icon-xxhdpi'
p752
NsS'version-minor'
p753
NsS'iphone-link-libdirs'
p754
(lp755
sS'iphone-icon-large'
p756
NsS'symbian-keypwd'
p757
NsS'symbian8-uid'
p758
NsS'symbian-cert-key'
p759
NsS'winmobile-ampd-part-number'
p760
NsS'arch'
p761
NsS'nds-romheadertemplate'
p762
NsS'webos-icon'
p763
NsS'psp-dlgprotectdocument'
p764
NsS'android-icon-mdpi'
p765
NsS'nds-icon'
p766
NsS'ws8-custom-manifest-fill'
p767
NsS'iphone-development-cert'
p768
NsS'blackberry-phone-icon'
p769
NsS'iphone-enable-4inch-retina'
p770
NsS'ws8-custom-manifest'
p771
NsS'version-major'
p772
NsS'wp8-genre-isgame'
p773
NsS'uiq3-uid'
p774
NsS'iphone-splash-retina-generate'
p775
NsS'tizen-hw-acceleration'
p776
NsS'iphone_bundle_localisations'
p777
NsS'tizen-dist1-key'
p778
NsS'wp8-custom-manifest'
p779
NsS'nds-bannertitle-ge'
p780
NsS'iphone-sign-for-distribution'
p781
NsS'wp8-tile-fliptemplate-medium-back-image'
p782
NsS'wp8-publisher-id'
p783
NsS'icon'
p784
NsS'wp8-exclude-wxga'
p785
NsS'uiq3-icon2-mask'
p786
NsS'iphone-splashscreen-portrait'
p787
NsS'iphone-icon-high-res'
p788
NsS'ws81-distribution-pfx-password'
p789
NsS'playbook-author'
p790
NsS'android-icon-xhdpi'
p791
NsS'linux-ext-lib'
p792
(lp793
sS'blackberry-permissions-access-internet'
p794
NsS'wp8-exclude-720p'
p795
NsS'lgtv-use-drm'
p796
NsS'symbian-platsecflags'
p797
NsS'ws8-description'
p798
NsS'blackberry-playbook-icon'
p799
NsS'copyright'
p800
NsS'version'
p801
NsS'ws81-logo-image150x150'
p802
NsS'osx-signing-identity-app'
p803
NsS'tizen-project-url'
p804
NsS'symbian-icon-svg'
p805
NsS'android-aliasname'
p806
NsS'psp-dlgmanual'
p807
NsS'brew-uid'
p808
NsS'symbian-locationsupport'
p809
NsS'ws8-ext-managed-dll'
p810
(lp811
sS'nds-bannertitle-it'
p812
NsS'ws8-ext-sdk-manifest-part'
p813
(lp814
sS'uiq3-icon1-mask'
p815
NsS'winmobile-icon16'
p816
NsS'ws8-product-name'
p817
NsS'blackberry-cskpass'
p818
NsS'winmobile-start-menu-folder'
p819
NsS'brew-clsid'
p820
NsS'roku-requires-bluetooth'
p821
NsS'ws8-ext-device-capabilities'
p822
(lp823
sS'blackberry-permissions-use-camera'
p824
NsS'iphone-prerendered-icon'
p825
NsS'iphone-appid'
p826
S'com.ideaworks3d.s3eIOSGameCenter'
p827
sS'ws8-identity-name'
p828
NsS'tizen-dist2-CA-path'
p829
NsS'winmobile-icon64'
p830
NsS'blackberry-permissions-post-notification'
p831
NsS'winmobile-setup-dll'
p832
NsS'android-external-jars'
p833
(lp834
S'c:/marmalade/7.2/extensions/s3ewebview/lib/android/s3eWebView.jar'
p835
aS'c:/marmalade/7.2/extensions/s3efacebook/lib/android/s3eFacebook.jar'
p836
aS'c:/marmalade/7.2/extensions/s3efacebook/facebook-android-sdk/libs/android-support-v4.jar'
p837
aS'c:/marmalade/7.2/extensions/s3efacebook/lib/android/annotations-4.1.1.4.jar'
p838
aS'c:/marmalade/7.2/extensions/s3eflurry/lib/android/s3eFlurry.jar'
p839
aS'c:/marmalade/7.2/extensions/s3eflurry/lib/android/FlurryAgent.jar'
p840
asS'symbian9-uid'
p841
NsS'iphone-icon-ipad-ios7'
p842
NsS'winmobile-trace-file'
p843
NsS'roku-splash-color'
p844
NsS'psp-appversion'
p845
NsS'ws8-publisher-id'
p846
NsS'android-supports-gl-texture'
p847
(lp848
sS'winmobile-png45'
p849
NsS'android-storepass'
p850
NsS'roku-icon-focus-hd'
p851
NsS'android-custom-activity'
p852
NsS'psp-discversion'
p853
NsS'psp-copyright'
p854
NsS'embed-icf'
p855
NsS'tizen-manifest'
p856
NsS'osx-icon'
p857
NsS'webos-appinfo'
p858
NsS'psp-dlghealthwarning'
p859
NsS'webos-appid'
p860
NsS'roku-icon-side-hd'
p861
NsS'iphone-icon-ipad-search-high-res-ios7'
p862
NsS'ws81-ext-sdk-manifest-part'
p863
(lp864
sS'loader_name_prefix'
p865
NsS'nds-titlename'
p866
NsS'ws81-logo-image50x50'
p867
NsS'osx-entitlements-plist'
p868
NsS'psp-dlgicon0'
p869
NsS'ws81-ext-device-capabilities'
p870
(lp871
sS'psp-discid'
p872
NsS'tizen-dist2-password'
p873
NsS'ws8-ext-sdk-ref'
p874
(lp875
sS'iphone-extra-string'
p876
(lp877
sS'version-string'
p878
NsS'iphone-icon-high-res-ios7'
p879
NsS'blackberry-permissions-record-audio'
p880
NsS'ws8-certificate-end-date'
p881
NsS'tizen-so'
p882
(lp883
sS'wp8-tile-fliptemplate-small-image'
p884
NsS'pkguid-as-uid'
p885
NsS'iphone-signing-identity'
p886
NsS'roku-persist-quota'
p887
NsS'nds-bannertitle-fr'
p888
NsS'ws8-distribution-pfx'
p889
NsS'ws8-publisher-display-name'
p890
NsS'brew-icon-small'
p891
NsS'psp-dlgpic2'
p892
NsS'psp-dlgpic0'
p893
NsS'psp-pic0'
p894
NsS'psp-pic1'
p895
NsS'psp-icon0'
p896
NsS'psp-icon1'
p897
NsS'ws81-identity-name'
p898
NsS'winmobile-icon'
p899
NsS'iphone-no-splash'
p900
NsS'iphone-splash'
p901
NsS'iphone-app-fonts'
p902
NsS'wp8-ext-native-dll'
p903
(lp904
S'c:/marmalade/7.2/extensions/s3ewebview/lib/wp8/s3eWebViewExtension.dll'
p905
aS'c:/marmalade/7.2/extensions/s3efacebook/lib/wp8/s3eFacebookExtension.dll'
p906
aS'c:/marmalade/7.2/extensions/s3eflurry/lib/wp8/s3eFlurryExtension.dll'
p907
asS'ws81-distribution-cer'
p908
NsS'uiq3-icon2'
p909
NsS'uiq3-icon3'
p910
NsS'uiq3-icon1'
p911
NsS'uiq3-icon1-format'
p912
NsS'ws8-logo-image50x50'
p913
NsS'iphone-icon-ipad-search'
p914
NsS'symbian-run-on-install'
p915
NsS'ws81-publisher-display-name'
p916
NsS'ws81-custom-manifest-fill'
p917
NsS'symbian-soundrecordsupport'
p918
NsS'nds-bannertitle-sp'
p919
NsS'psp-producer'
p920
NsS'iphone-apple-wwdr-cert'
p921
NsS'android-icon-nonstandard'
p922
NsS'win32-pref-processtitle'
p923
NsS'nds-bannertitle-hn'
p924
NsS'tizen-dist2-key'
p925
NsS'brew-depends'
p926
NsS'ws81-custom-manifest'
p927
NsS'iphone-icon-ipad-search-ios7'
p928
NsS'brew-icon-medium'
p929
NsS'iphone-bundle-url-name'
p930
S'ADD_YOUR_OWN_APP_ID'
p931
sS'wp8-tile-fliptemplate-large-front-image'
p932
NsS'tizen-dist2-CA-root-path'
p933
NsS'ws81-description'
p934
NsS'uiq3-icon3-format'
p935
NsS'ws81-logo-image30x30'
p936
NsS'iphone-signing-host'
p937
NsS'tizen-icon'
p938
NsS'osx-info-plist'
p939
NsS'symbian-icon1-format'
p940
NsS'ws81-distribution-pfx'
p941
NsS'blackberry-authorid'
p942
NsS'ws81-publisher-id'
p943
NsS'ws81-ext-sdk-ref'
p944
(lp945
sS'wp8-description'
p946
NsS'iphone-link-opts'
p947
(lp948
S'-F$MARMALADE_ROOT/extensions/s3eFacebook/source/iphone/facebook-ios-sdk -framework FacebookSDK -weak_framework AdSupport -weak_framework Accounts -weak_framework Social -lsqlite3'
p949
aS'-framework SystemConfiguration -framework Security'
p950
asS'roku-splash-min-time'
p951
NsS'wp8-tile-fliptemplate-medium-front-image'
p952
NsS'provider'
p953
NsS'playbook-keystore'
p954
NsS'tizen-appid'
p955
NsS'tizen-author-key'
p956
NsS'symbian-osexecsupport'
p957
NsS'android-install-location'
p958
NsS'nds-privatesavedatasize'
p959
NsS'playbook-storepass'
p960
NsS'android-icon-ldpi'
p961
NsS'manufacturer'
p962
NsS'itunes-artwork'
p963
NsS'iphone-extra-sections'
p964
NsS'ws81-product-name'
p965
NsS'ws81-ext-native-dll'
p966
(lp967
sS'iphone-info-plist'
p968
NsS'ws8-distribution-pfx-password'
p969
NsS'ws8-logo-image30x30'
p970
NsS'wp8-ext-managed-dll'
p971
(lp972
S'c:/marmalade/7.2/extensions/s3ewebview/lib/wp8/s3eWebViewManaged.dll'
p973
aS'c:/marmalade/7.2/extensions/s3efacebook/lib/wp8/s3eFacebookManaged.dll'
p974
aS'c:/marmalade/7.2/extensions/s3efacebook/facebook_wp8_lib/Facebook.Client.dll'
p975
aS'c:/marmalade/7.2/extensions/s3efacebook/facebook_wp8_lib/Facebook.dll'
p976
aS'c:/marmalade/7.2/extensions/s3eflurry/lib/wp8/FlurryWP8SDK.dll'
p977
aS'c:/marmalade/7.2/extensions/s3eflurry/lib/wp8/s3eFlurryManaged.dll'
p978
asS'iphone-splashscreen-landscape'
p979
NsS'nds-makercode'
p980
NsS'priv-sign-key'
p981
NsS'networking'
p982
NsS'android-icon'
p983
NsS'iphone-icon-settings'
p984
NsS'iphone-distribution-cert'
p985
NsS'android_extra_strings'
p986
NsS'nds-bannertitle-en'
p987
NsS'playbook-cskpass'
p988
NsS'android-so'
p989
(lp990
S'c:/marmalade/7.2/extensions/s3ewebview/lib/android/libs3eWebView.so'
p991
aS'c:/marmalade/7.2/extensions/s3efacebook/lib/android/libs3eFacebook.so'
p992
aS'c:/marmalade/7.2/extensions/s3eflurry/lib/android/libs3eFlurry.so'
p993
asS'wp8-higher-mem'
p994
NsS'roku-splash-screen-hd'
p995
NsS'iphone-bundle-url-schemes'
p996
S'fd<FACEBOOK_APP_ID>'
p997
sS'roku-screensaver-private'
p998
NsS'osx-extra-res'
p999
(lp1000
sS'playbook-icon'
p1001
NsS'uid'
p1002
NsS'playbook-authorid'
p1003
NsS'win32-pref-windowtitle'
p1004
NsS'tizen-dist1-password'
p1005
NsS'roku-screensaver-title'
p1006
NsS'osx-minimum-osx-version'
p1007
NsS'symbian-cert'
p1008
NsS'iphone-icon'
p1009
NsS'ws81-ext-capabilities'
p1010
(lp1011
sS'ws8-distribution-cer'
p1012
NsS'playbook-access-shared'
p1013
NsS'iphone-icon-ipad-high-res-ios7'
p1014
NsS'iphone-link-libs'
p1015
(lp1016
sS'wp8-exclude-wvga'
p1017
NsS'assets'
p1018
NsS'wp8-tile-fliptemplate-large-back-image'
p1019
NsS'wp8-custom-manifest-fill'
p1020
NsS'pub-sign-key'
p1021
NsS'android-extra-strings'
p1022
NsS'tizen-author-CA-path'
p1023
Nssg325
g596
sbssS'platform'
p1024
S'S3E'
p1025
sg62
S'1.0'
p1026
sS'arcade_platform'
p1027
g4
sS'extensions'
p1028
(dp1029
sS'source_groups_tree'
p1030
(dp1031
S'(libpng)'
p1032
(dp1033
S'h'
p1034
(dp1035
S'c:/marmalade/7.2/modules/third_party/libpng/h/png.h'
p1036
(lp1037
I1
a(dp1038
asS'c:/marmalade/7.2/modules/third_party/libpng/h/pngconf.h'
p1039
(lp1040
I1
ag1038
assS'c:/marmalade/7.2/modules/third_party/libpng/libpng.mkf'
p1041
(lp1042
I1
a(dp1043
assS'(libjpeg)'
p1044
(dp1045
g1034
(dp1046
S'c:/marmalade/7.2/modules/third_party/libjpeg/h/jinclude.h'
p1047
(lp1048
I1
a(dp1049
asS'c:/marmalade/7.2/modules/third_party/libjpeg/h/jconfig.h'
p1050
(lp1051
I1
ag1049
asS'c:/marmalade/7.2/modules/third_party/libjpeg/h/cdjpeg.h'
p1052
(lp1053
I1
ag1049
asS'c:/marmalade/7.2/modules/third_party/libjpeg/h/jpegint.h'
p1054
(lp1055
I1
ag1049
asS'c:/marmalade/7.2/modules/third_party/libjpeg/h/transupp.h'
p1056
(lp1057
I1
ag1049
asS'c:/marmalade/7.2/modules/third_party/libjpeg/h/jpeglib.h'
p1058
(lp1059
I1
ag1049
asS'c:/marmalade/7.2/modules/third_party/libjpeg/h/jversion.h'
p1060
(lp1061
I1
ag1049
asS'c:/marmalade/7.2/modules/third_party/libjpeg/h/jdct.h'
p1062
(lp1063
I1
ag1049
asS'c:/marmalade/7.2/modules/third_party/libjpeg/h/jdhuff.h'
p1064
(lp1065
I1
ag1049
asS'c:/marmalade/7.2/modules/third_party/libjpeg/h/jmemsys.h'
p1066
(lp1067
I1
ag1049
asS'c:/marmalade/7.2/modules/third_party/libjpeg/h/jmorecfg.h'
p1068
(lp1069
I1
ag1049
asS'c:/marmalade/7.2/modules/third_party/libjpeg/h/jerror.h'
p1070
(lp1071
I1
ag1049
asS'c:/marmalade/7.2/modules/third_party/libjpeg/h/jchuff.h'
p1072
(lp1073
I1
ag1049
asS'c:/marmalade/7.2/modules/third_party/libjpeg/h/cderror.h'
p1074
(lp1075
I1
ag1049
assS'c:/marmalade/7.2/modules/third_party/libjpeg/libjpeg.mkf'
p1076
(lp1077
I1
a(dp1078
assS'(tiniconv)'
p1079
(dp1080
S'c:/marmalade/7.2/modules/third_party/tiniconv/source/tiniconv.h'
p1081
(lp1082
I1
a(dp1083
asS'c:/marmalade/7.2/modules/third_party/tiniconv/source/tiniconv_int.h'
p1084
(lp1085
I1
ag1083
asS'c:/marmalade/7.2/modules/third_party/tiniconv/tiniconv.mkf'
p1086
(lp1087
I1
a(dp1088
assS'(SoundEngine)'
p1089
(dp1090
S'c:/users/vinicius/desktop/yes or no/stars/modules/soundengine/source/IwSoundManager.cpp'
p1091
(lp1092
I1
a(dp1093
asS'c:/users/vinicius/desktop/yes or no/stars/modules/soundengine/soundengine.mkf'
p1094
(lp1095
I1
a(dp1096
asS'c:/users/vinicius/desktop/yes or no/stars/modules/soundengine/source/IwSoundInst.cpp'
p1097
(lp1098
I1
ag1093
asS'c:/users/vinicius/desktop/yes or no/stars/modules/soundengine/source/IwSoundADPCM.cpp'
p1099
(lp1100
I1
ag1093
asS'c:/users/vinicius/desktop/yes or no/stars/modules/soundengine/h/IwSoundManager.h'
p1101
(lp1102
I1
ag1093
asS'c:/users/vinicius/desktop/yes or no/stars/modules/soundengine/source/IwSoundParams.cpp'
p1103
(lp1104
I1
ag1093
asS'c:/users/vinicius/desktop/yes or no/stars/modules/soundengine/source/IwSoundData.cpp'
p1105
(lp1106
I1
ag1093
asS'Docs'
p1107
(dp1108
S'c:/users/vinicius/desktop/yes or no/stars/modules/soundengine/docs/iwsound.config.txt'
p1109
(lp1110
I1
ag1093
assS'c:/users/vinicius/desktop/yes or no/stars/modules/soundengine/source/IwResHandlerWAV.cpp'
p1111
(lp1112
I1
ag1093
asS'c:/users/vinicius/desktop/yes or no/stars/modules/soundengine/h/IwSoundInst.h'
p1113
(lp1114
I1
ag1093
asS'c:/users/vinicius/desktop/yes or no/stars/modules/soundengine/h/IwSoundADPCM.h'
p1115
(lp1116
I1
ag1093
asS'c:/users/vinicius/desktop/yes or no/stars/modules/soundengine/source/IwSoundWAV.cpp'
p1117
(lp1118
I1
ag1093
asS'c:/users/vinicius/desktop/yes or no/stars/modules/soundengine/source/IwSoundGroup.cpp'
p1119
(lp1120
I1
ag1093
asS'c:/users/vinicius/desktop/yes or no/stars/modules/soundengine/h/IwSound.h'
p1121
(lp1122
I1
ag1093
asS'c:/users/vinicius/desktop/yes or no/stars/modules/soundengine/h/IwSoundWAV.h'
p1123
(lp1124
I1
ag1093
asS'c:/users/vinicius/desktop/yes or no/stars/modules/soundengine/source/IwSoundPCM.cpp'
p1125
(lp1126
I1
ag1093
asS'c:/users/vinicius/desktop/yes or no/stars/modules/soundengine/h/IwSoundSpec.h'
p1127
(lp1128
I1
ag1093
asS'c:/users/vinicius/desktop/yes or no/stars/modules/soundengine/h/IwSoundPCM.h'
p1129
(lp1130
I1
ag1093
asS'c:/users/vinicius/desktop/yes or no/stars/modules/soundengine/h/IwSoundGroup.h'
p1131
(lp1132
I1
ag1093
asS'c:/users/vinicius/desktop/yes or no/stars/modules/soundengine/h/IwResHandlerWAV.h'
p1133
(lp1134
I1
ag1093
asS'c:/users/vinicius/desktop/yes or no/stars/modules/soundengine/h/IwSoundParams.h'
p1135
(lp1136
I1
ag1093
asS'c:/users/vinicius/desktop/yes or no/stars/modules/soundengine/h/IwSoundData.h'
p1137
(lp1138
I1
ag1093
asS'c:/users/vinicius/desktop/yes or no/stars/modules/soundengine/source/IwSoundSpec.cpp'
p1139
(lp1140
I1
ag1093
assS'Extensions'
p1141
(dp1142
S's3eWebView'
p1143
(dp1144
S'interface'
p1145
(dp1146
S'c:/marmalade/7.2/extensions/s3ewebview/interface/s3eWebView.defines.txt'
p1147
(lp1148
I1
a(dp1149
asS'c:/marmalade/7.2/extensions/s3ewebview/interface/s3eWebView_interface.cpp'
p1150
(lp1151
I1
ag1149
assS'c:/marmalade/7.2/extensions/s3ewebview/h/s3eWebView.h'
p1152
(lp1153
I1
ag1149
asS'c:/marmalade/7.2/extensions/s3ewebview/s3ewebview.mkf'
p1154
(lp1155
I1
a(dp1156
assS's3eFacebook'
p1157
(dp1158
S'interface'
p1159
(dp1160
S'c:/marmalade/7.2/extensions/s3efacebook/interface/s3eFacebook_interface.cpp'
p1161
(lp1162
I1
a(dp1163
asS'c:/marmalade/7.2/extensions/s3efacebook/interface/s3eFacebook.defines.txt'
p1164
(lp1165
I1
ag1163
assg1034
(dp1166
S'c:/marmalade/7.2/extensions/s3efacebook/h/s3eFacebook.h'
p1167
(lp1168
I1
ag1163
assS'c:/marmalade/7.2/extensions/s3efacebook/s3efacebook.mkf'
p1169
(lp1170
I1
a(dp1171
assS's3eFlurry'
p1172
(dp1173
S'interface'
p1174
(dp1175
S'c:/marmalade/7.2/extensions/s3eflurry/interface/s3eFlurry_interface.cpp'
p1176
(lp1177
I1
a(dp1178
asS'c:/marmalade/7.2/extensions/s3eflurry/interface/s3eFlurry.defines.txt'
p1179
(lp1180
I1
ag1178
assS'c:/marmalade/7.2/extensions/s3eflurry/h/s3eFlurry.h'
p1181
(lp1182
I1
ag1178
asS'c:/marmalade/7.2/extensions/s3eflurry/s3eflurry.mkf'
p1183
(lp1184
I1
a(dp1185
asssS'stars'
p1186
(dp1187
S'main'
p1188
(dp1189
S'c:/Users/Vinicius/Desktop/Yes or No/Stars/source/main.h'
p1190
(lp1191
I1
a(dp1192
asS'c:/Users/Vinicius/Desktop/Yes or No/Stars/source/main.cpp'
p1193
(lp1194
I1
ag1192
asS'c:/Users/Vinicius/Desktop/Yes or No/Stars/source/include.h'
p1195
(lp1196
I1
ag1192
assS'managers'
p1197
(dp1198
S'c:/Users/Vinicius/Desktop/Yes or No/Stars/source/timerManager.cpp'
p1199
(lp1200
I1
ag1192
asS'c:/Users/Vinicius/Desktop/Yes or No/Stars/source/spriteManager.cpp'
p1201
(lp1202
I1
ag1192
asS'c:/Users/Vinicius/Desktop/Yes or No/Stars/source/inputManager.h'
p1203
(lp1204
I1
ag1192
asS'c:/Users/Vinicius/Desktop/Yes or No/Stars/source/sceneManager.cpp'
p1205
(lp1206
I1
ag1192
asS'c:/Users/Vinicius/Desktop/Yes or No/Stars/source/timerManager.h'
p1207
(lp1208
I1
ag1192
asS'c:/Users/Vinicius/Desktop/Yes or No/Stars/source/sceneManager.h'
p1209
(lp1210
I1
ag1192
asS'c:/Users/Vinicius/Desktop/Yes or No/Stars/source/audioManager.h'
p1211
(lp1212
I1
ag1192
asS'c:/Users/Vinicius/Desktop/Yes or No/Stars/source/inputManager.cpp'
p1213
(lp1214
I1
ag1192
asS'c:/Users/Vinicius/Desktop/Yes or No/Stars/source/audioManager.cpp'
p1215
(lp1216
I1
ag1192
asS'c:/Users/Vinicius/Desktop/Yes or No/Stars/source/spriteManager.h'
p1217
(lp1218
I1
ag1192
assS'scenes'
p1219
(dp1220
S'c:/Users/Vinicius/Desktop/Yes or No/Stars/source/mainMenu.h'
p1221
(lp1222
I1
ag1192
asS'c:/Users/Vinicius/Desktop/Yes or No/Stars/source/mainMenu.cpp'
p1223
(lp1224
I1
ag1192
asS'c:/Users/Vinicius/Desktop/Yes or No/Stars/source/game.h'
p1225
(lp1226
I1
ag1192
asS'c:/Users/Vinicius/Desktop/Yes or No/Stars/source/game.cpp'
p1227
(lp1228
I1
ag1192
asssS"'Marmalade Studio'"
p1229
(dp1230
S'iw2dscenegraph'
p1231
(dp1232
S'c:/marmalade/7.2/modules/iw2dscenegraph/source/Iw2DSceneGraph.cpp'
p1233
(lp1234
I1
a(dp1235
asS'c:/marmalade/7.2/modules/iw2dscenegraph/iw2dscenegraph.mkf'
p1236
(lp1237
I1
a(dp1238
asS'c:/marmalade/7.2/modules/iw2dscenegraph/h/Iw2DSceneGraph.h'
p1239
(lp1240
I1
ag1235
asS'c:/marmalade/7.2/modules/iw2dscenegraph/docs/iw2dscenegraph.defines.txt'
p1241
(lp1242
I1
ag1235
assS'iwgl'
p1243
(dp1244
S'c:/marmalade/7.2/modules/iwgl/h/IwGL.h'
p1245
(lp1246
I1
a(dp1247
asS'c:/marmalade/7.2/modules/iwgl/iwgl.mkf'
p1248
(lp1249
I1
a(dp1250
asS'c:/marmalade/7.2/modules/iwgl/h/IwGLExt.h'
p1251
(lp1252
I1
ag1247
asS'c:/marmalade/7.2/modules/iwgl/docs/iwgl.config.txt'
p1253
(lp1254
I1
ag1247
assS'iw2d'
p1255
(dp1256
S'c:/marmalade/7.2/modules/iw2d/docs/iw2d_public.defines.txt'
p1257
(lp1258
I1
a(dp1259
asS'c:/marmalade/7.2/modules/iw2d/h/Iw2D.h'
p1260
(lp1261
I1
ag1259
asS'c:/marmalade/7.2/modules/iw2d/docs/iw2d.config.txt'
p1262
(lp1263
I1
ag1259
asS'c:/marmalade/7.2/modules/iw2d/iw2d.mkf'
p1264
(lp1265
I1
a(dp1266
assS'iwgxfont'
p1267
(dp1268
S'c:/marmalade/7.2/modules/iwgxfont/h/IwGxFont.h'
p1269
(lp1270
I1
a(dp1271
asS'c:/marmalade/7.2/modules/iwgxfont/h/IwGxFontPreparedData.h'
p1272
(lp1273
I1
ag1271
asS'c:/marmalade/7.2/modules/iwgxfont/h/IwGxFontContainer.h'
p1274
(lp1275
I1
ag1271
asS'c:/marmalade/7.2/modules/iwgxfont/docs/iwgxfont_public.defines.txt'
p1276
(lp1277
I1
ag1271
asS'c:/marmalade/7.2/modules/iwgxfont/h/IwGxFontGlyph.h'
p1278
(lp1279
I1
ag1271
asS'c:/marmalade/7.2/modules/iwgxfont/h/IwGxFontState.h'
p1280
(lp1281
I1
ag1271
asS'c:/marmalade/7.2/modules/iwgxfont/h/IwGxFontTypes.h'
p1282
(lp1283
I1
ag1271
asS'c:/marmalade/7.2/modules/iwgxfont/iwgxfont.mkf'
p1284
(lp1285
I1
a(dp1286
asS'c:/marmalade/7.2/modules/iwgxfont/docs/iwgxfont.config.txt'
p1287
(lp1288
I1
ag1271
assS'iwgeom'
p1289
(dp1290
S'c:/marmalade/7.2/modules/iwgeom/h/IwGeomFPlane.h'
p1291
(lp1292
I1
a(dp1293
asS'c:/marmalade/7.2/modules/iwgeom/h/IwGeomPlane.h'
p1294
(lp1295
I1
ag1293
asS'c:/marmalade/7.2/modules/iwgeom/h/IwGeomMat.h'
p1296
(lp1297
I1
ag1293
asS'c:/marmalade/7.2/modules/iwgeom/h/IwGeomMat2D.h'
p1298
(lp1299
I1
ag1293
asS'c:/marmalade/7.2/modules/iwgeom/h/IwGeomMenu.h'
p1300
(lp1301
I1
ag1293
asS'c:/marmalade/7.2/modules/iwgeom/h/IwGeomSqrt.h'
p1302
(lp1303
I1
ag1293
asS'c:/marmalade/7.2/modules/iwgeom/h/IwGeomFMat2D.h'
p1304
(lp1305
I1
ag1293
asS'c:/marmalade/7.2/modules/iwgeom/h/IwGeomCore.h'
p1306
(lp1307
I1
ag1293
asS'c:/marmalade/7.2/modules/iwgeom/h/IwGeomFVec3.h'
p1308
(lp1309
I1
ag1293
asS'c:/marmalade/7.2/modules/iwgeom/h/IwGeomFVec2.h'
p1310
(lp1311
I1
ag1293
asS'c:/marmalade/7.2/modules/iwgeom/h/IwGeom.h'
p1312
(lp1313
I1
ag1293
asS'c:/marmalade/7.2/modules/iwgeom/h/IwGeomSVec2.h'
p1314
(lp1315
I1
ag1293
asS'c:/marmalade/7.2/modules/iwgeom/h/IwGeomFVec4.h'
p1316
(lp1317
I1
ag1293
asS'c:/marmalade/7.2/modules/iwgeom/h/IwGeomSVec3.h'
p1318
(lp1319
I1
ag1293
asS'c:/marmalade/7.2/modules/iwgeom/h/IwGeomBBox.h'
p1320
(lp1321
I1
ag1293
asS'c:/marmalade/7.2/modules/iwgeom/h/IwGeomVec2.h'
p1322
(lp1323
I1
ag1293
asS'c:/marmalade/7.2/modules/iwgeom/h/IwGeomFMat.h'
p1324
(lp1325
I1
ag1293
asS'c:/marmalade/7.2/modules/iwgeom/h/IwGeomFQuat.h'
p1326
(lp1327
I1
ag1293
asS'c:/marmalade/7.2/modules/iwgeom/h/IwGeomVec3.h'
p1328
(lp1329
I1
ag1293
asS'c:/marmalade/7.2/modules/iwgeom/h/IwGeomSVec4.h'
p1330
(lp1331
I1
ag1293
asS'c:/marmalade/7.2/modules/iwgeom/docs/iwgeom.config.txt'
p1332
(lp1333
I1
ag1293
asS'c:/marmalade/7.2/modules/iwgeom/h/IwGeomFIntersect.h'
p1334
(lp1335
I1
ag1293
asS'c:/marmalade/7.2/modules/iwgeom/iwgeom.mkf'
p1336
(lp1337
I1
a(dp1338
asS'c:/marmalade/7.2/modules/iwgeom/h/IwGeomFSphere.h'
p1339
(lp1340
I1
ag1293
asS'c:/marmalade/7.2/modules/iwgeom/h/IwGeomLegacy.h'
p1341
(lp1342
I1
ag1293
asS'c:/marmalade/7.2/modules/iwgeom/h/IwGeomIntersect.h'
p1343
(lp1344
I1
ag1293
asS'c:/marmalade/7.2/modules/iwgeom/h/IwGeomSQuat.h'
p1345
(lp1346
I1
ag1293
asS'c:/marmalade/7.2/modules/iwgeom/h/IwGeomQuat.h'
p1347
(lp1348
I1
ag1293
asS'c:/marmalade/7.2/modules/iwgeom/h/IwGeomSphere.h'
p1349
(lp1350
I1
ag1293
asS'c:/marmalade/7.2/modules/iwgeom/h/IwGeomVec.h'
p1351
(lp1352
I1
ag1293
asS'c:/marmalade/7.2/modules/iwgeom/h/IwGeomVec4.h'
p1353
(lp1354
I1
ag1293
asS'c:/marmalade/7.2/modules/iwgeom/h/IwGeomFBBox.h'
p1355
(lp1356
I1
ag1293
assS'iwresmanager'
p1357
(dp1358
S'c:/marmalade/7.2/modules/iwresmanager/h/IwResHandlerGROUP.h'
p1359
(lp1360
I1
a(dp1361
asS'c:/marmalade/7.2/modules/iwresmanager/h/IwResHandler.h'
p1362
(lp1363
I1
ag1361
asS'c:/marmalade/7.2/modules/iwresmanager/iwresmanager.mkf'
p1364
(lp1365
I1
a(dp1366
asS'c:/marmalade/7.2/modules/iwresmanager/h/IwResGroup.h'
p1367
(lp1368
I1
ag1361
asS'c:/marmalade/7.2/modules/iwresmanager/h/IwResHandlerImage.h'
p1369
(lp1370
I1
ag1361
asS'c:/marmalade/7.2/modules/iwresmanager/docs/iwresmanager.config.txt'
p1371
(lp1372
I1
ag1361
asS'c:/marmalade/7.2/modules/iwresmanager/h/IwResManagerClass.h'
p1373
(lp1374
I1
ag1361
asS'c:/marmalade/7.2/modules/iwresmanager/h/IwResHandlerITX.h'
p1375
(lp1376
I1
ag1361
asS'c:/marmalade/7.2/modules/iwresmanager/h/IwResSerialise.h'
p1377
(lp1378
I1
ag1361
asS'c:/marmalade/7.2/modules/iwresmanager/h/IwResManager.h'
p1379
(lp1380
I1
ag1361
assS'iwgx'
p1381
(dp1382
S'c:/marmalade/7.2/modules/iwgx/h/IwTPage.h'
p1383
(lp1384
I1
a(dp1385
asS'c:/marmalade/7.2/modules/iwgx/h/IwGxStream.h'
p1386
(lp1387
I1
ag1385
asS'c:/marmalade/7.2/modules/iwgx/h/IwGxTransformSW.h'
p1388
(lp1389
I1
ag1385
asS'c:/marmalade/7.2/modules/iwgx/h/IwMaterial.h'
p1390
(lp1391
I1
ag1385
asS'c:/marmalade/7.2/modules/iwgx/h/IwMatAnim.h'
p1392
(lp1393
I1
ag1385
asS'c:/marmalade/7.2/modules/iwgx/docs/iwgx.config.txt'
p1394
(lp1395
I1
ag1385
asS'c:/marmalade/7.2/modules/iwgx/iwgx.mkf'
p1396
(lp1397
I1
a(dp1398
asS'c:/marmalade/7.2/modules/iwgx/h/IwResHandlerMTL.h'
p1399
(lp1400
I1
ag1385
asS'c:/marmalade/7.2/modules/iwgx/h/IwGxPrint.h'
p1401
(lp1402
I1
ag1385
asS'c:/marmalade/7.2/modules/iwgx/h/IwGxSurface.h'
p1403
(lp1404
I1
ag1385
asS'c:/marmalade/7.2/modules/iwgx/docs/iwgx_public.defines.txt'
p1405
(lp1406
I1
ag1385
asS'c:/marmalade/7.2/modules/iwgx/h/IwClip.h'
p1407
(lp1408
I1
ag1385
asS'c:/marmalade/7.2/modules/iwgx/h/IwGx.h'
p1409
(lp1410
I1
ag1385
asS'c:/marmalade/7.2/modules/iwgx/h/IwGxDebug.h'
p1411
(lp1412
I1
ag1385
asS'c:/marmalade/7.2/modules/iwgx/h/IwDebugPrim.h'
p1413
(lp1414
I1
ag1385
asS'c:/marmalade/7.2/modules/iwgx/h/IwGxMetrics.h'
p1415
(lp1416
I1
ag1385
asS'c:/marmalade/7.2/modules/iwgx/h/IwGxError.h'
p1417
(lp1418
I1
ag1385
asS'c:/marmalade/7.2/modules/iwgx/h/IwClip.inl'
p1419
(lp1420
I1
ag1385
asS'c:/marmalade/7.2/modules/iwgx/h/IwGxFuncTable.h'
p1421
(lp1422
I1
ag1385
asS'c:/marmalade/7.2/modules/iwgx/h/IwTexture.h'
p1423
(lp1424
I1
ag1385
asS'c:/marmalade/7.2/modules/iwgx/h/IwFColour.h'
p1425
(lp1426
I1
ag1385
asS'c:/marmalade/7.2/modules/iwgx/h/IwColour.h'
p1427
(lp1428
I1
ag1385
asS'c:/marmalade/7.2/modules/iwgx/h/IwGxShaderTechnique.h'
p1429
(lp1430
I1
ag1385
asS'c:/marmalade/7.2/modules/iwgx/h/IwGxTypes.h'
p1431
(lp1432
I1
ag1385
asS'c:/marmalade/7.2/modules/iwgx/h/IwGxState.h'
p1433
(lp1434
I1
ag1385
assS'iw2dscenegraphcore'
p1435
(dp1436
S'c:/marmalade/7.2/modules/iw2dscenegraphcore/iw2dscenegraphcore.mkf'
p1437
(lp1438
I1
a(dp1439
asS'c:/marmalade/7.2/modules/iw2dscenegraphcore/h/Iw2DSceneGraphCore.h'
p1440
(lp1441
I1
a(dp1442
asS'c:/marmalade/7.2/modules/iw2dscenegraphcore/source/Iw2DSceneGraphCore.cpp'
p1443
(lp1444
I1
ag1442
assS'iwutil'
p1445
(dp1446
S'c:/marmalade/7.2/modules/iwutil/h/IwCore.h'
p1447
(lp1448
I1
a(dp1449
asS'c:/marmalade/7.2/modules/iwutil/h/IwArray.h'
p1450
(lp1451
I1
ag1449
asS'c:/marmalade/7.2/modules/iwutil/h/IwResource.h'
p1452
(lp1453
I1
ag1449
asS'c:/marmalade/7.2/modules/iwutil/h/IwFibre.h'
p1454
(lp1455
I1
ag1449
asS'c:/marmalade/7.2/modules/iwutil/h/IwBuffer.h'
p1456
(lp1457
I1
ag1449
asS'c:/marmalade/7.2/modules/iwutil/h/IwRandom.h'
p1458
(lp1459
I1
ag1449
asS'c:/marmalade/7.2/modules/iwutil/h/IwManagedList.h'
p1460
(lp1461
I1
ag1449
asS'c:/marmalade/7.2/modules/iwutil/h/IwList.h'
p1462
(lp1463
I1
ag1449
asS'c:/marmalade/7.2/modules/iwutil/h/IwProfileMenu.h'
p1464
(lp1465
I1
ag1449
asS'c:/marmalade/7.2/modules/iwutil/h/IwMemory.h'
p1466
(lp1467
I1
ag1449
asS'c:/marmalade/7.2/modules/iwutil/h/IwMath.h'
p1468
(lp1469
I1
ag1449
asS'c:/marmalade/7.2/modules/iwutil/h/IwDivTable.h'
p1470
(lp1471
I1
ag1449
asS'c:/marmalade/7.2/modules/iwutil/h/IwTextParserITX.h'
p1472
(lp1473
I1
ag1449
asS'c:/marmalade/7.2/modules/iwutil/h/IwMenu.h'
p1474
(lp1475
I1
ag1449
asS'c:/marmalade/7.2/modules/iwutil/h/IwChar.h'
p1476
(lp1477
I1
ag1449
asS'c:/marmalade/7.2/modules/iwutil/h/IwEvent.h'
p1478
(lp1479
I1
ag1449
asS'c:/marmalade/7.2/modules/iwutil/h/IwTextParser.h'
p1480
(lp1481
I1
ag1449
asS'c:/marmalade/7.2/modules/iwutil/h/IwOptimiseSize.h'
p1482
(lp1483
I1
ag1449
asS'c:/marmalade/7.2/modules/iwutil/h/IwSingleton.h'
p1484
(lp1485
I1
ag1449
asS'c:/marmalade/7.2/modules/iwutil/h/IwImage.h'
p1486
(lp1487
I1
ag1449
asS'c:/marmalade/7.2/modules/iwutil/h/IwFile.h'
p1488
(lp1489
I1
ag1449
asS'c:/marmalade/7.2/modules/iwutil/h/IwString.h'
p1490
(lp1491
I1
ag1449
asS'c:/marmalade/7.2/modules/iwutil/h/IwVariableBitField.h'
p1492
(lp1493
I1
ag1449
asS'c:/marmalade/7.2/modules/iwutil/h/IwUncopyable.h'
p1494
(lp1495
I1
ag1449
asS'c:/marmalade/7.2/modules/iwutil/h/IwAllocator.h'
p1496
(lp1497
I1
ag1449
asS'c:/marmalade/7.2/modules/iwutil/h/IwTypes.h'
p1498
(lp1499
I1
ag1449
asS'c:/marmalade/7.2/modules/iwutil/h/IwManaged.h'
p1500
(lp1501
I1
ag1449
asS'c:/marmalade/7.2/modules/iwutil/h/IwRuntime.h'
p1502
(lp1503
I1
ag1449
asS'c:/marmalade/7.2/modules/iwutil/h/IwMemManagerDL.h'
p1504
(lp1505
I1
ag1449
asS'c:/marmalade/7.2/modules/iwutil/h/IwOptimiseThumb.h'
p1506
(lp1507
I1
ag1449
asS'c:/marmalade/7.2/modules/iwutil/h/IwUtil.h'
p1508
(lp1509
I1
ag1449
asS'c:/marmalade/7.2/modules/iwutil/docs/iwutil.config.txt'
p1510
(lp1511
I1
ag1449
asS'c:/marmalade/7.2/modules/iwutil/h/IwClassFactory.h'
p1512
(lp1513
I1
ag1449
asS'c:/marmalade/7.2/modules/iwutil/h/IwUtilInitTerm.h'
p1514
(lp1515
I1
ag1449
asS'c:/marmalade/7.2/modules/iwutil/h/IwAutoFile.h'
p1516
(lp1517
I1
ag1449
asS'c:/marmalade/7.2/modules/iwutil/h/IwUTF8.h'
p1518
(lp1519
I1
ag1449
asS'c:/marmalade/7.2/modules/iwutil/h/IwSerialise.h'
p1520
(lp1521
I1
ag1449
asS'c:/marmalade/7.2/modules/iwutil/h/IwPath.h'
p1522
(lp1523
I1
ag1449
asS'c:/marmalade/7.2/modules/iwutil/h/IwMemBucketHelpers.h'
p1524
(lp1525
I1
ag1449
asS'c:/marmalade/7.2/modules/iwutil/h/IwCopyingPtr.h'
p1526
(lp1527
I1
ag1449
asS'c:/marmalade/7.2/modules/iwutil/h/IwOptimiseARM.h'
p1528
(lp1529
I1
ag1449
asS'c:/marmalade/7.2/modules/iwutil/h/IwMemBucket.h'
p1530
(lp1531
I1
ag1449
asS'c:/marmalade/7.2/modules/iwutil/iwutil.mkf'
p1532
(lp1533
I1
a(dp1534
asS'c:/marmalade/7.2/modules/iwutil/h/IwKeymap.h'
p1535
(lp1536
I1
ag1449
asS'c:/marmalade/7.2/modules/iwutil/h/IwImageHelper.h'
p1537
(lp1538
I1
ag1449
asS'c:/marmalade/7.2/modules/iwutil/h/IwOptimiseSpeed.h'
p1539
(lp1540
I1
ag1449
asS'c:/marmalade/7.2/modules/iwutil/h/IwTextParseable.h'
p1541
(lp1542
I1
ag1449
asS'c:/marmalade/7.2/modules/iwutil/h/IwDebug.h'
p1543
(lp1544
I1
ag1449
asS'c:/marmalade/7.2/modules/iwutil/h/IwDivide.h'
p1545
(lp1546
I1
ag1449
asS'c:/marmalade/7.2/modules/iwutil/h/IwHashString.h'
p1547
(lp1548
I1
ag1449
asssS'(zlib)'
p1549
(dp1550
g1034
(dp1551
S'c:/marmalade/7.2/modules/third_party/zlib/h/zconf.h'
p1552
(lp1553
I1
a(dp1554
asS'c:/marmalade/7.2/modules/third_party/zlib/h/zlib.h'
p1555
(lp1556
I1
ag1554
assS'c:/marmalade/7.2/modules/third_party/zlib/zlib.mkf'
p1557
(lp1558
I1
a(dp1559
assS'(iwtween)'
p1560
(dp1561
S'c:/marmalade/7.2/modules/iwtween/iwtween.mkf'
p1562
(lp1563
I1
a(dp1564
asS'c:/marmalade/7.2/modules/iwtween/source/IwTween.cpp'
p1565
(lp1566
I1
a(dp1567
asS'c:/marmalade/7.2/modules/iwtween/h/IwTween.h'
p1568
(lp1569
I1
ag1567
asssS'files'
p1570
(dp1571
S'IwGxFontPreparedData.h'
p1572
g299
(cmkb_main
File
p1573
g301
Ntp1574
Rp1575
(dp1576
S'flags'
p1577
g1271
sS'group'
p1578
(lp1579
S"'Marmalade Studio'"
p1580
ag1267
asg325
g1272
sbsS'iterator'
p1581
g299
(g1573
g301
Ntp1582
Rp1583
(dp1584
g1577
(dp1585
sg1578
(lp1586
S"'Marmalade System (S3E)'"
p1587
aS'stdc headers'
p1588
aS'c++'
p1589
asg325
S'c:/marmalade/7.2/s3e/h/std/c++/iterator'
p1590
sbsS'IwGL.h'
p1591
g299
(g1573
g301
Ntp1592
Rp1593
(dp1594
g1577
g1247
sg1578
(lp1595
S"'Marmalade Studio'"
p1596
ag1243
asg325
g1245
sbsS's3e.h'
p1597
g299
(g1573
g301
Ntp1598
Rp1599
(dp1600
g1577
g1585
sg1578
(lp1601
g1587
asg325
S'c:/marmalade/7.2/s3e/h/s3e.h'
p1602
sbsS'errno.h'
p1603
g299
(g1573
g301
Ntp1604
Rp1605
(dp1606
g1577
g1585
sg1578
(lp1607
g1587
aS'stdc headers'
p1608
asg325
S'c:/marmalade/7.2/s3e/h/std/errno.h'
p1609
sbsS'IwSingleton.h'
p1610
g299
(g1573
g301
Ntp1611
Rp1612
(dp1613
g1577
g1449
sg1578
(lp1614
S"'Marmalade Studio'"
p1615
ag1445
asg325
g1484
sbsS'spriteManager.cpp'
p1616
g299
(g1573
g301
Ntp1617
Rp1618
(dp1619
g1577
g1192
sg1578
(lp1620
g1186
ag1197
asg325
g1201
sbsS'dlfcn.h'
p1621
g299
(g1573
g301
Ntp1622
Rp1623
(dp1624
g1577
g1585
sg1578
g1607
sg325
S'c:/marmalade/7.2/s3e/h/std/dlfcn.h'
p1625
sbsS'IwSoundWAV.cpp'
p1626
g299
(g1573
g301
Ntp1627
Rp1628
(dp1629
g1577
g1093
sg1578
(lp1630
g1089
asg325
g1117
sbsS'sched.h'
p1631
g299
(g1573
g301
Ntp1632
Rp1633
(dp1634
g1577
g1585
sg1578
g1607
sg325
S'c:/marmalade/7.2/s3e/h/std/sched.h'
p1635
sbsS'IwSoundPCM.h'
p1636
g299
(g1573
g301
Ntp1637
Rp1638
(dp1639
g1577
g1093
sg1578
g1630
sg325
g1129
sbsS'IwGeomFMat2D.h'
p1640
g299
(g1573
g301
Ntp1641
Rp1642
(dp1643
g1577
g1293
sg1578
(lp1644
S"'Marmalade Studio'"
p1645
ag1289
asg325
g1304
sbsS'cassert'
p1646
g299
(g1573
g301
Ntp1647
Rp1648
(dp1649
g1577
g1585
sg1578
g1586
sg325
S'c:/marmalade/7.2/s3e/h/std/c++/cassert'
p1650
sbsS'grp.h'
p1651
g299
(g1573
g301
Ntp1652
Rp1653
(dp1654
g1577
g1585
sg1578
g1607
sg325
S'c:/marmalade/7.2/s3e/h/std/grp.h'
p1655
sbsS'list'
p1656
g299
(g1573
g301
Ntp1657
Rp1658
(dp1659
g1577
g1585
sg1578
g1586
sg325
S'c:/marmalade/7.2/s3e/h/std/c++/list'
p1660
sbsS'IwSoundSpec.cpp'
p1661
g299
(g1573
g301
Ntp1662
Rp1663
(dp1664
g1577
g1093
sg1578
g1630
sg325
g1139
sbsS'istream'
p1665
g299
(g1573
g301
Ntp1666
Rp1667
(dp1668
g1577
g1585
sg1578
g1586
sg325
S'c:/marmalade/7.2/s3e/h/std/c++/istream'
p1669
sbsS'jpeglib.h'
p1670
g299
(g1573
g301
Ntp1671
Rp1672
(dp1673
g1577
g1049
sg1578
(lp1674
g1044
ag1034
asg325
g1058
sbsS'iw2d_public.defines.txt'
p1675
g299
(g1573
g301
Ntp1676
Rp1677
(dp1678
g1577
g1259
sg1578
(lp1679
S"'Marmalade Studio'"
p1680
ag1255
asg325
g1257
sbsS'iostream.h'
p1681
g299
(g1573
g301
Ntp1682
Rp1683
(dp1684
g1577
g1585
sg1578
g1586
sg325
S'c:/marmalade/7.2/s3e/h/std/c++/iostream.h'
p1685
sbsS'IwSoundADPCM.h'
p1686
g299
(g1573
g301
Ntp1687
Rp1688
(dp1689
g1577
g1093
sg1578
g1630
sg325
g1115
sbsS'string'
p1690
g299
(g1573
g301
Ntp1691
Rp1692
(dp1693
g1577
g1585
sg1578
g1586
sg325
S'c:/marmalade/7.2/s3e/h/std/c++/string'
p1694
sbsS'IwMemory.h'
p1695
g299
(g1573
g301
Ntp1696
Rp1697
(dp1698
g1577
g1449
sg1578
g1614
sg325
g1466
sbsS'IwGeomPlane.h'
p1699
g299
(g1573
g301
Ntp1700
Rp1701
(dp1702
g1577
g1293
sg1578
g1644
sg325
g1294
sbsS'iw2d.config.txt'
p1703
g299
(g1573
g301
Ntp1704
Rp1705
(dp1706
g1577
g1259
sg1578
g1679
sg325
g1262
sbsS'iomanip'
p1707
g299
(g1573
g301
Ntp1708
Rp1709
(dp1710
g1577
g1585
sg1578
g1586
sg325
S'c:/marmalade/7.2/s3e/h/std/c++/iomanip'
p1711
sbsS'iwgeom.mkf'
p1712
g299
(g1573
g301
Ntp1713
Rp1714
(dp1715
g1577
g1338
sg1578
g1644
sg325
g1336
sbsS'IwGxError.h'
p1716
g299
(g1573
g301
Ntp1717
Rp1718
(dp1719
g1577
g1385
sg1578
(lp1720
S"'Marmalade Studio'"
p1721
ag1381
asg325
g1417
sbsS'IwGeom.h'
p1722
g299
(g1573
g301
Ntp1723
Rp1724
(dp1725
g1577
g1293
sg1578
g1644
sg325
g1312
sbsS'IwGeomVec4.h'
p1726
g299
(g1573
g301
Ntp1727
Rp1728
(dp1729
g1577
g1293
sg1578
g1644
sg325
g1353
sbsS'dir.h'
p1730
g299
(g1573
g301
Ntp1731
Rp1732
(dp1733
g1577
g1585
sg1578
(lp1734
g1587
aS'stdc headers'
p1735
aS'sys'
p1736
asg325
S'c:/marmalade/7.2/s3e/h/std/sys/dir.h'
p1737
sbsS'locale.h'
p1738
g299
(g1573
g301
Ntp1739
Rp1740
(dp1741
g1577
g1585
sg1578
g1607
sg325
S'c:/marmalade/7.2/s3e/h/std/locale.h'
p1742
sbsS'vector'
p1743
g299
(g1573
g301
Ntp1744
Rp1745
(dp1746
g1577
g1585
sg1578
g1586
sg325
S'c:/marmalade/7.2/s3e/h/std/c++/vector'
p1747
sbsS'IwManaged.h'
p1748
g299
(g1573
g301
Ntp1749
Rp1750
(dp1751
g1577
g1449
sg1578
g1614
sg325
g1500
sbsS's3eCompass.h'
p1752
g299
(g1573
g301
Ntp1753
Rp1754
(dp1755
g1577
g1585
sg1578
g1601
sg325
S'c:/marmalade/7.2/s3e/h/s3eCompass.h'
p1756
sbsS'cderror.h'
p1757
g299
(g1573
g301
Ntp1758
Rp1759
(dp1760
g1577
g1049
sg1578
g1674
sg325
g1074
sbsS'climits'
p1761
g299
(g1573
g301
Ntp1762
Rp1763
(dp1764
g1577
g1585
sg1578
g1586
sg325
S'c:/marmalade/7.2/s3e/h/std/c++/climits'
p1765
sbsS's3eVibra.h'
p1766
g299
(g1573
g301
Ntp1767
Rp1768
(dp1769
g1577
g1585
sg1578
g1601
sg325
S'c:/marmalade/7.2/s3e/h/s3eVibra.h'
p1770
sbsS'jversion.h'
p1771
g299
(g1573
g301
Ntp1772
Rp1773
(dp1774
g1577
g1049
sg1578
g1674
sg325
g1060
sbsS'fnmatch.h'
p1775
g299
(g1573
g301
Ntp1776
Rp1777
(dp1778
g1577
g1585
sg1578
g1607
sg325
S'c:/marmalade/7.2/s3e/h/std/fnmatch.h'
p1779
sbsS'IwGxState.h'
p1780
g299
(g1573
g301
Ntp1781
Rp1782
(dp1783
g1577
g1385
sg1578
g1720
sg325
g1433
sbsS's3eAudio.h'
p1784
g299
(g1573
g301
Ntp1785
Rp1786
(dp1787
g1577
g1585
sg1578
g1601
sg325
S'c:/marmalade/7.2/s3e/h/s3eAudio.h'
p1788
sbsS's3eSurface.h'
p1789
g299
(g1573
g301
Ntp1790
Rp1791
(dp1792
g1577
g1585
sg1578
g1601
sg325
S'c:/marmalade/7.2/s3e/h/s3eSurface.h'
p1793
sbsS'new'
p1794
g299
(g1573
g301
Ntp1795
Rp1796
(dp1797
g1577
g1585
sg1578
g1586
sg325
S'c:/marmalade/7.2/s3e/h/std/c++/new'
p1798
sbsS's3eWindow.h'
p1799
g299
(g1573
g301
Ntp1800
Rp1801
(dp1802
g1577
g1585
sg1578
(lp1803
g1587
aS'Extensions'
p1804
asg325
S'c:/marmalade/7.2/s3e/h/ext/s3eWindow.h'
p1805
sbsS'IwBuffer.h'
p1806
g299
(g1573
g301
Ntp1807
Rp1808
(dp1809
g1577
g1449
sg1578
g1614
sg325
g1456
sbsS's3eflurry.mkf'
p1810
g299
(g1573
g301
Ntp1811
Rp1812
(dp1813
g1577
g1185
sg1578
(lp1814
S'Extensions'
p1815
ag1172
asg325
g1183
sbsS'stdio_streambuf'
p1816
g299
(g1573
g301
Ntp1817
Rp1818
(dp1819
g1577
g1585
sg1578
g1586
sg325
S'c:/marmalade/7.2/s3e/h/std/c++/stdio_streambuf'
p1820
sbsS's3eOSExec.h'
p1821
g299
(g1573
g301
Ntp1822
Rp1823
(dp1824
g1577
g1585
sg1578
g1803
sg325
S'c:/marmalade/7.2/s3e/h/ext/s3eOSExec.h'
p1825
sbsS'IwGxTransformSW.h'
p1826
g299
(g1573
g301
Ntp1827
Rp1828
(dp1829
g1577
g1385
sg1578
g1720
sg325
g1388
sbsS'unistd.h'
p1830
g299
(g1573
g301
Ntp1831
Rp1832
(dp1833
g1577
g1585
sg1578
g1607
sg325
S'c:/marmalade/7.2/s3e/h/std/unistd.h'
p1834
sbsS'spriteManager.h'
p1835
g299
(g1573
g301
Ntp1836
Rp1837
(dp1838
g1577
g1192
sg1578
g1620
sg325
g1217
sbsS'iwgxfont.config.txt'
p1839
g299
(g1573
g301
Ntp1840
Rp1841
(dp1842
g1577
g1271
sg1578
g1579
sg325
g1287
sbsS'gl2platform.h'
p1843
g299
(g1573
g301
Ntp1844
Rp1845
(dp1846
g1577
g1585
sg1578
(lp1847
g1587
aS'GL'
p1848
aS'GLES 2.0'
p1849
asg325
S'c:/marmalade/7.2/s3e/h/GLES2/gl2platform.h'
p1850
sbsS'IwResManagerClass.h'
p1851
g299
(g1573
g301
Ntp1852
Rp1853
(dp1854
g1577
g1361
sg1578
(lp1855
g1229
ag1357
asg325
g1373
sbsS'queue'
p1856
g299
(g1573
g301
Ntp1857
Rp1858
(dp1859
g1577
g1585
sg1578
g1586
sg325
S'c:/marmalade/7.2/s3e/h/std/c++/queue'
p1860
sbsS'time_1.h'
p1861
g299
(g1573
g301
Ntp1862
Rp1863
(dp1864
g1577
g1585
sg1578
g1734
sg325
S'c:/marmalade/7.2/s3e/h/std/sys/time.h'
p1865
sbsS'Iw2D.h'
p1866
g299
(g1573
g301
Ntp1867
Rp1868
(dp1869
g1577
g1259
sg1578
g1679
sg325
g1260
sbsS'IwGeomVec2.h'
p1870
g299
(g1573
g301
Ntp1871
Rp1872
(dp1873
g1577
g1293
sg1578
g1644
sg325
g1322
sbsS'sendfile.h'
p1874
g299
(g1573
g301
Ntp1875
Rp1876
(dp1877
g1577
g1585
sg1578
g1734
sg325
S'c:/marmalade/7.2/s3e/h/std/sys/sendfile.h'
p1878
sbsS'malloc.h'
p1879
g299
(g1573
g301
Ntp1880
Rp1881
(dp1882
g1577
g1585
sg1578
g1607
sg325
S'c:/marmalade/7.2/s3e/h/std/malloc.h'
p1883
sbsS'timerManager.h'
p1884
g299
(g1573
g301
Ntp1885
Rp1886
(dp1887
g1577
g1192
sg1578
g1620
sg325
g1207
sbsS'stdarg.h'
p1888
g299
(g1573
g301
Ntp1889
Rp1890
(dp1891
g1577
g1585
sg1578
g1607
sg325
S'c:/marmalade/7.2/s3e/h/std/stdarg.h'
p1892
sbsS'IwGeomCore.h'
p1893
g299
(g1573
g301
Ntp1894
Rp1895
(dp1896
g1577
g1293
sg1578
g1644
sg325
g1306
sbsS'Iw2DSceneGraph.h'
p1897
g299
(g1573
g301
Ntp1898
Rp1899
(dp1900
g1577
g1235
sg1578
(lp1901
S"'Marmalade Studio'"
p1902
ag1231
asg325
g1239
sbsS'endian.h'
p1903
g299
(g1573
g301
Ntp1904
Rp1905
(dp1906
g1577
g1585
sg1578
g1607
sg325
S'c:/marmalade/7.2/s3e/h/std/endian.h'
p1907
sbsS'glob.h'
p1908
g299
(g1573
g301
Ntp1909
Rp1910
(dp1911
g1577
g1585
sg1578
g1607
sg325
S'c:/marmalade/7.2/s3e/h/std/glob.h'
p1912
sbsS'fstream'
p1913
g299
(g1573
g301
Ntp1914
Rp1915
(dp1916
g1577
g1585
sg1578
g1586
sg325
S'c:/marmalade/7.2/s3e/h/std/c++/fstream'
p1917
sbsS'include.h'
p1918
g299
(g1573
g301
Ntp1919
Rp1920
(dp1921
g1577
g1192
sg1578
(lp1922
S'stars'
p1923
ag1188
asg325
g1195
sbsS'jconfig.h'
p1924
g299
(g1573
g301
Ntp1925
Rp1926
(dp1927
g1577
g1049
sg1578
g1674
sg325
g1050
sbsS'memory'
p1928
g299
(g1573
g301
Ntp1929
Rp1930
(dp1931
g1577
g1585
sg1578
g1586
sg325
S'c:/marmalade/7.2/s3e/h/std/c++/memory'
p1932
sbsS'strstream'
p1933
g299
(g1573
g301
Ntp1934
Rp1935
(dp1936
g1577
g1585
sg1578
g1586
sg325
S'c:/marmalade/7.2/s3e/h/std/c++/strstream'
p1937
sbsS'egl.h'
p1938
g299
(g1573
g301
Ntp1939
Rp1940
(dp1941
g1577
g1585
sg1578
(lp1942
g1587
aS'GL'
p1943
aS'EGL'
p1944
asg325
S'c:/marmalade/7.2/s3e/h/EGL/egl.h'
p1945
sbsS'egl_1.h'
p1946
g299
(g1573
g301
Ntp1947
Rp1948
(dp1949
g1577
g1585
sg1578
(lp1950
g1587
aS'GL'
p1951
aS'GLES 1.x'
p1952
asg325
S'c:/marmalade/7.2/s3e/h/GLES/egl.h'
p1953
sbsS'IwMemManagerDL.h'
p1954
g299
(g1573
g301
Ntp1955
Rp1956
(dp1957
g1577
g1449
sg1578
g1614
sg325
g1504
sbsS'deque'
p1958
g299
(g1573
g301
Ntp1959
Rp1960
(dp1961
g1577
g1585
sg1578
g1586
sg325
S'c:/marmalade/7.2/s3e/h/std/c++/deque'
p1962
sbsS'IwString.h'
p1963
g299
(g1573
g301
Ntp1964
Rp1965
(dp1966
g1577
g1449
sg1578
g1614
sg325
g1490
sbsS'cwchar'
p1967
g299
(g1573
g301
Ntp1968
Rp1969
(dp1970
g1577
g1585
sg1578
g1586
sg325
S'c:/marmalade/7.2/s3e/h/std/c++/cwchar'
p1971
sbsS'iwutil.mkf'
p1972
g299
(g1573
g301
Ntp1973
Rp1974
(dp1975
g1577
g1534
sg1578
g1614
sg325
g1532
sbsS'csignal'
p1976
g299
(g1573
g301
Ntp1977
Rp1978
(dp1979
g1577
g1585
sg1578
g1586
sg325
S'c:/marmalade/7.2/s3e/h/std/c++/csignal'
p1980
sbsS'float.h'
p1981
g299
(g1573
g301
Ntp1982
Rp1983
(dp1984
g1577
g1585
sg1578
g1607
sg325
S'c:/marmalade/7.2/s3e/h/std/float.h'
p1985
sbsS'pthread_alloc'
p1986
g299
(g1573
g301
Ntp1987
Rp1988
(dp1989
g1577
g1585
sg1578
g1586
sg325
S'c:/marmalade/7.2/s3e/h/std/c++/pthread_alloc'
p1990
sbsS'getopt.h'
p1991
g299
(g1573
g301
Ntp1992
Rp1993
(dp1994
g1577
g1585
sg1578
g1607
sg325
S'c:/marmalade/7.2/s3e/h/std/getopt.h'
p1995
sbsS'IwOptimiseARM.h'
p1996
g299
(g1573
g301
Ntp1997
Rp1998
(dp1999
g1577
g1449
sg1578
g1614
sg325
g1528
sbsS'times.h'
p2000
g299
(g1573
g301
Ntp2001
Rp2002
(dp2003
g1577
g1585
sg1578
g1734
sg325
S'c:/marmalade/7.2/s3e/h/std/sys/times.h'
p2004
sbsS'IwGeomFSphere.h'
p2005
g299
(g1573
g301
Ntp2006
Rp2007
(dp2008
g1577
g1293
sg1578
g1644
sg325
g1339
sbsS'game.h'
p2009
g299
(g1573
g301
Ntp2010
Rp2011
(dp2012
g1577
g1192
sg1578
(lp2013
S'stars'
p2014
ag1219
asg325
g1225
sbsS'functional'
p2015
g299
(g1573
g301
Ntp2016
Rp2017
(dp2018
g1577
g1585
sg1578
g1586
sg325
S'c:/marmalade/7.2/s3e/h/std/c++/functional'
p2019
sbsS'IwTypes.h'
p2020
g299
(g1573
g301
Ntp2021
Rp2022
(dp2023
g1577
g1449
sg1578
g1614
sg325
g1498
sbsS'IwGxMetrics.h'
p2024
g299
(g1573
g301
Ntp2025
Rp2026
(dp2027
g1577
g1385
sg1578
g1720
sg325
g1415
sbsS's3eCompression.h'
p2028
g299
(g1573
g301
Ntp2029
Rp2030
(dp2031
g1577
g1585
sg1578
g1601
sg325
S'c:/marmalade/7.2/s3e/h/s3eCompression.h'
p2032
sbsS'langinfo.h'
p2033
g299
(g1573
g301
Ntp2034
Rp2035
(dp2036
g1577
g1585
sg1578
g1607
sg325
S'c:/marmalade/7.2/s3e/h/std/langinfo.h'
p2037
sbsS's3edebugHeap.h'
p2038
g299
(g1573
g301
Ntp2039
Rp2040
(dp2041
g1577
g1585
sg1578
g1803
sg325
S'c:/marmalade/7.2/s3e/h/ext/s3edebugHeap.h'
p2042
sbsS'AirplayVersion.h'
p2043
g299
(g1573
g301
Ntp2044
Rp2045
(dp2046
g1577
g1585
sg1578
g1601
sg325
S'c:/marmalade/7.2/s3e/h/AirplayVersion.h'
p2047
sbsS'gl2extimg.h'
p2048
g299
(g1573
g301
Ntp2049
Rp2050
(dp2051
g1577
g1585
sg1578
g1847
sg325
S'c:/marmalade/7.2/s3e/h/GLES2/gl2extimg.h'
p2052
sbsS'app.config.txt'
p2053
g299
(g1573
g301
Ntp2054
Rp2055
(dp2056
g1577
(dp2057
sg1578
g4
sg325
S'c:/Users/Vinicius/Desktop/Yes or No/Stars/data/app.config.txt'
p2058
sbsS'IwGeomSqrt.h'
p2059
g299
(g1573
g301
Ntp2060
Rp2061
(dp2062
g1577
g1293
sg1578
g1644
sg325
g1302
sbsS'tiniconv_int.h'
p2063
g299
(g1573
g301
Ntp2064
Rp2065
(dp2066
g1577
g1083
sg1578
(lp2067
g1079
asg325
g1084
sbsS'syslog.h'
p2068
g299
(g1573
g301
Ntp2069
Rp2070
(dp2071
g1577
g1585
sg1578
g1607
sg325
S'c:/marmalade/7.2/s3e/h/std/syslog.h'
p2072
sbsS'IwGxFontTypes.h'
p2073
g299
(g1573
g301
Ntp2074
Rp2075
(dp2076
g1577
g1271
sg1578
g1579
sg325
g1282
sbsS'IwGeomFIntersect.h'
p2077
g299
(g1573
g301
Ntp2078
Rp2079
(dp2080
g1577
g1293
sg1578
g1644
sg325
g1334
sbsS'hash_map'
p2081
g299
(g1573
g301
Ntp2082
Rp2083
(dp2084
g1577
g1585
sg1578
g1586
sg325
S'c:/marmalade/7.2/s3e/h/std/c++/hash_map'
p2085
sbsS's3e.mkf'
p2086
g299
(g1573
g301
Ntp2087
Rp2088
(dp2089
g1577
(dp2090
sg1578
g1601
sg325
S'c:/marmalade/7.2/s3e/s3e.mkf'
p2091
sbsS's3eOSReadString.h'
p2092
g299
(g1573
g301
Ntp2093
Rp2094
(dp2095
g1577
g1585
sg1578
g1803
sg325
S'c:/marmalade/7.2/s3e/h/ext/s3eOSReadString.h'
p2096
sbsS'IwSound.h'
p2097
g299
(g1573
g301
Ntp2098
Rp2099
(dp2100
g1577
g1093
sg1578
g1630
sg325
g1121
sbsS'map'
p2101
g299
(g1573
g301
Ntp2102
Rp2103
(dp2104
g1577
g1585
sg1578
g1586
sg325
S'c:/marmalade/7.2/s3e/h/std/c++/map'
p2105
sbsS'iwtween.mkf'
p2106
g299
(g1573
g301
Ntp2107
Rp2108
(dp2109
g1577
g1564
sg1578
(lp2110
g1560
asg325
g1562
sbsS'IwOptimiseSpeed.h'
p2111
g299
(g1573
g301
Ntp2112
Rp2113
(dp2114
g1577
g1449
sg1578
g1614
sg325
g1539
sbsS'inputManager.h'
p2115
g299
(g1573
g301
Ntp2116
Rp2117
(dp2118
g1577
g1192
sg1578
g1620
sg325
g1203
sbsS'ostream'
p2119
g299
(g1573
g301
Ntp2120
Rp2121
(dp2122
g1577
g1585
sg1578
g1586
sg325
S'c:/marmalade/7.2/s3e/h/std/c++/ostream'
p2123
sbsS'msl_string.h'
p2124
g299
(g1573
g301
Ntp2125
Rp2126
(dp2127
g1577
g1585
sg1578
g1586
sg325
S'c:/marmalade/7.2/s3e/h/std/c++/msl_string.h'
p2128
sbsS'select.h'
p2129
g299
(g1573
g301
Ntp2130
Rp2131
(dp2132
g1577
g1585
sg1578
g1734
sg325
S'c:/marmalade/7.2/s3e/h/std/sys/select.h'
p2133
sbsS'zlib.mkf'
p2134
g299
(g1573
g301
Ntp2135
Rp2136
(dp2137
g1577
g1559
sg1578
(lp2138
g1549
asg325
g1557
sbsS'signal.h'
p2139
g299
(g1573
g301
Ntp2140
Rp2141
(dp2142
g1577
g1585
sg1578
g1607
sg325
S'c:/marmalade/7.2/s3e/h/std/signal.h'
p2143
sbsS'sigcontext.h'
p2144
g299
(g1573
g301
Ntp2145
Rp2146
(dp2147
g1577
g1585
sg1578
g1607
sg325
S'c:/marmalade/7.2/s3e/h/std/sigcontext.h'
p2148
sbsS'libpng.mkf'
p2149
g299
(g1573
g301
Ntp2150
Rp2151
(dp2152
g1577
g1043
sg1578
(lp2153
g1032
asg325
g1041
sbsS's3eClipboard.h'
p2154
g299
(g1573
g301
Ntp2155
Rp2156
(dp2157
g1577
g1585
sg1578
g1601
sg325
S'c:/marmalade/7.2/s3e/h/s3eClipboard.h'
p2158
sbsS'IwGxFuncTable.h'
p2159
g299
(g1573
g301
Ntp2160
Rp2161
(dp2162
g1577
g1385
sg1578
g1720
sg325
g1421
sbsS'IwResHandlerGROUP.h'
p2163
g299
(g1573
g301
Ntp2164
Rp2165
(dp2166
g1577
g1361
sg1578
g1855
sg325
g1359
sbsS's3eDebug.h'
p2167
g299
(g1573
g301
Ntp2168
Rp2169
(dp2170
g1577
g1585
sg1578
g1601
sg325
S'c:/marmalade/7.2/s3e/h/s3eDebug.h'
p2171
sbsS'socket.h'
p2172
g299
(g1573
g301
Ntp2173
Rp2174
(dp2175
g1577
g1585
sg1578
g1734
sg325
S'c:/marmalade/7.2/s3e/h/std/sys/socket.h'
p2176
sbsS'glext.h'
p2177
g299
(g1573
g301
Ntp2178
Rp2179
(dp2180
g1577
g1585
sg1578
g1950
sg325
S'c:/marmalade/7.2/s3e/h/GLES/glext.h'
p2181
sbsS'typeinfo.h'
p2182
g299
(g1573
g301
Ntp2183
Rp2184
(dp2185
g1577
g1585
sg1578
g1586
sg325
S'c:/marmalade/7.2/s3e/h/std/c++/typeinfo.h'
p2186
sbsS'typeinfo'
p2187
g299
(g1573
g301
Ntp2188
Rp2189
(dp2190
g1577
g1585
sg1578
g1586
sg325
S'c:/marmalade/7.2/s3e/h/std/c++/typeinfo'
p2191
sbsS'iwsound.config.txt'
p2192
g299
(g1573
g301
Ntp2193
Rp2194
(dp2195
g1577
g1093
sg1578
(lp2196
g1089
ag1107
asg325
g1109
sbsS'fstream.h'
p2197
g299
(g1573
g301
Ntp2198
Rp2199
(dp2200
g1577
g1585
sg1578
g1586
sg325
S'c:/marmalade/7.2/s3e/h/std/c++/fstream.h'
p2201
sbsS'IwGeomMat.h'
p2202
g299
(g1573
g301
Ntp2203
Rp2204
(dp2205
g1577
g1293
sg1578
g1644
sg325
g1296
sbsS's3ePointer.h'
p2206
g299
(g1573
g301
Ntp2207
Rp2208
(dp2209
g1577
g1585
sg1578
g1601
sg325
S'c:/marmalade/7.2/s3e/h/s3ePointer.h'
p2210
sbsS'iw2d.mkf'
p2211
g299
(g1573
g301
Ntp2212
Rp2213
(dp2214
g1577
g1266
sg1578
g1679
sg325
g1264
sbsS's3eGL.h'
p2215
g299
(g1573
g301
Ntp2216
Rp2217
(dp2218
g1577
g1585
sg1578
g1601
sg325
S'c:/marmalade/7.2/s3e/h/s3eGL.h'
p2219
sbsS'IwGeomFVec2.h'
p2220
g299
(g1573
g301
Ntp2221
Rp2222
(dp2223
g1577
g1293
sg1578
g1644
sg325
g1310
sbsS'IwGeomSVec4.h'
p2224
g299
(g1573
g301
Ntp2225
Rp2226
(dp2227
g1577
g1293
sg1578
g1644
sg325
g1330
sbsS'poll.h'
p2228
g299
(g1573
g301
Ntp2229
Rp2230
(dp2231
g1577
g1585
sg1578
g1607
sg325
S'c:/marmalade/7.2/s3e/h/std/poll.h'
p2232
sbsS'IwMatAnim.h'
p2233
g299
(g1573
g301
Ntp2234
Rp2235
(dp2236
g1577
g1385
sg1578
g1720
sg325
g1392
sbsS'IwGeomFVec4.h'
p2237
g299
(g1573
g301
Ntp2238
Rp2239
(dp2240
g1577
g1293
sg1578
g1644
sg325
g1316
sbsS'IwGx.h'
p2241
g299
(g1573
g301
Ntp2242
Rp2243
(dp2244
g1577
g1385
sg1578
g1720
sg325
g1409
sbsS'valarray'
p2245
g299
(g1573
g301
Ntp2246
Rp2247
(dp2248
g1577
g1585
sg1578
g1586
sg325
S'c:/marmalade/7.2/s3e/h/std/c++/valarray'
p2249
sbsS'iosfwd'
p2250
g299
(g1573
g301
Ntp2251
Rp2252
(dp2253
g1577
g1585
sg1578
g1586
sg325
S'c:/marmalade/7.2/s3e/h/std/c++/iosfwd'
p2254
sbsS'gl2.h'
p2255
g299
(g1573
g301
Ntp2256
Rp2257
(dp2258
g1577
g1585
sg1578
g1847
sg325
S'c:/marmalade/7.2/s3e/h/GLES2/gl2.h'
p2259
sbsS'jpegint.h'
p2260
g299
(g1573
g301
Ntp2261
Rp2262
(dp2263
g1577
g1049
sg1578
g1674
sg325
g1054
sbsS'stdiostream.h'
p2264
g299
(g1573
g301
Ntp2265
Rp2266
(dp2267
g1577
g1585
sg1578
g1586
sg325
S'c:/marmalade/7.2/s3e/h/std/c++/stdiostream.h'
p2268
sbsS'mem.h'
p2269
g299
(g1573
g301
Ntp2270
Rp2271
(dp2272
g1577
g1585
sg1578
g1586
sg325
S'c:/marmalade/7.2/s3e/h/std/c++/mem.h'
p2273
sbsS'main.cpp'
p2274
g299
(g1573
g301
Ntp2275
Rp2276
(dp2277
g1577
g1192
sg1578
g1922
sg325
g1193
sbsS'zconf.h'
p2278
g299
(g1573
g301
Ntp2279
Rp2280
(dp2281
g1577
g1554
sg1578
(lp2282
g1549
ag1034
asg325
g1552
sbsS's3e.config.txt'
p2283
g299
(g1573
g301
Ntp2284
Rp2285
(dp2286
g1577
g1585
sg1578
g1601
sg325
S'c:/marmalade/7.2/s3e/s3e.config.txt'
p2287
sbsS'numeric'
p2288
g299
(g1573
g301
Ntp2289
Rp2290
(dp2291
g1577
g1585
sg1578
g1586
sg325
S'c:/marmalade/7.2/s3e/h/std/c++/numeric'
p2292
sbsS'utime.h'
p2293
g299
(g1573
g301
Ntp2294
Rp2295
(dp2296
g1577
g1585
sg1578
g1607
sg325
S'c:/marmalade/7.2/s3e/h/std/utime.h'
p2297
sbsS'jdhuff.h'
p2298
g299
(g1573
g301
Ntp2299
Rp2300
(dp2301
g1577
g1049
sg1578
g1674
sg325
g1064
sbsS'IwResHandlerWAV.cpp'
p2302
g299
(g1573
g301
Ntp2303
Rp2304
(dp2305
g1577
g1093
sg1578
g1630
sg325
g1111
sbsS'IwGxStream.h'
p2306
g299
(g1573
g301
Ntp2307
Rp2308
(dp2309
g1577
g1385
sg1578
g1720
sg325
g1386
sbsS'IwImage.h'
p2310
g299
(g1573
g301
Ntp2311
Rp2312
(dp2313
g1577
g1449
sg1578
g1614
sg325
g1486
sbsS's3eImagePicker.h'
p2314
g299
(g1573
g301
Ntp2315
Rp2316
(dp2317
g1577
g1585
sg1578
g1803
sg325
S'c:/marmalade/7.2/s3e/h/ext/s3eImagePicker.h'
p2318
sbsS's3eWebView.defines.txt'
p2319
g299
(g1573
g301
Ntp2320
Rp2321
(dp2322
g1577
g1149
sg1578
(lp2323
S'Extensions'
p2324
ag1143
ag1145
asg325
g1147
sbsS'stdlib.h'
p2325
g299
(g1573
g301
Ntp2326
Rp2327
(dp2328
g1577
g1585
sg1578
g1607
sg325
S'c:/marmalade/7.2/s3e/h/std/stdlib.h'
p2329
sbsS'IwCopyingPtr.h'
p2330
g299
(g1573
g301
Ntp2331
Rp2332
(dp2333
g1577
g1449
sg1578
g1614
sg325
g1526
sbsS'iostream'
p2334
g299
(g1573
g301
Ntp2335
Rp2336
(dp2337
g1577
g1585
sg1578
g1586
sg325
S'c:/marmalade/7.2/s3e/h/std/c++/iostream'
p2338
sbsS'png.h'
p2339
g299
(g1573
g301
Ntp2340
Rp2341
(dp2342
g1577
g1038
sg1578
(lp2343
g1032
ag1034
asg325
g1036
sbsS'stddef.h'
p2344
g299
(g1573
g301
Ntp2345
Rp2346
(dp2347
g1577
g1585
sg1578
g1607
sg325
S'c:/marmalade/7.2/s3e/h/std/stddef.h'
p2348
sbsS'setjmp_win32.h'
p2349
g299
(g1573
g301
Ntp2350
Rp2351
(dp2352
g1577
g1585
sg1578
g1607
sg325
S'c:/marmalade/7.2/s3e/h/std/setjmp_win32.h'
p2353
sbsS'IwGxPrint.h'
p2354
g299
(g1573
g301
Ntp2355
Rp2356
(dp2357
g1577
g1385
sg1578
g1720
sg325
g1401
sbsS'iwgx_public.defines.txt'
p2358
g299
(g1573
g301
Ntp2359
Rp2360
(dp2361
g1577
g1385
sg1578
g1720
sg325
g1405
sbsS'streambuf.h'
p2362
g299
(g1573
g301
Ntp2363
Rp2364
(dp2365
g1577
g1585
sg1578
g1586
sg325
S'c:/marmalade/7.2/s3e/h/std/c++/streambuf.h'
p2366
sbsS'IwGeomFPlane.h'
p2367
g299
(g1573
g301
Ntp2368
Rp2369
(dp2370
g1577
g1293
sg1578
g1644
sg325
g1291
sbsS'un.h'
p2371
g299
(g1573
g301
Ntp2372
Rp2373
(dp2374
g1577
g1585
sg1578
g1734
sg325
S'c:/marmalade/7.2/s3e/h/std/sys/un.h'
p2375
sbsS'wchar.h'
p2376
g299
(g1573
g301
Ntp2377
Rp2378
(dp2379
g1577
g1585
sg1578
g1607
sg325
S'c:/marmalade/7.2/s3e/h/std/wchar.h'
p2380
sbsS's3eCameraCapture.h'
p2381
g299
(g1573
g301
Ntp2382
Rp2383
(dp2384
g1577
g1585
sg1578
g1803
sg325
S'c:/marmalade/7.2/s3e/h/ext/s3eCameraCapture.h'
p2385
sbsS'eglext.h'
p2386
g299
(g1573
g301
Ntp2387
Rp2388
(dp2389
g1577
g1585
sg1578
g1942
sg325
S'c:/marmalade/7.2/s3e/h/EGL/eglext.h'
p2390
sbsS'IwResHandlerImage.h'
p2391
g299
(g1573
g301
Ntp2392
Rp2393
(dp2394
g1577
g1361
sg1578
g1855
sg325
g1369
sbsS'strstream.h'
p2395
g299
(g1573
g301
Ntp2396
Rp2397
(dp2398
g1577
g1585
sg1578
g1586
sg325
S'c:/marmalade/7.2/s3e/h/std/c++/strstream.h'
p2399
sbsS'tiniconv.h'
p2400
g299
(g1573
g301
Ntp2401
Rp2402
(dp2403
g1577
g1083
sg1578
g2067
sg325
g1081
sbsS'IwGLExt.h'
p2404
g299
(g1573
g301
Ntp2405
Rp2406
(dp2407
g1577
g1247
sg1578
g1595
sg325
g1251
sbsS'app.icf'
p2408
g299
(g1573
g301
Ntp2409
Rp2410
(dp2411
g1577
(dp2412
sg1578
g4
sg325
S'c:/Users/Vinicius/Desktop/Yes or No/Stars/data/app.icf'
p2413
sbsS'IwClassFactory.h'
p2414
g299
(g1573
g301
Ntp2415
Rp2416
(dp2417
g1577
g1449
sg1578
g1614
sg325
g1512
sbsS'file.h'
p2418
g299
(g1573
g301
Ntp2419
Rp2420
(dp2421
g1577
g1585
sg1578
g1734
sg325
S'c:/marmalade/7.2/s3e/h/std/sys/file.h'
p2422
sbsS'cstring'
p2423
g299
(g1573
g301
Ntp2424
Rp2425
(dp2426
g1577
g1585
sg1578
g1586
sg325
S'c:/marmalade/7.2/s3e/h/std/c++/cstring'
p2427
sbsS'IwSoundInst.cpp'
p2428
g299
(g1573
g301
Ntp2429
Rp2430
(dp2431
g1577
g1093
sg1578
g1630
sg325
g1097
sbsS'iwutil.config.txt'
p2432
g299
(g1573
g301
Ntp2433
Rp2434
(dp2435
g1577
g1449
sg1578
g1614
sg325
g1510
sbsS's3eSMS.h'
p2436
g299
(g1573
g301
Ntp2437
Rp2438
(dp2439
g1577
g1585
sg1578
g1803
sg325
S'c:/marmalade/7.2/s3e/h/ext/s3eSMS.h'
p2440
sbsS'limits.h'
p2441
g299
(g1573
g301
Ntp2442
Rp2443
(dp2444
g1577
g1585
sg1578
g1607
sg325
S'c:/marmalade/7.2/s3e/h/std/limits.h'
p2445
sbsS's3eLibrary.h'
p2446
g299
(g1573
g301
Ntp2447
Rp2448
(dp2449
g1577
g1585
sg1578
g1803
sg325
S'c:/marmalade/7.2/s3e/h/ext/s3eLibrary.h'
p2450
sbsS'IwMaterial.h'
p2451
g299
(g1573
g301
Ntp2452
Rp2453
(dp2454
g1577
g1385
sg1578
g1720
sg325
g1390
sbsS's3eFlurry.defines.txt'
p2455
g299
(g1573
g301
Ntp2456
Rp2457
(dp2458
g1577
g1178
sg1578
(lp2459
g1815
ag1172
ag1174
asg325
g1179
sbsS'IwGxSurface.h'
p2460
g299
(g1573
g301
Ntp2461
Rp2462
(dp2463
g1577
g1385
sg1578
g1720
sg325
g1403
sbsS's3eSocket.h'
p2464
g299
(g1573
g301
Ntp2465
Rp2466
(dp2467
g1577
g1585
sg1578
g1601
sg325
S'c:/marmalade/7.2/s3e/h/s3eSocket.h'
p2468
sbsS'IwAutoFile.h'
p2469
g299
(g1573
g301
Ntp2470
Rp2471
(dp2472
g1577
g1449
sg1578
g1614
sg325
g1516
sbsS'ipc.h'
p2473
g299
(g1573
g301
Ntp2474
Rp2475
(dp2476
g1577
g1585
sg1578
g1734
sg325
S'c:/marmalade/7.2/s3e/h/std/sys/ipc.h'
p2477
sbsS'poll_1.h'
p2478
g299
(g1573
g301
Ntp2479
Rp2480
(dp2481
g1577
g1585
sg1578
g1734
sg325
S'c:/marmalade/7.2/s3e/h/std/sys/poll.h'
p2482
sbsS's3eThread.h'
p2483
g299
(g1573
g301
Ntp2484
Rp2485
(dp2486
g1577
g1585
sg1578
g1601
sg325
S'c:/marmalade/7.2/s3e/h/s3eThread.h'
p2487
sbsS'ucontext.h'
p2488
g299
(g1573
g301
Ntp2489
Rp2490
(dp2491
g1577
g1585
sg1578
g1607
sg325
S'c:/marmalade/7.2/s3e/h/std/ucontext.h'
p2492
sbsS'time.h'
p2493
g299
(g1573
g301
Ntp2494
Rp2495
(dp2496
g1577
g1585
sg1578
g1607
sg325
S'c:/marmalade/7.2/s3e/h/std/time.h'
p2497
sbsS'jchuff.h'
p2498
g299
(g1573
g301
Ntp2499
Rp2500
(dp2501
g1577
g1049
sg1578
g1674
sg325
g1072
sbsS'IwSoundPCM.cpp'
p2502
g299
(g1573
g301
Ntp2503
Rp2504
(dp2505
g1577
g1093
sg1578
g1630
sg325
g1125
sbsS's3eSoundRecord.h'
p2506
g299
(g1573
g301
Ntp2507
Rp2508
(dp2509
g1577
g1585
sg1578
g1601
sg325
S'c:/marmalade/7.2/s3e/h/s3eSoundRecord.h'
p2510
sbsS'IwFibre.h'
p2511
g299
(g1573
g301
Ntp2512
Rp2513
(dp2514
g1577
g1449
sg1578
g1614
sg325
g1454
sbsS's3eVersion.h'
p2515
g299
(g1573
g301
Ntp2516
Rp2517
(dp2518
g1577
g1585
sg1578
g1601
sg325
S'c:/marmalade/7.2/s3e/h/s3eVersion.h'
p2519
sbsS'IwSoundGroup.h'
p2520
g299
(g1573
g301
Ntp2521
Rp2522
(dp2523
g1577
g1093
sg1578
g1630
sg325
g1131
sbsS'IwSoundWAV.h'
p2524
g299
(g1573
g301
Ntp2525
Rp2526
(dp2527
g1577
g1093
sg1578
g1630
sg325
g1123
sbsS'IwGxFontGlyph.h'
p2528
g299
(g1573
g301
Ntp2529
Rp2530
(dp2531
g1577
g1271
sg1578
g1579
sg325
g1278
sbsS's3eTypes.h'
p2532
g299
(g1573
g301
Ntp2533
Rp2534
(dp2535
g1577
g1585
sg1578
g1601
sg325
S'c:/marmalade/7.2/s3e/h/s3eTypes.h'
p2536
sbsS'IwSoundSpec.h'
p2537
g299
(g1573
g301
Ntp2538
Rp2539
(dp2540
g1577
g1093
sg1578
g1630
sg325
g1127
sbsS'signal_2.h'
p2541
g299
(g1573
g301
Ntp2542
Rp2543
(dp2544
g1577
g1585
sg1578
g1586
sg325
S'c:/marmalade/7.2/s3e/h/std/c++/signal.h'
p2545
sbsS'termios.h'
p2546
g299
(g1573
g301
Ntp2547
Rp2548
(dp2549
g1577
g1585
sg1578
g1607
sg325
S'c:/marmalade/7.2/s3e/h/std/termios.h'
p2550
sbsS'iw2dscenegraph.mkf'
p2551
g299
(g1573
g301
Ntp2552
Rp2553
(dp2554
g1577
g1238
sg1578
g1901
sg325
g1236
sbsS'slist'
p2555
g299
(g1573
g301
Ntp2556
Rp2557
(dp2558
g1577
g1585
sg1578
g1586
sg325
S'c:/marmalade/7.2/s3e/h/std/c++/slist'
p2559
sbsS'cstdlib'
p2560
g299
(g1573
g301
Ntp2561
Rp2562
(dp2563
g1577
g1585
sg1578
g1586
sg325
S'c:/marmalade/7.2/s3e/h/std/c++/cstdlib'
p2564
sbsS's3eLocation.h'
p2565
g299
(g1573
g301
Ntp2566
Rp2567
(dp2568
g1577
g1585
sg1578
g1601
sg325
S'c:/marmalade/7.2/s3e/h/s3eLocation.h'
p2569
sbsS'IwMemBucketHelpers.h'
p2570
g299
(g1573
g301
Ntp2571
Rp2572
(dp2573
g1577
g1449
sg1578
g1614
sg325
g1524
sbsS's3eHash.h'
p2574
g299
(g1573
g301
Ntp2575
Rp2576
(dp2577
g1577
g1585
sg1578
g1601
sg325
S'c:/marmalade/7.2/s3e/h/s3eHash.h'
p2578
sbsS'IwSoundGroup.cpp'
p2579
g299
(g1573
g301
Ntp2580
Rp2581
(dp2582
g1577
g1093
sg1578
g1630
sg325
g1119
sbsS'IwGeomFMat.h'
p2583
g299
(g1573
g301
Ntp2584
Rp2585
(dp2586
g1577
g1293
sg1578
g1644
sg325
g1324
sbsS'type_traits.h'
p2587
g299
(g1573
g301
Ntp2588
Rp2589
(dp2590
g1577
g1585
sg1578
g1586
sg325
S'c:/marmalade/7.2/s3e/h/std/c++/type_traits.h'
p2591
sbsS'IwMenu.h'
p2592
g299
(g1573
g301
Ntp2593
Rp2594
(dp2595
g1577
g1449
sg1578
g1614
sg325
g1474
sbsS'IwResHandlerITX.h'
p2596
g299
(g1573
g301
Ntp2597
Rp2598
(dp2599
g1577
g1361
sg1578
g1855
sg325
g1375
sbsS'IwSoundData.h'
p2600
g299
(g1573
g301
Ntp2601
Rp2602
(dp2603
g1577
g1093
sg1578
g1630
sg325
g1137
sbsS'IwArray.h'
p2604
g299
(g1573
g301
Ntp2605
Rp2606
(dp2607
g1577
g1449
sg1578
g1614
sg325
g1450
sbsS'IwUTF8.h'
p2608
g299
(g1573
g301
Ntp2609
Rp2610
(dp2611
g1577
g1449
sg1578
g1614
sg325
g1518
sbsS'math_rvct.h'
p2612
g299
(g1573
g301
Ntp2613
Rp2614
(dp2615
g1577
g1585
sg1578
g1607
sg325
S'c:/marmalade/7.2/s3e/h/std/math_rvct.h'
p2616
sbsS'IwUtil.h'
p2617
g299
(g1573
g301
Ntp2618
Rp2619
(dp2620
g1577
g1449
sg1578
g1614
sg325
g1508
sbsS'IwFColour.h'
p2621
g299
(g1573
g301
Ntp2622
Rp2623
(dp2624
g1577
g1385
sg1578
g1720
sg325
g1425
sbsS'wctype.h'
p2625
g299
(g1573
g301
Ntp2626
Rp2627
(dp2628
g1577
g1585
sg1578
g1607
sg325
S'c:/marmalade/7.2/s3e/h/std/wctype.h'
p2629
sbsS'mainMenu.h'
p2630
g299
(g1573
g301
Ntp2631
Rp2632
(dp2633
g1577
g1192
sg1578
g2013
sg325
g1221
sbsS'cstddef'
p2634
g299
(g1573
g301
Ntp2635
Rp2636
(dp2637
g1577
g1585
sg1578
g1586
sg325
S'c:/marmalade/7.2/s3e/h/std/c++/cstddef'
p2638
sbsS'assert.h'
p2639
g299
(g1573
g301
Ntp2640
Rp2641
(dp2642
g1577
g1585
sg1578
g1607
sg325
S'c:/marmalade/7.2/s3e/h/std/assert.h'
p2643
sbsS'mman.h'
p2644
g299
(g1573
g301
Ntp2645
Rp2646
(dp2647
g1577
g1585
sg1578
g1734
sg325
S'c:/marmalade/7.2/s3e/h/std/sys/mman.h'
p2648
sbsS'IwRandom.h'
p2649
g299
(g1573
g301
Ntp2650
Rp2651
(dp2652
g1577
g1449
sg1578
g1614
sg325
g1458
sbsS'libgen.h'
p2653
g299
(g1573
g301
Ntp2654
Rp2655
(dp2656
g1577
g1585
sg1578
g1607
sg325
S'c:/marmalade/7.2/s3e/h/std/libgen.h'
p2657
sbsS'utsname.h'
p2658
g299
(g1573
g301
Ntp2659
Rp2660
(dp2661
g1577
g1585
sg1578
g1734
sg325
S'c:/marmalade/7.2/s3e/h/std/sys/utsname.h'
p2662
sbsS'wait.h'
p2663
g299
(g1573
g301
Ntp2664
Rp2665
(dp2666
g1577
g1585
sg1578
g1734
sg325
S'c:/marmalade/7.2/s3e/h/std/sys/wait.h'
p2667
sbsS'param.h'
p2668
g299
(g1573
g301
Ntp2669
Rp2670
(dp2671
g1577
g1585
sg1578
g1734
sg325
S'c:/marmalade/7.2/s3e/h/std/sys/param.h'
p2672
sbsS'IwDivide.h'
p2673
g299
(g1573
g301
Ntp2674
Rp2675
(dp2676
g1577
g1449
sg1578
g1614
sg325
g1545
sbsS'Iw2DSceneGraphCore.cpp'
p2677
g299
(g1573
g301
Ntp2678
Rp2679
(dp2680
g1577
g1442
sg1578
(lp2681
S"'Marmalade Studio'"
p2682
ag1435
asg325
g1443
sbsS'IwResManager.h'
p2683
g299
(g1573
g301
Ntp2684
Rp2685
(dp2686
g1577
g1361
sg1578
g1855
sg325
g1379
sbsS'IwSoundManager.h'
p2687
g299
(g1573
g301
Ntp2688
Rp2689
(dp2690
g1577
g1093
sg1578
g1630
sg325
g1101
sbsS'cwctype'
p2691
g299
(g1573
g301
Ntp2692
Rp2693
(dp2694
g1577
g1585
sg1578
g1586
sg325
S'c:/marmalade/7.2/s3e/h/std/c++/cwctype'
p2695
sbsS'set'
p2696
g299
(g1573
g301
Ntp2697
Rp2698
(dp2699
g1577
g1585
sg1578
g1586
sg325
S'c:/marmalade/7.2/s3e/h/std/c++/set'
p2700
sbsS'IwGeomSQuat.h'
p2701
g299
(g1573
g301
Ntp2702
Rp2703
(dp2704
g1577
g1293
sg1578
g1644
sg325
g1345
sbsS'locale'
p2705
g299
(g1573
g301
Ntp2706
Rp2707
(dp2708
g1577
g1585
sg1578
g1586
sg325
S'c:/marmalade/7.2/s3e/h/std/c++/locale'
p2709
sbsS'cstdio'
p2710
g299
(g1573
g301
Ntp2711
Rp2712
(dp2713
g1577
g1585
sg1578
g1586
sg325
S'c:/marmalade/7.2/s3e/h/std/c++/cstdio'
p2714
sbsS'cdjpeg.h'
p2715
g299
(g1573
g301
Ntp2716
Rp2717
(dp2718
g1577
g1049
sg1578
g1674
sg325
g1052
sbsS'IwList.h'
p2719
g299
(g1573
g301
Ntp2720
Rp2721
(dp2722
g1577
g1449
sg1578
g1614
sg325
g1462
sbsS's3eWebView_interface.cpp'
p2723
g299
(g1573
g301
Ntp2724
Rp2725
(dp2726
g1577
g1149
sg1578
g2323
sg325
g1150
sbsS'inttypes.h'
p2727
g299
(g1573
g301
Ntp2728
Rp2729
(dp2730
g1577
g1585
sg1578
g1607
sg325
S'c:/marmalade/7.2/s3e/h/std/inttypes.h'
p2731
sbsS'dirent.h'
p2732
g299
(g1573
g301
Ntp2733
Rp2734
(dp2735
g1577
g1585
sg1578
g1607
sg325
S'c:/marmalade/7.2/s3e/h/std/dirent.h'
p2736
sbsS'IwGeomVec3.h'
p2737
g299
(g1573
g301
Ntp2738
Rp2739
(dp2740
g1577
g1293
sg1578
g1644
sg325
g1328
sbsS'transupp.h'
p2741
g299
(g1573
g301
Ntp2742
Rp2743
(dp2744
g1577
g1049
sg1578
g1674
sg325
g1056
sbsS'IwMath.h'
p2745
g299
(g1573
g301
Ntp2746
Rp2747
(dp2748
g1577
g1449
sg1578
g1614
sg325
g1468
sbsS'IwGeomQuat.h'
p2749
g299
(g1573
g301
Ntp2750
Rp2751
(dp2752
g1577
g1293
sg1578
g1644
sg325
g1347
sbsS'glplatform.h'
p2753
g299
(g1573
g301
Ntp2754
Rp2755
(dp2756
g1577
g1585
sg1578
g1950
sg325
S'c:/marmalade/7.2/s3e/h/GLES/glplatform.h'
p2757
sbsS'iwgl.config.txt'
p2758
g299
(g1573
g301
Ntp2759
Rp2760
(dp2761
g1577
g1247
sg1578
g1595
sg325
g1253
sbsS'bitset'
p2762
g299
(g1573
g301
Ntp2763
Rp2764
(dp2765
g1577
g1585
sg1578
g1586
sg325
S'c:/marmalade/7.2/s3e/h/std/c++/bitset'
p2766
sbsS'alloca.h'
p2767
g299
(g1573
g301
Ntp2768
Rp2769
(dp2770
g1577
g1585
sg1578
g1607
sg325
S'c:/marmalade/7.2/s3e/h/std/alloca.h'
p2771
sbsS'IwResHandler.h'
p2772
g299
(g1573
g301
Ntp2773
Rp2774
(dp2775
g1577
g1361
sg1578
g1855
sg325
g1362
sbsS'IwResHandlerMTL.h'
p2776
g299
(g1573
g301
Ntp2777
Rp2778
(dp2779
g1577
g1385
sg1578
g1720
sg325
g1399
sbsS'IwRuntime.h'
p2780
g299
(g1573
g301
Ntp2781
Rp2782
(dp2783
g1577
g1449
sg1578
g1614
sg325
g1502
sbsS's3eFlurry.h'
p2784
g299
(g1573
g301
Ntp2785
Rp2786
(dp2787
g1577
g1178
sg1578
g1814
sg325
g1181
sbsS'limits'
p2788
g299
(g1573
g301
Ntp2789
Rp2790
(dp2791
g1577
g1585
sg1578
g1586
sg325
S'c:/marmalade/7.2/s3e/h/std/c++/limits'
p2792
sbsS'IwGeomBBox.h'
p2793
g299
(g1573
g301
Ntp2794
Rp2795
(dp2796
g1577
g1293
sg1578
g1644
sg325
g1320
sbsS'audioManager.h'
p2797
g299
(g1573
g301
Ntp2798
Rp2799
(dp2800
g1577
g1192
sg1578
g1620
sg325
g1211
sbsS's3eContacts.h'
p2801
g299
(g1573
g301
Ntp2802
Rp2803
(dp2804
g1577
g1585
sg1578
g1601
sg325
S'c:/marmalade/7.2/s3e/h/s3eContacts.h'
p2805
sbsS's3eLicense.h'
p2806
g299
(g1573
g301
Ntp2807
Rp2808
(dp2809
g1577
g1585
sg1578
g1601
sg325
S'c:/marmalade/7.2/s3e/h/s3eLicense.h'
p2810
sbsS'iwgx.config.txt'
p2811
g299
(g1573
g301
Ntp2812
Rp2813
(dp2814
g1577
g1385
sg1578
g1720
sg325
g1394
sbsS'IwTextParser.h'
p2815
g299
(g1573
g301
Ntp2816
Rp2817
(dp2818
g1577
g1449
sg1578
g1614
sg325
g1480
sbsS's3eTimer.h'
p2819
g299
(g1573
g301
Ntp2820
Rp2821
(dp2822
g1577
g1585
sg1578
g1601
sg325
S'c:/marmalade/7.2/s3e/h/s3eTimer.h'
p2823
sbsS'IwGeomVec.h'
p2824
g299
(g1573
g301
Ntp2825
Rp2826
(dp2827
g1577
g1293
sg1578
g1644
sg325
g1351
sbsS'IwSerialise.h'
p2828
g299
(g1573
g301
Ntp2829
Rp2830
(dp2831
g1577
g1449
sg1578
g1614
sg325
g1520
sbsS'cstdarg'
p2832
g299
(g1573
g301
Ntp2833
Rp2834
(dp2835
g1577
g1585
sg1578
g1586
sg325
S'c:/marmalade/7.2/s3e/h/std/c++/cstdarg'
p2836
sbsS'gl2ext.h'
p2837
g299
(g1573
g301
Ntp2838
Rp2839
(dp2840
g1577
g1585
sg1578
g1847
sg325
S'c:/marmalade/7.2/s3e/h/GLES2/gl2ext.h'
p2841
sbsS'IwChar.h'
p2842
g299
(g1573
g301
Ntp2843
Rp2844
(dp2845
g1577
g1449
sg1578
g1614
sg325
g1476
sbsS's3eSound.h'
p2846
g299
(g1573
g301
Ntp2847
Rp2848
(dp2849
g1577
g1585
sg1578
g1601
sg325
S'c:/marmalade/7.2/s3e/h/s3eSound.h'
p2850
sbsS'IwVariableBitField.h'
p2851
g299
(g1573
g301
Ntp2852
Rp2853
(dp2854
g1577
g1449
sg1578
g1614
sg325
g1492
sbsS'exception.h'
p2855
g299
(g1573
g301
Ntp2856
Rp2857
(dp2858
g1577
g1585
sg1578
g1586
sg325
S'c:/marmalade/7.2/s3e/h/std/c++/exception.h'
p2859
sbsS'iwgeom.config.txt'
p2860
g299
(g1573
g301
Ntp2861
Rp2862
(dp2863
g1577
g1293
sg1578
g1644
sg325
g1332
sbsS'iwgx.mkf'
p2864
g299
(g1573
g301
Ntp2865
Rp2866
(dp2867
g1577
g1398
sg1578
g1720
sg325
g1396
sbsS'gl.h'
p2868
g299
(g1573
g301
Ntp2869
Rp2870
(dp2871
g1577
g1585
sg1578
g1950
sg325
S'c:/marmalade/7.2/s3e/h/GLES/gl.h'
p2872
sbsS'zlib.h'
p2873
g299
(g1573
g301
Ntp2874
Rp2875
(dp2876
g1577
g1554
sg1578
g2282
sg325
g1555
sbsS's3eFacebook.defines.txt'
p2877
g299
(g1573
g301
Ntp2878
Rp2879
(dp2880
g1577
g1163
sg1578
(lp2881
g1141
ag1157
ag1159
asg325
g1164
sbsS'iwgl.mkf'
p2882
g299
(g1573
g301
Ntp2883
Rp2884
(dp2885
g1577
g1250
sg1578
g1595
sg325
g1248
sbsS'audioManager.cpp'
p2886
g299
(g1573
g301
Ntp2887
Rp2888
(dp2889
g1577
g1192
sg1578
g1620
sg325
g1215
sbsS'IwColour.h'
p2890
g299
(g1573
g301
Ntp2891
Rp2892
(dp2893
g1577
g1385
sg1578
g1720
sg325
g1427
sbsS'types.h'
p2894
g299
(g1573
g301
Ntp2895
Rp2896
(dp2897
g1577
g1585
sg1578
g1734
sg325
S'c:/marmalade/7.2/s3e/h/std/sys/types.h'
p2898
sbsS'ifaddrs.h'
p2899
g299
(g1573
g301
Ntp2900
Rp2901
(dp2902
g1577
g1585
sg1578
g1607
sg325
S'c:/marmalade/7.2/s3e/h/std/ifaddrs.h'
p2903
sbsS'inputManager.cpp'
p2904
g299
(g1573
g301
Ntp2905
Rp2906
(dp2907
g1577
g1192
sg1578
g1620
sg325
g1213
sbsS'IwTween.cpp'
p2908
g299
(g1573
g301
Ntp2909
Rp2910
(dp2911
g1577
g1567
sg1578
g2110
sg325
g1565
sbsS'exception'
p2912
g299
(g1573
g301
Ntp2913
Rp2914
(dp2915
g1577
g1585
sg1578
g1586
sg325
S'c:/marmalade/7.2/s3e/h/std/c++/exception'
p2916
sbsS's3eFacebook_interface.cpp'
p2917
g299
(g1573
g301
Ntp2918
Rp2919
(dp2920
g1577
g1163
sg1578
g2881
sg325
g1161
sbsS'rlocks.h'
p2921
g299
(g1573
g301
Ntp2922
Rp2923
(dp2924
g1577
g1585
sg1578
g1586
sg325
S'c:/marmalade/7.2/s3e/h/std/c++/rlocks.h'
p2925
sbsS'ioctl.h'
p2926
g299
(g1573
g301
Ntp2927
Rp2928
(dp2929
g1577
g1585
sg1578
g1734
sg325
S'c:/marmalade/7.2/s3e/h/std/sys/ioctl.h'
p2930
sbsS'rope'
p2931
g299
(g1573
g301
Ntp2932
Rp2933
(dp2934
g1577
g1585
sg1578
g1586
sg325
S'c:/marmalade/7.2/s3e/h/std/c++/rope'
p2935
sbsS'jinclude.h'
p2936
g299
(g1573
g301
Ntp2937
Rp2938
(dp2939
g1577
g1049
sg1578
g1674
sg325
g1047
sbsS's3eFlurry_interface.cpp'
p2940
g299
(g1573
g301
Ntp2941
Rp2942
(dp2943
g1577
g1178
sg1578
g2459
sg325
g1176
sbsS's3eWebView.h'
p2944
g299
(g1573
g301
Ntp2945
Rp2946
(dp2947
g1577
g1149
sg1578
(lp2948
g2324
ag1143
asg325
g1152
sbsS'IwEvent.h'
p2949
g299
(g1573
g301
Ntp2950
Rp2951
(dp2952
g1577
g1449
sg1578
g1614
sg325
g1478
sbsS'IwOptimiseSize.h'
p2953
g299
(g1573
g301
Ntp2954
Rp2955
(dp2956
g1577
g1449
sg1578
g1614
sg325
g1482
sbsS'iwgxfont_public.defines.txt'
p2957
g299
(g1573
g301
Ntp2958
Rp2959
(dp2960
g1577
g1271
sg1578
g1579
sg325
g1276
sbsS'iconv.h'
p2961
g299
(g1573
g301
Ntp2962
Rp2963
(dp2964
g1577
g1585
sg1578
g1607
sg325
S'c:/marmalade/7.2/s3e/h/std/iconv.h'
p2965
sbsS's3eDevice.h'
p2966
g299
(g1573
g301
Ntp2967
Rp2968
(dp2969
g1577
g1585
sg1578
g1601
sg325
S'c:/marmalade/7.2/s3e/h/s3eDevice.h'
p2970
sbsS'IwGeomSphere.h'
p2971
g299
(g1573
g301
Ntp2972
Rp2973
(dp2974
g1577
g1293
sg1578
g1644
sg325
g1349
sbsS'tiniconv.mkf'
p2975
g299
(g1573
g301
Ntp2976
Rp2977
(dp2978
g1577
g1088
sg1578
g2067
sg325
g1086
sbsS'iw2dscenegraph.defines.txt'
p2979
g299
(g1573
g301
Ntp2980
Rp2981
(dp2982
g1577
g1235
sg1578
g1901
sg325
g1241
sbsS'jdct.h'
p2983
g299
(g1573
g301
Ntp2984
Rp2985
(dp2986
g1577
g1049
sg1578
g1674
sg325
g1062
sbsS'cctype'
p2987
g299
(g1573
g301
Ntp2988
Rp2989
(dp2990
g1577
g1585
sg1578
g1586
sg325
S'c:/marmalade/7.2/s3e/h/std/c++/cctype'
p2991
sbsS'IwSoundADPCM.cpp'
p2992
g299
(g1573
g301
Ntp2993
Rp2994
(dp2995
g1577
g1093
sg1578
g1630
sg325
g1099
sbsS's3eConfig.h'
p2996
g299
(g1573
g301
Ntp2997
Rp2998
(dp2999
g1577
g1585
sg1578
g1601
sg325
S'c:/marmalade/7.2/s3e/h/s3eConfig.h'
p3000
sbsS'IwHashString.h'
p3001
g299
(g1573
g301
Ntp3002
Rp3003
(dp3004
g1577
g1449
sg1578
g1614
sg325
g1547
sbsS'stat.h'
p3005
g299
(g1573
g301
Ntp3006
Rp3007
(dp3008
g1577
g1585
sg1578
g1734
sg325
S'c:/marmalade/7.2/s3e/h/std/sys/stat.h'
p3009
sbsS'byteswap.h'
p3010
g299
(g1573
g301
Ntp3011
Rp3012
(dp3013
g1577
g1585
sg1578
g1607
sg325
S'c:/marmalade/7.2/s3e/h/std/byteswap.h'
p3014
sbsS'iwresmanager.mkf'
p3015
g299
(g1573
g301
Ntp3016
Rp3017
(dp3018
g1577
g1366
sg1578
g1855
sg325
g1364
sbsS'IwUtilInitTerm.h'
p3019
g299
(g1573
g301
Ntp3020
Rp3021
(dp3022
g1577
g1449
sg1578
g1614
sg325
g1514
sbsS'pthread_1.h'
p3023
g299
(g1573
g301
Ntp3024
Rp3025
(dp3026
g1577
g1585
sg1578
g1586
sg325
S'c:/marmalade/7.2/s3e/h/std/c++/pthread.h'
p3027
sbsS'IwMemBucket.h'
p3028
g299
(g1573
g301
Ntp3029
Rp3030
(dp3031
g1577
g1449
sg1578
g1614
sg325
g1530
sbsS'complex'
p3032
g299
(g1573
g301
Ntp3033
Rp3034
(dp3035
g1577
g1585
sg1578
g1586
sg325
S'c:/marmalade/7.2/s3e/h/std/c++/complex'
p3036
sbsS'game.cpp'
p3037
g299
(g1573
g301
Ntp3038
Rp3039
(dp3040
g1577
g1192
sg1578
g2013
sg325
g1227
sbsS'algorithm'
p3041
g299
(g1573
g301
Ntp3042
Rp3043
(dp3044
g1577
g1585
sg1578
g1586
sg325
S'c:/marmalade/7.2/s3e/h/std/c++/algorithm'
p3045
sbsS's3e.icf'
p3046
g299
(g1573
g301
Ntp3047
Rp3048
(dp3049
g1577
g1585
sg1578
g1601
sg325
S'c:/marmalade/7.2/s3e/s3e.icf'
p3050
sbsS'sem.h'
p3051
g299
(g1573
g301
Ntp3052
Rp3053
(dp3054
g1577
g1585
sg1578
g1734
sg325
S'c:/marmalade/7.2/s3e/h/std/sys/sem.h'
p3055
sbsS'IwGxFontState.h'
p3056
g299
(g1573
g301
Ntp3057
Rp3058
(dp3059
g1577
g1271
sg1578
g1579
sg325
g1280
sbsS'stdio.h'
p3060
g299
(g1573
g301
Ntp3061
Rp3062
(dp3063
g1577
g1585
sg1578
g1607
sg325
S'c:/marmalade/7.2/s3e/h/std/stdio.h'
p3064
sbsS'jmemsys.h'
p3065
g299
(g1573
g301
Ntp3066
Rp3067
(dp3068
g1577
g1049
sg1578
g1674
sg325
g1066
sbsS'ios'
p3069
g299
(g1573
g301
Ntp3070
Rp3071
(dp3072
g1577
g1585
sg1578
g1586
sg325
S'c:/marmalade/7.2/s3e/h/std/c++/ios'
p3073
sbsS'IwTween.h'
p3074
g299
(g1573
g301
Ntp3075
Rp3076
(dp3077
g1577
g1567
sg1578
g2110
sg325
g1568
sbsS'stack'
p3078
g299
(g1573
g301
Ntp3079
Rp3080
(dp3081
g1577
g1585
sg1578
g1586
sg325
S'c:/marmalade/7.2/s3e/h/std/c++/stack'
p3082
sbsS'IwSoundParams.h'
p3083
g299
(g1573
g301
Ntp3084
Rp3085
(dp3086
g1577
g1093
sg1578
g1630
sg325
g1135
sbsS'new.h'
p3087
g299
(g1573
g301
Ntp3088
Rp3089
(dp3090
g1577
g1585
sg1578
g1586
sg325
S'c:/marmalade/7.2/s3e/h/std/c++/new.h'
p3091
sbsS's3eEMail.h'
p3092
g299
(g1573
g301
Ntp3093
Rp3094
(dp3095
g1577
g1585
sg1578
g1803
sg325
S'c:/marmalade/7.2/s3e/h/ext/s3eEMail.h'
p3096
sbsS's3eVideo.h'
p3097
g299
(g1573
g301
Ntp3098
Rp3099
(dp3100
g1577
g1585
sg1578
g1601
sg325
S'c:/marmalade/7.2/s3e/h/s3eVideo.h'
p3101
sbsS'pngconf.h'
p3102
g299
(g1573
g301
Ntp3103
Rp3104
(dp3105
g1577
g1038
sg1578
g2343
sg325
g1039
sbsS'pwd.h'
p3106
g299
(g1573
g301
Ntp3107
Rp3108
(dp3109
g1577
g1585
sg1578
g1607
sg325
S'c:/marmalade/7.2/s3e/h/std/pwd.h'
p3110
sbsS'IwOptimiseThumb.h'
p3111
g299
(g1573
g301
Ntp3112
Rp3113
(dp3114
g1577
g1449
sg1578
g1614
sg325
g1506
sbsS'IwClip.h'
p3115
g299
(g1573
g301
Ntp3116
Rp3117
(dp3118
g1577
g1385
sg1578
g1720
sg325
g1407
sbsS'IwSoundInst.h'
p3119
g299
(g1573
g301
Ntp3120
Rp3121
(dp3122
g1577
g1093
sg1578
g1630
sg325
g1113
sbsS'iwresmanager.config.txt'
p3123
g299
(g1573
g301
Ntp3124
Rp3125
(dp3126
g1577
g1361
sg1578
g1855
sg325
g1371
sbsS'IwGxShaderTechnique.h'
p3127
g299
(g1573
g301
Ntp3128
Rp3129
(dp3130
g1577
g1385
sg1578
g1720
sg325
g1429
sbsS'IwCore.h'
p3131
g299
(g1573
g301
Ntp3132
Rp3133
(dp3134
g1577
g1449
sg1578
g1614
sg325
g1447
sbsS'cfloat'
p3135
g299
(g1573
g301
Ntp3136
Rp3137
(dp3138
g1577
g1585
sg1578
g1586
sg325
S'c:/marmalade/7.2/s3e/h/std/c++/cfloat'
p3139
sbsS'IwGeomMat2D.h'
p3140
g299
(g1573
g301
Ntp3141
Rp3142
(dp3143
g1577
g1293
sg1578
g1644
sg325
g1298
sbsS'IwAllocator.h'
p3144
g299
(g1573
g301
Ntp3145
Rp3146
(dp3147
g1577
g1449
sg1578
g1614
sg325
g1496
sbsS'timerManager.cpp'
p3148
g299
(g1573
g301
Ntp3149
Rp3150
(dp3151
g1577
g1192
sg1578
g1620
sg325
g1199
sbsS'IwPath.h'
p3152
g299
(g1573
g301
Ntp3153
Rp3154
(dp3155
g1577
g1449
sg1578
g1614
sg325
g1522
sbsS'iwgxfont.mkf'
p3156
g299
(g1573
g301
Ntp3157
Rp3158
(dp3159
g1577
g1286
sg1578
g1579
sg325
g1284
sbsS'IwTexture.h'
p3160
g299
(g1573
g301
Ntp3161
Rp3162
(dp3163
g1577
g1385
sg1578
g1720
sg325
g1423
sbsS's3eAccelerometer.h'
p3164
g299
(g1573
g301
Ntp3165
Rp3166
(dp3167
g1577
g1585
sg1578
g1601
sg325
S'c:/marmalade/7.2/s3e/h/s3eAccelerometer.h'
p3168
sbsS'setjmp.h'
p3169
g299
(g1573
g301
Ntp3170
Rp3171
(dp3172
g1577
g1585
sg1578
g1607
sg325
S'c:/marmalade/7.2/s3e/h/std/setjmp.h'
p3173
sbsS's3eFacebook.h'
p3174
g299
(g1573
g301
Ntp3175
Rp3176
(dp3177
g1577
g1163
sg1578
(lp3178
g1141
ag1157
ag1034
asg325
g1167
sbsS'IwSoundParams.cpp'
p3179
g299
(g1573
g301
Ntp3180
Rp3181
(dp3182
g1577
g1093
sg1578
g1630
sg325
g1103
sbsS'IwFile.h'
p3183
g299
(g1573
g301
Ntp3184
Rp3185
(dp3186
g1577
g1449
sg1578
g1614
sg325
g1488
sbsS'IwTextParseable.h'
p3187
g299
(g1573
g301
Ntp3188
Rp3189
(dp3190
g1577
g1449
sg1578
g1614
sg325
g1541
sbsS'istream.h'
p3191
g299
(g1573
g301
Ntp3192
Rp3193
(dp3194
g1577
g1585
sg1578
g1586
sg325
S'c:/marmalade/7.2/s3e/h/std/c++/istream.h'
p3195
sbsS'stdint.h'
p3196
g299
(g1573
g301
Ntp3197
Rp3198
(dp3199
g1577
g1585
sg1578
g1607
sg325
S'c:/marmalade/7.2/s3e/h/std/stdint.h'
p3200
sbsS'semaphore.h'
p3201
g299
(g1573
g301
Ntp3202
Rp3203
(dp3204
g1577
g1585
sg1578
g1607
sg325
S'c:/marmalade/7.2/s3e/h/std/semaphore.h'
p3205
sbsS'ctime'
p3206
g299
(g1573
g301
Ntp3207
Rp3208
(dp3209
g1577
g1585
sg1578
g1586
sg325
S'c:/marmalade/7.2/s3e/h/std/c++/ctime'
p3210
sbsS'sstream'
p3211
g299
(g1573
g301
Ntp3212
Rp3213
(dp3214
g1577
g1585
sg1578
g1586
sg325
S'c:/marmalade/7.2/s3e/h/std/c++/sstream'
p3215
sbsS'IwGeomFBBox.h'
p3216
g299
(g1573
g301
Ntp3217
Rp3218
(dp3219
g1577
g1293
sg1578
g1644
sg325
g1355
sbsS'IwDebugPrim.h'
p3220
g299
(g1573
g301
Ntp3221
Rp3222
(dp3223
g1577
g1385
sg1578
g1720
sg325
g1413
sbsS'IwGxFontContainer.h'
p3224
g299
(g1573
g301
Ntp3225
Rp3226
(dp3227
g1577
g1271
sg1578
g1579
sg325
g1274
sbsS'IwGeomSVec3.h'
p3228
g299
(g1573
g301
Ntp3229
Rp3230
(dp3231
g1577
g1293
sg1578
g1644
sg325
g1318
sbsS'iw2dscenegraphcore.mkf'
p3232
g299
(g1573
g301
Ntp3233
Rp3234
(dp3235
g1577
g1439
sg1578
g2681
sg325
g1437
sbsS's3eExt.h'
p3236
g299
(g1573
g301
Ntp3237
Rp3238
(dp3239
g1577
g1585
sg1578
g1601
sg325
S'c:/marmalade/7.2/s3e/h/s3eExt.h'
p3240
sbsS'IwGeomFVec3.h'
p3241
g299
(g1573
g301
Ntp3242
Rp3243
(dp3244
g1577
g1293
sg1578
g1644
sg325
g1308
sbsS'IwClip.inl'
p3245
g299
(g1573
g301
Ntp3246
Rp3247
(dp3248
g1577
g1385
sg1578
g1720
sg325
g1419
sbsS'streambuf'
p3249
g299
(g1573
g301
Ntp3250
Rp3251
(dp3252
g1577
g1585
sg1578
g1586
sg325
S'c:/marmalade/7.2/s3e/h/std/c++/streambuf'
p3253
sbsS's3eMetrics.h'
p3254
g299
(g1573
g301
Ntp3255
Rp3256
(dp3257
g1577
g1585
sg1578
g1803
sg325
S'c:/marmalade/7.2/s3e/h/ext/s3eMetrics.h'
p3258
sbsS'IwGxFont.h'
p3259
g299
(g1573
g301
Ntp3260
Rp3261
(dp3262
g1577
g1271
sg1578
g1579
sg325
g1269
sbsS's3eSecureStorage.h'
p3263
g299
(g1573
g301
Ntp3264
Rp3265
(dp3266
g1577
g1585
sg1578
g1601
sg325
S'c:/marmalade/7.2/s3e/h/s3eSecureStorage.h'
p3267
sbsS'string.h'
p3268
g299
(g1573
g301
Ntp3269
Rp3270
(dp3271
g1577
g1585
sg1578
g1607
sg325
S'c:/marmalade/7.2/s3e/h/std/string.h'
p3272
sbsS'IwResource.h'
p3273
g299
(g1573
g301
Ntp3274
Rp3275
(dp3276
g1577
g1449
sg1578
g1614
sg325
g1452
sbsS'IwGeomSVec2.h'
p3277
g299
(g1573
g301
Ntp3278
Rp3279
(dp3280
g1577
g1293
sg1578
g1644
sg325
g1314
sbsS'libjpeg.mkf'
p3281
g299
(g1573
g301
Ntp3282
Rp3283
(dp3284
g1577
g1078
sg1578
(lp3285
g1044
asg325
g1076
sbsS'IwGxDebug.h'
p3286
g299
(g1573
g301
Ntp3287
Rp3288
(dp3289
g1577
g1385
sg1578
g1720
sg325
g1411
sbsS'pthread_types.h'
p3290
g299
(g1573
g301
Ntp3291
Rp3292
(dp3293
g1577
g1585
sg1578
g1607
sg325
S'c:/marmalade/7.2/s3e/h/std/pthread_types.h'
p3294
sbsS'iomanip.h'
p3295
g299
(g1573
g301
Ntp3296
Rp3297
(dp3298
g1577
g1585
sg1578
g1586
sg325
S'c:/marmalade/7.2/s3e/h/std/c++/iomanip.h'
p3299
sbsS'IwKeymap.h'
p3300
g299
(g1573
g301
Ntp3301
Rp3302
(dp3303
g1577
g1449
sg1578
g1614
sg325
g1535
sbsS'IwDebug.h'
p3304
g299
(g1573
g301
Ntp3305
Rp3306
(dp3307
g1577
g1449
sg1578
g1614
sg325
g1543
sbsS's3eIOSBackgroundAudio.h'
p3308
g299
(g1573
g301
Ntp3309
Rp3310
(dp3311
g1577
g1585
sg1578
g1803
sg325
S'c:/marmalade/7.2/s3e/h/ext/s3eIOSBackgroundAudio.h'
p3312
sbsS'IwGeomMenu.h'
p3313
g299
(g1573
g301
Ntp3314
Rp3315
(dp3316
g1577
g1293
sg1578
g1644
sg325
g1300
sbsS'IwDivTable.h'
p3317
g299
(g1573
g301
Ntp3318
Rp3319
(dp3320
g1577
g1449
sg1578
g1614
sg325
g1470
sbsS'ctype.h'
p3321
g299
(g1573
g301
Ntp3322
Rp3323
(dp3324
g1577
g1585
sg1578
g1607
sg325
S'c:/marmalade/7.2/s3e/h/std/ctype.h'
p3325
sbsS'mainMenu.cpp'
p3326
g299
(g1573
g301
Ntp3327
Rp3328
(dp3329
g1577
g1192
sg1578
g2013
sg325
g1223
sbsS'IwResGroup.h'
p3330
g299
(g1573
g301
Ntp3331
Rp3332
(dp3333
g1577
g1361
sg1578
g1855
sg325
g1367
sbsS'signal_1.h'
p3334
g299
(g1573
g301
Ntp3335
Rp3336
(dp3337
g1577
g1585
sg1578
g1734
sg325
S'c:/marmalade/7.2/s3e/h/std/sys/signal.h'
p3338
sbsS'IwSoundData.cpp'
p3339
g299
(g1573
g301
Ntp3340
Rp3341
(dp3342
g1577
g1093
sg1578
g1630
sg325
g1105
sbsS'jerror.h'
p3343
g299
(g1573
g301
Ntp3344
Rp3345
(dp3346
g1577
g1049
sg1578
g1674
sg325
g1070
sbsS'shm.h'
p3347
g299
(g1573
g301
Ntp3348
Rp3349
(dp3350
g1577
g1585
sg1578
g1734
sg325
S'c:/marmalade/7.2/s3e/h/std/sys/shm.h'
p3351
sbsS'IwManagedList.h'
p3352
g299
(g1573
g301
Ntp3353
Rp3354
(dp3355
g1577
g1449
sg1578
g1614
sg325
g1460
sbsS'prctl.h'
p3356
g299
(g1573
g301
Ntp3357
Rp3358
(dp3359
g1577
g1585
sg1578
g1734
sg325
S'c:/marmalade/7.2/s3e/h/std/sys/prctl.h'
p3360
sbsS's3eCamera.h'
p3361
g299
(g1573
g301
Ntp3362
Rp3363
(dp3364
g1577
g1585
sg1578
g1601
sg325
S'c:/marmalade/7.2/s3e/h/s3eCamera.h'
p3365
sbsS'utility'
p3366
g299
(g1573
g301
Ntp3367
Rp3368
(dp3369
g1577
g1585
sg1578
g1586
sg325
S'c:/marmalade/7.2/s3e/h/std/c++/utility'
p3370
sbsS's3ewebview.mkf'
p3371
g299
(g1573
g301
Ntp3372
Rp3373
(dp3374
g1577
g1156
sg1578
g2948
sg325
g1154
sbsS'IwGeomLegacy.h'
p3375
g299
(g1573
g301
Ntp3376
Rp3377
(dp3378
g1577
g1293
sg1578
g1644
sg325
g1341
sbsS'IwTPage.h'
p3379
g299
(g1573
g301
Ntp3380
Rp3381
(dp3382
g1577
g1385
sg1578
g1720
sg325
g1383
sbsS'IwResSerialise.h'
p3383
g299
(g1573
g301
Ntp3384
Rp3385
(dp3386
g1577
g1361
sg1578
g1855
sg325
g1377
sbsS's3eCrypto.h'
p3387
g299
(g1573
g301
Ntp3388
Rp3389
(dp3390
g1577
g1585
sg1578
g1601
sg325
S'c:/marmalade/7.2/s3e/h/s3eCrypto.h'
p3391
sbsS's3eKeyboard.h'
p3392
g299
(g1573
g301
Ntp3393
Rp3394
(dp3395
g1577
g1585
sg1578
g1601
sg325
S'c:/marmalade/7.2/s3e/h/s3eKeyboard.h'
p3396
sbsS'fcntl.h'
p3397
g299
(g1573
g301
Ntp3398
Rp3399
(dp3400
g1577
g1585
sg1578
g1607
sg325
S'c:/marmalade/7.2/s3e/h/std/fcntl.h'
p3401
sbsS'Iw2DSceneGraphCore.h'
p3402
g299
(g1573
g301
Ntp3403
Rp3404
(dp3405
g1577
g1442
sg1578
g2681
sg325
g1440
sbsS'memory.h'
p3406
g299
(g1573
g301
Ntp3407
Rp3408
(dp3409
g1577
g1585
sg1578
g1607
sg325
S'c:/marmalade/7.2/s3e/h/std/memory.h'
p3410
sbsS'pthread.h'
p3411
g299
(g1573
g301
Ntp3412
Rp3413
(dp3414
g1577
g1585
sg1578
g1607
sg325
S'c:/marmalade/7.2/s3e/h/std/pthread.h'
p3415
sbsS'IwGeomIntersect.h'
p3416
g299
(g1573
g301
Ntp3417
Rp3418
(dp3419
g1577
g1293
sg1578
g1644
sg325
g1343
sbsS'IwTextParserITX.h'
p3420
g299
(g1573
g301
Ntp3421
Rp3422
(dp3423
g1577
g1449
sg1578
g1614
sg325
g1472
sbsS'sceneManager.h'
p3424
g299
(g1573
g301
Ntp3425
Rp3426
(dp3427
g1577
g1192
sg1578
g1620
sg325
g1209
sbsS'sceneManager.cpp'
p3428
g299
(g1573
g301
Ntp3429
Rp3430
(dp3431
g1577
g1192
sg1578
g1620
sg325
g1205
sbsS'Iw2DSceneGraph.cpp'
p3432
g299
(g1573
g301
Ntp3433
Rp3434
(dp3435
g1577
g1235
sg1578
g1901
sg325
g1233
sbsS'ostream.h'
p3436
g299
(g1573
g301
Ntp3437
Rp3438
(dp3439
g1577
g1585
sg1578
g1586
sg325
S'c:/marmalade/7.2/s3e/h/std/c++/ostream.h'
p3440
sbsS'stl_user_config.h'
p3441
g299
(g1573
g301
Ntp3442
Rp3443
(dp3444
g1577
g1585
sg1578
g1586
sg325
S'c:/marmalade/7.2/s3e/h/std/c++/stl_user_config.h'
p3445
sbsS'IwProfileMenu.h'
p3446
g299
(g1573
g301
Ntp3447
Rp3448
(dp3449
g1577
g1449
sg1578
g1614
sg325
g1464
sbsS'MarmaladeVersion.h'
p3450
g299
(g1573
g301
Ntp3451
Rp3452
(dp3453
g1577
g1585
sg1578
g1601
sg325
S'c:/marmalade/7.2/s3e/h/MarmaladeVersion.h'
p3454
sbsS'IwResHandlerWAV.h'
p3455
g299
(g1573
g301
Ntp3456
Rp3457
(dp3458
g1577
g1093
sg1578
g1630
sg325
g1133
sbsS'ios.h'
p3459
g299
(g1573
g301
Ntp3460
Rp3461
(dp3462
g1577
g1585
sg1578
g1586
sg325
S'c:/marmalade/7.2/s3e/h/std/c++/ios.h'
p3463
sbsS'IwImageHelper.h'
p3464
g299
(g1573
g301
Ntp3465
Rp3466
(dp3467
g1577
g1449
sg1578
g1614
sg325
g1537
sbsS'hash_set'
p3468
g299
(g1573
g301
Ntp3469
Rp3470
(dp3471
g1577
g1585
sg1578
g1586
sg325
S'c:/marmalade/7.2/s3e/h/std/c++/hash_set'
p3472
sbsS'IwGeomFQuat.h'
p3473
g299
(g1573
g301
Ntp3474
Rp3475
(dp3476
g1577
g1293
sg1578
g1644
sg325
g1326
sbsS'jmorecfg.h'
p3477
g299
(g1573
g301
Ntp3478
Rp3479
(dp3480
g1577
g1049
sg1578
g1674
sg325
g1068
sbsS'eglplatform.h'
p3481
g299
(g1573
g301
Ntp3482
Rp3483
(dp3484
g1577
g1585
sg1578
g1942
sg325
S'c:/marmalade/7.2/s3e/h/EGL/eglplatform.h'
p3485
sbsS'cmath'
p3486
g299
(g1573
g301
Ntp3487
Rp3488
(dp3489
g1577
g1585
sg1578
g1586
sg325
S'c:/marmalade/7.2/s3e/h/std/c++/cmath'
p3490
sbsS'math_gcc.h'
p3491
g299
(g1573
g301
Ntp3492
Rp3493
(dp3494
g1577
g1585
sg1578
g1607
sg325
S'c:/marmalade/7.2/s3e/h/std/math_gcc.h'
p3495
sbsS's3eMemory.h'
p3496
g299
(g1573
g301
Ntp3497
Rp3498
(dp3499
g1577
g1585
sg1578
g1601
sg325
S'c:/marmalade/7.2/s3e/h/s3eMemory.h'
p3500
sbsS'strings.h'
p3501
g299
(g1573
g301
Ntp3502
Rp3503
(dp3504
g1577
g1585
sg1578
g1607
sg325
S'c:/marmalade/7.2/s3e/h/std/strings.h'
p3505
sbsS's3eFile.h'
p3506
g299
(g1573
g301
Ntp3507
Rp3508
(dp3509
g1577
g1585
sg1578
g1601
sg325
S'c:/marmalade/7.2/s3e/h/s3eFile.h'
p3510
sbsS'IwGxTypes.h'
p3511
g299
(g1573
g301
Ntp3512
Rp3513
(dp3514
g1577
g1385
sg1578
g1720
sg325
g1431
sbsS'cerrno'
p3515
g299
(g1573
g301
Ntp3516
Rp3517
(dp3518
g1577
g1585
sg1578
g1586
sg325
S'c:/marmalade/7.2/s3e/h/std/c++/cerrno'
p3519
sbsS'IwSoundManager.cpp'
p3520
g299
(g1573
g301
Ntp3521
Rp3522
(dp3523
g1577
g1093
sg1578
g1630
sg325
g1091
sbsS'main.h'
p3524
g299
(g1573
g301
Ntp3525
Rp3526
(dp3527
g1577
g1192
sg1578
g1922
sg325
g1190
sbsS'soundengine.mkf'
p3528
g299
(g1573
g301
Ntp3529
Rp3530
(dp3531
g1577
g1096
sg1578
g1630
sg325
g1094
sbsS'resource.h'
p3532
g299
(g1573
g301
Ntp3533
Rp3534
(dp3535
g1577
g1585
sg1578
g1734
sg325
S'c:/marmalade/7.2/s3e/h/std/sys/resource.h'
p3536
sbsS'clocale'
p3537
g299
(g1573
g301
Ntp3538
Rp3539
(dp3540
g1577
g1585
sg1578
g1586
sg325
S'c:/marmalade/7.2/s3e/h/std/c++/clocale'
p3541
sbsS'csetjmp'
p3542
g299
(g1573
g301
Ntp3543
Rp3544
(dp3545
g1577
g1585
sg1578
g1586
sg325
S'c:/marmalade/7.2/s3e/h/std/c++/csetjmp'
p3546
sbsS'netdb.h'
p3547
g299
(g1573
g301
Ntp3548
Rp3549
(dp3550
g1577
g1585
sg1578
g1607
sg325
S'c:/marmalade/7.2/s3e/h/std/netdb.h'
p3551
sbsS's3eAndroidJNI.h'
p3552
g299
(g1573
g301
Ntp3553
Rp3554
(dp3555
g1577
g1585
sg1578
g1803
sg325
S'c:/marmalade/7.2/s3e/h/ext/s3eAndroidJNI.h'
p3556
sbsS'stdexcept'
p3557
g299
(g1573
g301
Ntp3558
Rp3559
(dp3560
g1577
g1585
sg1578
g1586
sg325
S'c:/marmalade/7.2/s3e/h/std/c++/stdexcept'
p3561
sbsS'math.h'
p3562
g299
(g1573
g301
Ntp3563
Rp3564
(dp3565
g1577
g1585
sg1578
g1607
sg325
S'c:/marmalade/7.2/s3e/h/std/math.h'
p3566
sbsS'stdbool.h'
p3567
g299
(g1573
g301
Ntp3568
Rp3569
(dp3570
g1577
g1585
sg1578
g1607
sg325
S'c:/marmalade/7.2/s3e/h/std/stdbool.h'
p3571
sbsS'uio.h'
p3572
g299
(g1573
g301
Ntp3573
Rp3574
(dp3575
g1577
g1585
sg1578
g1734
sg325
S'c:/marmalade/7.2/s3e/h/std/sys/uio.h'
p3576
sbsS'IwUncopyable.h'
p3577
g299
(g1573
g301
Ntp3578
Rp3579
(dp3580
g1577
g1449
sg1578
g1614
sg325
g1494
sbsS's3efacebook.mkf'
p3581
g299
(g1573
g301
Ntp3582
Rp3583
(dp3584
g1577
g1171
sg1578
(lp3585
g1141
ag1157
asg325
g1169
sbssS'juice_build_type'
p3586
g4
sS'tests'
p3587
(lp3588
sS'project_name'
p3589
g307
sS'root_file'
p3590
g119
sS'current_root'
p3591
S'c:/Users/Vinicius/Desktop/Yes or No/Stars'
p3592
sS'dependencies'
p3593
(lp3594
sS'include_paths'
p3595
(lp3596
S'c:/marmalade/7.2/extensions/s3ewebview/h'
p3597
aS'c:/marmalade/7.2/modules/iwutil/h'
p3598
aS'c:/marmalade/7.2/modules/third_party/libjpeg/h'
p3599
aS'c:/marmalade/7.2/modules/third_party/zlib/h'
p3600
aS'c:/marmalade/7.2/modules/third_party/libpng/h'
p3601
aS'c:/marmalade/7.2/extensions/s3efacebook/h'
p3602
aS'c:/marmalade/7.2/modules/iw2d/h'
p3603
aS'c:/marmalade/7.2/modules/iwgx/h'
p3604
aS'c:/marmalade/7.2/modules/iwgl/h'
p3605
aS'c:/marmalade/7.2/modules/iwgeom/h'
p3606
aS'c:/marmalade/7.2/modules/iwresmanager/h'
p3607
aS'c:/marmalade/7.2/modules/iwgxfont/h'
p3608
aS'c:/marmalade/7.2/modules/third_party/tiniconv/source'
p3609
aS'c:/marmalade/7.2/modules/iw2dscenegraph/h'
p3610
aS'c:/marmalade/7.2/modules/iw2dscenegraphcore/h'
p3611
aS'c:/marmalade/7.2/modules/iwtween/h'
p3612
aS'c:/users/vinicius/desktop/yes or no/stars/modules/soundengine/h'
p3613
aS'c:/users/vinicius/desktop/yes or no/stars/modules/soundengine/source'
p3614
aS'c:/marmalade/7.2/extensions/s3eflurry/h'
p3615
aS'c:/marmalade/7.2/s3e/h'
p3616
aS'c:/marmalade/7.2/s3e/h/ext'
p3617
aS'c:/marmalade/7.2/s3e/h/std'
p3618
aS'c:/marmalade/7.2/s3e/h/std/c++'
p3619
aS'c:/marmalade/7.2/s3e/h/ext_legacy'
p3620
aS'c:/marmalade/7.2/s3e/h/legacy'
p3621
asS'weak_frameworks'
p3622
(lp3623
sS'extprojects'
p3624
(dp3625
sg602
(dp3626
g596
(lp3627
(S'c:/Users/Vinicius/Desktop/Yes or No/Stars/data/audio'
p3628
S'audio'
p3629
I0
tp3630
a(S'c:/Users/Vinicius/Desktop/Yes or No/Stars/data/textures'
p3631
S'textures'
p3632
I0
tp3633
a(S'c:/Users/Vinicius/Desktop/Yes or No/Stars/data-ram/data-gles1,c:/Users/Vinicius/Desktop/Yes or No/Stars/data'
p3634
S'.'
p3635
I0
tp3636
a(S'c:/marmalade/7.2/extensions/s3ewebview/s3eWebView.js'
p3637
S's3eWebView.js'
p3638
I0
tp3639
a(S'c:/marmalade/7.2/extensions/s3efacebook/source/iphone/facebook-ios-sdk/FacebookSDK.framework/Versions/A/Resources/FacebookSDKResources.bundle/FBDialog/images/fbicon.png'
p3640
S'FacebookSDKResources.bundle/FBDialog/images/fbicon.png'
p3641
I0
tp3642
a(S'c:/marmalade/7.2/extensions/s3efacebook/source/iphone/facebook-ios-sdk/FacebookSDK.framework/Versions/A/Resources/FacebookSDKResources.bundle/FBDialog/images/close.png'
p3643
S'FacebookSDKResources.bundle/FBDialog/images/close.png'
p3644
I0
tp3645
a(S'c:/marmalade/7.2/extensions/s3efacebook/source/iphone/facebook-ios-sdk/FacebookSDK.framework/Versions/A/Resources/FacebookSDKResources.bundle/FBDialog/images/close@2x.png'
p3646
S'FacebookSDKResources.bundle/FBDialog/images/close@2x.png'
p3647
I0
tp3648
a(S'c:/marmalade/7.2/extensions/s3efacebook/facebook-winclient-sdk-master/Source/Facebook.Client-WindowsStore/FacebookDialogPage.xaml'
p3649
S'FacebookDialogPage.xaml'
p3650
I0
tp3651
asS'WebView32Assets'
p3652
(lp3653
(S'c:/marmalade/7.2/extensions/s3ewebview/lib/win32/locales'
p3654
S'locales'
p3655
I0
tp3656
a(S'c:/marmalade/7.2/extensions/s3ewebview/lib/win32/avcodec-53.dll'
p3657
S'avcodec-53.dll'
p3658
I0
tp3659
a(S'c:/marmalade/7.2/extensions/s3ewebview/lib/win32/avformat-53.dll'
p3660
S'avformat-53.dll'
p3661
I0
tp3662
a(S'c:/marmalade/7.2/extensions/s3ewebview/lib/win32/avutil-51.dll'
p3663
S'avutil-51.dll'
p3664
I0
tp3665
a(S'c:/marmalade/7.2/extensions/s3ewebview/lib/win32/chrome.pak'
p3666
S'chrome.pak'
p3667
I0
tp3668
a(S'c:/marmalade/7.2/extensions/s3ewebview/lib/win32/d3dcompiler_43.dll'
p3669
S'd3dcompiler_43.dll'
p3670
I0
tp3671
a(S'c:/marmalade/7.2/extensions/s3ewebview/lib/win32/d3dx9_43.dll'
p3672
S'd3dx9_43.dll'
p3673
I0
tp3674
a(S'c:/marmalade/7.2/extensions/s3ewebview/lib/win32/icudt.dll'
p3675
S'icudt.dll'
p3676
I0
tp3677
a(S'c:/marmalade/7.2/extensions/s3ewebview/lib/win32/libcef.dll'
p3678
S'libcef.dll'
p3679
I0
tp3680
a(S'c:/marmalade/7.2/extensions/s3ewebview/lib/win32/libEGL.dll'
p3681
S'libEGL.dll'
p3682
I0
tp3683
a(S'c:/marmalade/7.2/extensions/s3ewebview/lib/win32/libGLESv2.dll'
p3684
S'libGLESv2.dll'
p3685
I0
tp3686
assS'macro_types'
p3687
(dp3688
g525
I0
sg527
I0
sg528
I0
sg529
I0
sg531
I1
sg532
I0
sg533
I0
sg534
I0
sg535
I0
sg536
I0
sg537
I0
sg538
I0
sg540
I0
sg541
I0
sg542
I0
sg543
I0
sg544
I0
sg546
I0
sg547
I0
sg548
I0
sg549
I0
sg550
I0
sg551
I0
sg552
I0
sg553
I0
sg554
I1
sg555
I0
sg556
I0
sg557
I0
sg558
I0
sg559
I0
sg560
I0
sg561
I0
sg562
I01
sg563
I1
sg564
I0
sg565
I0
sg566
I0
sg567
I0
sg568
I0
sg569
I0
sg570
I0
sg571
I0
ssS'commands'
p3689
(lp3690
sg604
(g1025
S'VC12X'
p3691
S'X86ARM'
p3692
tp3693
sS'build_libs'
p3694
(dp3695
sg606
g0
sS'frameworks'
p3696
(lp3697
sS'environ'
p3698
(dp3699
sS'target_name_debug'
p3700
g307
sS'builders'
p3701
(dp3702
g596
(dp3703
S'.S'
p3704
(dp3705
S'rvct'
p3706
(lp3707
S'.obj'
p3708
aS'echo ARM Assembling(RVCT) ${SOURCE}...'
p3709
aS'c:/marmalade/7.2/s3e\\rvct\\bin\\armasm -o ${TARGET} ${SOURCE}'
p3710
asS'gcc'
p3711
(lp3712
g3708
aS'echo ARM Assembling(GCC) ${SOURCE}...'
p3713
aS'c:/marmalade/7.2/s3e\\gcc\\bin\\arm-none-eabi-gcc -c -o ${TARGET} ${SOURCE}'
p3714
asS'ppu'
p3715
(lp3716
S'.a'
p3717
aS'echo PPU Assembling(SNC) ${SOURCE}...'
p3718
aS'c:/marmalade/7.2/s3e\\rvct\\bin\\armasm -o ${TARGET} ${SOURCE}'
p3719
assS'.s'
p3720
g3705
sS'.vp'
p3721
(lp3722
NaS'"C:/Marmalade/7.2/s3e/python/python.exe" "c:/marmalade/7.2/modules/iwgx/tools/compile_shaders.py" ${SOURCE}'
p3723
asssS'extproject_names'
p3724
(lp3725
sbtp3726
.