((dp0
S'arm_dbg_args'
p1
S'-via:"c:\\Users\\Vinicius\\Desktop\\Yes or No\\Stars\\build_stars_vc12x\\Stars_vc12x_arm_debug.via" -qemu'
p2
sS'game-icf'
p3
S''
p4
sS'dist'
p5
NsS'csproj'
p6
g4
sS'module_path_append'
p7
NsS'global_path'
p8
S'c:\\users\\vinicius\\desktop\\yes or no'
p9
sS'system_path'
p10
S'c:\\marmalade\\7.2\\s3e\\makefile_builder'
p11
sS'android_x86_dbg_args'
p12
S'../../tools/DeployTool/DeployTool.exe --dir "c:\\Users\\Vinicius\\Desktop\\Yes or No\\Stars\\build_stars_vc12x"'
p13
sS'use_prebuilt'
p14
NsS'arm_rel_rtsm_args'
p15
S'-via:"c:\\Users\\Vinicius\\Desktop\\Yes or No\\Stars\\build_stars_vc12x\\Stars_vc12x_arm_release.via" -qemu'
p16
sS'amd64'
p17
NsS'line-width'
p18
I80
sS'gcc_dbg_args'
p19
S'-via:"c:\\Users\\Vinicius\\Desktop\\Yes or No\\Stars\\build_stars_vc12x\\Stars_vc12x_gcc_debug.via" -qemu'
p20
sS'android-x86'
p21
NsS'x86_dbg_exe'
p22
S'c:/marmalade/7.2/s3e\\win32\\s3e_simulator_debug.exe'
p23
sS'disable-runtime-checks'
p24
NsS'release'
p25
NsS'no-make'
p26
NsS'optimise-size'
p27
NsS'output-name-debug'
p28
g4
sS'arm-fpu'
p29
S'vfp'
p30
sS'proj_name'
p31
S'Stars_vc12x'
p32
sS'rvct-version'
p33
S'none'
p34
sS'compiler'
p35
g4
sS'execute'
p36
I01
sS'compile-static'
p37
NsS'msvc-project'
p38
NsS'buildenv'
p39
S'VC12X'
p40
sS'quick'
p41
NsS'module_path'
p42
(lp43
S'c:/Users/Vinicius/Desktop/Yes or No/Stars/modules'
p44
asS'use-release-std-libs'
p45
NsS'using_perforce'
p46
I00
sS'tizen-x86'
p47
NsS'mips-s3e'
p48
NsS'ios-no-pic'
p49
NsS'shared-arm-lib'
p50
NsS'arm-cpu'
p51
g4
sS'compile-thumb'
p52
NsS'no-ide'
p53
I01
sS'msvc-version'
p54
S'6.0'
p55
sS'arm'
p56
NsS'builddir'
p57
g4
sS'compile-debug-as-release'
p58
I0
sS'brief'
p59
NsS'dll'
p60
NsS'buildenv-toolset'
p61
g4
sS'version'
p62
NsS'ccache'
p63
I0
sS'offline'
p64
NsS'ios-version'
p65
g4
sS'hub_data'
p66
g4
sS'fake_vc_call'
p67
NsS'jobs'
p68
I0
sS'linkflags'
p69
NsS'tizen-x86-toolsroot'
p70
S'c:/marmalade/7.2/s3e\\..\\tools\\gcc\\x86\\tizen_windows'
p71
sS'debug'
p72
I01
sS'xcode-build-order'
p73
g4
sS'gcc_rel_rtsm_args'
p74
S'-via:"c:\\Users\\Vinicius\\Desktop\\Yes or No\\Stars\\build_stars_vc12x\\Stars_vc12x_gcc_release.via" -qemu'
p75
sS'done_defaults'
p76
I1
sS'path'
p77
NsS's3e-data-dir'
p78
S'c:/Users/Vinicius/Desktop/Yes or No/Stars\\data'
p79
sS'enable-exceptions'
p80
NsS'osx-dll'
p81
NsS'extension'
p82
g4
sS'no-vc6'
p83
NsS'non-interactive'
p84
NsS'win32-console'
p85
NsS'dist-format'
p86
g4
sS's3e-force-arch'
p87
NsS'dump_defines'
p88
NsS'verbose'
p89
I0
sS'gcc-version'
p90
g4
sS'x86_dbg_args'
p91
S'-via:"c:\\Users\\Vinicius\\Desktop\\Yes or No\\Stars\\build_stars_vc12x\\Stars_vc12x_debug.via"'
p92
sS'tizen_x86_dbg_args'
p93
g13
sS'arm-debugger'
p94
g4
sS'use_temp_extension'
p95
NsS'log'
p96
NsS'no-strip'
p97
NsS'rebuild'
p98
NsS'win32-simulator-dll'
p99
NsS'strict'
p100
NsS'mips_dbg_args'
p101
g13
sS'enable-global-path'
p102
NsS'cflags'
p103
NsS'dist-dir'
p104
g4
sS'jflags'
p105
NsS'csprojSDKRefs'
p106
g4
sS'tizen_x86_rel_exe'
p107
S'c:\\marmalade\\7.2\\s3e\\makefile_builder\\tool_launcher.exe'
p108
sS'test-assets'
p109
g4
sS'distcc'
p110
NsS'external-compiler'
p111
NsS'no-distcc'
p112
NsS'preinclude'
p113
NsS'using_sdk'
p114
I01
sS'nologo'
p115
NsS'warn-level'
p116
I2
sS'mips_dbg_exe'
p117
g108
sS'mkb_in'
p118
S'c:/Users/Vinicius/Desktop/Yes or No/Stars/Stars.mkb'
p119
sS'tizen_x86_dbg_exe'
p120
g108
sS'arm_dbg_exe'
p121
S'c:/marmalade/7.2/s3e\\bin\\armdebug.exe'
p122
sS'csprojDLLRef'
p123
NsS'tizen_x86_rel_args'
p124
g13
sS'android_x86_dbg_exe'
p125
g108
sS'test-config'
p126
g4
sS'list-targets'
p127
NsS'arm_rel_exe'
p128
g108
sS'arm_rel_args'
p129
g13
sS'makedeps'
p130
NsS'android_x86_rel_exe'
p131
g108
sS'default-buildenv'
p132
S'VC12X'
p133
sS'x86_rel_exe'
p134
g23
sS'preprocess-java'
p135
NsS'mips_rel_args'
p136
g13
sS'defines'
p137
NsS'lib'
p138
NsS'global_argv'
p139
(lp140
S'C:\\Marmalade\\7.2\\s3e\\makefile_builder\\mkb.py'
p141
aS'C:/Users/Vinicius/Desktop/Yes or No/Stars/Stars.mkb'
p142
aS'--buildenv=VC12X'
p143
aS'--debug'
p144
aS'--x86'
p145
aS'--no-ide'
p146
aS'--execute'
p147
asS'make'
p148
NsS'optimise-speed'
p149
NsS'internal'
p150
NsS'enable-stdinc'
p151
NsS'deploy-only'
p152
NsS'x86'
p153
I01
sS'deploy'
p154
g4
sS'x86_run_exe'
p155
S'c:/marmalade/7.2/s3e\\win32\\s3e_console.exe'
p156
sS'x86_rel_args'
p157
S'-via:"c:\\Users\\Vinicius\\Desktop\\Yes or No\\Stars\\build_stars_vc12x\\Stars_vc12x_release.via"'
p158
sS'gcc_rel_args'
p159
g13
sS'mips'
p160
NsS'xcode-build-settings'
p161
g4
sS'incredibuild'
p162
NsS'strict-compile'
p163
NsS'use-auto-subdirs'
p164
NsS'mips_rel_exe'
p165
g108
sS'android_x86_rel_args'
p166
g13
sS'app-icf'
p167
g4
sS'deployargs'
p168
NsS'iosnativedebug'
p169
NsS'mkf_in'
p170
(lp171
S'c:\\marmalade\\7.2\\extensions\\s3ewebview\\s3ewebview.mkf'
p172
aS'c:\\marmalade\\7.2\\modules\\iwutil\\iwutil.mkf'
p173
aS'c:\\marmalade\\7.2\\modules\\third_party\\libjpeg\\libjpeg.mkf'
p174
aS'c:\\marmalade\\7.2\\modules\\third_party\\libpng\\libpng.mkf'
p175
aS'c:\\marmalade\\7.2\\modules\\third_party\\zlib\\zlib.mkf'
p176
aS'c:\\marmalade\\7.2\\extensions\\s3efacebook\\s3efacebook.mkf'
p177
aS'c:\\marmalade\\7.2\\modules\\iw2d\\iw2d.mkf'
p178
aS'c:\\marmalade\\7.2\\modules\\iwgx\\iwgx.mkf'
p179
aS'c:\\marmalade\\7.2\\modules\\iwgl\\iwgl.mkf'
p180
aS'c:\\marmalade\\7.2\\modules\\iwgeom\\iwgeom.mkf'
p181
aS'c:\\marmalade\\7.2\\modules\\iwresmanager\\iwresmanager.mkf'
p182
aS'c:\\marmalade\\7.2\\modules\\iwgxfont\\iwgxfont.mkf'
p183
aS'c:\\marmalade\\7.2\\modules\\third_party\\tiniconv\\tiniconv.mkf'
p184
aS'c:\\marmalade\\7.2\\modules\\iw2dscenegraph\\iw2dscenegraph.mkf'
p185
aS'c:\\marmalade\\7.2\\modules\\iw2dscenegraphcore\\iw2dscenegraphcore.mkf'
p186
aS'c:\\marmalade\\7.2\\modules\\iwtween\\iwtween.mkf'
p187
aS'c:\\users\\vinicius\\desktop\\yes or no\\stars\\modules\\soundengine\\soundengine.mkf'
p188
aS'c:\\marmalade\\7.2\\extensions\\s3eflurry\\s3eflurry.mkf'
p189
asS'strict-mkb'
p190
NsS'executeargs'
p191
NsS'clean'
p192
NsS'no-asm'
p193
NsS'output-name'
p194
g4
sS'no-modules'
p195
NsS'find_define'
p196
g4
s(dp197
S'c:\\marmalade\\7.2\\s3e\\makefile_builder\\templates\\ws8_sln.pyc'
p198
F1396656910.0
sS'c:\\marmalade\\7.2\\s3e\\makefile_builder\\plugins\\java.pyc'
p199
F1396656908.0
sS'c:\\marmalade\\7.2\\s3e\\makefile_builder\\plugins\\S3EEmitter.pyc'
p200
F1396656908.0
sS'c:\\marmalade\\7.2\\s3e\\makefile_builder\\templates\\win32_vcxproj_filters.pyc'
p201
F1396656910.0
sS'c:\\marmalade\\7.2\\s3e\\makefile_builder\\plugins\\xcode4_schememanagement.py'
p202
F1396655700.0
sS'c:\\marmalade\\7.2\\s3e\\makefile_builder\\plugins\\linux_scons.pyc'
p203
F1396656910.0
sS'c:\\marmalade\\7.2\\s3e\\makefile_builder\\templates\\wp8_sln.pyc'
p204
F1396656910.0
sS'c:\\marmalade\\7.2\\s3e\\makefile_builder\\templates\\ws8_ext_sln.pyc'
p205
F1396656910.0
sS'c:\\marmalade\\7.2\\s3e\\makefile_builder\\templates\\MainWindow.xib'
p206
F1396655700.0
sS'c:\\marmalade\\7.2\\s3e\\makefile_builder\\templates\\ws81_ext_sln.pyc'
p207
F1396656910.0
sS'c:\\marmalade\\7.2\\s3e\\makefile_builder\\plugins\\Win8Emitter.pyc'
p208
F1396656910.0
sS'c:\\marmalade\\7.2\\s3e\\makefile_builder\\templates\\win8_ext_csproj.pyc'
p209
F1396656910.0
sS'c:\\marmalade\\7.2\\s3e\\makefile_builder\\templates\\rvct_linker_script'
p210
F1396655702.0
sS'c:\\marmalade\\7.2\\s3e\\makefile_builder\\templates\\win8_sln.pyc'
p211
F1396656910.0
sS'c:\\marmalade\\7.2\\s3e\\makefile_builder\\templates\\ws8_ext_csproj.pyc'
p212
F1396656910.0
sS'c:\\marmalade\\7.2\\s3e\\makefile_builder\\plugins\\s3e_make.pyc'
p213
F1396656908.0
sS'c:\\marmalade\\7.2\\s3e\\makefile_builder\\templates\\wp8_csproj_user.pyc'
p214
F1396656910.0
sS'c:\\marmalade\\7.2\\s3e\\makefile_builder\\plugins\\s3e_scons.pyc'
p215
F1396656908.0
sS'c:\\marmalade\\7.2\\s3e\\makefile_builder\\plugins\\s3e_qmake.py'
p216
F1396655700.0
sS'c:\\marmalade\\7.2\\s3e\\makefile_builder\\docs\\deprecated.options.txt'
p217
F1396655698.0
sS'c:\\marmalade\\7.2\\s3e\\makefile_builder\\plugins\\ws8_ws8.pyc'
p218
F1396656910.0
sS'c:\\marmalade\\7.2\\s3e\\makefile_builder\\templates\\ws81_sln.pyc'
p219
F1396656910.0
sS'c:\\marmalade\\7.2\\s3e\\makefile_builder\\templates\\ws81_ext_csproj.pyc'
p220
F1396656910.0
sS'c:\\marmalade\\7.2\\s3e\\makefile_builder\\templates\\wp8_vcxproj.pyc'
p221
F1396656910.0
sS'c:\\marmalade\\7.2\\s3e\\makefile_builder\\templates\\vc6_opt.pyc'
p222
F1396656910.0
sS'c:\\marmalade\\7.2\\s3e\\makefile_builder\\plugins\\deploy.pyc'
p223
F1396656908.0
sS'c:\\marmalade\\7.2\\s3e\\makefile_builder\\templates\\scons.pyc'
p224
F1396656910.0
sS'c:\\marmalade\\7.2\\s3e\\makefile_builder\\templates\\win32_vcproj.pyc'
p225
F1396656910.0
sS'c:\\marmalade\\7.2\\s3e\\makefile_builder\\templates\\win8_csproj.pyc'
p226
F1396656910.0
sS'c:\\marmalade\\7.2\\s3e\\makefile_builder\\extensions\\make_dist.py'
p227
F1396655698.0
sS'c:\\marmalade\\7.2\\s3e\\makefile_builder\\templates\\gdb_start.txt'
p228
F1396655702.0
sS'c:\\marmalade\\7.2\\s3e\\makefile_builder\\templates\\vc8_user.pyc'
p229
F1396656910.0
sS'c:\\marmalade\\7.2\\s3e\\makefile_builder\\plugins\\s3e_win8.pyc'
p230
F1396656910.0
sS'c:\\marmalade\\7.2\\s3e\\makefile_builder\\templates\\win32_sln.pyc'
p231
F1396656910.0
sS'c:\\marmalade\\7.2\\s3e\\makefile_builder\\docs\\options.txt'
p232
F1396655698.0
sS'c:\\marmalade\\7.2\\s3e\\makefile_builder\\mkb.py'
p233
F1396655698.0
sS'c:\\marmalade\\7.2\\s3e\\makefile_builder\\templates\\Info.plist'
p234
F1396655700.0
sS'c:\\marmalade\\7.2\\s3e\\makefile_builder\\docs\\parse_options.pyc'
p235
F1396656912.0
sS'c:\\marmalade\\7.2\\s3e\\makefile_builder\\templates\\ws8_csproj.pyc'
p236
F1396656910.0
sS'c:\\marmalade\\7.2\\s3e\\makefile_builder\\templates\\ws81_csproj.pyc'
p237
F1396656910.0
sS'c:\\marmalade\\7.2\\s3e\\makefile_builder\\plugins\\osx_xcode.pyc'
p238
F1396656910.0
sS'c:\\marmalade\\7.2\\s3e\\makefile_builder\\plugins\\s3e_xcode.pyc'
p239
F1397674110.1375155
sS'c:\\marmalade\\7.2\\s3e\\makefile_builder\\plugins\\xcode4_schememanagement.pyc'
p240
F1397674109.1068296
sS'c:\\marmalade\\7.2\\s3e\\makefile_builder\\templates\\xcode4.xcscheme'
p241
F1396655704.0
sS'c:\\marmalade\\7.2\\s3e\\makefile_builder\\plugins\\Emitter.pyc'
p242
F1396656908.0
sS'c:\\marmalade\\7.2\\s3e\\makefile_builder\\templates\\mips_linker_script'
p243
F1396655702.0
sS'c:\\marmalade\\7.2\\s3e\\makefile_builder\\templates\\ws8_vcxproj.pyc'
p244
F1396656910.0
sS'c:\\marmalade\\7.2\\s3e\\makefile_builder\\plugins\\win32_vc6.pyc'
p245
F1396656910.0
sS'c:\\marmalade\\7.2\\s3e\\makefile_builder\\mkb_parser.pyc'
p246
F1396656908.0
sS'c:\\marmalade\\7.2\\s3e\\makefile_builder\\templates\\ws81_csproj_user.pyc'
p247
F1396656910.0
sS'c:\\marmalade\\7.2\\s3e\\makefile_builder\\templates\\linker_script'
p248
F1396655702.0
sS'c:\\marmalade\\7.2\\s3e\\makefile_builder\\docs\\deprecated.defines.txt'
p249
F1396655698.0
sS'c:\\marmalade\\7.2\\s3e\\makefile_builder\\templates\\template.suo'
p250
F1396655702.0
sS'c:\\marmalade\\7.2\\s3e\\makefile_builder\\templates\\make.py'
p251
F1396655702.0
sS'c:\\marmalade\\7.2\\s3e\\makefile_builder\\extensions'
p252
F1397673792.7230873
sS'c:\\marmalade\\7.2\\s3e\\makefile_builder\\templates\\win32_dsp.pyc'
p253
F1396656910.0
sS'c:\\marmalade\\7.2\\s3e\\makefile_builder\\templates\\wp8_ext_csproj.pyc'
p254
F1396656910.0
sS'c:\\marmalade\\7.2\\s3e\\makefile_builder\\plugins\\MakeEmitter.pyc'
p255
F1396656908.0
sS'c:\\marmalade\\7.2\\s3e\\makefile_builder\\plugins\\XcodeEmitter.pyc'
p256
F1397674109.0167696
sS'c:\\marmalade\\7.2\\s3e\\makefile_builder\\templates\\win32_dsw.pyc'
p257
F1396656910.0
sS'c:\\marmalade\\7.2\\s3e\\makefile_builder\\docs\\mkb.defines.txt'
p258
F1396655698.0
sS'c:\\marmalade\\7.2\\s3e\\makefile_builder\\docs\\deployment_options.txt'
p259
F1396655698.0
sS'c:\\marmalade\\7.2\\s3e\\makefile_builder\\plugins\\s3e_qmake.pyc'
p260
F1397674109.7792768
sS'c:\\marmalade\\7.2\\s3e\\makefile_builder\\plugins\\ws81_ws81.pyc'
p261
F1396656910.0
sS'c:\\marmalade\\7.2\\s3e\\makefile_builder\\templates\\win32_vcxproj.pyc'
p262
F1396656910.0
sS'c:\\marmalade\\7.2\\s3e\\makefile_builder\\docs'
p263
F1397673793.1573761
sS'c:\\marmalade\\7.2\\s3e\\makefile_builder\\plugins\\XcodeEmitter.py'
p264
F1396655698.0
sS'c:\\marmalade\\7.2\\s3e\\makefile_builder\\templates\\template.opt'
p265
F1396655702.0
sS'c:\\marmalade\\7.2\\s3e\\makefile_builder\\tool_launcher.exe'
p266
F1396656088.0
sS'c:\\marmalade\\7.2\\s3e\\makefile_builder\\templates\\xcode.py'
p267
F1396655702.0
sS'c:\\marmalade\\7.2\\s3e\\makefile_builder\\plugins\\VisualStudioEmitter.pyc'
p268
F1396656908.0
sS'c:\\marmalade\\7.2\\s3e\\makefile_builder\\plugins\\osx_scons.pyc'
p269
F1396656910.0
sS'c:\\marmalade\\7.2\\s3e\\makefile_builder\\templates'
p270
F1397673792.65204
sS'c:\\marmalade\\7.2\\s3e\\makefile_builder\\templates\\ws81_vcxproj.pyc'
p271
F1396656910.0
sS'c:\\marmalade\\7.2\\s3e\\makefile_builder\\templates\\win8_vcxproj.pyc'
p272
F1396656910.0
sS'c:\\marmalade\\7.2\\s3e\\makefile_builder\\plugins\\s3e_ws8.pyc'
p273
F1396656910.0
sS'c:\\marmalade\\7.2\\s3e\\makefile_builder\\templates\\wp8_csproj.pyc'
p274
F1396656910.0
sS'c:\\marmalade\\7.2\\s3e\\makefile_builder\\templates\\vc7_suo.pyc'
p275
F1396656910.0
sS'c:\\marmalade\\7.2\\s3e\\makefile_builder\\plugins\\SConsEmitter.pyc'
p276
F1396656908.0
sS'c:\\marmalade\\7.2\\s3e\\makefile_builder\\mkb_option.pyc'
p277
F1396656908.0
sS'c:\\marmalade\\7.2\\s3e\\makefile_builder\\templates\\ws8_csproj_user.pyc'
p278
F1396656910.0
sS'c:\\marmalade\\7.2\\s3e\\makefile_builder\\mkb_main.pyc'
p279
F1396656908.0
sS'c:\\marmalade\\7.2\\s3e\\makefile_builder\\plugins'
p280
F1397674110.1315114
sS'c:\\marmalade\\7.2\\s3e\\makefile_builder\\plugins\\s3e_web.pyc'
p281
F1396656908.0
sS'c:\\marmalade\\7.2\\s3e\\makefile_builder\\plugins\\s3e_ws81.pyc'
p282
F1396656910.0
sS'c:\\marmalade\\7.2\\s3e\\makefile_builder\\mkb_globals.pyc'
p283
F1396656908.0
sS'c:\\marmalade\\7.2\\s3e\\makefile_builder\\plugins\\iphone.pyc'
p284
F1396656910.0
sS'c:\\marmalade\\7.2\\s3e\\makefile_builder\\mkb_launcher.exe'
p285
F1396656088.0
sS'c:\\marmalade\\7.2\\s3e\\makefile_builder\\plugins\\vc7_utils.pyc'
p286
F1396656908.0
sS'c:\\marmalade\\7.2\\s3e\\makefile_builder\\plugins\\s3e_wp8.pyc'
p287
F1396656910.0
sS'c:\\marmalade\\7.2\\s3e\\makefile_builder\\plugins\\vc6_utils.pyc'
p288
F1396656908.0
sS'c:\\marmalade\\7.2\\s3e\\makefile_builder\\deployment.pyc'
p289
F1396656908.0
sS'c:\\marmalade\\7.2\\s3e\\makefile_builder\\plugins\\s3e_vc6.pyc'
p290
F1396656908.0
sS'c:\\marmalade\\7.2\\s3e\\makefile_builder\\plugins\\null.pyc'
p291
F1396656908.0
sS'c:\\marmalade\\7.2\\s3e\\makefile_builder\\templates\\qmake.py'
p292
F1396655702.0
sS'c:\\marmalade\\7.2\\s3e\\makefile_builder\\templates\\xcode4_DeployTool.xcscheme'
p293
F1396655704.0
sS'c:\\marmalade\\7.2\\s3e\\makefile_builder\\templates\\win8_csproj_user.pyc'
p294
F1396656910.0
sS'c:\\marmalade\\7.2\\s3e\\makefile_builder\\plugins\\win8_utils.pyc'
p295
F1396656908.0
sS'c:\\marmalade\\7.2\\s3e\\makefile_builder\\mkb_util.pyc'
p296
F1396656908.0
sS'c:\\marmalade\\7.2\\s3e\\makefile_builder\\plugins\\wp8_wp8.pyc'
p297
F1396656910.0
sS'c:\\marmalade\\7.2\\s3e\\makefile_builder\\plugins\\s3e_xcode.py'
p298
F1396655700.0
sS'c:\\marmalade\\7.2\\s3e\\makefile_builder\\templates\\vc10_user.pyc'
p299
F1396656910.0
sS'c:\\marmalade\\7.2\\s3e\\makefile_builder\\templates\\qmake_user.py'
p300
F1396655702.0
sS'c:\\marmalade\\7.2\\s3e\\makefile_builder\\templates\\xcode_pbxuser.py'
p301
F1396655704.0
sccopy_reg
_reconstructor
p302
(cmkb_main
MkbFile
p303
c__builtin__
object
p304
Ntp305
Rp306
(dp307
g5
(lp308
sS'target_name'
p309
S'Stars'
p310
sS'current_file'
p311
g119
sS'package_path'
p312
(lp313
sS'post_build'
p314
(lp315
(lp316
S'c:/marmalade/7.2/s3e/tools'
p317
aS'C:\\Marmalade\\7.2\\s3e\\python\\python.exe .\\process_map.py "$(TargetPath)"'
p318
aa(S'c:\\marmalade\\7.2\\s3e\\bin'
p319
S'"s3e_plink" -l "$(TargetPath)" '
p320
g153
tp321
asS'librarys'
p322
(lp323
g302
(cmkb_main
Library
p324
g304
Ntp325
Rp326
(dp327
S'name'
p328
S'vc6_compat.lib'
p329
sS'expand_name'
p330
I00
sS'include_spec_rvct_objs'
p331
(lp332
sS'include_all_objs'
p333
I00
sS'share_arm'
p334
I00
sS'arch'
p335
S'x86'
p336
sS'nodebug'
p337
I00
sg35
Nsbag302
(g324
g304
Ntp338
Rp339
(dp340
g328
S'iwutil'
p341
sg330
I01
sg331
(lp342
sg333
Nsg334
Nsg335
Nsg337
I00
sg35
Nsbag302
(g324
g304
Ntp343
Rp344
(dp345
g328
S'jpeg'
p346
sg330
I01
sg331
g342
sg333
Nsg334
Nsg335
Nsg337
I00
sg35
Nsbag302
(g324
g304
Ntp347
Rp348
(dp349
g328
S'z'
p350
sg330
I01
sg331
g342
sg333
Nsg334
Nsg335
Nsg337
I00
sg35
Nsbag302
(g324
g304
Ntp351
Rp352
(dp353
g328
S'png'
p354
sg330
I01
sg331
g342
sg333
Nsg334
Nsg335
Nsg337
I00
sg35
Nsbag302
(g324
g304
Ntp355
Rp356
(dp357
g328
S'iw2d'
p358
sg330
I01
sg331
g342
sg333
Nsg334
Nsg335
Nsg337
I00
sg35
Nsbag302
(g324
g304
Ntp359
Rp360
(dp361
g328
S'ATI_Compress_MT_VC7.lib'
p362
sg330
I00
sg331
g342
sg333
Nsg334
Nsg335
S'x86'
p363
sg337
I00
sg35
Nsbag302
(g324
g304
Ntp364
Rp365
(dp366
g328
S'iwgx'
p367
sg330
I01
sg331
g342
sg333
Nsg334
Nsg335
Nsg337
I00
sg35
Nsbag302
(g324
g304
Ntp368
Rp369
(dp370
g328
S'iwgl'
p371
sg330
I01
sg331
g342
sg333
Nsg334
Nsg335
Nsg337
I00
sg35
Nsbag302
(g324
g304
Ntp372
Rp373
(dp374
g328
S'iwgeom'
p375
sg330
I01
sg331
g342
sg333
Nsg334
Nsg335
Nsg337
I00
sg35
Nsbag302
(g324
g304
Ntp376
Rp377
(dp378
g328
S'iwresmanager'
p379
sg330
I01
sg331
g342
sg333
Nsg334
Nsg335
Nsg337
I00
sg35
Nsbag302
(g324
g304
Ntp380
Rp381
(dp382
g328
S'iwgxfont'
p383
sg330
I01
sg331
g342
sg333
Nsg334
Nsg335
Nsg337
I00
sg35
Nsbag302
(g324
g304
Ntp384
Rp385
(dp386
g328
S'tiniconv'
p387
sg330
I01
sg331
g342
sg333
Nsg334
Nsg335
Nsg337
I00
sg35
Nsbag302
(g324
g304
Ntp388
Rp389
(dp390
g328
S's3e_cpp'
p391
sg330
I01
sg331
g332
sg333
I00
sg334
I00
sg335
Nsg337
I00
sg35
Nsbag302
(g324
g304
Ntp392
Rp393
(dp394
g328
S's3e'
p395
sg330
I01
sg331
(lp396
S'iwcrt.o'
p397
asg333
I00
sg334
I00
sg335
Nsg337
I00
sg35
Nsbag302
(g324
g304
Ntp398
Rp399
(dp400
g328
S's3e_api'
p401
sg330
I01
sg331
g332
sg333
I00
sg334
I00
sg335
S'x86'
p402
sg337
I01
sg35
Nsbag302
(g324
g304
Ntp403
Rp404
(dp405
g328
S's3e_api'
p406
sg330
I01
sg331
g332
sg333
I00
sg334
I00
sg335
S'!x86'
p407
sg337
I01
sg35
Nsbag302
(g324
g304
Ntp408
Rp409
(dp410
g328
S'stdc++'
p411
sg330
I00
sg331
g332
sg333
I00
sg334
I00
sg335
S'mips'
p412
sg337
I00
sg35
Nsbag302
(g324
g304
Ntp413
Rp414
(dp415
g328
S'c'
p416
sg330
I00
sg331
g332
sg333
I00
sg334
I00
sg335
S'mips'
p417
sg337
I00
sg35
Nsbag302
(g324
g304
Ntp418
Rp419
(dp420
g328
S'm'
p421
sg330
I00
sg331
g332
sg333
I00
sg334
I00
sg335
S'mips'
p422
sg337
I00
sg35
Nsbag302
(g324
g304
Ntp423
Rp424
(dp425
g328
S'gcc'
p426
sg330
I00
sg331
g332
sg333
I00
sg334
I00
sg335
S'mips'
p427
sg337
I00
sg35
Nsbag302
(g324
g304
Ntp428
Rp429
(dp430
g328
S'stdc++'
p431
sg330
I00
sg331
g332
sg333
I00
sg334
I00
sg335
S'gcc_x86_tizen'
p432
sg337
I00
sg35
Nsbag302
(g324
g304
Ntp433
Rp434
(dp435
g328
g416
sg330
I00
sg331
g332
sg333
I00
sg334
I00
sg335
S'gcc_x86_tizen'
p436
sg337
I00
sg35
Nsbag302
(g324
g304
Ntp437
Rp438
(dp439
g328
g421
sg330
I00
sg331
g332
sg333
I00
sg334
I00
sg335
S'gcc_x86_tizen'
p440
sg337
I00
sg35
Nsbag302
(g324
g304
Ntp441
Rp442
(dp443
g328
S'gcc'
p444
sg330
I00
sg331
g332
sg333
I00
sg334
I00
sg335
S'gcc_x86_tizen'
p445
sg337
I00
sg35
Nsbag302
(g324
g304
Ntp446
Rp447
(dp448
g328
S'gcc_eh'
p449
sg330
I00
sg331
g332
sg333
I00
sg334
I00
sg335
S'gcc_x86_tizen'
p450
sg337
I00
sg35
Nsbag302
(g324
g304
Ntp451
Rp452
(dp453
g328
S'stdc++'
p454
sg330
I00
sg331
g332
sg333
I00
sg334
I00
sg335
S'gcc_x86_android'
p455
sg337
I00
sg35
Nsbag302
(g324
g304
Ntp456
Rp457
(dp458
g328
g416
sg330
I00
sg331
g332
sg333
I00
sg334
I00
sg335
S'gcc_x86_android'
p459
sg337
I00
sg35
Nsbag302
(g324
g304
Ntp460
Rp461
(dp462
g328
g421
sg330
I00
sg331
g332
sg333
I00
sg334
I00
sg335
S'gcc_x86_android'
p463
sg337
I00
sg35
Nsbag302
(g324
g304
Ntp464
Rp465
(dp466
g328
S'gcc'
p467
sg330
I00
sg331
g332
sg333
I00
sg334
I00
sg335
S'gcc_x86_android'
p468
sg337
I00
sg35
NsbasS'library_paths'
p469
(lp470
g302
(cmkb_main
LibraryPath
p471
g304
Ntp472
Rp473
(dp474
S'expand_path'
p475
I01
sS'add_cpu_variant'
p476
I00
sg328
S'c:/marmalade/7.2/modules/iwutil'
p477
sbag302
(g471
g304
Ntp478
Rp479
(dp480
g475
I01
sg476
I00
sg328
S'c:/marmalade/7.2/modules/third_party/libjpeg'
p481
sbag302
(g471
g304
Ntp482
Rp483
(dp484
g475
I01
sg476
I00
sg328
S'c:/marmalade/7.2/modules/third_party/zlib'
p485
sbag302
(g471
g304
Ntp486
Rp487
(dp488
g475
I01
sg476
I00
sg328
S'c:/marmalade/7.2/modules/third_party/libpng'
p489
sbag302
(g471
g304
Ntp490
Rp491
(dp492
g475
I01
sg476
I00
sg328
S'c:/marmalade/7.2/modules/iw2d'
p493
sbag302
(g471
g304
Ntp494
Rp495
(dp496
g475
I00
sg476
I00
sg328
S'c:/marmalade/7.2/modules/iwgx/atitools'
p497
sbag302
(g471
g304
Ntp498
Rp499
(dp500
g475
I01
sg476
I00
sg328
S'c:/marmalade/7.2/modules/iwgx'
p501
sbag302
(g471
g304
Ntp502
Rp503
(dp504
g475
I01
sg476
I00
sg328
S'c:/marmalade/7.2/modules/iwgl'
p505
sbag302
(g471
g304
Ntp506
Rp507
(dp508
g475
I01
sg476
I00
sg328
S'c:/marmalade/7.2/modules/iwgeom'
p509
sbag302
(g471
g304
Ntp510
Rp511
(dp512
g475
I01
sg476
I00
sg328
S'c:/marmalade/7.2/modules/iwresmanager'
p513
sbag302
(g471
g304
Ntp514
Rp515
(dp516
g475
I01
sg476
I00
sg328
S'c:/marmalade/7.2/modules/iwgxfont'
p517
sbag302
(g471
g304
Ntp518
Rp519
(dp520
g475
I01
sg476
I00
sg328
S'c:/marmalade/7.2/modules/third_party/tiniconv'
p521
sbag302
(g471
g304
Ntp522
Rp523
(dp524
g475
I01
sg476
I00
sg328
S'c:/marmalade/7.2/s3e'
p525
sbasS'macros'
p526
(dp527
S'IW_TRACE_CHANNEL_WEBVIEW_VERBOSE'
p528
S'2'
p529
sS'IW_MKF_S3EFACEBOOK'
p530
NsS'I3D_PLATFORM_S3E'
p531
NsS'IW_TRACE_CHANNEL_FLURRY'
p532
S'1'
p533
sS'IW_USE_CALLSTACK'
p534
NsS'__S3E__'
p535
NsS'IW_TRACE_CHANNEL_WEBVIEW'
p536
g533
sS'IW_MKF_LIBJPEG'
p537
NsS'I3D_OS_S3E'
p538
NsS'IW_ASSERTION_CHANNEL_FLURRY'
p539
g533
sS'IW_MKF_TINICONV'
p540
NsS'IW_APP_VERSION'
p541
S'"1.0"'
p542
sS'IW_MKF_IWRESMANAGER'
p543
NsS'IW_MKF_IWUTIL'
p544
NsS'IW_PLATFORM_S3E'
p545
NsS'IW_ASSERTION_CHANNEL_2D'
p546
g533
sS'IW_APP_NAME'
p547
S'"Stars"'
p548
sS'IW_MKF_IWGXFONT'
p549
NsS'IW_MKF_IWTWEEN'
p550
NsS'IW_MKF_S3EFLURRY'
p551
NsS'IW_MKF_ZLIB'
p552
NsS'IW_MKF_IWGX'
p553
NsS'IW_MKF_IW2DSCENEGRAPH'
p554
NsS'IW_MKF_SOUNDENGINE'
p555
NsS'IW_ASSERTION_CHANNEL_WEBVIEW'
p556
g533
sS'IW_USE_ASSERTIONS'
p557
NsS'_CRT_SECURE_NO_DEPRECATE'
p558
NsS'IW_MKF_IWGL'
p559
NsS'IW_MKF_LIBPNG'
p560
NsS'IW_MKF_S3EWEBVIEW'
p561
NsS'IW_TRACE_CHANNEL_IW_2DSCENEGRAPH'
p562
g533
sS'IW_ASSERTION_CHANNEL_FACEBOOK'
p563
g533
sS'IW_TRACE_CHANNEL_FACEBOOK_VERBOSE'
p564
g529
sS'IW_DEBUG'
p565
NsS'IW_USE_TRACING'
p566
NsS'IW_ASSERTION_CHANNEL_IW_2DSCENEGRAPH'
p567
g533
sS'IW_SDK'
p568
NsS'S3E_INCLUDE_LEGACY'
p569
NsS'IW_MKF_IW2DSCENEGRAPHCORE'
p570
NsS'IW_TRACE_CHANNEL_FACEBOOK'
p571
g533
sS'IW_TRACE_CHANNEL_FLURRY_VERBOSE'
p572
g529
sS'IW_MKF_IW2D'
p573
NsS'IW_MKF_IWGEOM'
p574
NssS'done_warnings'
p575
(dp576
sS'subprojects'
p577
(dp578
g183
S'iwgxfont'
p579
sg177
S's3eFacebook'
p580
sg172
S's3eWebView'
p581
sg173
S'iwutil'
p582
sg179
S'iwgx'
p583
sg186
S'../iw2dscenegraphcore'
p584
sg174
S'libjpeg'
p585
sg175
S'libpng'
p586
sg180
S'iwgl'
p587
sg187
S'iwtween'
p588
sg185
S'iw2dscenegraph'
p589
sg178
S'iw2d'
p590
sg181
S'iwgeom'
p591
sg184
S'tiniconv'
p592
sg176
S'zlib'
p593
sg188
S'SoundEngine'
p594
sg182
S'iwresmanager'
p595
sg189
S's3eFlurry'
p596
ssS'deployments'
p597
(dp598
S'Default'
p599
g302
(cdeployment
Deployment
p600
g304
Ntp601
Rp602
(dp603
S'got_version'
p604
I0
sS'assets'
p605
g599
sS'mkb'
p606
g306
sS'target'
p607
Nsg335
(lp608
sS'options'
p609
(dp610
S'iphone-link-lib'
p611
(lp612
S's3eWebView'
p613
aS's3eFacebook'
p614
aS'FlurryAnalytics'
p615
aS's3eFlurry'
p616
asS'game-icf'
p617
NsS'winmobile-icon32'
p618
NsS'ws8-logo-image150x150'
p619
NsS'ws81-product-version'
p620
NsS'osx-ext-dll'
p621
(lp622
S'c:/marmalade/7.2/extensions/s3ewebview/lib/osx/libs3eWebView.dylib'
p623
aS'c:/marmalade/7.2/extensions/s3eflurry/lib/osx/libs3eFlurry.dylib'
p624
asS'iphone-provisioning-profile'
p625
NsS'ws8-splash-screen-image620x300'
p626
NsS'ws8-ext-capabilities'
p627
(lp628
sS'android-icon-hdpi'
p629
NsS'brew-icon-large'
p630
NsS'iphone-splash-full-orient'
p631
NsS'wp8-tile-fliptemplate-supports-large'
p632
NsS'iphone-show-status-bar'
p633
NsS'roku-requires-mkv'
p634
NsS'long-caption'
p635
NsS'android-pkgname'
p636
NsS'blackberry-permissions-read-device-identifying-information'
p637
NsS'ws81-certificate-end-date'
p638
NsS'psp-dlgcontentid'
p639
NsS'target-folder'
p640
NsS'tizen-dist1-CA-path'
p641
NsS'symbian-icon2-format'
p642
NsS'iphone-region'
p643
NsS'uiq3-icon3-mask'
p644
NsS'brew-encoding'
p645
NsS'android-x86'
p646
NsS'nds-initialcode'
p647
NsS'iphone-persistent-wifi'
p648
NsS'psp-snd0'
p649
NsS'osx-signing-identity-inst'
p650
NsS'winmobile-install-folder'
p651
NsS'android-external-res'
p652
(lp653
S'c:/marmalade/7.2/extensions/s3efacebook/facebook-android-sdk/facebook/res'
p654
asS'ws8-product-version'
p655
NsS'brew-priviledges'
p656
NsS'symbian-icon2-mask-black'
p657
NsS'iphone-icon-ipad'
p658
NsS'roku-hidden'
p659
NsS'psp-titlename'
p660
NsS'symbian-icon1-mask'
p661
NsS'psp-parentallevel'
p662
NsS'splashscreen-use-all'
p663
NsS'wp8-author'
p664
NsS'symbian-disable-ecompxl'
p665
NsS'splashscreen-auto-onblack'
p666
NsS'win32-ext-dll'
p667
(lp668
S'c:/marmalade/7.2/extensions/s3ewebview/lib/win32/s3eWebView.dll'
p669
aS'c:/marmalade/7.2/extensions/s3eflurry/lib/win32/s3eFlurry.dll'
p670
asS'iphone-development-key'
p671
NsS'winmobile-icon48'
p672
NsS'android-unsigned'
p673
NsS'osx-appstore-category'
p674
NsS'version-revision'
p675
NsS'roku-icon-focus-sd'
p676
NsS'android-keystore'
p677
NsS'winmobile-png90'
p678
NsS'iphone-icon-ipad-high-res'
p679
NsS'iphone-disable-ipad'
p680
NsS'wp8-product-id'
p681
NsS'wp8-ext-capabilities'
p682
(lp683
sS'iphone-ipad-only'
p684
NsS'symbian-icon1-mask-black'
p685
NsS'iphone-bundle-localisations'
p686
NsS'winmobile-png60'
p687
NsS'blackberry-permissions-access-shared'
p688
NsS'blackberry-author'
p689
NsS'android-icon-xxxhdpi'
p690
NsS'olddeploytoolstyle'
p691
NsS'android_icon_gallery'
p692
NsS'winmobile-cab-compress'
p693
NsS'ws81-ext-managed-dll'
p694
(lp695
sS'win32-icon'
p696
NsS'symbian-key'
p697
NsS'app-icf'
p698
NsS'blackberry-storepass'
p699
NsS'wp8-tile-fliptemplate-back-title'
p700
NsS'brew-compress-loader'
p701
NsS'win32-pref-windowposy'
p702
NsS'win32-pref-windowposx'
p703
NsS'roku-requires-audiometadata'
p704
NsS'wp8-exclude-low-mem'
p705
NsS'wp8-tile-fliptemplate-title'
p706
NsS'iphone-icon-ipad-search-high-res'
p707
NsS'iphone-link-libdir'
p708
(lp709
S'c:/marmalade/7.2/extensions/s3ewebview/lib/iphone'
p710
aS'c:/marmalade/7.2/extensions/s3efacebook/lib/iphone'
p711
aS'c:/marmalade/7.2/extensions/s3eflurry/lib/iphone'
p712
asS'blackberry-permissions-read-geolocation'
p713
NsS'winmobile-nouninstall'
p714
NsS'tizen-signed'
p715
NsS'android-extra-application-manifest'
p716
(lp717
S'c:/marmalade/7.2/extensions/s3efacebook/source/android/extra_app_manifest.xml'
p718
asS'ws8-ext-native-dll'
p719
(lp720
sS'symbian-icon2-mask'
p721
NsS'iphone-backgroundmode-audio'
p722
NsS'webos-memory'
p723
NsS'android-keypass'
p724
NsS'name'
p725
NsS'uiq3-icon2-format'
p726
NsS'roku-splash-screen-sd'
p727
NsS'auto-derbh'
p728
NsS'roku-icon-side-sd'
p729
NsS'symbian-maxheapsize'
p730
NsS'nds-publicsavedatasize'
p731
NsS'splashscreen'
p732
NsS'brew-mif'
p733
NsS'iphone-icon-settings-high-res'
p734
NsS'android-manifest'
p735
NsS'ws81-splash-screen-image620x300'
p736
NsS's3e-compression'
p737
NsS'tizen-author-password'
p738
NsS'wp8-tile-fliptemplate-back-content'
p739
NsS'symbian-icon1'
p740
NsS'symbian-icon2'
p741
NsS'android-extra-styles-file'
p742
NsS'nds-bannertitle-jp'
p743
NsS'osx-sign-for-store'
p744
NsS'symbian7-uid'
p745
NsS'wp8-tile-fliptemplate-large-back-content'
p746
NsS'nds-bannertitle-cn'
p747
NsS'iphone-distribution-key'
p748
NsS'android-icon-gallery'
p749
NsS'blackberry-keystore'
p750
NsS'iphone-nosign'
p751
NsS'caption'
p752
NsS'android-extra-manifest'
p753
(lp754
sS'android-icon-xxhdpi'
p755
NsS'version-minor'
p756
NsS'iphone-link-libdirs'
p757
(lp758
sS'iphone-icon-large'
p759
NsS'symbian-keypwd'
p760
NsS'symbian8-uid'
p761
NsS'symbian-cert-key'
p762
NsS'winmobile-ampd-part-number'
p763
NsS'arch'
p764
NsS'nds-romheadertemplate'
p765
NsS'webos-icon'
p766
NsS'psp-dlgprotectdocument'
p767
NsS'android-icon-mdpi'
p768
NsS'nds-icon'
p769
NsS'ws8-custom-manifest-fill'
p770
NsS'iphone-development-cert'
p771
NsS'blackberry-phone-icon'
p772
NsS'iphone-enable-4inch-retina'
p773
NsS'ws8-custom-manifest'
p774
NsS'version-major'
p775
NsS'wp8-genre-isgame'
p776
NsS'uiq3-uid'
p777
NsS'iphone-splash-retina-generate'
p778
NsS'tizen-hw-acceleration'
p779
NsS'iphone_bundle_localisations'
p780
NsS'tizen-dist1-key'
p781
NsS'wp8-custom-manifest'
p782
NsS'nds-bannertitle-ge'
p783
NsS'iphone-sign-for-distribution'
p784
NsS'wp8-tile-fliptemplate-medium-back-image'
p785
NsS'wp8-publisher-id'
p786
NsS'icon'
p787
NsS'wp8-exclude-wxga'
p788
NsS'uiq3-icon2-mask'
p789
NsS'iphone-splashscreen-portrait'
p790
NsS'iphone-icon-high-res'
p791
NsS'ws81-distribution-pfx-password'
p792
NsS'playbook-author'
p793
NsS'android-icon-xhdpi'
p794
NsS'linux-ext-lib'
p795
(lp796
sS'blackberry-permissions-access-internet'
p797
NsS'wp8-exclude-720p'
p798
NsS'lgtv-use-drm'
p799
NsS'symbian-platsecflags'
p800
NsS'ws8-description'
p801
NsS'blackberry-playbook-icon'
p802
NsS'copyright'
p803
NsS'version'
p804
NsS'ws81-logo-image150x150'
p805
NsS'osx-signing-identity-app'
p806
NsS'tizen-project-url'
p807
NsS'symbian-icon-svg'
p808
NsS'android-aliasname'
p809
NsS'psp-dlgmanual'
p810
NsS'brew-uid'
p811
NsS'symbian-locationsupport'
p812
NsS'ws8-ext-managed-dll'
p813
(lp814
sS'nds-bannertitle-it'
p815
NsS'ws8-ext-sdk-manifest-part'
p816
(lp817
sS'uiq3-icon1-mask'
p818
NsS'winmobile-icon16'
p819
NsS'ws8-product-name'
p820
NsS'blackberry-cskpass'
p821
NsS'winmobile-start-menu-folder'
p822
NsS'brew-clsid'
p823
NsS'roku-requires-bluetooth'
p824
NsS'ws8-ext-device-capabilities'
p825
(lp826
sS'blackberry-permissions-use-camera'
p827
NsS'iphone-prerendered-icon'
p828
NsS'iphone-appid'
p829
S'com.yesornogames.countingstarts'
p830
sS'ws8-identity-name'
p831
NsS'tizen-dist2-CA-path'
p832
NsS'winmobile-icon64'
p833
NsS'blackberry-permissions-post-notification'
p834
NsS'winmobile-setup-dll'
p835
NsS'android-external-jars'
p836
(lp837
S'c:/marmalade/7.2/extensions/s3ewebview/lib/android/s3eWebView.jar'
p838
aS'c:/marmalade/7.2/extensions/s3efacebook/lib/android/s3eFacebook.jar'
p839
aS'c:/marmalade/7.2/extensions/s3efacebook/facebook-android-sdk/libs/android-support-v4.jar'
p840
aS'c:/marmalade/7.2/extensions/s3efacebook/lib/android/annotations-4.1.1.4.jar'
p841
aS'c:/marmalade/7.2/extensions/s3eflurry/lib/android/s3eFlurry.jar'
p842
aS'c:/marmalade/7.2/extensions/s3eflurry/lib/android/FlurryAgent.jar'
p843
asS'symbian9-uid'
p844
NsS'iphone-icon-ipad-ios7'
p845
NsS'winmobile-trace-file'
p846
NsS'roku-splash-color'
p847
NsS'psp-appversion'
p848
NsS'ws8-publisher-id'
p849
NsS'android-supports-gl-texture'
p850
(lp851
sS'winmobile-png45'
p852
NsS'android-storepass'
p853
NsS'roku-icon-focus-hd'
p854
NsS'android-custom-activity'
p855
NsS'psp-discversion'
p856
NsS'psp-copyright'
p857
NsS'embed-icf'
p858
NsS'tizen-manifest'
p859
NsS'osx-icon'
p860
NsS'webos-appinfo'
p861
NsS'psp-dlghealthwarning'
p862
NsS'webos-appid'
p863
NsS'roku-icon-side-hd'
p864
NsS'iphone-icon-ipad-search-high-res-ios7'
p865
NsS'ws81-ext-sdk-manifest-part'
p866
(lp867
sS'loader_name_prefix'
p868
NsS'nds-titlename'
p869
NsS'ws81-logo-image50x50'
p870
NsS'osx-entitlements-plist'
p871
NsS'psp-dlgicon0'
p872
NsS'ws81-ext-device-capabilities'
p873
(lp874
sS'psp-discid'
p875
NsS'tizen-dist2-password'
p876
NsS'ws8-ext-sdk-ref'
p877
(lp878
sS'iphone-extra-string'
p879
(lp880
sS'version-string'
p881
NsS'iphone-icon-high-res-ios7'
p882
NsS'blackberry-permissions-record-audio'
p883
NsS'ws8-certificate-end-date'
p884
NsS'tizen-so'
p885
(lp886
sS'wp8-tile-fliptemplate-small-image'
p887
NsS'pkguid-as-uid'
p888
NsS'iphone-signing-identity'
p889
NsS'roku-persist-quota'
p890
NsS'nds-bannertitle-fr'
p891
NsS'ws8-distribution-pfx'
p892
NsS'ws8-publisher-display-name'
p893
NsS'brew-icon-small'
p894
NsS'psp-dlgpic2'
p895
NsS'psp-dlgpic0'
p896
NsS'psp-pic0'
p897
NsS'psp-pic1'
p898
NsS'psp-icon0'
p899
NsS'psp-icon1'
p900
NsS'ws81-identity-name'
p901
NsS'winmobile-icon'
p902
NsS'iphone-no-splash'
p903
NsS'iphone-splash'
p904
NsS'iphone-app-fonts'
p905
NsS'wp8-ext-native-dll'
p906
(lp907
S'c:/marmalade/7.2/extensions/s3ewebview/lib/wp8/s3eWebViewExtension.dll'
p908
aS'c:/marmalade/7.2/extensions/s3efacebook/lib/wp8/s3eFacebookExtension.dll'
p909
aS'c:/marmalade/7.2/extensions/s3eflurry/lib/wp8/s3eFlurryExtension.dll'
p910
asS'ws81-distribution-cer'
p911
NsS'uiq3-icon2'
p912
NsS'uiq3-icon3'
p913
NsS'uiq3-icon1'
p914
NsS'uiq3-icon1-format'
p915
NsS'ws8-logo-image50x50'
p916
NsS'iphone-icon-ipad-search'
p917
NsS'symbian-run-on-install'
p918
NsS'ws81-publisher-display-name'
p919
NsS'ws81-custom-manifest-fill'
p920
NsS'symbian-soundrecordsupport'
p921
NsS'nds-bannertitle-sp'
p922
NsS'psp-producer'
p923
NsS'iphone-apple-wwdr-cert'
p924
NsS'android-icon-nonstandard'
p925
NsS'win32-pref-processtitle'
p926
NsS'nds-bannertitle-hn'
p927
NsS'tizen-dist2-key'
p928
NsS'brew-depends'
p929
NsS'ws81-custom-manifest'
p930
NsS'iphone-icon-ipad-search-ios7'
p931
NsS'brew-icon-medium'
p932
NsS'iphone-bundle-url-name'
p933
S'com.yesornogames.countingstarts'
p934
sS'wp8-tile-fliptemplate-large-front-image'
p935
NsS'tizen-dist2-CA-root-path'
p936
NsS'ws81-description'
p937
NsS'uiq3-icon3-format'
p938
NsS'ws81-logo-image30x30'
p939
NsS'iphone-signing-host'
p940
NsS'tizen-icon'
p941
NsS'osx-info-plist'
p942
NsS'symbian-icon1-format'
p943
NsS'ws81-distribution-pfx'
p944
NsS'blackberry-authorid'
p945
NsS'ws81-publisher-id'
p946
NsS'ws81-ext-sdk-ref'
p947
(lp948
sS'wp8-description'
p949
NsS'iphone-link-opts'
p950
(lp951
S'-F$MARMALADE_ROOT/extensions/s3eFacebook/source/iphone/facebook-ios-sdk -framework FacebookSDK -weak_framework AdSupport -weak_framework Accounts -weak_framework Social -lsqlite3'
p952
aS'-framework SystemConfiguration -framework Security'
p953
asS'roku-splash-min-time'
p954
NsS'wp8-tile-fliptemplate-medium-front-image'
p955
NsS'provider'
p956
NsS'playbook-keystore'
p957
NsS'tizen-appid'
p958
NsS'tizen-author-key'
p959
NsS'symbian-osexecsupport'
p960
NsS'android-install-location'
p961
NsS'nds-privatesavedatasize'
p962
NsS'playbook-storepass'
p963
NsS'android-icon-ldpi'
p964
NsS'manufacturer'
p965
NsS'itunes-artwork'
p966
NsS'iphone-extra-sections'
p967
NsS'ws81-product-name'
p968
NsS'ws81-ext-native-dll'
p969
(lp970
sS'iphone-info-plist'
p971
NsS'ws8-distribution-pfx-password'
p972
NsS'ws8-logo-image30x30'
p973
NsS'wp8-ext-managed-dll'
p974
(lp975
S'c:/marmalade/7.2/extensions/s3ewebview/lib/wp8/s3eWebViewManaged.dll'
p976
aS'c:/marmalade/7.2/extensions/s3efacebook/lib/wp8/s3eFacebookManaged.dll'
p977
aS'c:/marmalade/7.2/extensions/s3efacebook/facebook_wp8_lib/Facebook.Client.dll'
p978
aS'c:/marmalade/7.2/extensions/s3efacebook/facebook_wp8_lib/Facebook.dll'
p979
aS'c:/marmalade/7.2/extensions/s3eflurry/lib/wp8/FlurryWP8SDK.dll'
p980
aS'c:/marmalade/7.2/extensions/s3eflurry/lib/wp8/s3eFlurryManaged.dll'
p981
asS'iphone-splashscreen-landscape'
p982
NsS'nds-makercode'
p983
NsS'priv-sign-key'
p984
NsS'networking'
p985
NsS'android-icon'
p986
NsS'iphone-icon-settings'
p987
NsS'iphone-distribution-cert'
p988
NsS'android_extra_strings'
p989
NsS'nds-bannertitle-en'
p990
NsS'playbook-cskpass'
p991
NsS'android-so'
p992
(lp993
S'c:/marmalade/7.2/extensions/s3ewebview/lib/android/libs3eWebView.so'
p994
aS'c:/marmalade/7.2/extensions/s3efacebook/lib/android/libs3eFacebook.so'
p995
aS'c:/marmalade/7.2/extensions/s3eflurry/lib/android/libs3eFlurry.so'
p996
asS'wp8-higher-mem'
p997
NsS'roku-splash-screen-hd'
p998
NsS'iphone-bundle-url-schemes'
p999
S'fd<FACEBOOK_APP_ID>'
p1000
sS'roku-screensaver-private'
p1001
NsS'osx-extra-res'
p1002
(lp1003
sS'playbook-icon'
p1004
NsS'uid'
p1005
NsS'playbook-authorid'
p1006
NsS'win32-pref-windowtitle'
p1007
NsS'tizen-dist1-password'
p1008
NsS'roku-screensaver-title'
p1009
NsS'osx-minimum-osx-version'
p1010
NsS'symbian-cert'
p1011
NsS'iphone-icon'
p1012
NsS'ws81-ext-capabilities'
p1013
(lp1014
sS'ws8-distribution-cer'
p1015
NsS'playbook-access-shared'
p1016
NsS'iphone-icon-ipad-high-res-ios7'
p1017
NsS'iphone-link-libs'
p1018
(lp1019
sS'wp8-exclude-wvga'
p1020
NsS'assets'
p1021
NsS'wp8-tile-fliptemplate-large-back-image'
p1022
NsS'wp8-custom-manifest-fill'
p1023
NsS'pub-sign-key'
p1024
NsS'android-extra-strings'
p1025
NsS'tizen-author-CA-path'
p1026
Nssg328
g599
sbssS'platform'
p1027
S'S3E'
p1028
sg62
S'1.0'
p1029
sS'arcade_platform'
p1030
g4
sS'extensions'
p1031
(dp1032
sS'source_groups_tree'
p1033
(dp1034
S'(libpng)'
p1035
(dp1036
S'h'
p1037
(dp1038
S'c:/marmalade/7.2/modules/third_party/libpng/h/png.h'
p1039
(lp1040
I1
a(dp1041
asS'c:/marmalade/7.2/modules/third_party/libpng/h/pngconf.h'
p1042
(lp1043
I1
ag1041
assS'c:/marmalade/7.2/modules/third_party/libpng/libpng.mkf'
p1044
(lp1045
I1
a(dp1046
assS'(libjpeg)'
p1047
(dp1048
g1037
(dp1049
S'c:/marmalade/7.2/modules/third_party/libjpeg/h/jinclude.h'
p1050
(lp1051
I1
a(dp1052
asS'c:/marmalade/7.2/modules/third_party/libjpeg/h/jconfig.h'
p1053
(lp1054
I1
ag1052
asS'c:/marmalade/7.2/modules/third_party/libjpeg/h/cdjpeg.h'
p1055
(lp1056
I1
ag1052
asS'c:/marmalade/7.2/modules/third_party/libjpeg/h/jpegint.h'
p1057
(lp1058
I1
ag1052
asS'c:/marmalade/7.2/modules/third_party/libjpeg/h/transupp.h'
p1059
(lp1060
I1
ag1052
asS'c:/marmalade/7.2/modules/third_party/libjpeg/h/jpeglib.h'
p1061
(lp1062
I1
ag1052
asS'c:/marmalade/7.2/modules/third_party/libjpeg/h/jversion.h'
p1063
(lp1064
I1
ag1052
asS'c:/marmalade/7.2/modules/third_party/libjpeg/h/jdct.h'
p1065
(lp1066
I1
ag1052
asS'c:/marmalade/7.2/modules/third_party/libjpeg/h/jdhuff.h'
p1067
(lp1068
I1
ag1052
asS'c:/marmalade/7.2/modules/third_party/libjpeg/h/jmemsys.h'
p1069
(lp1070
I1
ag1052
asS'c:/marmalade/7.2/modules/third_party/libjpeg/h/jmorecfg.h'
p1071
(lp1072
I1
ag1052
asS'c:/marmalade/7.2/modules/third_party/libjpeg/h/jerror.h'
p1073
(lp1074
I1
ag1052
asS'c:/marmalade/7.2/modules/third_party/libjpeg/h/jchuff.h'
p1075
(lp1076
I1
ag1052
asS'c:/marmalade/7.2/modules/third_party/libjpeg/h/cderror.h'
p1077
(lp1078
I1
ag1052
assS'c:/marmalade/7.2/modules/third_party/libjpeg/libjpeg.mkf'
p1079
(lp1080
I1
a(dp1081
assS'(tiniconv)'
p1082
(dp1083
S'c:/marmalade/7.2/modules/third_party/tiniconv/source/tiniconv.h'
p1084
(lp1085
I1
a(dp1086
asS'c:/marmalade/7.2/modules/third_party/tiniconv/source/tiniconv_int.h'
p1087
(lp1088
I1
ag1086
asS'c:/marmalade/7.2/modules/third_party/tiniconv/tiniconv.mkf'
p1089
(lp1090
I1
a(dp1091
assS'(SoundEngine)'
p1092
(dp1093
S'c:/users/vinicius/desktop/yes or no/stars/modules/soundengine/source/IwSoundManager.cpp'
p1094
(lp1095
I1
a(dp1096
asS'c:/users/vinicius/desktop/yes or no/stars/modules/soundengine/soundengine.mkf'
p1097
(lp1098
I1
a(dp1099
asS'c:/users/vinicius/desktop/yes or no/stars/modules/soundengine/source/IwSoundInst.cpp'
p1100
(lp1101
I1
ag1096
asS'c:/users/vinicius/desktop/yes or no/stars/modules/soundengine/source/IwSoundADPCM.cpp'
p1102
(lp1103
I1
ag1096
asS'c:/users/vinicius/desktop/yes or no/stars/modules/soundengine/h/IwSoundManager.h'
p1104
(lp1105
I1
ag1096
asS'c:/users/vinicius/desktop/yes or no/stars/modules/soundengine/source/IwSoundParams.cpp'
p1106
(lp1107
I1
ag1096
asS'c:/users/vinicius/desktop/yes or no/stars/modules/soundengine/source/IwSoundData.cpp'
p1108
(lp1109
I1
ag1096
asS'Docs'
p1110
(dp1111
S'c:/users/vinicius/desktop/yes or no/stars/modules/soundengine/docs/iwsound.config.txt'
p1112
(lp1113
I1
ag1096
assS'c:/users/vinicius/desktop/yes or no/stars/modules/soundengine/source/IwResHandlerWAV.cpp'
p1114
(lp1115
I1
ag1096
asS'c:/users/vinicius/desktop/yes or no/stars/modules/soundengine/h/IwSoundInst.h'
p1116
(lp1117
I1
ag1096
asS'c:/users/vinicius/desktop/yes or no/stars/modules/soundengine/h/IwSoundADPCM.h'
p1118
(lp1119
I1
ag1096
asS'c:/users/vinicius/desktop/yes or no/stars/modules/soundengine/source/IwSoundWAV.cpp'
p1120
(lp1121
I1
ag1096
asS'c:/users/vinicius/desktop/yes or no/stars/modules/soundengine/source/IwSoundGroup.cpp'
p1122
(lp1123
I1
ag1096
asS'c:/users/vinicius/desktop/yes or no/stars/modules/soundengine/h/IwSound.h'
p1124
(lp1125
I1
ag1096
asS'c:/users/vinicius/desktop/yes or no/stars/modules/soundengine/h/IwSoundWAV.h'
p1126
(lp1127
I1
ag1096
asS'c:/users/vinicius/desktop/yes or no/stars/modules/soundengine/source/IwSoundPCM.cpp'
p1128
(lp1129
I1
ag1096
asS'c:/users/vinicius/desktop/yes or no/stars/modules/soundengine/h/IwSoundSpec.h'
p1130
(lp1131
I1
ag1096
asS'c:/users/vinicius/desktop/yes or no/stars/modules/soundengine/h/IwSoundPCM.h'
p1132
(lp1133
I1
ag1096
asS'c:/users/vinicius/desktop/yes or no/stars/modules/soundengine/h/IwSoundGroup.h'
p1134
(lp1135
I1
ag1096
asS'c:/users/vinicius/desktop/yes or no/stars/modules/soundengine/h/IwResHandlerWAV.h'
p1136
(lp1137
I1
ag1096
asS'c:/users/vinicius/desktop/yes or no/stars/modules/soundengine/h/IwSoundParams.h'
p1138
(lp1139
I1
ag1096
asS'c:/users/vinicius/desktop/yes or no/stars/modules/soundengine/h/IwSoundData.h'
p1140
(lp1141
I1
ag1096
asS'c:/users/vinicius/desktop/yes or no/stars/modules/soundengine/source/IwSoundSpec.cpp'
p1142
(lp1143
I1
ag1096
assS'Extensions'
p1144
(dp1145
S's3eWebView'
p1146
(dp1147
S'interface'
p1148
(dp1149
S'c:/marmalade/7.2/extensions/s3ewebview/interface/s3eWebView.defines.txt'
p1150
(lp1151
I1
a(dp1152
asS'c:/marmalade/7.2/extensions/s3ewebview/interface/s3eWebView_interface.cpp'
p1153
(lp1154
I1
ag1152
assS'c:/marmalade/7.2/extensions/s3ewebview/h/s3eWebView.h'
p1155
(lp1156
I1
ag1152
asS'c:/marmalade/7.2/extensions/s3ewebview/s3ewebview.mkf'
p1157
(lp1158
I1
a(dp1159
assS's3eFacebook'
p1160
(dp1161
S'interface'
p1162
(dp1163
S'c:/marmalade/7.2/extensions/s3efacebook/interface/s3eFacebook_interface.cpp'
p1164
(lp1165
I1
a(dp1166
asS'c:/marmalade/7.2/extensions/s3efacebook/interface/s3eFacebook.defines.txt'
p1167
(lp1168
I1
ag1166
assg1037
(dp1169
S'c:/marmalade/7.2/extensions/s3efacebook/h/s3eFacebook.h'
p1170
(lp1171
I1
ag1166
assS'c:/marmalade/7.2/extensions/s3efacebook/s3efacebook.mkf'
p1172
(lp1173
I1
a(dp1174
assS's3eFlurry'
p1175
(dp1176
S'interface'
p1177
(dp1178
S'c:/marmalade/7.2/extensions/s3eflurry/interface/s3eFlurry_interface.cpp'
p1179
(lp1180
I1
a(dp1181
asS'c:/marmalade/7.2/extensions/s3eflurry/interface/s3eFlurry.defines.txt'
p1182
(lp1183
I1
ag1181
assS'c:/marmalade/7.2/extensions/s3eflurry/h/s3eFlurry.h'
p1184
(lp1185
I1
ag1181
asS'c:/marmalade/7.2/extensions/s3eflurry/s3eflurry.mkf'
p1186
(lp1187
I1
a(dp1188
asssS'stars'
p1189
(dp1190
S'entities'
p1191
(dp1192
S'c:/Users/Vinicius/Desktop/Yes or No/Stars/source/gameObject.cpp'
p1193
(lp1194
I1
a(dp1195
asS'c:/Users/Vinicius/Desktop/Yes or No/Stars/source/gameObject.h'
p1196
(lp1197
I1
ag1195
asS'c:/Users/Vinicius/Desktop/Yes or No/Stars/source/vortex.cpp'
p1198
(lp1199
I1
ag1195
asS'c:/Users/Vinicius/Desktop/Yes or No/Stars/source/player.cpp'
p1200
(lp1201
I1
ag1195
asS'c:/Users/Vinicius/Desktop/Yes or No/Stars/source/player.h'
p1202
(lp1203
I1
ag1195
asS'c:/Users/Vinicius/Desktop/Yes or No/Stars/source/vortex.h'
p1204
(lp1205
I1
ag1195
assS'utils'
p1206
(dp1207
S'c:/Users/Vinicius/Desktop/Yes or No/Stars/source/easyArray.h'
p1208
(lp1209
I1
ag1195
asS'c:/Users/Vinicius/Desktop/Yes or No/Stars/source/easyArray.cpp'
p1210
(lp1211
I1
ag1195
assS'main'
p1212
(dp1213
S'c:/Users/Vinicius/Desktop/Yes or No/Stars/source/main.h'
p1214
(lp1215
I1
ag1195
asS'c:/Users/Vinicius/Desktop/Yes or No/Stars/source/main.cpp'
p1216
(lp1217
I1
ag1195
asS'c:/Users/Vinicius/Desktop/Yes or No/Stars/source/include.h'
p1218
(lp1219
I1
ag1195
assS'managers'
p1220
(dp1221
S'c:/Users/Vinicius/Desktop/Yes or No/Stars/source/timerManager.cpp'
p1222
(lp1223
I1
ag1195
asS'c:/Users/Vinicius/Desktop/Yes or No/Stars/source/spriteManager.cpp'
p1224
(lp1225
I1
ag1195
asS'c:/Users/Vinicius/Desktop/Yes or No/Stars/source/inputManager.h'
p1226
(lp1227
I1
ag1195
asS'c:/Users/Vinicius/Desktop/Yes or No/Stars/source/sceneManager.cpp'
p1228
(lp1229
I1
ag1195
asS'c:/Users/Vinicius/Desktop/Yes or No/Stars/source/resourceManager.h'
p1230
(lp1231
I1
ag1195
asS'c:/Users/Vinicius/Desktop/Yes or No/Stars/source/savedataManager.h'
p1232
(lp1233
I1
ag1195
asS'c:/Users/Vinicius/Desktop/Yes or No/Stars/source/spriteManager.h'
p1234
(lp1235
I1
ag1195
asS'c:/Users/Vinicius/Desktop/Yes or No/Stars/source/parallaxManager.cpp'
p1236
(lp1237
I1
ag1195
asS'c:/Users/Vinicius/Desktop/Yes or No/Stars/source/timerManager.h'
p1238
(lp1239
I1
ag1195
asS'c:/Users/Vinicius/Desktop/Yes or No/Stars/source/sceneManager.h'
p1240
(lp1241
I1
ag1195
asS'c:/Users/Vinicius/Desktop/Yes or No/Stars/source/savedataManager.cpp'
p1242
(lp1243
I1
ag1195
asS'c:/Users/Vinicius/Desktop/Yes or No/Stars/source/audioManager.h'
p1244
(lp1245
I1
ag1195
asS'c:/Users/Vinicius/Desktop/Yes or No/Stars/source/inputManager.cpp'
p1246
(lp1247
I1
ag1195
asS'c:/Users/Vinicius/Desktop/Yes or No/Stars/source/audioManager.cpp'
p1248
(lp1249
I1
ag1195
asS'c:/Users/Vinicius/Desktop/Yes or No/Stars/source/parallaxManager.h'
p1250
(lp1251
I1
ag1195
asS'c:/Users/Vinicius/Desktop/Yes or No/Stars/source/resourceManager.cpp'
p1252
(lp1253
I1
ag1195
assS'scenes'
p1254
(dp1255
S'c:/Users/Vinicius/Desktop/Yes or No/Stars/source/items.cpp'
p1256
(lp1257
I1
ag1195
asS'c:/Users/Vinicius/Desktop/Yes or No/Stars/source/customize.h'
p1258
(lp1259
I1
ag1195
asS'c:/Users/Vinicius/Desktop/Yes or No/Stars/source/customize.cpp'
p1260
(lp1261
I1
ag1195
asS'c:/Users/Vinicius/Desktop/Yes or No/Stars/source/mainMenu.h'
p1262
(lp1263
I1
ag1195
asS'c:/Users/Vinicius/Desktop/Yes or No/Stars/source/getStars.h'
p1264
(lp1265
I1
ag1195
asS'c:/Users/Vinicius/Desktop/Yes or No/Stars/source/store.h'
p1266
(lp1267
I1
ag1195
asS'c:/Users/Vinicius/Desktop/Yes or No/Stars/source/options.h'
p1268
(lp1269
I1
ag1195
asS'c:/Users/Vinicius/Desktop/Yes or No/Stars/source/getStars.cpp'
p1270
(lp1271
I1
ag1195
asS'c:/Users/Vinicius/Desktop/Yes or No/Stars/source/mainMenu.cpp'
p1272
(lp1273
I1
ag1195
asS'c:/Users/Vinicius/Desktop/Yes or No/Stars/source/items.h'
p1274
(lp1275
I1
ag1195
asS'c:/Users/Vinicius/Desktop/Yes or No/Stars/source/store.cpp'
p1276
(lp1277
I1
ag1195
asS'c:/Users/Vinicius/Desktop/Yes or No/Stars/source/options.cpp'
p1278
(lp1279
I1
ag1195
asS'c:/Users/Vinicius/Desktop/Yes or No/Stars/source/game.h'
p1280
(lp1281
I1
ag1195
asS'c:/Users/Vinicius/Desktop/Yes or No/Stars/source/game.cpp'
p1282
(lp1283
I1
ag1195
asssS"'Marmalade Studio'"
p1284
(dp1285
S'iw2dscenegraph'
p1286
(dp1287
S'c:/marmalade/7.2/modules/iw2dscenegraph/source/Iw2DSceneGraph.cpp'
p1288
(lp1289
I1
a(dp1290
asS'c:/marmalade/7.2/modules/iw2dscenegraph/iw2dscenegraph.mkf'
p1291
(lp1292
I1
a(dp1293
asS'c:/marmalade/7.2/modules/iw2dscenegraph/h/Iw2DSceneGraph.h'
p1294
(lp1295
I1
ag1290
asS'c:/marmalade/7.2/modules/iw2dscenegraph/docs/iw2dscenegraph.defines.txt'
p1296
(lp1297
I1
ag1290
assS'iwgl'
p1298
(dp1299
S'c:/marmalade/7.2/modules/iwgl/h/IwGL.h'
p1300
(lp1301
I1
a(dp1302
asS'c:/marmalade/7.2/modules/iwgl/iwgl.mkf'
p1303
(lp1304
I1
a(dp1305
asS'c:/marmalade/7.2/modules/iwgl/h/IwGLExt.h'
p1306
(lp1307
I1
ag1302
asS'c:/marmalade/7.2/modules/iwgl/docs/iwgl.config.txt'
p1308
(lp1309
I1
ag1302
assS'iw2d'
p1310
(dp1311
S'c:/marmalade/7.2/modules/iw2d/docs/iw2d_public.defines.txt'
p1312
(lp1313
I1
a(dp1314
asS'c:/marmalade/7.2/modules/iw2d/h/Iw2D.h'
p1315
(lp1316
I1
ag1314
asS'c:/marmalade/7.2/modules/iw2d/docs/iw2d.config.txt'
p1317
(lp1318
I1
ag1314
asS'c:/marmalade/7.2/modules/iw2d/iw2d.mkf'
p1319
(lp1320
I1
a(dp1321
assS'iwgxfont'
p1322
(dp1323
S'c:/marmalade/7.2/modules/iwgxfont/h/IwGxFont.h'
p1324
(lp1325
I1
a(dp1326
asS'c:/marmalade/7.2/modules/iwgxfont/h/IwGxFontPreparedData.h'
p1327
(lp1328
I1
ag1326
asS'c:/marmalade/7.2/modules/iwgxfont/h/IwGxFontContainer.h'
p1329
(lp1330
I1
ag1326
asS'c:/marmalade/7.2/modules/iwgxfont/docs/iwgxfont_public.defines.txt'
p1331
(lp1332
I1
ag1326
asS'c:/marmalade/7.2/modules/iwgxfont/h/IwGxFontGlyph.h'
p1333
(lp1334
I1
ag1326
asS'c:/marmalade/7.2/modules/iwgxfont/h/IwGxFontState.h'
p1335
(lp1336
I1
ag1326
asS'c:/marmalade/7.2/modules/iwgxfont/h/IwGxFontTypes.h'
p1337
(lp1338
I1
ag1326
asS'c:/marmalade/7.2/modules/iwgxfont/iwgxfont.mkf'
p1339
(lp1340
I1
a(dp1341
asS'c:/marmalade/7.2/modules/iwgxfont/docs/iwgxfont.config.txt'
p1342
(lp1343
I1
ag1326
assS'iwgeom'
p1344
(dp1345
S'c:/marmalade/7.2/modules/iwgeom/docs/iwgeom.config.txt'
p1346
(lp1347
I1
a(dp1348
asS'c:/marmalade/7.2/modules/iwgeom/h/IwGeomFPlane.h'
p1349
(lp1350
I1
ag1348
asS'c:/marmalade/7.2/modules/iwgeom/h/IwGeomPlane.h'
p1351
(lp1352
I1
ag1348
asS'c:/marmalade/7.2/modules/iwgeom/h/IwGeomMat.h'
p1353
(lp1354
I1
ag1348
asS'c:/marmalade/7.2/modules/iwgeom/h/IwGeomMat2D.h'
p1355
(lp1356
I1
ag1348
asS'c:/marmalade/7.2/modules/iwgeom/h/IwGeomMenu.h'
p1357
(lp1358
I1
ag1348
asS'c:/marmalade/7.2/modules/iwgeom/h/IwGeomSqrt.h'
p1359
(lp1360
I1
ag1348
asS'c:/marmalade/7.2/modules/iwgeom/h/IwGeomFMat2D.h'
p1361
(lp1362
I1
ag1348
asS'c:/marmalade/7.2/modules/iwgeom/h/IwGeomCore.h'
p1363
(lp1364
I1
ag1348
asS'c:/marmalade/7.2/modules/iwgeom/h/IwGeomFVec3.h'
p1365
(lp1366
I1
ag1348
asS'c:/marmalade/7.2/modules/iwgeom/h/IwGeomFVec2.h'
p1367
(lp1368
I1
ag1348
asS'c:/marmalade/7.2/modules/iwgeom/h/IwGeom.h'
p1369
(lp1370
I1
ag1348
asS'c:/marmalade/7.2/modules/iwgeom/h/IwGeomSVec2.h'
p1371
(lp1372
I1
ag1348
asS'c:/marmalade/7.2/modules/iwgeom/h/IwGeomFVec4.h'
p1373
(lp1374
I1
ag1348
asS'c:/marmalade/7.2/modules/iwgeom/h/IwGeomSVec3.h'
p1375
(lp1376
I1
ag1348
asS'c:/marmalade/7.2/modules/iwgeom/h/IwGeomBBox.h'
p1377
(lp1378
I1
ag1348
asS'c:/marmalade/7.2/modules/iwgeom/h/IwGeomVec2.h'
p1379
(lp1380
I1
ag1348
asS'c:/marmalade/7.2/modules/iwgeom/h/IwGeomFMat.h'
p1381
(lp1382
I1
ag1348
asS'c:/marmalade/7.2/modules/iwgeom/h/IwGeomFQuat.h'
p1383
(lp1384
I1
ag1348
asS'c:/marmalade/7.2/modules/iwgeom/h/IwGeomVec3.h'
p1385
(lp1386
I1
ag1348
asS'c:/marmalade/7.2/modules/iwgeom/h/IwGeomSVec4.h'
p1387
(lp1388
I1
ag1348
asS'c:/marmalade/7.2/modules/iwgeom/h/IwGeomVec.h'
p1389
(lp1390
I1
ag1348
asS'c:/marmalade/7.2/modules/iwgeom/h/IwGeomFIntersect.h'
p1391
(lp1392
I1
ag1348
asS'c:/marmalade/7.2/modules/iwgeom/iwgeom.mkf'
p1393
(lp1394
I1
a(dp1395
asS'c:/marmalade/7.2/modules/iwgeom/h/IwGeomFSphere.h'
p1396
(lp1397
I1
ag1348
asS'c:/marmalade/7.2/modules/iwgeom/h/IwGeomIntersect.h'
p1398
(lp1399
I1
ag1348
asS'c:/marmalade/7.2/modules/iwgeom/h/IwGeomSQuat.h'
p1400
(lp1401
I1
ag1348
asS'c:/marmalade/7.2/modules/iwgeom/h/IwGeomQuat.h'
p1402
(lp1403
I1
ag1348
asS'c:/marmalade/7.2/modules/iwgeom/h/IwGeomSphere.h'
p1404
(lp1405
I1
ag1348
asS'c:/marmalade/7.2/modules/iwgeom/h/IwGeomLegacy.h'
p1406
(lp1407
I1
ag1348
asS'c:/marmalade/7.2/modules/iwgeom/h/IwGeomVec4.h'
p1408
(lp1409
I1
ag1348
asS'c:/marmalade/7.2/modules/iwgeom/h/IwGeomFBBox.h'
p1410
(lp1411
I1
ag1348
assS'iwresmanager'
p1412
(dp1413
S'c:/marmalade/7.2/modules/iwresmanager/h/IwResHandlerGROUP.h'
p1414
(lp1415
I1
a(dp1416
asS'c:/marmalade/7.2/modules/iwresmanager/h/IwResHandler.h'
p1417
(lp1418
I1
ag1416
asS'c:/marmalade/7.2/modules/iwresmanager/iwresmanager.mkf'
p1419
(lp1420
I1
a(dp1421
asS'c:/marmalade/7.2/modules/iwresmanager/h/IwResGroup.h'
p1422
(lp1423
I1
ag1416
asS'c:/marmalade/7.2/modules/iwresmanager/h/IwResHandlerImage.h'
p1424
(lp1425
I1
ag1416
asS'c:/marmalade/7.2/modules/iwresmanager/docs/iwresmanager.config.txt'
p1426
(lp1427
I1
ag1416
asS'c:/marmalade/7.2/modules/iwresmanager/h/IwResManagerClass.h'
p1428
(lp1429
I1
ag1416
asS'c:/marmalade/7.2/modules/iwresmanager/h/IwResHandlerITX.h'
p1430
(lp1431
I1
ag1416
asS'c:/marmalade/7.2/modules/iwresmanager/h/IwResSerialise.h'
p1432
(lp1433
I1
ag1416
asS'c:/marmalade/7.2/modules/iwresmanager/h/IwResManager.h'
p1434
(lp1435
I1
ag1416
assS'iwgx'
p1436
(dp1437
S'c:/marmalade/7.2/modules/iwgx/h/IwTPage.h'
p1438
(lp1439
I1
a(dp1440
asS'c:/marmalade/7.2/modules/iwgx/h/IwGxStream.h'
p1441
(lp1442
I1
ag1440
asS'c:/marmalade/7.2/modules/iwgx/h/IwGxTransformSW.h'
p1443
(lp1444
I1
ag1440
asS'c:/marmalade/7.2/modules/iwgx/h/IwMaterial.h'
p1445
(lp1446
I1
ag1440
asS'c:/marmalade/7.2/modules/iwgx/h/IwMatAnim.h'
p1447
(lp1448
I1
ag1440
asS'c:/marmalade/7.2/modules/iwgx/docs/iwgx.config.txt'
p1449
(lp1450
I1
ag1440
asS'c:/marmalade/7.2/modules/iwgx/iwgx.mkf'
p1451
(lp1452
I1
a(dp1453
asS'c:/marmalade/7.2/modules/iwgx/h/IwResHandlerMTL.h'
p1454
(lp1455
I1
ag1440
asS'c:/marmalade/7.2/modules/iwgx/h/IwGxPrint.h'
p1456
(lp1457
I1
ag1440
asS'c:/marmalade/7.2/modules/iwgx/h/IwGxSurface.h'
p1458
(lp1459
I1
ag1440
asS'c:/marmalade/7.2/modules/iwgx/docs/iwgx_public.defines.txt'
p1460
(lp1461
I1
ag1440
asS'c:/marmalade/7.2/modules/iwgx/h/IwClip.h'
p1462
(lp1463
I1
ag1440
asS'c:/marmalade/7.2/modules/iwgx/h/IwGx.h'
p1464
(lp1465
I1
ag1440
asS'c:/marmalade/7.2/modules/iwgx/h/IwGxDebug.h'
p1466
(lp1467
I1
ag1440
asS'c:/marmalade/7.2/modules/iwgx/h/IwDebugPrim.h'
p1468
(lp1469
I1
ag1440
asS'c:/marmalade/7.2/modules/iwgx/h/IwGxMetrics.h'
p1470
(lp1471
I1
ag1440
asS'c:/marmalade/7.2/modules/iwgx/h/IwGxError.h'
p1472
(lp1473
I1
ag1440
asS'c:/marmalade/7.2/modules/iwgx/h/IwClip.inl'
p1474
(lp1475
I1
ag1440
asS'c:/marmalade/7.2/modules/iwgx/h/IwGxFuncTable.h'
p1476
(lp1477
I1
ag1440
asS'c:/marmalade/7.2/modules/iwgx/h/IwTexture.h'
p1478
(lp1479
I1
ag1440
asS'c:/marmalade/7.2/modules/iwgx/h/IwFColour.h'
p1480
(lp1481
I1
ag1440
asS'c:/marmalade/7.2/modules/iwgx/h/IwColour.h'
p1482
(lp1483
I1
ag1440
asS'c:/marmalade/7.2/modules/iwgx/h/IwGxShaderTechnique.h'
p1484
(lp1485
I1
ag1440
asS'c:/marmalade/7.2/modules/iwgx/h/IwGxTypes.h'
p1486
(lp1487
I1
ag1440
asS'c:/marmalade/7.2/modules/iwgx/h/IwGxState.h'
p1488
(lp1489
I1
ag1440
assS'iw2dscenegraphcore'
p1490
(dp1491
S'c:/marmalade/7.2/modules/iw2dscenegraphcore/iw2dscenegraphcore.mkf'
p1492
(lp1493
I1
a(dp1494
asS'c:/marmalade/7.2/modules/iw2dscenegraphcore/h/Iw2DSceneGraphCore.h'
p1495
(lp1496
I1
a(dp1497
asS'c:/marmalade/7.2/modules/iw2dscenegraphcore/source/Iw2DSceneGraphCore.cpp'
p1498
(lp1499
I1
ag1497
assS'iwutil'
p1500
(dp1501
S'c:/marmalade/7.2/modules/iwutil/h/IwCore.h'
p1502
(lp1503
I1
a(dp1504
asS'c:/marmalade/7.2/modules/iwutil/h/IwArray.h'
p1505
(lp1506
I1
ag1504
asS'c:/marmalade/7.2/modules/iwutil/h/IwResource.h'
p1507
(lp1508
I1
ag1504
asS'c:/marmalade/7.2/modules/iwutil/h/IwFibre.h'
p1509
(lp1510
I1
ag1504
asS'c:/marmalade/7.2/modules/iwutil/h/IwBuffer.h'
p1511
(lp1512
I1
ag1504
asS'c:/marmalade/7.2/modules/iwutil/h/IwRandom.h'
p1513
(lp1514
I1
ag1504
asS'c:/marmalade/7.2/modules/iwutil/h/IwManagedList.h'
p1515
(lp1516
I1
ag1504
asS'c:/marmalade/7.2/modules/iwutil/h/IwList.h'
p1517
(lp1518
I1
ag1504
asS'c:/marmalade/7.2/modules/iwutil/h/IwProfileMenu.h'
p1519
(lp1520
I1
ag1504
asS'c:/marmalade/7.2/modules/iwutil/h/IwMemory.h'
p1521
(lp1522
I1
ag1504
asS'c:/marmalade/7.2/modules/iwutil/h/IwMath.h'
p1523
(lp1524
I1
ag1504
asS'c:/marmalade/7.2/modules/iwutil/h/IwDivTable.h'
p1525
(lp1526
I1
ag1504
asS'c:/marmalade/7.2/modules/iwutil/h/IwTextParserITX.h'
p1527
(lp1528
I1
ag1504
asS'c:/marmalade/7.2/modules/iwutil/h/IwMenu.h'
p1529
(lp1530
I1
ag1504
asS'c:/marmalade/7.2/modules/iwutil/h/IwChar.h'
p1531
(lp1532
I1
ag1504
asS'c:/marmalade/7.2/modules/iwutil/h/IwEvent.h'
p1533
(lp1534
I1
ag1504
asS'c:/marmalade/7.2/modules/iwutil/h/IwTextParser.h'
p1535
(lp1536
I1
ag1504
asS'c:/marmalade/7.2/modules/iwutil/h/IwOptimiseSize.h'
p1537
(lp1538
I1
ag1504
asS'c:/marmalade/7.2/modules/iwutil/h/IwSingleton.h'
p1539
(lp1540
I1
ag1504
asS'c:/marmalade/7.2/modules/iwutil/h/IwAllocator.h'
p1541
(lp1542
I1
ag1504
asS'c:/marmalade/7.2/modules/iwutil/h/IwFile.h'
p1543
(lp1544
I1
ag1504
asS'c:/marmalade/7.2/modules/iwutil/h/IwString.h'
p1545
(lp1546
I1
ag1504
asS'c:/marmalade/7.2/modules/iwutil/h/IwVariableBitField.h'
p1547
(lp1548
I1
ag1504
asS'c:/marmalade/7.2/modules/iwutil/h/IwUncopyable.h'
p1549
(lp1550
I1
ag1504
asS'c:/marmalade/7.2/modules/iwutil/h/IwImage.h'
p1551
(lp1552
I1
ag1504
asS'c:/marmalade/7.2/modules/iwutil/h/IwTypes.h'
p1553
(lp1554
I1
ag1504
asS'c:/marmalade/7.2/modules/iwutil/h/IwManaged.h'
p1555
(lp1556
I1
ag1504
asS'c:/marmalade/7.2/modules/iwutil/h/IwRuntime.h'
p1557
(lp1558
I1
ag1504
asS'c:/marmalade/7.2/modules/iwutil/h/IwMemManagerDL.h'
p1559
(lp1560
I1
ag1504
asS'c:/marmalade/7.2/modules/iwutil/h/IwOptimiseThumb.h'
p1561
(lp1562
I1
ag1504
asS'c:/marmalade/7.2/modules/iwutil/h/IwUtil.h'
p1563
(lp1564
I1
ag1504
asS'c:/marmalade/7.2/modules/iwutil/docs/iwutil.config.txt'
p1565
(lp1566
I1
ag1504
asS'c:/marmalade/7.2/modules/iwutil/h/IwClassFactory.h'
p1567
(lp1568
I1
ag1504
asS'c:/marmalade/7.2/modules/iwutil/h/IwUtilInitTerm.h'
p1569
(lp1570
I1
ag1504
asS'c:/marmalade/7.2/modules/iwutil/h/IwAutoFile.h'
p1571
(lp1572
I1
ag1504
asS'c:/marmalade/7.2/modules/iwutil/h/IwUTF8.h'
p1573
(lp1574
I1
ag1504
asS'c:/marmalade/7.2/modules/iwutil/h/IwSerialise.h'
p1575
(lp1576
I1
ag1504
asS'c:/marmalade/7.2/modules/iwutil/h/IwPath.h'
p1577
(lp1578
I1
ag1504
asS'c:/marmalade/7.2/modules/iwutil/h/IwMemBucketHelpers.h'
p1579
(lp1580
I1
ag1504
asS'c:/marmalade/7.2/modules/iwutil/h/IwCopyingPtr.h'
p1581
(lp1582
I1
ag1504
asS'c:/marmalade/7.2/modules/iwutil/h/IwOptimiseARM.h'
p1583
(lp1584
I1
ag1504
asS'c:/marmalade/7.2/modules/iwutil/h/IwMemBucket.h'
p1585
(lp1586
I1
ag1504
asS'c:/marmalade/7.2/modules/iwutil/iwutil.mkf'
p1587
(lp1588
I1
a(dp1589
asS'c:/marmalade/7.2/modules/iwutil/h/IwKeymap.h'
p1590
(lp1591
I1
ag1504
asS'c:/marmalade/7.2/modules/iwutil/h/IwImageHelper.h'
p1592
(lp1593
I1
ag1504
asS'c:/marmalade/7.2/modules/iwutil/h/IwOptimiseSpeed.h'
p1594
(lp1595
I1
ag1504
asS'c:/marmalade/7.2/modules/iwutil/h/IwTextParseable.h'
p1596
(lp1597
I1
ag1504
asS'c:/marmalade/7.2/modules/iwutil/h/IwDebug.h'
p1598
(lp1599
I1
ag1504
asS'c:/marmalade/7.2/modules/iwutil/h/IwDivide.h'
p1600
(lp1601
I1
ag1504
asS'c:/marmalade/7.2/modules/iwutil/h/IwHashString.h'
p1602
(lp1603
I1
ag1504
asssS'(zlib)'
p1604
(dp1605
g1037
(dp1606
S'c:/marmalade/7.2/modules/third_party/zlib/h/zconf.h'
p1607
(lp1608
I1
a(dp1609
asS'c:/marmalade/7.2/modules/third_party/zlib/h/zlib.h'
p1610
(lp1611
I1
ag1609
assS'c:/marmalade/7.2/modules/third_party/zlib/zlib.mkf'
p1612
(lp1613
I1
a(dp1614
assS'(iwtween)'
p1615
(dp1616
S'c:/marmalade/7.2/modules/iwtween/iwtween.mkf'
p1617
(lp1618
I1
a(dp1619
asS'c:/marmalade/7.2/modules/iwtween/source/IwTween.cpp'
p1620
(lp1621
I1
a(dp1622
asS'c:/marmalade/7.2/modules/iwtween/h/IwTween.h'
p1623
(lp1624
I1
ag1622
asssS'files'
p1625
(dp1626
S'IwGxFontPreparedData.h'
p1627
g302
(cmkb_main
File
p1628
g304
Ntp1629
Rp1630
(dp1631
S'flags'
p1632
g1326
sS'group'
p1633
(lp1634
S"'Marmalade Studio'"
p1635
ag1322
asg328
g1327
sbsS'iterator'
p1636
g302
(g1628
g304
Ntp1637
Rp1638
(dp1639
g1632
(dp1640
sg1633
(lp1641
S"'Marmalade System (S3E)'"
p1642
aS'stdc headers'
p1643
aS'c++'
p1644
asg328
S'c:/marmalade/7.2/s3e/h/std/c++/iterator'
p1645
sbsS'IwGL.h'
p1646
g302
(g1628
g304
Ntp1647
Rp1648
(dp1649
g1632
g1302
sg1633
(lp1650
S"'Marmalade Studio'"
p1651
ag1298
asg328
g1300
sbsS's3e.h'
p1652
g302
(g1628
g304
Ntp1653
Rp1654
(dp1655
g1632
g1640
sg1633
(lp1656
g1642
asg328
S'c:/marmalade/7.2/s3e/h/s3e.h'
p1657
sbsS'errno.h'
p1658
g302
(g1628
g304
Ntp1659
Rp1660
(dp1661
g1632
g1640
sg1633
(lp1662
g1642
aS'stdc headers'
p1663
asg328
S'c:/marmalade/7.2/s3e/h/std/errno.h'
p1664
sbsS'IwSingleton.h'
p1665
g302
(g1628
g304
Ntp1666
Rp1667
(dp1668
g1632
g1504
sg1633
(lp1669
S"'Marmalade Studio'"
p1670
ag1500
asg328
g1539
sbsS'spriteManager.cpp'
p1671
g302
(g1628
g304
Ntp1672
Rp1673
(dp1674
g1632
g1195
sg1633
(lp1675
S'stars'
p1676
ag1220
asg328
g1224
sbsS'dlfcn.h'
p1677
g302
(g1628
g304
Ntp1678
Rp1679
(dp1680
g1632
g1640
sg1633
g1662
sg328
S'c:/marmalade/7.2/s3e/h/std/dlfcn.h'
p1681
sbsS'IwSoundWAV.cpp'
p1682
g302
(g1628
g304
Ntp1683
Rp1684
(dp1685
g1632
g1096
sg1633
(lp1686
g1092
asg328
g1120
sbsS'sched.h'
p1687
g302
(g1628
g304
Ntp1688
Rp1689
(dp1690
g1632
g1640
sg1633
g1662
sg328
S'c:/marmalade/7.2/s3e/h/std/sched.h'
p1691
sbsS'customize.cpp'
p1692
g302
(g1628
g304
Ntp1693
Rp1694
(dp1695
g1632
g1195
sg1633
(lp1696
g1189
ag1254
asg328
g1260
sbsS'IwGeomFMat2D.h'
p1697
g302
(g1628
g304
Ntp1698
Rp1699
(dp1700
g1632
g1348
sg1633
(lp1701
S"'Marmalade Studio'"
p1702
ag1344
asg328
g1361
sbsS'cassert'
p1703
g302
(g1628
g304
Ntp1704
Rp1705
(dp1706
g1632
g1640
sg1633
g1641
sg328
S'c:/marmalade/7.2/s3e/h/std/c++/cassert'
p1707
sbsS'grp.h'
p1708
g302
(g1628
g304
Ntp1709
Rp1710
(dp1711
g1632
g1640
sg1633
g1662
sg328
S'c:/marmalade/7.2/s3e/h/std/grp.h'
p1712
sbsS'list'
p1713
g302
(g1628
g304
Ntp1714
Rp1715
(dp1716
g1632
g1640
sg1633
g1641
sg328
S'c:/marmalade/7.2/s3e/h/std/c++/list'
p1717
sbsS'IwSoundSpec.cpp'
p1718
g302
(g1628
g304
Ntp1719
Rp1720
(dp1721
g1632
g1096
sg1633
g1686
sg328
g1142
sbsS'istream'
p1722
g302
(g1628
g304
Ntp1723
Rp1724
(dp1725
g1632
g1640
sg1633
g1641
sg328
S'c:/marmalade/7.2/s3e/h/std/c++/istream'
p1726
sbsS'jpeglib.h'
p1727
g302
(g1628
g304
Ntp1728
Rp1729
(dp1730
g1632
g1052
sg1633
(lp1731
g1047
ag1037
asg328
g1061
sbsS'iw2d_public.defines.txt'
p1732
g302
(g1628
g304
Ntp1733
Rp1734
(dp1735
g1632
g1314
sg1633
(lp1736
S"'Marmalade Studio'"
p1737
ag1310
asg328
g1312
sbsS'iostream.h'
p1738
g302
(g1628
g304
Ntp1739
Rp1740
(dp1741
g1632
g1640
sg1633
g1641
sg328
S'c:/marmalade/7.2/s3e/h/std/c++/iostream.h'
p1742
sbsS'IwSoundADPCM.h'
p1743
g302
(g1628
g304
Ntp1744
Rp1745
(dp1746
g1632
g1096
sg1633
g1686
sg328
g1118
sbsS'string'
p1747
g302
(g1628
g304
Ntp1748
Rp1749
(dp1750
g1632
g1640
sg1633
g1641
sg328
S'c:/marmalade/7.2/s3e/h/std/c++/string'
p1751
sbsS'IwMemory.h'
p1752
g302
(g1628
g304
Ntp1753
Rp1754
(dp1755
g1632
g1504
sg1633
g1669
sg328
g1521
sbsS'IwGeomPlane.h'
p1756
g302
(g1628
g304
Ntp1757
Rp1758
(dp1759
g1632
g1348
sg1633
g1701
sg328
g1351
sbsS'items.h'
p1760
g302
(g1628
g304
Ntp1761
Rp1762
(dp1763
g1632
g1195
sg1633
g1696
sg328
g1274
sbsS'iw2d.config.txt'
p1764
g302
(g1628
g304
Ntp1765
Rp1766
(dp1767
g1632
g1314
sg1633
g1736
sg328
g1317
sbsS'iomanip'
p1768
g302
(g1628
g304
Ntp1769
Rp1770
(dp1771
g1632
g1640
sg1633
g1641
sg328
S'c:/marmalade/7.2/s3e/h/std/c++/iomanip'
p1772
sbsS'iwgeom.mkf'
p1773
g302
(g1628
g304
Ntp1774
Rp1775
(dp1776
g1632
g1395
sg1633
g1701
sg328
g1393
sbsS'IwGxError.h'
p1777
g302
(g1628
g304
Ntp1778
Rp1779
(dp1780
g1632
g1440
sg1633
(lp1781
S"'Marmalade Studio'"
p1782
ag1436
asg328
g1472
sbsS'IwGeom.h'
p1783
g302
(g1628
g304
Ntp1784
Rp1785
(dp1786
g1632
g1348
sg1633
g1701
sg328
g1369
sbsS'IwGeomVec4.h'
p1787
g302
(g1628
g304
Ntp1788
Rp1789
(dp1790
g1632
g1348
sg1633
g1701
sg328
g1408
sbsS'dir.h'
p1791
g302
(g1628
g304
Ntp1792
Rp1793
(dp1794
g1632
g1640
sg1633
(lp1795
g1642
aS'stdc headers'
p1796
aS'sys'
p1797
asg328
S'c:/marmalade/7.2/s3e/h/std/sys/dir.h'
p1798
sbsS'locale.h'
p1799
g302
(g1628
g304
Ntp1800
Rp1801
(dp1802
g1632
g1640
sg1633
g1662
sg328
S'c:/marmalade/7.2/s3e/h/std/locale.h'
p1803
sbsS'vector'
p1804
g302
(g1628
g304
Ntp1805
Rp1806
(dp1807
g1632
g1640
sg1633
g1641
sg328
S'c:/marmalade/7.2/s3e/h/std/c++/vector'
p1808
sbsS'IwManaged.h'
p1809
g302
(g1628
g304
Ntp1810
Rp1811
(dp1812
g1632
g1504
sg1633
g1669
sg328
g1555
sbsS's3eCompass.h'
p1813
g302
(g1628
g304
Ntp1814
Rp1815
(dp1816
g1632
g1640
sg1633
g1656
sg328
S'c:/marmalade/7.2/s3e/h/s3eCompass.h'
p1817
sbsS'cderror.h'
p1818
g302
(g1628
g304
Ntp1819
Rp1820
(dp1821
g1632
g1052
sg1633
g1731
sg328
g1077
sbsS'climits'
p1822
g302
(g1628
g304
Ntp1823
Rp1824
(dp1825
g1632
g1640
sg1633
g1641
sg328
S'c:/marmalade/7.2/s3e/h/std/c++/climits'
p1826
sbsS'easyArray.h'
p1827
g302
(g1628
g304
Ntp1828
Rp1829
(dp1830
g1632
g1195
sg1633
(lp1831
S'stars'
p1832
ag1206
asg328
g1208
sbsS's3eVibra.h'
p1833
g302
(g1628
g304
Ntp1834
Rp1835
(dp1836
g1632
g1640
sg1633
g1656
sg328
S'c:/marmalade/7.2/s3e/h/s3eVibra.h'
p1837
sbsS'jversion.h'
p1838
g302
(g1628
g304
Ntp1839
Rp1840
(dp1841
g1632
g1052
sg1633
g1731
sg328
g1063
sbsS'fnmatch.h'
p1842
g302
(g1628
g304
Ntp1843
Rp1844
(dp1845
g1632
g1640
sg1633
g1662
sg328
S'c:/marmalade/7.2/s3e/h/std/fnmatch.h'
p1846
sbsS'IwGxState.h'
p1847
g302
(g1628
g304
Ntp1848
Rp1849
(dp1850
g1632
g1440
sg1633
g1781
sg328
g1488
sbsS's3eAudio.h'
p1851
g302
(g1628
g304
Ntp1852
Rp1853
(dp1854
g1632
g1640
sg1633
g1656
sg328
S'c:/marmalade/7.2/s3e/h/s3eAudio.h'
p1855
sbsS'store.h'
p1856
g302
(g1628
g304
Ntp1857
Rp1858
(dp1859
g1632
g1195
sg1633
g1696
sg328
g1266
sbsS's3eSurface.h'
p1860
g302
(g1628
g304
Ntp1861
Rp1862
(dp1863
g1632
g1640
sg1633
g1656
sg328
S'c:/marmalade/7.2/s3e/h/s3eSurface.h'
p1864
sbsS'new'
p1865
g302
(g1628
g304
Ntp1866
Rp1867
(dp1868
g1632
g1640
sg1633
g1641
sg328
S'c:/marmalade/7.2/s3e/h/std/c++/new'
p1869
sbsS's3eWindow.h'
p1870
g302
(g1628
g304
Ntp1871
Rp1872
(dp1873
g1632
g1640
sg1633
(lp1874
g1642
aS'Extensions'
p1875
asg328
S'c:/marmalade/7.2/s3e/h/ext/s3eWindow.h'
p1876
sbsS'IwBuffer.h'
p1877
g302
(g1628
g304
Ntp1878
Rp1879
(dp1880
g1632
g1504
sg1633
g1669
sg328
g1511
sbsS's3eflurry.mkf'
p1881
g302
(g1628
g304
Ntp1882
Rp1883
(dp1884
g1632
g1188
sg1633
(lp1885
g1144
ag1175
asg328
g1186
sbsS'stdio_streambuf'
p1886
g302
(g1628
g304
Ntp1887
Rp1888
(dp1889
g1632
g1640
sg1633
g1641
sg328
S'c:/marmalade/7.2/s3e/h/std/c++/stdio_streambuf'
p1890
sbsS's3eOSExec.h'
p1891
g302
(g1628
g304
Ntp1892
Rp1893
(dp1894
g1632
g1640
sg1633
g1874
sg328
S'c:/marmalade/7.2/s3e/h/ext/s3eOSExec.h'
p1895
sbsS'IwGxTransformSW.h'
p1896
g302
(g1628
g304
Ntp1897
Rp1898
(dp1899
g1632
g1440
sg1633
g1781
sg328
g1443
sbsS'unistd.h'
p1900
g302
(g1628
g304
Ntp1901
Rp1902
(dp1903
g1632
g1640
sg1633
g1662
sg328
S'c:/marmalade/7.2/s3e/h/std/unistd.h'
p1904
sbsS'spriteManager.h'
p1905
g302
(g1628
g304
Ntp1906
Rp1907
(dp1908
g1632
g1195
sg1633
g1675
sg328
g1234
sbsS'iwgxfont.config.txt'
p1909
g302
(g1628
g304
Ntp1910
Rp1911
(dp1912
g1632
g1326
sg1633
g1634
sg328
g1342
sbsS'gl2platform.h'
p1913
g302
(g1628
g304
Ntp1914
Rp1915
(dp1916
g1632
g1640
sg1633
(lp1917
g1642
aS'GL'
p1918
aS'GLES 2.0'
p1919
asg328
S'c:/marmalade/7.2/s3e/h/GLES2/gl2platform.h'
p1920
sbsS'IwResManagerClass.h'
p1921
g302
(g1628
g304
Ntp1922
Rp1923
(dp1924
g1632
g1416
sg1633
(lp1925
g1284
ag1412
asg328
g1428
sbsS'queue'
p1926
g302
(g1628
g304
Ntp1927
Rp1928
(dp1929
g1632
g1640
sg1633
g1641
sg328
S'c:/marmalade/7.2/s3e/h/std/c++/queue'
p1930
sbsS'time_1.h'
p1931
g302
(g1628
g304
Ntp1932
Rp1933
(dp1934
g1632
g1640
sg1633
g1795
sg328
S'c:/marmalade/7.2/s3e/h/std/sys/time.h'
p1935
sbsS'IwSoundPCM.h'
p1936
g302
(g1628
g304
Ntp1937
Rp1938
(dp1939
g1632
g1096
sg1633
g1686
sg328
g1132
sbsS'Iw2D.h'
p1940
g302
(g1628
g304
Ntp1941
Rp1942
(dp1943
g1632
g1314
sg1633
g1736
sg328
g1315
sbsS'IwGeomVec2.h'
p1944
g302
(g1628
g304
Ntp1945
Rp1946
(dp1947
g1632
g1348
sg1633
g1701
sg328
g1379
sbsS'sendfile.h'
p1948
g302
(g1628
g304
Ntp1949
Rp1950
(dp1951
g1632
g1640
sg1633
g1795
sg328
S'c:/marmalade/7.2/s3e/h/std/sys/sendfile.h'
p1952
sbsS'malloc.h'
p1953
g302
(g1628
g304
Ntp1954
Rp1955
(dp1956
g1632
g1640
sg1633
g1662
sg328
S'c:/marmalade/7.2/s3e/h/std/malloc.h'
p1957
sbsS'timerManager.h'
p1958
g302
(g1628
g304
Ntp1959
Rp1960
(dp1961
g1632
g1195
sg1633
g1675
sg328
g1238
sbsS'stdarg.h'
p1962
g302
(g1628
g304
Ntp1963
Rp1964
(dp1965
g1632
g1640
sg1633
g1662
sg328
S'c:/marmalade/7.2/s3e/h/std/stdarg.h'
p1966
sbsS'IwGeomCore.h'
p1967
g302
(g1628
g304
Ntp1968
Rp1969
(dp1970
g1632
g1348
sg1633
g1701
sg328
g1363
sbsS'Iw2DSceneGraph.h'
p1971
g302
(g1628
g304
Ntp1972
Rp1973
(dp1974
g1632
g1290
sg1633
(lp1975
S"'Marmalade Studio'"
p1976
ag1286
asg328
g1294
sbsS'endian.h'
p1977
g302
(g1628
g304
Ntp1978
Rp1979
(dp1980
g1632
g1640
sg1633
g1662
sg328
S'c:/marmalade/7.2/s3e/h/std/endian.h'
p1981
sbsS'glob.h'
p1982
g302
(g1628
g304
Ntp1983
Rp1984
(dp1985
g1632
g1640
sg1633
g1662
sg328
S'c:/marmalade/7.2/s3e/h/std/glob.h'
p1986
sbsS'fstream'
p1987
g302
(g1628
g304
Ntp1988
Rp1989
(dp1990
g1632
g1640
sg1633
g1641
sg328
S'c:/marmalade/7.2/s3e/h/std/c++/fstream'
p1991
sbsS'include.h'
p1992
g302
(g1628
g304
Ntp1993
Rp1994
(dp1995
g1632
g1195
sg1633
(lp1996
S'stars'
p1997
ag1212
asg328
g1218
sbsS'jconfig.h'
p1998
g302
(g1628
g304
Ntp1999
Rp2000
(dp2001
g1632
g1052
sg1633
g1731
sg328
g1053
sbsS'memory'
p2002
g302
(g1628
g304
Ntp2003
Rp2004
(dp2005
g1632
g1640
sg1633
g1641
sg328
S'c:/marmalade/7.2/s3e/h/std/c++/memory'
p2006
sbsS'strstream'
p2007
g302
(g1628
g304
Ntp2008
Rp2009
(dp2010
g1632
g1640
sg1633
g1641
sg328
S'c:/marmalade/7.2/s3e/h/std/c++/strstream'
p2011
sbsS'pthread.h'
p2012
g302
(g1628
g304
Ntp2013
Rp2014
(dp2015
g1632
g1640
sg1633
g1662
sg328
S'c:/marmalade/7.2/s3e/h/std/pthread.h'
p2016
sbsS'egl_1.h'
p2017
g302
(g1628
g304
Ntp2018
Rp2019
(dp2020
g1632
g1640
sg1633
(lp2021
g1642
aS'GL'
p2022
aS'GLES 1.x'
p2023
asg328
S'c:/marmalade/7.2/s3e/h/GLES/egl.h'
p2024
sbsS'IwMemManagerDL.h'
p2025
g302
(g1628
g304
Ntp2026
Rp2027
(dp2028
g1632
g1504
sg1633
g1669
sg328
g1559
sbsS'deque'
p2029
g302
(g1628
g304
Ntp2030
Rp2031
(dp2032
g1632
g1640
sg1633
g1641
sg328
S'c:/marmalade/7.2/s3e/h/std/c++/deque'
p2033
sbsS'IwString.h'
p2034
g302
(g1628
g304
Ntp2035
Rp2036
(dp2037
g1632
g1504
sg1633
g1669
sg328
g1545
sbsS'cwchar'
p2038
g302
(g1628
g304
Ntp2039
Rp2040
(dp2041
g1632
g1640
sg1633
g1641
sg328
S'c:/marmalade/7.2/s3e/h/std/c++/cwchar'
p2042
sbsS'iwutil.mkf'
p2043
g302
(g1628
g304
Ntp2044
Rp2045
(dp2046
g1632
g1589
sg1633
g1669
sg328
g1587
sbsS'csignal'
p2047
g302
(g1628
g304
Ntp2048
Rp2049
(dp2050
g1632
g1640
sg1633
g1641
sg328
S'c:/marmalade/7.2/s3e/h/std/c++/csignal'
p2051
sbsS'float.h'
p2052
g302
(g1628
g304
Ntp2053
Rp2054
(dp2055
g1632
g1640
sg1633
g1662
sg328
S'c:/marmalade/7.2/s3e/h/std/float.h'
p2056
sbsS'pthread_alloc'
p2057
g302
(g1628
g304
Ntp2058
Rp2059
(dp2060
g1632
g1640
sg1633
g1641
sg328
S'c:/marmalade/7.2/s3e/h/std/c++/pthread_alloc'
p2061
sbsS'getopt.h'
p2062
g302
(g1628
g304
Ntp2063
Rp2064
(dp2065
g1632
g1640
sg1633
g1662
sg328
S'c:/marmalade/7.2/s3e/h/std/getopt.h'
p2066
sbsS'IwOptimiseARM.h'
p2067
g302
(g1628
g304
Ntp2068
Rp2069
(dp2070
g1632
g1504
sg1633
g1669
sg328
g1583
sbsS'times.h'
p2071
g302
(g1628
g304
Ntp2072
Rp2073
(dp2074
g1632
g1640
sg1633
g1795
sg328
S'c:/marmalade/7.2/s3e/h/std/sys/times.h'
p2075
sbsS'IwGeomFSphere.h'
p2076
g302
(g1628
g304
Ntp2077
Rp2078
(dp2079
g1632
g1348
sg1633
g1701
sg328
g1396
sbsS'game.h'
p2080
g302
(g1628
g304
Ntp2081
Rp2082
(dp2083
g1632
g1195
sg1633
g1696
sg328
g1280
sbsS'functional'
p2084
g302
(g1628
g304
Ntp2085
Rp2086
(dp2087
g1632
g1640
sg1633
g1641
sg328
S'c:/marmalade/7.2/s3e/h/std/c++/functional'
p2088
sbsS'IwTypes.h'
p2089
g302
(g1628
g304
Ntp2090
Rp2091
(dp2092
g1632
g1504
sg1633
g1669
sg328
g1553
sbsS'IwGxMetrics.h'
p2093
g302
(g1628
g304
Ntp2094
Rp2095
(dp2096
g1632
g1440
sg1633
g1781
sg328
g1470
sbsS's3eCompression.h'
p2097
g302
(g1628
g304
Ntp2098
Rp2099
(dp2100
g1632
g1640
sg1633
g1656
sg328
S'c:/marmalade/7.2/s3e/h/s3eCompression.h'
p2101
sbsS'langinfo.h'
p2102
g302
(g1628
g304
Ntp2103
Rp2104
(dp2105
g1632
g1640
sg1633
g1662
sg328
S'c:/marmalade/7.2/s3e/h/std/langinfo.h'
p2106
sbsS's3edebugHeap.h'
p2107
g302
(g1628
g304
Ntp2108
Rp2109
(dp2110
g1632
g1640
sg1633
g1874
sg328
S'c:/marmalade/7.2/s3e/h/ext/s3edebugHeap.h'
p2111
sbsS'AirplayVersion.h'
p2112
g302
(g1628
g304
Ntp2113
Rp2114
(dp2115
g1632
g1640
sg1633
g1656
sg328
S'c:/marmalade/7.2/s3e/h/AirplayVersion.h'
p2116
sbsS'gl2extimg.h'
p2117
g302
(g1628
g304
Ntp2118
Rp2119
(dp2120
g1632
g1640
sg1633
g1917
sg328
S'c:/marmalade/7.2/s3e/h/GLES2/gl2extimg.h'
p2121
sbsS'app.config.txt'
p2122
g302
(g1628
g304
Ntp2123
Rp2124
(dp2125
g1632
(dp2126
sg1633
g4
sg328
S'c:/Users/Vinicius/Desktop/Yes or No/Stars/data/app.config.txt'
p2127
sbsS'IwGeomSqrt.h'
p2128
g302
(g1628
g304
Ntp2129
Rp2130
(dp2131
g1632
g1348
sg1633
g1701
sg328
g1359
sbsS'tiniconv_int.h'
p2132
g302
(g1628
g304
Ntp2133
Rp2134
(dp2135
g1632
g1086
sg1633
(lp2136
g1082
asg328
g1087
sbsS'syslog.h'
p2137
g302
(g1628
g304
Ntp2138
Rp2139
(dp2140
g1632
g1640
sg1633
g1662
sg328
S'c:/marmalade/7.2/s3e/h/std/syslog.h'
p2141
sbsS'IwGxFontTypes.h'
p2142
g302
(g1628
g304
Ntp2143
Rp2144
(dp2145
g1632
g1326
sg1633
g1634
sg328
g1337
sbsS'IwGeomFIntersect.h'
p2146
g302
(g1628
g304
Ntp2147
Rp2148
(dp2149
g1632
g1348
sg1633
g1701
sg328
g1391
sbsS'hash_map'
p2150
g302
(g1628
g304
Ntp2151
Rp2152
(dp2153
g1632
g1640
sg1633
g1641
sg328
S'c:/marmalade/7.2/s3e/h/std/c++/hash_map'
p2154
sbsS's3e.mkf'
p2155
g302
(g1628
g304
Ntp2156
Rp2157
(dp2158
g1632
(dp2159
sg1633
g1656
sg328
S'c:/marmalade/7.2/s3e/s3e.mkf'
p2160
sbsS's3eOSReadString.h'
p2161
g302
(g1628
g304
Ntp2162
Rp2163
(dp2164
g1632
g1640
sg1633
g1874
sg328
S'c:/marmalade/7.2/s3e/h/ext/s3eOSReadString.h'
p2165
sbsS'vortex.h'
p2166
g302
(g1628
g304
Ntp2167
Rp2168
(dp2169
g1632
g1195
sg1633
(lp2170
S'stars'
p2171
ag1191
asg328
g1204
sbsS'player.cpp'
p2172
g302
(g1628
g304
Ntp2173
Rp2174
(dp2175
g1632
g1195
sg1633
g2170
sg328
g1200
sbsS'IwSound.h'
p2176
g302
(g1628
g304
Ntp2177
Rp2178
(dp2179
g1632
g1096
sg1633
g1686
sg328
g1124
sbsS'map'
p2180
g302
(g1628
g304
Ntp2181
Rp2182
(dp2183
g1632
g1640
sg1633
g1641
sg328
S'c:/marmalade/7.2/s3e/h/std/c++/map'
p2184
sbsS'iwtween.mkf'
p2185
g302
(g1628
g304
Ntp2186
Rp2187
(dp2188
g1632
g1619
sg1633
(lp2189
g1615
asg328
g1617
sbsS'IwOptimiseSpeed.h'
p2190
g302
(g1628
g304
Ntp2191
Rp2192
(dp2193
g1632
g1504
sg1633
g1669
sg328
g1594
sbsS'inputManager.h'
p2194
g302
(g1628
g304
Ntp2195
Rp2196
(dp2197
g1632
g1195
sg1633
g1675
sg328
g1226
sbsS'ostream'
p2198
g302
(g1628
g304
Ntp2199
Rp2200
(dp2201
g1632
g1640
sg1633
g1641
sg328
S'c:/marmalade/7.2/s3e/h/std/c++/ostream'
p2202
sbsS'msl_string.h'
p2203
g302
(g1628
g304
Ntp2204
Rp2205
(dp2206
g1632
g1640
sg1633
g1641
sg328
S'c:/marmalade/7.2/s3e/h/std/c++/msl_string.h'
p2207
sbsS'select.h'
p2208
g302
(g1628
g304
Ntp2209
Rp2210
(dp2211
g1632
g1640
sg1633
g1795
sg328
S'c:/marmalade/7.2/s3e/h/std/sys/select.h'
p2212
sbsS'zlib.mkf'
p2213
g302
(g1628
g304
Ntp2214
Rp2215
(dp2216
g1632
g1614
sg1633
(lp2217
g1604
asg328
g1612
sbsS'signal.h'
p2218
g302
(g1628
g304
Ntp2219
Rp2220
(dp2221
g1632
g1640
sg1633
g1662
sg328
S'c:/marmalade/7.2/s3e/h/std/signal.h'
p2222
sbsS'sigcontext.h'
p2223
g302
(g1628
g304
Ntp2224
Rp2225
(dp2226
g1632
g1640
sg1633
g1662
sg328
S'c:/marmalade/7.2/s3e/h/std/sigcontext.h'
p2227
sbsS'libpng.mkf'
p2228
g302
(g1628
g304
Ntp2229
Rp2230
(dp2231
g1632
g1046
sg1633
(lp2232
g1035
asg328
g1044
sbsS's3eClipboard.h'
p2233
g302
(g1628
g304
Ntp2234
Rp2235
(dp2236
g1632
g1640
sg1633
g1656
sg328
S'c:/marmalade/7.2/s3e/h/s3eClipboard.h'
p2237
sbsS'IwGxFuncTable.h'
p2238
g302
(g1628
g304
Ntp2239
Rp2240
(dp2241
g1632
g1440
sg1633
g1781
sg328
g1476
sbsS'IwResHandlerGROUP.h'
p2242
g302
(g1628
g304
Ntp2243
Rp2244
(dp2245
g1632
g1416
sg1633
g1925
sg328
g1414
sbsS's3eDebug.h'
p2246
g302
(g1628
g304
Ntp2247
Rp2248
(dp2249
g1632
g1640
sg1633
g1656
sg328
S'c:/marmalade/7.2/s3e/h/s3eDebug.h'
p2250
sbsS'socket.h'
p2251
g302
(g1628
g304
Ntp2252
Rp2253
(dp2254
g1632
g1640
sg1633
g1795
sg328
S'c:/marmalade/7.2/s3e/h/std/sys/socket.h'
p2255
sbsS'glext.h'
p2256
g302
(g1628
g304
Ntp2257
Rp2258
(dp2259
g1632
g1640
sg1633
g2021
sg328
S'c:/marmalade/7.2/s3e/h/GLES/glext.h'
p2260
sbsS'typeinfo.h'
p2261
g302
(g1628
g304
Ntp2262
Rp2263
(dp2264
g1632
g1640
sg1633
g1641
sg328
S'c:/marmalade/7.2/s3e/h/std/c++/typeinfo.h'
p2265
sbsS'typeinfo'
p2266
g302
(g1628
g304
Ntp2267
Rp2268
(dp2269
g1632
g1640
sg1633
g1641
sg328
S'c:/marmalade/7.2/s3e/h/std/c++/typeinfo'
p2270
sbsS'iwsound.config.txt'
p2271
g302
(g1628
g304
Ntp2272
Rp2273
(dp2274
g1632
g1096
sg1633
(lp2275
g1092
ag1110
asg328
g1112
sbsS'fstream.h'
p2276
g302
(g1628
g304
Ntp2277
Rp2278
(dp2279
g1632
g1640
sg1633
g1641
sg328
S'c:/marmalade/7.2/s3e/h/std/c++/fstream.h'
p2280
sbsS'IwGeomMat.h'
p2281
g302
(g1628
g304
Ntp2282
Rp2283
(dp2284
g1632
g1348
sg1633
g1701
sg328
g1353
sbsS's3ePointer.h'
p2285
g302
(g1628
g304
Ntp2286
Rp2287
(dp2288
g1632
g1640
sg1633
g1656
sg328
S'c:/marmalade/7.2/s3e/h/s3ePointer.h'
p2289
sbsS'getStars.cpp'
p2290
g302
(g1628
g304
Ntp2291
Rp2292
(dp2293
g1632
g1195
sg1633
g1696
sg328
g1270
sbsS'options.cpp'
p2294
g302
(g1628
g304
Ntp2295
Rp2296
(dp2297
g1632
g1195
sg1633
g1696
sg328
g1278
sbsS's3eGL.h'
p2298
g302
(g1628
g304
Ntp2299
Rp2300
(dp2301
g1632
g1640
sg1633
g1656
sg328
S'c:/marmalade/7.2/s3e/h/s3eGL.h'
p2302
sbsS'IwGeomFVec2.h'
p2303
g302
(g1628
g304
Ntp2304
Rp2305
(dp2306
g1632
g1348
sg1633
g1701
sg328
g1367
sbsS'IwGeomSVec4.h'
p2307
g302
(g1628
g304
Ntp2308
Rp2309
(dp2310
g1632
g1348
sg1633
g1701
sg328
g1387
sbsS'poll.h'
p2311
g302
(g1628
g304
Ntp2312
Rp2313
(dp2314
g1632
g1640
sg1633
g1662
sg328
S'c:/marmalade/7.2/s3e/h/std/poll.h'
p2315
sbsS'IwMatAnim.h'
p2316
g302
(g1628
g304
Ntp2317
Rp2318
(dp2319
g1632
g1440
sg1633
g1781
sg328
g1447
sbsS'IwGeomFVec4.h'
p2320
g302
(g1628
g304
Ntp2321
Rp2322
(dp2323
g1632
g1348
sg1633
g1701
sg328
g1373
sbsS'IwGx.h'
p2324
g302
(g1628
g304
Ntp2325
Rp2326
(dp2327
g1632
g1440
sg1633
g1781
sg328
g1464
sbsS'valarray'
p2328
g302
(g1628
g304
Ntp2329
Rp2330
(dp2331
g1632
g1640
sg1633
g1641
sg328
S'c:/marmalade/7.2/s3e/h/std/c++/valarray'
p2332
sbsS'iosfwd'
p2333
g302
(g1628
g304
Ntp2334
Rp2335
(dp2336
g1632
g1640
sg1633
g1641
sg328
S'c:/marmalade/7.2/s3e/h/std/c++/iosfwd'
p2337
sbsS'gl2.h'
p2338
g302
(g1628
g304
Ntp2339
Rp2340
(dp2341
g1632
g1640
sg1633
g1917
sg328
S'c:/marmalade/7.2/s3e/h/GLES2/gl2.h'
p2342
sbsS'jpegint.h'
p2343
g302
(g1628
g304
Ntp2344
Rp2345
(dp2346
g1632
g1052
sg1633
g1731
sg328
g1057
sbsS'stdiostream.h'
p2347
g302
(g1628
g304
Ntp2348
Rp2349
(dp2350
g1632
g1640
sg1633
g1641
sg328
S'c:/marmalade/7.2/s3e/h/std/c++/stdiostream.h'
p2351
sbsS'mem.h'
p2352
g302
(g1628
g304
Ntp2353
Rp2354
(dp2355
g1632
g1640
sg1633
g1641
sg328
S'c:/marmalade/7.2/s3e/h/std/c++/mem.h'
p2356
sbsS'main.cpp'
p2357
g302
(g1628
g304
Ntp2358
Rp2359
(dp2360
g1632
g1195
sg1633
g1996
sg328
g1216
sbsS'zconf.h'
p2361
g302
(g1628
g304
Ntp2362
Rp2363
(dp2364
g1632
g1609
sg1633
(lp2365
g1604
ag1037
asg328
g1607
sbsS's3e.config.txt'
p2366
g302
(g1628
g304
Ntp2367
Rp2368
(dp2369
g1632
g1640
sg1633
g1656
sg328
S'c:/marmalade/7.2/s3e/s3e.config.txt'
p2370
sbsS'numeric'
p2371
g302
(g1628
g304
Ntp2372
Rp2373
(dp2374
g1632
g1640
sg1633
g1641
sg328
S'c:/marmalade/7.2/s3e/h/std/c++/numeric'
p2375
sbsS'utime.h'
p2376
g302
(g1628
g304
Ntp2377
Rp2378
(dp2379
g1632
g1640
sg1633
g1662
sg328
S'c:/marmalade/7.2/s3e/h/std/utime.h'
p2380
sbsS'jdhuff.h'
p2381
g302
(g1628
g304
Ntp2382
Rp2383
(dp2384
g1632
g1052
sg1633
g1731
sg328
g1067
sbsS'IwResHandlerWAV.cpp'
p2385
g302
(g1628
g304
Ntp2386
Rp2387
(dp2388
g1632
g1096
sg1633
g1686
sg328
g1114
sbsS'IwGxStream.h'
p2389
g302
(g1628
g304
Ntp2390
Rp2391
(dp2392
g1632
g1440
sg1633
g1781
sg328
g1441
sbsS'resourceManager.h'
p2393
g302
(g1628
g304
Ntp2394
Rp2395
(dp2396
g1632
g1195
sg1633
g1675
sg328
g1230
sbsS'IwImage.h'
p2397
g302
(g1628
g304
Ntp2398
Rp2399
(dp2400
g1632
g1504
sg1633
g1669
sg328
g1551
sbsS's3eImagePicker.h'
p2401
g302
(g1628
g304
Ntp2402
Rp2403
(dp2404
g1632
g1640
sg1633
g1874
sg328
S'c:/marmalade/7.2/s3e/h/ext/s3eImagePicker.h'
p2405
sbsS's3eWebView.defines.txt'
p2406
g302
(g1628
g304
Ntp2407
Rp2408
(dp2409
g1632
g1152
sg1633
(lp2410
S'Extensions'
p2411
ag1146
ag1148
asg328
g1150
sbsS'stdlib.h'
p2412
g302
(g1628
g304
Ntp2413
Rp2414
(dp2415
g1632
g1640
sg1633
g1662
sg328
S'c:/marmalade/7.2/s3e/h/std/stdlib.h'
p2416
sbsS'IwCopyingPtr.h'
p2417
g302
(g1628
g304
Ntp2418
Rp2419
(dp2420
g1632
g1504
sg1633
g1669
sg328
g1581
sbsS'iostream'
p2421
g302
(g1628
g304
Ntp2422
Rp2423
(dp2424
g1632
g1640
sg1633
g1641
sg328
S'c:/marmalade/7.2/s3e/h/std/c++/iostream'
p2425
sbsS'png.h'
p2426
g302
(g1628
g304
Ntp2427
Rp2428
(dp2429
g1632
g1041
sg1633
(lp2430
g1035
ag1037
asg328
g1039
sbsS'stddef.h'
p2431
g302
(g1628
g304
Ntp2432
Rp2433
(dp2434
g1632
g1640
sg1633
g1662
sg328
S'c:/marmalade/7.2/s3e/h/std/stddef.h'
p2435
sbsS'setjmp_win32.h'
p2436
g302
(g1628
g304
Ntp2437
Rp2438
(dp2439
g1632
g1640
sg1633
g1662
sg328
S'c:/marmalade/7.2/s3e/h/std/setjmp_win32.h'
p2440
sbsS'IwGxPrint.h'
p2441
g302
(g1628
g304
Ntp2442
Rp2443
(dp2444
g1632
g1440
sg1633
g1781
sg328
g1456
sbsS'iwgx_public.defines.txt'
p2445
g302
(g1628
g304
Ntp2446
Rp2447
(dp2448
g1632
g1440
sg1633
g1781
sg328
g1460
sbsS'streambuf.h'
p2449
g302
(g1628
g304
Ntp2450
Rp2451
(dp2452
g1632
g1640
sg1633
g1641
sg328
S'c:/marmalade/7.2/s3e/h/std/c++/streambuf.h'
p2453
sbsS'IwGeomFPlane.h'
p2454
g302
(g1628
g304
Ntp2455
Rp2456
(dp2457
g1632
g1348
sg1633
g1701
sg328
g1349
sbsS'un.h'
p2458
g302
(g1628
g304
Ntp2459
Rp2460
(dp2461
g1632
g1640
sg1633
g1795
sg328
S'c:/marmalade/7.2/s3e/h/std/sys/un.h'
p2462
sbsS'wchar.h'
p2463
g302
(g1628
g304
Ntp2464
Rp2465
(dp2466
g1632
g1640
sg1633
g1662
sg328
S'c:/marmalade/7.2/s3e/h/std/wchar.h'
p2467
sbsS's3eCameraCapture.h'
p2468
g302
(g1628
g304
Ntp2469
Rp2470
(dp2471
g1632
g1640
sg1633
g1874
sg328
S'c:/marmalade/7.2/s3e/h/ext/s3eCameraCapture.h'
p2472
sbsS'eglext.h'
p2473
g302
(g1628
g304
Ntp2474
Rp2475
(dp2476
g1632
g1640
sg1633
(lp2477
g1642
aS'GL'
p2478
aS'EGL'
p2479
asg328
S'c:/marmalade/7.2/s3e/h/EGL/eglext.h'
p2480
sbsS'IwResHandlerImage.h'
p2481
g302
(g1628
g304
Ntp2482
Rp2483
(dp2484
g1632
g1416
sg1633
g1925
sg328
g1424
sbsS'strstream.h'
p2485
g302
(g1628
g304
Ntp2486
Rp2487
(dp2488
g1632
g1640
sg1633
g1641
sg328
S'c:/marmalade/7.2/s3e/h/std/c++/strstream.h'
p2489
sbsS'tiniconv.h'
p2490
g302
(g1628
g304
Ntp2491
Rp2492
(dp2493
g1632
g1086
sg1633
g2136
sg328
g1084
sbsS'IwGLExt.h'
p2494
g302
(g1628
g304
Ntp2495
Rp2496
(dp2497
g1632
g1302
sg1633
g1650
sg328
g1306
sbsS'app.icf'
p2498
g302
(g1628
g304
Ntp2499
Rp2500
(dp2501
g1632
(dp2502
sg1633
g4
sg328
S'c:/Users/Vinicius/Desktop/Yes or No/Stars/data/app.icf'
p2503
sbsS'IwClassFactory.h'
p2504
g302
(g1628
g304
Ntp2505
Rp2506
(dp2507
g1632
g1504
sg1633
g1669
sg328
g1567
sbsS'file.h'
p2508
g302
(g1628
g304
Ntp2509
Rp2510
(dp2511
g1632
g1640
sg1633
g1795
sg328
S'c:/marmalade/7.2/s3e/h/std/sys/file.h'
p2512
sbsS'cstring'
p2513
g302
(g1628
g304
Ntp2514
Rp2515
(dp2516
g1632
g1640
sg1633
g1641
sg328
S'c:/marmalade/7.2/s3e/h/std/c++/cstring'
p2517
sbsS'IwSoundInst.cpp'
p2518
g302
(g1628
g304
Ntp2519
Rp2520
(dp2521
g1632
g1096
sg1633
g1686
sg328
g1100
sbsS'sceneManager.h'
p2522
g302
(g1628
g304
Ntp2523
Rp2524
(dp2525
g1632
g1195
sg1633
g1675
sg328
g1240
sbsS'iwutil.config.txt'
p2526
g302
(g1628
g304
Ntp2527
Rp2528
(dp2529
g1632
g1504
sg1633
g1669
sg328
g1565
sbsS's3eSMS.h'
p2530
g302
(g1628
g304
Ntp2531
Rp2532
(dp2533
g1632
g1640
sg1633
g1874
sg328
S'c:/marmalade/7.2/s3e/h/ext/s3eSMS.h'
p2534
sbsS'limits.h'
p2535
g302
(g1628
g304
Ntp2536
Rp2537
(dp2538
g1632
g1640
sg1633
g1662
sg328
S'c:/marmalade/7.2/s3e/h/std/limits.h'
p2539
sbsS's3eLibrary.h'
p2540
g302
(g1628
g304
Ntp2541
Rp2542
(dp2543
g1632
g1640
sg1633
g1874
sg328
S'c:/marmalade/7.2/s3e/h/ext/s3eLibrary.h'
p2544
sbsS'savedataManager.cpp'
p2545
g302
(g1628
g304
Ntp2546
Rp2547
(dp2548
g1632
g1195
sg1633
g1675
sg328
g1242
sbsS'IwMaterial.h'
p2549
g302
(g1628
g304
Ntp2550
Rp2551
(dp2552
g1632
g1440
sg1633
g1781
sg328
g1445
sbsS's3eFlurry.defines.txt'
p2553
g302
(g1628
g304
Ntp2554
Rp2555
(dp2556
g1632
g1181
sg1633
(lp2557
g1144
ag1175
ag1177
asg328
g1182
sbsS'IwGxSurface.h'
p2558
g302
(g1628
g304
Ntp2559
Rp2560
(dp2561
g1632
g1440
sg1633
g1781
sg328
g1458
sbsS's3eSocket.h'
p2562
g302
(g1628
g304
Ntp2563
Rp2564
(dp2565
g1632
g1640
sg1633
g1656
sg328
S'c:/marmalade/7.2/s3e/h/s3eSocket.h'
p2566
sbsS'IwAutoFile.h'
p2567
g302
(g1628
g304
Ntp2568
Rp2569
(dp2570
g1632
g1504
sg1633
g1669
sg328
g1571
sbsS'ipc.h'
p2571
g302
(g1628
g304
Ntp2572
Rp2573
(dp2574
g1632
g1640
sg1633
g1795
sg328
S'c:/marmalade/7.2/s3e/h/std/sys/ipc.h'
p2575
sbsS'poll_1.h'
p2576
g302
(g1628
g304
Ntp2577
Rp2578
(dp2579
g1632
g1640
sg1633
g1795
sg328
S'c:/marmalade/7.2/s3e/h/std/sys/poll.h'
p2580
sbsS's3eThread.h'
p2581
g302
(g1628
g304
Ntp2582
Rp2583
(dp2584
g1632
g1640
sg1633
g1656
sg328
S'c:/marmalade/7.2/s3e/h/s3eThread.h'
p2585
sbsS'ucontext.h'
p2586
g302
(g1628
g304
Ntp2587
Rp2588
(dp2589
g1632
g1640
sg1633
g1662
sg328
S'c:/marmalade/7.2/s3e/h/std/ucontext.h'
p2590
sbsS'time.h'
p2591
g302
(g1628
g304
Ntp2592
Rp2593
(dp2594
g1632
g1640
sg1633
g1662
sg328
S'c:/marmalade/7.2/s3e/h/std/time.h'
p2595
sbsS'jchuff.h'
p2596
g302
(g1628
g304
Ntp2597
Rp2598
(dp2599
g1632
g1052
sg1633
g1731
sg328
g1075
sbsS'IwSoundPCM.cpp'
p2600
g302
(g1628
g304
Ntp2601
Rp2602
(dp2603
g1632
g1096
sg1633
g1686
sg328
g1128
sbsS's3eSoundRecord.h'
p2604
g302
(g1628
g304
Ntp2605
Rp2606
(dp2607
g1632
g1640
sg1633
g1656
sg328
S'c:/marmalade/7.2/s3e/h/s3eSoundRecord.h'
p2608
sbsS'IwFibre.h'
p2609
g302
(g1628
g304
Ntp2610
Rp2611
(dp2612
g1632
g1504
sg1633
g1669
sg328
g1509
sbsS'IwMemBucket.h'
p2613
g302
(g1628
g304
Ntp2614
Rp2615
(dp2616
g1632
g1504
sg1633
g1669
sg328
g1585
sbsS'strings.h'
p2617
g302
(g1628
g304
Ntp2618
Rp2619
(dp2620
g1632
g1640
sg1633
g1662
sg328
S'c:/marmalade/7.2/s3e/h/std/strings.h'
p2621
sbsS's3eVersion.h'
p2622
g302
(g1628
g304
Ntp2623
Rp2624
(dp2625
g1632
g1640
sg1633
g1656
sg328
S'c:/marmalade/7.2/s3e/h/s3eVersion.h'
p2626
sbsS'IwSoundGroup.h'
p2627
g302
(g1628
g304
Ntp2628
Rp2629
(dp2630
g1632
g1096
sg1633
g1686
sg328
g1134
sbsS'IwSoundWAV.h'
p2631
g302
(g1628
g304
Ntp2632
Rp2633
(dp2634
g1632
g1096
sg1633
g1686
sg328
g1126
sbsS'IwGxFontGlyph.h'
p2635
g302
(g1628
g304
Ntp2636
Rp2637
(dp2638
g1632
g1326
sg1633
g1634
sg328
g1333
sbsS's3eTypes.h'
p2639
g302
(g1628
g304
Ntp2640
Rp2641
(dp2642
g1632
g1640
sg1633
g1656
sg328
S'c:/marmalade/7.2/s3e/h/s3eTypes.h'
p2643
sbsS'IwSoundSpec.h'
p2644
g302
(g1628
g304
Ntp2645
Rp2646
(dp2647
g1632
g1096
sg1633
g1686
sg328
g1130
sbsS'signal_2.h'
p2648
g302
(g1628
g304
Ntp2649
Rp2650
(dp2651
g1632
g1640
sg1633
g1641
sg328
S'c:/marmalade/7.2/s3e/h/std/c++/signal.h'
p2652
sbsS'termios.h'
p2653
g302
(g1628
g304
Ntp2654
Rp2655
(dp2656
g1632
g1640
sg1633
g1662
sg328
S'c:/marmalade/7.2/s3e/h/std/termios.h'
p2657
sbsS'iw2dscenegraph.mkf'
p2658
g302
(g1628
g304
Ntp2659
Rp2660
(dp2661
g1632
g1293
sg1633
g1975
sg328
g1291
sbsS'slist'
p2662
g302
(g1628
g304
Ntp2663
Rp2664
(dp2665
g1632
g1640
sg1633
g1641
sg328
S'c:/marmalade/7.2/s3e/h/std/c++/slist'
p2666
sbsS'cstdlib'
p2667
g302
(g1628
g304
Ntp2668
Rp2669
(dp2670
g1632
g1640
sg1633
g1641
sg328
S'c:/marmalade/7.2/s3e/h/std/c++/cstdlib'
p2671
sbsS's3eLocation.h'
p2672
g302
(g1628
g304
Ntp2673
Rp2674
(dp2675
g1632
g1640
sg1633
g1656
sg328
S'c:/marmalade/7.2/s3e/h/s3eLocation.h'
p2676
sbsS'IwMemBucketHelpers.h'
p2677
g302
(g1628
g304
Ntp2678
Rp2679
(dp2680
g1632
g1504
sg1633
g1669
sg328
g1579
sbsS's3eHash.h'
p2681
g302
(g1628
g304
Ntp2682
Rp2683
(dp2684
g1632
g1640
sg1633
g1656
sg328
S'c:/marmalade/7.2/s3e/h/s3eHash.h'
p2685
sbsS'IwSoundGroup.cpp'
p2686
g302
(g1628
g304
Ntp2687
Rp2688
(dp2689
g1632
g1096
sg1633
g1686
sg328
g1122
sbsS'IwGeomFMat.h'
p2690
g302
(g1628
g304
Ntp2691
Rp2692
(dp2693
g1632
g1348
sg1633
g1701
sg328
g1381
sbsS'type_traits.h'
p2694
g302
(g1628
g304
Ntp2695
Rp2696
(dp2697
g1632
g1640
sg1633
g1641
sg328
S'c:/marmalade/7.2/s3e/h/std/c++/type_traits.h'
p2698
sbsS'IwMenu.h'
p2699
g302
(g1628
g304
Ntp2700
Rp2701
(dp2702
g1632
g1504
sg1633
g1669
sg328
g1529
sbsS'IwResHandlerITX.h'
p2703
g302
(g1628
g304
Ntp2704
Rp2705
(dp2706
g1632
g1416
sg1633
g1925
sg328
g1430
sbsS'IwSoundData.h'
p2707
g302
(g1628
g304
Ntp2708
Rp2709
(dp2710
g1632
g1096
sg1633
g1686
sg328
g1140
sbsS'IwArray.h'
p2711
g302
(g1628
g304
Ntp2712
Rp2713
(dp2714
g1632
g1504
sg1633
g1669
sg328
g1505
sbsS'IwUTF8.h'
p2715
g302
(g1628
g304
Ntp2716
Rp2717
(dp2718
g1632
g1504
sg1633
g1669
sg328
g1573
sbsS'math_rvct.h'
p2719
g302
(g1628
g304
Ntp2720
Rp2721
(dp2722
g1632
g1640
sg1633
g1662
sg328
S'c:/marmalade/7.2/s3e/h/std/math_rvct.h'
p2723
sbsS'IwUtil.h'
p2724
g302
(g1628
g304
Ntp2725
Rp2726
(dp2727
g1632
g1504
sg1633
g1669
sg328
g1563
sbsS'IwGeomVec3.h'
p2728
g302
(g1628
g304
Ntp2729
Rp2730
(dp2731
g1632
g1348
sg1633
g1701
sg328
g1385
sbsS'wctype.h'
p2732
g302
(g1628
g304
Ntp2733
Rp2734
(dp2735
g1632
g1640
sg1633
g1662
sg328
S'c:/marmalade/7.2/s3e/h/std/wctype.h'
p2736
sbsS'mainMenu.h'
p2737
g302
(g1628
g304
Ntp2738
Rp2739
(dp2740
g1632
g1195
sg1633
g1696
sg328
g1262
sbsS'cstddef'
p2741
g302
(g1628
g304
Ntp2742
Rp2743
(dp2744
g1632
g1640
sg1633
g1641
sg328
S'c:/marmalade/7.2/s3e/h/std/c++/cstddef'
p2745
sbsS'assert.h'
p2746
g302
(g1628
g304
Ntp2747
Rp2748
(dp2749
g1632
g1640
sg1633
g1662
sg328
S'c:/marmalade/7.2/s3e/h/std/assert.h'
p2750
sbsS'mman.h'
p2751
g302
(g1628
g304
Ntp2752
Rp2753
(dp2754
g1632
g1640
sg1633
g1795
sg328
S'c:/marmalade/7.2/s3e/h/std/sys/mman.h'
p2755
sbsS'IwRandom.h'
p2756
g302
(g1628
g304
Ntp2757
Rp2758
(dp2759
g1632
g1504
sg1633
g1669
sg328
g1513
sbsS'libgen.h'
p2760
g302
(g1628
g304
Ntp2761
Rp2762
(dp2763
g1632
g1640
sg1633
g1662
sg328
S'c:/marmalade/7.2/s3e/h/std/libgen.h'
p2764
sbsS'utsname.h'
p2765
g302
(g1628
g304
Ntp2766
Rp2767
(dp2768
g1632
g1640
sg1633
g1795
sg328
S'c:/marmalade/7.2/s3e/h/std/sys/utsname.h'
p2769
sbsS'gameObject.h'
p2770
g302
(g1628
g304
Ntp2771
Rp2772
(dp2773
g1632
g1195
sg1633
g2170
sg328
g1196
sbsS'wait.h'
p2774
g302
(g1628
g304
Ntp2775
Rp2776
(dp2777
g1632
g1640
sg1633
g1795
sg328
S'c:/marmalade/7.2/s3e/h/std/sys/wait.h'
p2778
sbsS'param.h'
p2779
g302
(g1628
g304
Ntp2780
Rp2781
(dp2782
g1632
g1640
sg1633
g1795
sg328
S'c:/marmalade/7.2/s3e/h/std/sys/param.h'
p2783
sbsS'IwDivide.h'
p2784
g302
(g1628
g304
Ntp2785
Rp2786
(dp2787
g1632
g1504
sg1633
g1669
sg328
g1600
sbsS'Iw2DSceneGraphCore.cpp'
p2788
g302
(g1628
g304
Ntp2789
Rp2790
(dp2791
g1632
g1497
sg1633
(lp2792
S"'Marmalade Studio'"
p2793
ag1490
asg328
g1498
sbsS'IwResManager.h'
p2794
g302
(g1628
g304
Ntp2795
Rp2796
(dp2797
g1632
g1416
sg1633
g1925
sg328
g1434
sbsS'IwSoundManager.h'
p2798
g302
(g1628
g304
Ntp2799
Rp2800
(dp2801
g1632
g1096
sg1633
g1686
sg328
g1104
sbsS'cwctype'
p2802
g302
(g1628
g304
Ntp2803
Rp2804
(dp2805
g1632
g1640
sg1633
g1641
sg328
S'c:/marmalade/7.2/s3e/h/std/c++/cwctype'
p2806
sbsS'set'
p2807
g302
(g1628
g304
Ntp2808
Rp2809
(dp2810
g1632
g1640
sg1633
g1641
sg328
S'c:/marmalade/7.2/s3e/h/std/c++/set'
p2811
sbsS'IwGeomSQuat.h'
p2812
g302
(g1628
g304
Ntp2813
Rp2814
(dp2815
g1632
g1348
sg1633
g1701
sg328
g1400
sbsS'locale'
p2816
g302
(g1628
g304
Ntp2817
Rp2818
(dp2819
g1632
g1640
sg1633
g1641
sg328
S'c:/marmalade/7.2/s3e/h/std/c++/locale'
p2820
sbsS'cstdio'
p2821
g302
(g1628
g304
Ntp2822
Rp2823
(dp2824
g1632
g1640
sg1633
g1641
sg328
S'c:/marmalade/7.2/s3e/h/std/c++/cstdio'
p2825
sbsS'cdjpeg.h'
p2826
g302
(g1628
g304
Ntp2827
Rp2828
(dp2829
g1632
g1052
sg1633
g1731
sg328
g1055
sbsS'IwList.h'
p2830
g302
(g1628
g304
Ntp2831
Rp2832
(dp2833
g1632
g1504
sg1633
g1669
sg328
g1517
sbsS's3eWebView_interface.cpp'
p2834
g302
(g1628
g304
Ntp2835
Rp2836
(dp2837
g1632
g1152
sg1633
g2410
sg328
g1153
sbsS'inttypes.h'
p2838
g302
(g1628
g304
Ntp2839
Rp2840
(dp2841
g1632
g1640
sg1633
g1662
sg328
S'c:/marmalade/7.2/s3e/h/std/inttypes.h'
p2842
sbsS'dirent.h'
p2843
g302
(g1628
g304
Ntp2844
Rp2845
(dp2846
g1632
g1640
sg1633
g1662
sg328
S'c:/marmalade/7.2/s3e/h/std/dirent.h'
p2847
sbsS'IwFColour.h'
p2848
g302
(g1628
g304
Ntp2849
Rp2850
(dp2851
g1632
g1440
sg1633
g1781
sg328
g1480
sbsS'transupp.h'
p2852
g302
(g1628
g304
Ntp2853
Rp2854
(dp2855
g1632
g1052
sg1633
g1731
sg328
g1059
sbsS'IwMath.h'
p2856
g302
(g1628
g304
Ntp2857
Rp2858
(dp2859
g1632
g1504
sg1633
g1669
sg328
g1523
sbsS'IwGeomQuat.h'
p2860
g302
(g1628
g304
Ntp2861
Rp2862
(dp2863
g1632
g1348
sg1633
g1701
sg328
g1402
sbsS'glplatform.h'
p2864
g302
(g1628
g304
Ntp2865
Rp2866
(dp2867
g1632
g1640
sg1633
g2021
sg328
S'c:/marmalade/7.2/s3e/h/GLES/glplatform.h'
p2868
sbsS'iwgl.config.txt'
p2869
g302
(g1628
g304
Ntp2870
Rp2871
(dp2872
g1632
g1302
sg1633
g1650
sg328
g1308
sbsS'bitset'
p2873
g302
(g1628
g304
Ntp2874
Rp2875
(dp2876
g1632
g1640
sg1633
g1641
sg328
S'c:/marmalade/7.2/s3e/h/std/c++/bitset'
p2877
sbsS'alloca.h'
p2878
g302
(g1628
g304
Ntp2879
Rp2880
(dp2881
g1632
g1640
sg1633
g1662
sg328
S'c:/marmalade/7.2/s3e/h/std/alloca.h'
p2882
sbsS'IwResHandler.h'
p2883
g302
(g1628
g304
Ntp2884
Rp2885
(dp2886
g1632
g1416
sg1633
g1925
sg328
g1417
sbsS'IwResHandlerMTL.h'
p2887
g302
(g1628
g304
Ntp2888
Rp2889
(dp2890
g1632
g1440
sg1633
g1781
sg328
g1454
sbsS'IwRuntime.h'
p2891
g302
(g1628
g304
Ntp2892
Rp2893
(dp2894
g1632
g1504
sg1633
g1669
sg328
g1557
sbsS's3eFlurry.h'
p2895
g302
(g1628
g304
Ntp2896
Rp2897
(dp2898
g1632
g1181
sg1633
g1885
sg328
g1184
sbsS'limits'
p2899
g302
(g1628
g304
Ntp2900
Rp2901
(dp2902
g1632
g1640
sg1633
g1641
sg328
S'c:/marmalade/7.2/s3e/h/std/c++/limits'
p2903
sbsS'IwGeomBBox.h'
p2904
g302
(g1628
g304
Ntp2905
Rp2906
(dp2907
g1632
g1348
sg1633
g1701
sg328
g1377
sbsS'audioManager.h'
p2908
g302
(g1628
g304
Ntp2909
Rp2910
(dp2911
g1632
g1195
sg1633
g1675
sg328
g1244
sbsS's3eContacts.h'
p2912
g302
(g1628
g304
Ntp2913
Rp2914
(dp2915
g1632
g1640
sg1633
g1656
sg328
S'c:/marmalade/7.2/s3e/h/s3eContacts.h'
p2916
sbsS's3eLicense.h'
p2917
g302
(g1628
g304
Ntp2918
Rp2919
(dp2920
g1632
g1640
sg1633
g1656
sg328
S'c:/marmalade/7.2/s3e/h/s3eLicense.h'
p2921
sbsS'iwgx.config.txt'
p2922
g302
(g1628
g304
Ntp2923
Rp2924
(dp2925
g1632
g1440
sg1633
g1781
sg328
g1449
sbsS'IwTextParser.h'
p2926
g302
(g1628
g304
Ntp2927
Rp2928
(dp2929
g1632
g1504
sg1633
g1669
sg328
g1535
sbsS's3eTimer.h'
p2930
g302
(g1628
g304
Ntp2931
Rp2932
(dp2933
g1632
g1640
sg1633
g1656
sg328
S'c:/marmalade/7.2/s3e/h/s3eTimer.h'
p2934
sbsS'IwGeomVec.h'
p2935
g302
(g1628
g304
Ntp2936
Rp2937
(dp2938
g1632
g1348
sg1633
g1701
sg328
g1389
sbsS'IwSerialise.h'
p2939
g302
(g1628
g304
Ntp2940
Rp2941
(dp2942
g1632
g1504
sg1633
g1669
sg328
g1575
sbsS'cstdarg'
p2943
g302
(g1628
g304
Ntp2944
Rp2945
(dp2946
g1632
g1640
sg1633
g1641
sg328
S'c:/marmalade/7.2/s3e/h/std/c++/cstdarg'
p2947
sbsS'gl2ext.h'
p2948
g302
(g1628
g304
Ntp2949
Rp2950
(dp2951
g1632
g1640
sg1633
g1917
sg328
S'c:/marmalade/7.2/s3e/h/GLES2/gl2ext.h'
p2952
sbsS'IwChar.h'
p2953
g302
(g1628
g304
Ntp2954
Rp2955
(dp2956
g1632
g1504
sg1633
g1669
sg328
g1531
sbsS's3eSound.h'
p2957
g302
(g1628
g304
Ntp2958
Rp2959
(dp2960
g1632
g1640
sg1633
g1656
sg328
S'c:/marmalade/7.2/s3e/h/s3eSound.h'
p2961
sbsS'gameObject.cpp'
p2962
g302
(g1628
g304
Ntp2963
Rp2964
(dp2965
g1632
g1195
sg1633
g2170
sg328
g1193
sbsS's3eIOSBackgroundAudio.h'
p2966
g302
(g1628
g304
Ntp2967
Rp2968
(dp2969
g1632
g1640
sg1633
g1874
sg328
S'c:/marmalade/7.2/s3e/h/ext/s3eIOSBackgroundAudio.h'
p2970
sbsS'exception.h'
p2971
g302
(g1628
g304
Ntp2972
Rp2973
(dp2974
g1632
g1640
sg1633
g1641
sg328
S'c:/marmalade/7.2/s3e/h/std/c++/exception.h'
p2975
sbsS'iwgeom.config.txt'
p2976
g302
(g1628
g304
Ntp2977
Rp2978
(dp2979
g1632
g1348
sg1633
g1701
sg328
g1346
sbsS'iwgx.mkf'
p2980
g302
(g1628
g304
Ntp2981
Rp2982
(dp2983
g1632
g1453
sg1633
g1781
sg328
g1451
sbsS'gl.h'
p2984
g302
(g1628
g304
Ntp2985
Rp2986
(dp2987
g1632
g1640
sg1633
g2021
sg328
S'c:/marmalade/7.2/s3e/h/GLES/gl.h'
p2988
sbsS'savedataManager.h'
p2989
g302
(g1628
g304
Ntp2990
Rp2991
(dp2992
g1632
g1195
sg1633
g1675
sg328
g1232
sbsS's3eFacebook.defines.txt'
p2993
g302
(g1628
g304
Ntp2994
Rp2995
(dp2996
g1632
g1166
sg1633
(lp2997
S'Extensions'
p2998
ag1160
ag1162
asg328
g1167
sbsS'iwgl.mkf'
p2999
g302
(g1628
g304
Ntp3000
Rp3001
(dp3002
g1632
g1305
sg1633
g1650
sg328
g1303
sbsS'audioManager.cpp'
p3003
g302
(g1628
g304
Ntp3004
Rp3005
(dp3006
g1632
g1195
sg1633
g1675
sg328
g1248
sbsS'IwColour.h'
p3007
g302
(g1628
g304
Ntp3008
Rp3009
(dp3010
g1632
g1440
sg1633
g1781
sg328
g1482
sbsS'types.h'
p3011
g302
(g1628
g304
Ntp3012
Rp3013
(dp3014
g1632
g1640
sg1633
g1795
sg328
S'c:/marmalade/7.2/s3e/h/std/sys/types.h'
p3015
sbsS'ifaddrs.h'
p3016
g302
(g1628
g304
Ntp3017
Rp3018
(dp3019
g1632
g1640
sg1633
g1662
sg328
S'c:/marmalade/7.2/s3e/h/std/ifaddrs.h'
p3020
sbsS'inputManager.cpp'
p3021
g302
(g1628
g304
Ntp3022
Rp3023
(dp3024
g1632
g1195
sg1633
g1675
sg328
g1246
sbsS'IwTween.cpp'
p3025
g302
(g1628
g304
Ntp3026
Rp3027
(dp3028
g1632
g1622
sg1633
g2189
sg328
g1620
sbsS'exception'
p3029
g302
(g1628
g304
Ntp3030
Rp3031
(dp3032
g1632
g1640
sg1633
g1641
sg328
S'c:/marmalade/7.2/s3e/h/std/c++/exception'
p3033
sbsS's3eFacebook_interface.cpp'
p3034
g302
(g1628
g304
Ntp3035
Rp3036
(dp3037
g1632
g1166
sg1633
g2997
sg328
g1164
sbsS'rlocks.h'
p3038
g302
(g1628
g304
Ntp3039
Rp3040
(dp3041
g1632
g1640
sg1633
g1641
sg328
S'c:/marmalade/7.2/s3e/h/std/c++/rlocks.h'
p3042
sbsS'ioctl.h'
p3043
g302
(g1628
g304
Ntp3044
Rp3045
(dp3046
g1632
g1640
sg1633
g1795
sg328
S'c:/marmalade/7.2/s3e/h/std/sys/ioctl.h'
p3047
sbsS'rope'
p3048
g302
(g1628
g304
Ntp3049
Rp3050
(dp3051
g1632
g1640
sg1633
g1641
sg328
S'c:/marmalade/7.2/s3e/h/std/c++/rope'
p3052
sbsS'jinclude.h'
p3053
g302
(g1628
g304
Ntp3054
Rp3055
(dp3056
g1632
g1052
sg1633
g1731
sg328
g1050
sbsS's3eFlurry_interface.cpp'
p3057
g302
(g1628
g304
Ntp3058
Rp3059
(dp3060
g1632
g1181
sg1633
g2557
sg328
g1179
sbsS's3eWebView.h'
p3061
g302
(g1628
g304
Ntp3062
Rp3063
(dp3064
g1632
g1152
sg1633
(lp3065
g2411
ag1146
asg328
g1155
sbsS'IwEvent.h'
p3066
g302
(g1628
g304
Ntp3067
Rp3068
(dp3069
g1632
g1504
sg1633
g1669
sg328
g1533
sbsS'IwOptimiseSize.h'
p3070
g302
(g1628
g304
Ntp3071
Rp3072
(dp3073
g1632
g1504
sg1633
g1669
sg328
g1537
sbsS'iwgxfont_public.defines.txt'
p3074
g302
(g1628
g304
Ntp3075
Rp3076
(dp3077
g1632
g1326
sg1633
g1634
sg328
g1331
sbsS'iconv.h'
p3078
g302
(g1628
g304
Ntp3079
Rp3080
(dp3081
g1632
g1640
sg1633
g1662
sg328
S'c:/marmalade/7.2/s3e/h/std/iconv.h'
p3082
sbsS's3eDevice.h'
p3083
g302
(g1628
g304
Ntp3084
Rp3085
(dp3086
g1632
g1640
sg1633
g1656
sg328
S'c:/marmalade/7.2/s3e/h/s3eDevice.h'
p3087
sbsS'IwGeomSphere.h'
p3088
g302
(g1628
g304
Ntp3089
Rp3090
(dp3091
g1632
g1348
sg1633
g1701
sg328
g1404
sbsS'tiniconv.mkf'
p3092
g302
(g1628
g304
Ntp3093
Rp3094
(dp3095
g1632
g1091
sg1633
g2136
sg328
g1089
sbsS'iw2dscenegraph.defines.txt'
p3096
g302
(g1628
g304
Ntp3097
Rp3098
(dp3099
g1632
g1290
sg1633
g1975
sg328
g1296
sbsS'jdct.h'
p3100
g302
(g1628
g304
Ntp3101
Rp3102
(dp3103
g1632
g1052
sg1633
g1731
sg328
g1065
sbsS'cctype'
p3104
g302
(g1628
g304
Ntp3105
Rp3106
(dp3107
g1632
g1640
sg1633
g1641
sg328
S'c:/marmalade/7.2/s3e/h/std/c++/cctype'
p3108
sbsS'IwSoundADPCM.cpp'
p3109
g302
(g1628
g304
Ntp3110
Rp3111
(dp3112
g1632
g1096
sg1633
g1686
sg328
g1102
sbsS's3eConfig.h'
p3113
g302
(g1628
g304
Ntp3114
Rp3115
(dp3116
g1632
g1640
sg1633
g1656
sg328
S'c:/marmalade/7.2/s3e/h/s3eConfig.h'
p3117
sbsS'IwHashString.h'
p3118
g302
(g1628
g304
Ntp3119
Rp3120
(dp3121
g1632
g1504
sg1633
g1669
sg328
g1602
sbsS'stat.h'
p3122
g302
(g1628
g304
Ntp3123
Rp3124
(dp3125
g1632
g1640
sg1633
g1795
sg328
S'c:/marmalade/7.2/s3e/h/std/sys/stat.h'
p3126
sbsS'byteswap.h'
p3127
g302
(g1628
g304
Ntp3128
Rp3129
(dp3130
g1632
g1640
sg1633
g1662
sg328
S'c:/marmalade/7.2/s3e/h/std/byteswap.h'
p3131
sbsS'iwresmanager.mkf'
p3132
g302
(g1628
g304
Ntp3133
Rp3134
(dp3135
g1632
g1421
sg1633
g1925
sg328
g1419
sbsS'IwUtilInitTerm.h'
p3136
g302
(g1628
g304
Ntp3137
Rp3138
(dp3139
g1632
g1504
sg1633
g1669
sg328
g1569
sbsS'pthread_1.h'
p3140
g302
(g1628
g304
Ntp3141
Rp3142
(dp3143
g1632
g1640
sg1633
g1641
sg328
S'c:/marmalade/7.2/s3e/h/std/c++/pthread.h'
p3144
sbsS'iw2d.mkf'
p3145
g302
(g1628
g304
Ntp3146
Rp3147
(dp3148
g1632
g1321
sg1633
g1736
sg328
g1319
sbsS'complex'
p3149
g302
(g1628
g304
Ntp3150
Rp3151
(dp3152
g1632
g1640
sg1633
g1641
sg328
S'c:/marmalade/7.2/s3e/h/std/c++/complex'
p3153
sbsS'game.cpp'
p3154
g302
(g1628
g304
Ntp3155
Rp3156
(dp3157
g1632
g1195
sg1633
g1696
sg328
g1282
sbsS'algorithm'
p3158
g302
(g1628
g304
Ntp3159
Rp3160
(dp3161
g1632
g1640
sg1633
g1641
sg328
S'c:/marmalade/7.2/s3e/h/std/c++/algorithm'
p3162
sbsS's3e.icf'
p3163
g302
(g1628
g304
Ntp3164
Rp3165
(dp3166
g1632
g1640
sg1633
g1656
sg328
S'c:/marmalade/7.2/s3e/s3e.icf'
p3167
sbsS'sem.h'
p3168
g302
(g1628
g304
Ntp3169
Rp3170
(dp3171
g1632
g1640
sg1633
g1795
sg328
S'c:/marmalade/7.2/s3e/h/std/sys/sem.h'
p3172
sbsS'IwGxFontState.h'
p3173
g302
(g1628
g304
Ntp3174
Rp3175
(dp3176
g1632
g1326
sg1633
g1634
sg328
g1335
sbsS'stdio.h'
p3177
g302
(g1628
g304
Ntp3178
Rp3179
(dp3180
g1632
g1640
sg1633
g1662
sg328
S'c:/marmalade/7.2/s3e/h/std/stdio.h'
p3181
sbsS's3eFacebook.h'
p3182
g302
(g1628
g304
Ntp3183
Rp3184
(dp3185
g1632
g1166
sg1633
(lp3186
g2998
ag1160
ag1037
asg328
g1170
sbsS'jmemsys.h'
p3187
g302
(g1628
g304
Ntp3188
Rp3189
(dp3190
g1632
g1052
sg1633
g1731
sg328
g1069
sbsS'ios'
p3191
g302
(g1628
g304
Ntp3192
Rp3193
(dp3194
g1632
g1640
sg1633
g1641
sg328
S'c:/marmalade/7.2/s3e/h/std/c++/ios'
p3195
sbsS'IwTween.h'
p3196
g302
(g1628
g304
Ntp3197
Rp3198
(dp3199
g1632
g1622
sg1633
g2189
sg328
g1623
sbsS'stack'
p3200
g302
(g1628
g304
Ntp3201
Rp3202
(dp3203
g1632
g1640
sg1633
g1641
sg328
S'c:/marmalade/7.2/s3e/h/std/c++/stack'
p3204
sbsS'IwSoundParams.h'
p3205
g302
(g1628
g304
Ntp3206
Rp3207
(dp3208
g1632
g1096
sg1633
g1686
sg328
g1138
sbsS'new.h'
p3209
g302
(g1628
g304
Ntp3210
Rp3211
(dp3212
g1632
g1640
sg1633
g1641
sg328
S'c:/marmalade/7.2/s3e/h/std/c++/new.h'
p3213
sbsS's3eEMail.h'
p3214
g302
(g1628
g304
Ntp3215
Rp3216
(dp3217
g1632
g1640
sg1633
g1874
sg328
S'c:/marmalade/7.2/s3e/h/ext/s3eEMail.h'
p3218
sbsS's3eVideo.h'
p3219
g302
(g1628
g304
Ntp3220
Rp3221
(dp3222
g1632
g1640
sg1633
g1656
sg328
S'c:/marmalade/7.2/s3e/h/s3eVideo.h'
p3223
sbsS'pngconf.h'
p3224
g302
(g1628
g304
Ntp3225
Rp3226
(dp3227
g1632
g1041
sg1633
g2430
sg328
g1042
sbsS'pwd.h'
p3228
g302
(g1628
g304
Ntp3229
Rp3230
(dp3231
g1632
g1640
sg1633
g1662
sg328
S'c:/marmalade/7.2/s3e/h/std/pwd.h'
p3232
sbsS'IwOptimiseThumb.h'
p3233
g302
(g1628
g304
Ntp3234
Rp3235
(dp3236
g1632
g1504
sg1633
g1669
sg328
g1561
sbsS'IwClip.h'
p3237
g302
(g1628
g304
Ntp3238
Rp3239
(dp3240
g1632
g1440
sg1633
g1781
sg328
g1462
sbsS'IwSoundInst.h'
p3241
g302
(g1628
g304
Ntp3242
Rp3243
(dp3244
g1632
g1096
sg1633
g1686
sg328
g1116
sbsS'iwresmanager.config.txt'
p3245
g302
(g1628
g304
Ntp3246
Rp3247
(dp3248
g1632
g1416
sg1633
g1925
sg328
g1426
sbsS'IwGxShaderTechnique.h'
p3249
g302
(g1628
g304
Ntp3250
Rp3251
(dp3252
g1632
g1440
sg1633
g1781
sg328
g1484
sbsS'getStars.h'
p3253
g302
(g1628
g304
Ntp3254
Rp3255
(dp3256
g1632
g1195
sg1633
g1696
sg328
g1264
sbsS'IwCore.h'
p3257
g302
(g1628
g304
Ntp3258
Rp3259
(dp3260
g1632
g1504
sg1633
g1669
sg328
g1502
sbsS'cfloat'
p3261
g302
(g1628
g304
Ntp3262
Rp3263
(dp3264
g1632
g1640
sg1633
g1641
sg328
S'c:/marmalade/7.2/s3e/h/std/c++/cfloat'
p3265
sbsS'IwGeomMat2D.h'
p3266
g302
(g1628
g304
Ntp3267
Rp3268
(dp3269
g1632
g1348
sg1633
g1701
sg328
g1355
sbsS'IwAllocator.h'
p3270
g302
(g1628
g304
Ntp3271
Rp3272
(dp3273
g1632
g1504
sg1633
g1669
sg328
g1541
sbsS'timerManager.cpp'
p3274
g302
(g1628
g304
Ntp3275
Rp3276
(dp3277
g1632
g1195
sg1633
g1675
sg328
g1222
sbsS'customize.h'
p3278
g302
(g1628
g304
Ntp3279
Rp3280
(dp3281
g1632
g1195
sg1633
g1696
sg328
g1258
sbsS'IwPath.h'
p3282
g302
(g1628
g304
Ntp3283
Rp3284
(dp3285
g1632
g1504
sg1633
g1669
sg328
g1577
sbsS'iwgxfont.mkf'
p3286
g302
(g1628
g304
Ntp3287
Rp3288
(dp3289
g1632
g1341
sg1633
g1634
sg328
g1339
sbsS'IwTexture.h'
p3290
g302
(g1628
g304
Ntp3291
Rp3292
(dp3293
g1632
g1440
sg1633
g1781
sg328
g1478
sbsS'vortex.cpp'
p3294
g302
(g1628
g304
Ntp3295
Rp3296
(dp3297
g1632
g1195
sg1633
g2170
sg328
g1198
sbsS's3eAccelerometer.h'
p3298
g302
(g1628
g304
Ntp3299
Rp3300
(dp3301
g1632
g1640
sg1633
g1656
sg328
S'c:/marmalade/7.2/s3e/h/s3eAccelerometer.h'
p3302
sbsS'setjmp.h'
p3303
g302
(g1628
g304
Ntp3304
Rp3305
(dp3306
g1632
g1640
sg1633
g1662
sg328
S'c:/marmalade/7.2/s3e/h/std/setjmp.h'
p3307
sbsS'items.cpp'
p3308
g302
(g1628
g304
Ntp3309
Rp3310
(dp3311
g1632
g1195
sg1633
g1696
sg328
g1256
sbsS'IwSoundParams.cpp'
p3312
g302
(g1628
g304
Ntp3313
Rp3314
(dp3315
g1632
g1096
sg1633
g1686
sg328
g1106
sbsS'IwFile.h'
p3316
g302
(g1628
g304
Ntp3317
Rp3318
(dp3319
g1632
g1504
sg1633
g1669
sg328
g1543
sbsS'IwTextParseable.h'
p3320
g302
(g1628
g304
Ntp3321
Rp3322
(dp3323
g1632
g1504
sg1633
g1669
sg328
g1596
sbsS'istream.h'
p3324
g302
(g1628
g304
Ntp3325
Rp3326
(dp3327
g1632
g1640
sg1633
g1641
sg328
S'c:/marmalade/7.2/s3e/h/std/c++/istream.h'
p3328
sbsS'stdint.h'
p3329
g302
(g1628
g304
Ntp3330
Rp3331
(dp3332
g1632
g1640
sg1633
g1662
sg328
S'c:/marmalade/7.2/s3e/h/std/stdint.h'
p3333
sbsS'semaphore.h'
p3334
g302
(g1628
g304
Ntp3335
Rp3336
(dp3337
g1632
g1640
sg1633
g1662
sg328
S'c:/marmalade/7.2/s3e/h/std/semaphore.h'
p3338
sbsS'ctime'
p3339
g302
(g1628
g304
Ntp3340
Rp3341
(dp3342
g1632
g1640
sg1633
g1641
sg328
S'c:/marmalade/7.2/s3e/h/std/c++/ctime'
p3343
sbsS'sstream'
p3344
g302
(g1628
g304
Ntp3345
Rp3346
(dp3347
g1632
g1640
sg1633
g1641
sg328
S'c:/marmalade/7.2/s3e/h/std/c++/sstream'
p3348
sbsS'IwGeomFBBox.h'
p3349
g302
(g1628
g304
Ntp3350
Rp3351
(dp3352
g1632
g1348
sg1633
g1701
sg328
g1410
sbsS'IwDebugPrim.h'
p3353
g302
(g1628
g304
Ntp3354
Rp3355
(dp3356
g1632
g1440
sg1633
g1781
sg328
g1468
sbsS'parallaxManager.cpp'
p3357
g302
(g1628
g304
Ntp3358
Rp3359
(dp3360
g1632
g1195
sg1633
g1675
sg328
g1236
sbsS'parallaxManager.h'
p3361
g302
(g1628
g304
Ntp3362
Rp3363
(dp3364
g1632
g1195
sg1633
g1675
sg328
g1250
sbsS'IwGxFontContainer.h'
p3365
g302
(g1628
g304
Ntp3366
Rp3367
(dp3368
g1632
g1326
sg1633
g1634
sg328
g1329
sbsS'player.h'
p3369
g302
(g1628
g304
Ntp3370
Rp3371
(dp3372
g1632
g1195
sg1633
g2170
sg328
g1202
sbsS'iw2dscenegraphcore.mkf'
p3373
g302
(g1628
g304
Ntp3374
Rp3375
(dp3376
g1632
g1494
sg1633
g2792
sg328
g1492
sbsS'resourceManager.cpp'
p3377
g302
(g1628
g304
Ntp3378
Rp3379
(dp3380
g1632
g1195
sg1633
g1675
sg328
g1252
sbsS's3eExt.h'
p3381
g302
(g1628
g304
Ntp3382
Rp3383
(dp3384
g1632
g1640
sg1633
g1656
sg328
S'c:/marmalade/7.2/s3e/h/s3eExt.h'
p3385
sbsS'IwGeomFVec3.h'
p3386
g302
(g1628
g304
Ntp3387
Rp3388
(dp3389
g1632
g1348
sg1633
g1701
sg328
g1365
sbsS'IwClip.inl'
p3390
g302
(g1628
g304
Ntp3391
Rp3392
(dp3393
g1632
g1440
sg1633
g1781
sg328
g1474
sbsS'streambuf'
p3394
g302
(g1628
g304
Ntp3395
Rp3396
(dp3397
g1632
g1640
sg1633
g1641
sg328
S'c:/marmalade/7.2/s3e/h/std/c++/streambuf'
p3398
sbsS's3eMetrics.h'
p3399
g302
(g1628
g304
Ntp3400
Rp3401
(dp3402
g1632
g1640
sg1633
g1874
sg328
S'c:/marmalade/7.2/s3e/h/ext/s3eMetrics.h'
p3403
sbsS'IwGxFont.h'
p3404
g302
(g1628
g304
Ntp3405
Rp3406
(dp3407
g1632
g1326
sg1633
g1634
sg328
g1324
sbsS's3eSecureStorage.h'
p3408
g302
(g1628
g304
Ntp3409
Rp3410
(dp3411
g1632
g1640
sg1633
g1656
sg328
S'c:/marmalade/7.2/s3e/h/s3eSecureStorage.h'
p3412
sbsS'string.h'
p3413
g302
(g1628
g304
Ntp3414
Rp3415
(dp3416
g1632
g1640
sg1633
g1662
sg328
S'c:/marmalade/7.2/s3e/h/std/string.h'
p3417
sbsS'IwResource.h'
p3418
g302
(g1628
g304
Ntp3419
Rp3420
(dp3421
g1632
g1504
sg1633
g1669
sg328
g1507
sbsS'IwGeomSVec2.h'
p3422
g302
(g1628
g304
Ntp3423
Rp3424
(dp3425
g1632
g1348
sg1633
g1701
sg328
g1371
sbsS'libjpeg.mkf'
p3426
g302
(g1628
g304
Ntp3427
Rp3428
(dp3429
g1632
g1081
sg1633
(lp3430
g1047
asg328
g1079
sbsS'IwGxDebug.h'
p3431
g302
(g1628
g304
Ntp3432
Rp3433
(dp3434
g1632
g1440
sg1633
g1781
sg328
g1466
sbsS'pthread_types.h'
p3435
g302
(g1628
g304
Ntp3436
Rp3437
(dp3438
g1632
g1640
sg1633
g1662
sg328
S'c:/marmalade/7.2/s3e/h/std/pthread_types.h'
p3439
sbsS'iomanip.h'
p3440
g302
(g1628
g304
Ntp3441
Rp3442
(dp3443
g1632
g1640
sg1633
g1641
sg328
S'c:/marmalade/7.2/s3e/h/std/c++/iomanip.h'
p3444
sbsS'IwKeymap.h'
p3445
g302
(g1628
g304
Ntp3446
Rp3447
(dp3448
g1632
g1504
sg1633
g1669
sg328
g1590
sbsS'IwDebug.h'
p3449
g302
(g1628
g304
Ntp3450
Rp3451
(dp3452
g1632
g1504
sg1633
g1669
sg328
g1598
sbsS'IwVariableBitField.h'
p3453
g302
(g1628
g304
Ntp3454
Rp3455
(dp3456
g1632
g1504
sg1633
g1669
sg328
g1547
sbsS'IwGeomMenu.h'
p3457
g302
(g1628
g304
Ntp3458
Rp3459
(dp3460
g1632
g1348
sg1633
g1701
sg328
g1357
sbsS'IwDivTable.h'
p3461
g302
(g1628
g304
Ntp3462
Rp3463
(dp3464
g1632
g1504
sg1633
g1669
sg328
g1525
sbsS'ctype.h'
p3465
g302
(g1628
g304
Ntp3466
Rp3467
(dp3468
g1632
g1640
sg1633
g1662
sg328
S'c:/marmalade/7.2/s3e/h/std/ctype.h'
p3469
sbsS'mainMenu.cpp'
p3470
g302
(g1628
g304
Ntp3471
Rp3472
(dp3473
g1632
g1195
sg1633
g1696
sg328
g1272
sbsS'IwResGroup.h'
p3474
g302
(g1628
g304
Ntp3475
Rp3476
(dp3477
g1632
g1416
sg1633
g1925
sg328
g1422
sbsS'signal_1.h'
p3478
g302
(g1628
g304
Ntp3479
Rp3480
(dp3481
g1632
g1640
sg1633
g1795
sg328
S'c:/marmalade/7.2/s3e/h/std/sys/signal.h'
p3482
sbsS'IwSoundData.cpp'
p3483
g302
(g1628
g304
Ntp3484
Rp3485
(dp3486
g1632
g1096
sg1633
g1686
sg328
g1108
sbsS'jerror.h'
p3487
g302
(g1628
g304
Ntp3488
Rp3489
(dp3490
g1632
g1052
sg1633
g1731
sg328
g1073
sbsS'shm.h'
p3491
g302
(g1628
g304
Ntp3492
Rp3493
(dp3494
g1632
g1640
sg1633
g1795
sg328
S'c:/marmalade/7.2/s3e/h/std/sys/shm.h'
p3495
sbsS'IwManagedList.h'
p3496
g302
(g1628
g304
Ntp3497
Rp3498
(dp3499
g1632
g1504
sg1633
g1669
sg328
g1515
sbsS'prctl.h'
p3500
g302
(g1628
g304
Ntp3501
Rp3502
(dp3503
g1632
g1640
sg1633
g1795
sg328
S'c:/marmalade/7.2/s3e/h/std/sys/prctl.h'
p3504
sbsS's3eCamera.h'
p3505
g302
(g1628
g304
Ntp3506
Rp3507
(dp3508
g1632
g1640
sg1633
g1656
sg328
S'c:/marmalade/7.2/s3e/h/s3eCamera.h'
p3509
sbsS'utility'
p3510
g302
(g1628
g304
Ntp3511
Rp3512
(dp3513
g1632
g1640
sg1633
g1641
sg328
S'c:/marmalade/7.2/s3e/h/std/c++/utility'
p3514
sbsS's3ewebview.mkf'
p3515
g302
(g1628
g304
Ntp3516
Rp3517
(dp3518
g1632
g1159
sg1633
g3065
sg328
g1157
sbsS'IwGeomLegacy.h'
p3519
g302
(g1628
g304
Ntp3520
Rp3521
(dp3522
g1632
g1348
sg1633
g1701
sg328
g1406
sbsS'IwTPage.h'
p3523
g302
(g1628
g304
Ntp3524
Rp3525
(dp3526
g1632
g1440
sg1633
g1781
sg328
g1438
sbsS'IwResSerialise.h'
p3527
g302
(g1628
g304
Ntp3528
Rp3529
(dp3530
g1632
g1416
sg1633
g1925
sg328
g1432
sbsS's3eCrypto.h'
p3531
g302
(g1628
g304
Ntp3532
Rp3533
(dp3534
g1632
g1640
sg1633
g1656
sg328
S'c:/marmalade/7.2/s3e/h/s3eCrypto.h'
p3535
sbsS's3eKeyboard.h'
p3536
g302
(g1628
g304
Ntp3537
Rp3538
(dp3539
g1632
g1640
sg1633
g1656
sg328
S'c:/marmalade/7.2/s3e/h/s3eKeyboard.h'
p3540
sbsS'fcntl.h'
p3541
g302
(g1628
g304
Ntp3542
Rp3543
(dp3544
g1632
g1640
sg1633
g1662
sg328
S'c:/marmalade/7.2/s3e/h/std/fcntl.h'
p3545
sbsS'Iw2DSceneGraphCore.h'
p3546
g302
(g1628
g304
Ntp3547
Rp3548
(dp3549
g1632
g1497
sg1633
g2792
sg328
g1495
sbsS'memory.h'
p3550
g302
(g1628
g304
Ntp3551
Rp3552
(dp3553
g1632
g1640
sg1633
g1662
sg328
S'c:/marmalade/7.2/s3e/h/std/memory.h'
p3554
sbsS'egl.h'
p3555
g302
(g1628
g304
Ntp3556
Rp3557
(dp3558
g1632
g1640
sg1633
g2477
sg328
S'c:/marmalade/7.2/s3e/h/EGL/egl.h'
p3559
sbsS'IwGeomIntersect.h'
p3560
g302
(g1628
g304
Ntp3561
Rp3562
(dp3563
g1632
g1348
sg1633
g1701
sg328
g1398
sbsS'IwTextParserITX.h'
p3564
g302
(g1628
g304
Ntp3565
Rp3566
(dp3567
g1632
g1504
sg1633
g1669
sg328
g1527
sbsS'easyArray.cpp'
p3568
g302
(g1628
g304
Ntp3569
Rp3570
(dp3571
g1632
g1195
sg1633
g1831
sg328
g1210
sbsS'sceneManager.cpp'
p3572
g302
(g1628
g304
Ntp3573
Rp3574
(dp3575
g1632
g1195
sg1633
g1675
sg328
g1228
sbsS'Iw2DSceneGraph.cpp'
p3576
g302
(g1628
g304
Ntp3577
Rp3578
(dp3579
g1632
g1290
sg1633
g1975
sg328
g1288
sbsS'ostream.h'
p3580
g302
(g1628
g304
Ntp3581
Rp3582
(dp3583
g1632
g1640
sg1633
g1641
sg328
S'c:/marmalade/7.2/s3e/h/std/c++/ostream.h'
p3584
sbsS'stl_user_config.h'
p3585
g302
(g1628
g304
Ntp3586
Rp3587
(dp3588
g1632
g1640
sg1633
g1641
sg328
S'c:/marmalade/7.2/s3e/h/std/c++/stl_user_config.h'
p3589
sbsS'IwProfileMenu.h'
p3590
g302
(g1628
g304
Ntp3591
Rp3592
(dp3593
g1632
g1504
sg1633
g1669
sg328
g1519
sbsS'MarmaladeVersion.h'
p3594
g302
(g1628
g304
Ntp3595
Rp3596
(dp3597
g1632
g1640
sg1633
g1656
sg328
S'c:/marmalade/7.2/s3e/h/MarmaladeVersion.h'
p3598
sbsS'IwResHandlerWAV.h'
p3599
g302
(g1628
g304
Ntp3600
Rp3601
(dp3602
g1632
g1096
sg1633
g1686
sg328
g1136
sbsS'options.h'
p3603
g302
(g1628
g304
Ntp3604
Rp3605
(dp3606
g1632
g1195
sg1633
g1696
sg328
g1268
sbsS'ios.h'
p3607
g302
(g1628
g304
Ntp3608
Rp3609
(dp3610
g1632
g1640
sg1633
g1641
sg328
S'c:/marmalade/7.2/s3e/h/std/c++/ios.h'
p3611
sbsS'store.cpp'
p3612
g302
(g1628
g304
Ntp3613
Rp3614
(dp3615
g1632
g1195
sg1633
g1696
sg328
g1276
sbsS'IwImageHelper.h'
p3616
g302
(g1628
g304
Ntp3617
Rp3618
(dp3619
g1632
g1504
sg1633
g1669
sg328
g1592
sbsS'zlib.h'
p3620
g302
(g1628
g304
Ntp3621
Rp3622
(dp3623
g1632
g1609
sg1633
g2365
sg328
g1610
sbsS'hash_set'
p3624
g302
(g1628
g304
Ntp3625
Rp3626
(dp3627
g1632
g1640
sg1633
g1641
sg328
S'c:/marmalade/7.2/s3e/h/std/c++/hash_set'
p3628
sbsS'IwGeomFQuat.h'
p3629
g302
(g1628
g304
Ntp3630
Rp3631
(dp3632
g1632
g1348
sg1633
g1701
sg328
g1383
sbsS'jmorecfg.h'
p3633
g302
(g1628
g304
Ntp3634
Rp3635
(dp3636
g1632
g1052
sg1633
g1731
sg328
g1071
sbsS'eglplatform.h'
p3637
g302
(g1628
g304
Ntp3638
Rp3639
(dp3640
g1632
g1640
sg1633
g2477
sg328
S'c:/marmalade/7.2/s3e/h/EGL/eglplatform.h'
p3641
sbsS'cmath'
p3642
g302
(g1628
g304
Ntp3643
Rp3644
(dp3645
g1632
g1640
sg1633
g1641
sg328
S'c:/marmalade/7.2/s3e/h/std/c++/cmath'
p3646
sbsS'math_gcc.h'
p3647
g302
(g1628
g304
Ntp3648
Rp3649
(dp3650
g1632
g1640
sg1633
g1662
sg328
S'c:/marmalade/7.2/s3e/h/std/math_gcc.h'
p3651
sbsS's3eMemory.h'
p3652
g302
(g1628
g304
Ntp3653
Rp3654
(dp3655
g1632
g1640
sg1633
g1656
sg328
S'c:/marmalade/7.2/s3e/h/s3eMemory.h'
p3656
sbsS'IwGeomSVec3.h'
p3657
g302
(g1628
g304
Ntp3658
Rp3659
(dp3660
g1632
g1348
sg1633
g1701
sg328
g1375
sbsS's3eFile.h'
p3661
g302
(g1628
g304
Ntp3662
Rp3663
(dp3664
g1632
g1640
sg1633
g1656
sg328
S'c:/marmalade/7.2/s3e/h/s3eFile.h'
p3665
sbsS'IwGxTypes.h'
p3666
g302
(g1628
g304
Ntp3667
Rp3668
(dp3669
g1632
g1440
sg1633
g1781
sg328
g1486
sbsS'cerrno'
p3670
g302
(g1628
g304
Ntp3671
Rp3672
(dp3673
g1632
g1640
sg1633
g1641
sg328
S'c:/marmalade/7.2/s3e/h/std/c++/cerrno'
p3674
sbsS'IwSoundManager.cpp'
p3675
g302
(g1628
g304
Ntp3676
Rp3677
(dp3678
g1632
g1096
sg1633
g1686
sg328
g1094
sbsS'main.h'
p3679
g302
(g1628
g304
Ntp3680
Rp3681
(dp3682
g1632
g1195
sg1633
g1996
sg328
g1214
sbsS'soundengine.mkf'
p3683
g302
(g1628
g304
Ntp3684
Rp3685
(dp3686
g1632
g1099
sg1633
g1686
sg328
g1097
sbsS'resource.h'
p3687
g302
(g1628
g304
Ntp3688
Rp3689
(dp3690
g1632
g1640
sg1633
g1795
sg328
S'c:/marmalade/7.2/s3e/h/std/sys/resource.h'
p3691
sbsS'clocale'
p3692
g302
(g1628
g304
Ntp3693
Rp3694
(dp3695
g1632
g1640
sg1633
g1641
sg328
S'c:/marmalade/7.2/s3e/h/std/c++/clocale'
p3696
sbsS'csetjmp'
p3697
g302
(g1628
g304
Ntp3698
Rp3699
(dp3700
g1632
g1640
sg1633
g1641
sg328
S'c:/marmalade/7.2/s3e/h/std/c++/csetjmp'
p3701
sbsS'netdb.h'
p3702
g302
(g1628
g304
Ntp3703
Rp3704
(dp3705
g1632
g1640
sg1633
g1662
sg328
S'c:/marmalade/7.2/s3e/h/std/netdb.h'
p3706
sbsS's3eAndroidJNI.h'
p3707
g302
(g1628
g304
Ntp3708
Rp3709
(dp3710
g1632
g1640
sg1633
g1874
sg328
S'c:/marmalade/7.2/s3e/h/ext/s3eAndroidJNI.h'
p3711
sbsS'stdexcept'
p3712
g302
(g1628
g304
Ntp3713
Rp3714
(dp3715
g1632
g1640
sg1633
g1641
sg328
S'c:/marmalade/7.2/s3e/h/std/c++/stdexcept'
p3716
sbsS'math.h'
p3717
g302
(g1628
g304
Ntp3718
Rp3719
(dp3720
g1632
g1640
sg1633
g1662
sg328
S'c:/marmalade/7.2/s3e/h/std/math.h'
p3721
sbsS'stdbool.h'
p3722
g302
(g1628
g304
Ntp3723
Rp3724
(dp3725
g1632
g1640
sg1633
g1662
sg328
S'c:/marmalade/7.2/s3e/h/std/stdbool.h'
p3726
sbsS'uio.h'
p3727
g302
(g1628
g304
Ntp3728
Rp3729
(dp3730
g1632
g1640
sg1633
g1795
sg328
S'c:/marmalade/7.2/s3e/h/std/sys/uio.h'
p3731
sbsS'IwUncopyable.h'
p3732
g302
(g1628
g304
Ntp3733
Rp3734
(dp3735
g1632
g1504
sg1633
g1669
sg328
g1549
sbsS's3efacebook.mkf'
p3736
g302
(g1628
g304
Ntp3737
Rp3738
(dp3739
g1632
g1174
sg1633
(lp3740
g2998
ag1160
asg328
g1172
sbssS'juice_build_type'
p3741
g4
sS'tests'
p3742
(lp3743
sS'project_name'
p3744
g310
sS'root_file'
p3745
g119
sS'current_root'
p3746
S'c:/Users/Vinicius/Desktop/Yes or No/Stars'
p3747
sS'dependencies'
p3748
(lp3749
sS'include_paths'
p3750
(lp3751
S'c:/marmalade/7.2/extensions/s3ewebview/h'
p3752
aS'c:/marmalade/7.2/modules/iwutil/h'
p3753
aS'c:/marmalade/7.2/modules/third_party/libjpeg/h'
p3754
aS'c:/marmalade/7.2/modules/third_party/zlib/h'
p3755
aS'c:/marmalade/7.2/modules/third_party/libpng/h'
p3756
aS'c:/marmalade/7.2/extensions/s3efacebook/h'
p3757
aS'c:/marmalade/7.2/modules/iw2d/h'
p3758
aS'c:/marmalade/7.2/modules/iwgx/h'
p3759
aS'c:/marmalade/7.2/modules/iwgl/h'
p3760
aS'c:/marmalade/7.2/modules/iwgeom/h'
p3761
aS'c:/marmalade/7.2/modules/iwresmanager/h'
p3762
aS'c:/marmalade/7.2/modules/iwgxfont/h'
p3763
aS'c:/marmalade/7.2/modules/third_party/tiniconv/source'
p3764
aS'c:/marmalade/7.2/modules/iw2dscenegraph/h'
p3765
aS'c:/marmalade/7.2/modules/iw2dscenegraphcore/h'
p3766
aS'c:/marmalade/7.2/modules/iwtween/h'
p3767
aS'c:/users/vinicius/desktop/yes or no/stars/modules/soundengine/h'
p3768
aS'c:/users/vinicius/desktop/yes or no/stars/modules/soundengine/source'
p3769
aS'c:/marmalade/7.2/extensions/s3eflurry/h'
p3770
aS'c:/marmalade/7.2/s3e/h'
p3771
aS'c:/marmalade/7.2/s3e/h/ext'
p3772
aS'c:/marmalade/7.2/s3e/h/std'
p3773
aS'c:/marmalade/7.2/s3e/h/std/c++'
p3774
aS'c:/marmalade/7.2/s3e/h/ext_legacy'
p3775
aS'c:/marmalade/7.2/s3e/h/legacy'
p3776
asS'weak_frameworks'
p3777
(lp3778
sS'extprojects'
p3779
(dp3780
sg605
(dp3781
g599
(lp3782
(S'c:/Users/Vinicius/Desktop/Yes or No/Stars/data/audio'
p3783
S'audio'
p3784
I0
tp3785
a(S'c:/Users/Vinicius/Desktop/Yes or No/Stars/data/textures'
p3786
S'textures'
p3787
I0
tp3788
a(S'c:/Users/Vinicius/Desktop/Yes or No/Stars/data-ram/data-gles1,c:/Users/Vinicius/Desktop/Yes or No/Stars/data'
p3789
S'.'
p3790
I0
tp3791
a(S'c:/marmalade/7.2/extensions/s3ewebview/s3eWebView.js'
p3792
S's3eWebView.js'
p3793
I0
tp3794
a(S'c:/marmalade/7.2/extensions/s3efacebook/source/iphone/facebook-ios-sdk/FacebookSDK.framework/Versions/A/Resources/FacebookSDKResources.bundle/FBDialog/images/fbicon.png'
p3795
S'FacebookSDKResources.bundle/FBDialog/images/fbicon.png'
p3796
I0
tp3797
a(S'c:/marmalade/7.2/extensions/s3efacebook/source/iphone/facebook-ios-sdk/FacebookSDK.framework/Versions/A/Resources/FacebookSDKResources.bundle/FBDialog/images/close.png'
p3798
S'FacebookSDKResources.bundle/FBDialog/images/close.png'
p3799
I0
tp3800
a(S'c:/marmalade/7.2/extensions/s3efacebook/source/iphone/facebook-ios-sdk/FacebookSDK.framework/Versions/A/Resources/FacebookSDKResources.bundle/FBDialog/images/close@2x.png'
p3801
S'FacebookSDKResources.bundle/FBDialog/images/close@2x.png'
p3802
I0
tp3803
a(S'c:/marmalade/7.2/extensions/s3efacebook/facebook-winclient-sdk-master/Source/Facebook.Client-WindowsStore/FacebookDialogPage.xaml'
p3804
S'FacebookDialogPage.xaml'
p3805
I0
tp3806
asS'WebView32Assets'
p3807
(lp3808
(S'c:/marmalade/7.2/extensions/s3ewebview/lib/win32/locales'
p3809
S'locales'
p3810
I0
tp3811
a(S'c:/marmalade/7.2/extensions/s3ewebview/lib/win32/avcodec-53.dll'
p3812
S'avcodec-53.dll'
p3813
I0
tp3814
a(S'c:/marmalade/7.2/extensions/s3ewebview/lib/win32/avformat-53.dll'
p3815
S'avformat-53.dll'
p3816
I0
tp3817
a(S'c:/marmalade/7.2/extensions/s3ewebview/lib/win32/avutil-51.dll'
p3818
S'avutil-51.dll'
p3819
I0
tp3820
a(S'c:/marmalade/7.2/extensions/s3ewebview/lib/win32/chrome.pak'
p3821
S'chrome.pak'
p3822
I0
tp3823
a(S'c:/marmalade/7.2/extensions/s3ewebview/lib/win32/d3dcompiler_43.dll'
p3824
S'd3dcompiler_43.dll'
p3825
I0
tp3826
a(S'c:/marmalade/7.2/extensions/s3ewebview/lib/win32/d3dx9_43.dll'
p3827
S'd3dx9_43.dll'
p3828
I0
tp3829
a(S'c:/marmalade/7.2/extensions/s3ewebview/lib/win32/icudt.dll'
p3830
S'icudt.dll'
p3831
I0
tp3832
a(S'c:/marmalade/7.2/extensions/s3ewebview/lib/win32/libcef.dll'
p3833
S'libcef.dll'
p3834
I0
tp3835
a(S'c:/marmalade/7.2/extensions/s3ewebview/lib/win32/libEGL.dll'
p3836
S'libEGL.dll'
p3837
I0
tp3838
a(S'c:/marmalade/7.2/extensions/s3ewebview/lib/win32/libGLESv2.dll'
p3839
S'libGLESv2.dll'
p3840
I0
tp3841
assS'macro_types'
p3842
(dp3843
g528
I0
sg530
I0
sg531
I0
sg532
I0
sg534
I1
sg535
I0
sg536
I0
sg537
I0
sg538
I0
sg539
I0
sg540
I0
sg541
I0
sg543
I0
sg544
I0
sg545
I0
sg546
I0
sg547
I0
sg549
I0
sg550
I0
sg551
I0
sg552
I0
sg553
I0
sg554
I0
sg555
I0
sg556
I0
sg557
I1
sg558
I0
sg559
I0
sg560
I0
sg561
I0
sg562
I0
sg563
I0
sg564
I0
sg565
I01
sg566
I1
sg567
I0
sg568
I0
sg569
I0
sg570
I0
sg571
I0
sg572
I0
sg573
I0
sg574
I0
ssS'commands'
p3844
(lp3845
sg607
(g1028
S'VC12X'
p3846
S'X86ARM'
p3847
tp3848
sS'build_libs'
p3849
(dp3850
sg609
g0
sS'frameworks'
p3851
(lp3852
sS'environ'
p3853
(dp3854
sS'target_name_debug'
p3855
g310
sS'builders'
p3856
(dp3857
g599
(dp3858
S'.S'
p3859
(dp3860
S'rvct'
p3861
(lp3862
S'.obj'
p3863
aS'echo ARM Assembling(RVCT) ${SOURCE}...'
p3864
aS'c:/marmalade/7.2/s3e\\rvct\\bin\\armasm -o ${TARGET} ${SOURCE}'
p3865
asS'gcc'
p3866
(lp3867
g3863
aS'echo ARM Assembling(GCC) ${SOURCE}...'
p3868
aS'c:/marmalade/7.2/s3e\\gcc\\bin\\arm-none-eabi-gcc -c -o ${TARGET} ${SOURCE}'
p3869
asS'ppu'
p3870
(lp3871
S'.a'
p3872
aS'echo PPU Assembling(SNC) ${SOURCE}...'
p3873
aS'c:/marmalade/7.2/s3e\\rvct\\bin\\armasm -o ${TARGET} ${SOURCE}'
p3874
assS'.s'
p3875
g3860
sS'.vp'
p3876
(lp3877
NaS'"C:/Marmalade/7.2/s3e/python/python.exe" "c:/marmalade/7.2/modules/iwgx/tools/compile_shaders.py" ${SOURCE}'
p3878
asssS'extproject_names'
p3879
(lp3880
sbtp3881
.