((dp0
S'arm_dbg_args'
p1
S'-via:"c:\\Users\\Vinicius\\Desktop\\Yes or No\\Stars\\build_stars_vc12x\\Stars_vc12x_arm_debug.via" -qemu'
p2
sS'game-icf'
p3
S''
p4
sS'dist'
p5
NsS'csproj'
p6
g4
sS'module_path_append'
p7
NsS'global_path'
p8
S'c:\\users\\vinicius\\desktop\\yes or no'
p9
sS'system_path'
p10
S'c:\\marmalade\\7.2\\s3e\\makefile_builder'
p11
sS'android_x86_dbg_args'
p12
S'../../tools/DeployTool/DeployTool.exe --dir "c:\\Users\\Vinicius\\Desktop\\Yes or No\\Stars\\build_stars_vc12x"'
p13
sS'use_prebuilt'
p14
NsS'arm_rel_rtsm_args'
p15
S'-via:"c:\\Users\\Vinicius\\Desktop\\Yes or No\\Stars\\build_stars_vc12x\\Stars_vc12x_arm_release.via" -qemu'
p16
sS'amd64'
p17
NsS'line-width'
p18
I80
sS'gcc_dbg_args'
p19
S'-via:"c:\\Users\\Vinicius\\Desktop\\Yes or No\\Stars\\build_stars_vc12x\\Stars_vc12x_gcc_debug.via" -qemu'
p20
sS'android-x86'
p21
NsS'x86_dbg_exe'
p22
S'c:/marmalade/7.2/s3e\\win32\\s3e_simulator_debug.exe'
p23
sS'disable-runtime-checks'
p24
NsS'release'
p25
NsS'no-make'
p26
NsS'optimise-size'
p27
NsS'output-name-debug'
p28
g4
sS'arm-fpu'
p29
S'vfp'
p30
sS'proj_name'
p31
S'Stars_vc12x'
p32
sS'rvct-version'
p33
S'none'
p34
sS'compiler'
p35
g4
sS'execute'
p36
NsS'compile-static'
p37
NsS'msvc-project'
p38
NsS'buildenv'
p39
S'VC12X'
p40
sS'quick'
p41
NsS'module_path'
p42
(lp43
S'c:/Users/Vinicius/Desktop/Yes or No/Stars/modules'
p44
asS'use-release-std-libs'
p45
NsS'using_perforce'
p46
I00
sS'tizen-x86'
p47
NsS'mips-s3e'
p48
NsS'ios-no-pic'
p49
NsS'shared-arm-lib'
p50
NsS'arm-cpu'
p51
g4
sS'compile-thumb'
p52
NsS'no-ide'
p53
I01
sS'msvc-version'
p54
S'6.0'
p55
sS'arm'
p56
NsS'builddir'
p57
g4
sS'compile-debug-as-release'
p58
I0
sS'brief'
p59
NsS'dll'
p60
NsS'buildenv-toolset'
p61
g4
sS'version'
p62
NsS'ccache'
p63
I0
sS'offline'
p64
NsS'ios-version'
p65
g4
sS'hub_data'
p66
g4
sS'fake_vc_call'
p67
NsS'jobs'
p68
I0
sS'linkflags'
p69
NsS'tizen-x86-toolsroot'
p70
S'c:/marmalade/7.2/s3e\\..\\tools\\gcc\\x86\\tizen_windows'
p71
sS'debug'
p72
I01
sS'xcode-build-order'
p73
g4
sS'gcc_rel_rtsm_args'
p74
S'-via:"c:\\Users\\Vinicius\\Desktop\\Yes or No\\Stars\\build_stars_vc12x\\Stars_vc12x_gcc_release.via" -qemu'
p75
sS'done_defaults'
p76
I1
sS'path'
p77
NsS's3e-data-dir'
p78
S'c:/Users/Vinicius/Desktop/Yes or No/Stars\\data'
p79
sS'enable-exceptions'
p80
NsS'osx-dll'
p81
NsS'extension'
p82
g4
sS'no-vc6'
p83
NsS'non-interactive'
p84
NsS'win32-console'
p85
NsS'dist-format'
p86
g4
sS's3e-force-arch'
p87
NsS'dump_defines'
p88
NsS'verbose'
p89
I0
sS'gcc-version'
p90
g4
sS'x86_dbg_args'
p91
S'-via:"c:\\Users\\Vinicius\\Desktop\\Yes or No\\Stars\\build_stars_vc12x\\Stars_vc12x_debug.via"'
p92
sS'tizen_x86_dbg_args'
p93
g13
sS'arm-debugger'
p94
g4
sS'use_temp_extension'
p95
NsS'log'
p96
NsS'no-strip'
p97
NsS'rebuild'
p98
NsS'win32-simulator-dll'
p99
NsS'strict'
p100
NsS'mips_dbg_args'
p101
g13
sS'enable-global-path'
p102
NsS'cflags'
p103
NsS'dist-dir'
p104
g4
sS'jflags'
p105
NsS'csprojSDKRefs'
p106
g4
sS'tizen_x86_rel_exe'
p107
S'c:\\marmalade\\7.2\\s3e\\makefile_builder\\tool_launcher.exe'
p108
sS'test-assets'
p109
g4
sS'distcc'
p110
NsS'external-compiler'
p111
NsS'no-distcc'
p112
NsS'preinclude'
p113
NsS'using_sdk'
p114
I01
sS'nologo'
p115
NsS'warn-level'
p116
I2
sS'mips_dbg_exe'
p117
g108
sS'mkb_in'
p118
S'c:/Users/Vinicius/Desktop/Yes or No/Stars/Stars.mkb'
p119
sS'tizen_x86_dbg_exe'
p120
g108
sS'arm_dbg_exe'
p121
S'c:/marmalade/7.2/s3e\\bin\\armdebug.exe'
p122
sS'csprojDLLRef'
p123
NsS'tizen_x86_rel_args'
p124
g13
sS'android_x86_dbg_exe'
p125
g108
sS'test-config'
p126
g4
sS'list-targets'
p127
NsS'arm_rel_exe'
p128
g108
sS'arm_rel_args'
p129
g13
sS'makedeps'
p130
NsS'android_x86_rel_exe'
p131
g108
sS'default-buildenv'
p132
S'VC12X'
p133
sS'x86_rel_exe'
p134
g23
sS'preprocess-java'
p135
NsS'mips_rel_args'
p136
g13
sS'defines'
p137
NsS'lib'
p138
NsS'global_argv'
p139
(lp140
S'C:\\Marmalade\\7.2\\s3e\\makefile_builder\\mkb.py'
p141
aS'C:/Users/Vinicius/Desktop/Yes or No/Stars/Stars.mkb'
p142
aS'--buildenv=VC12X'
p143
aS'--debug'
p144
aS'--x86'
p145
aS'--no-ide'
p146
aS'--make'
p147
asS'make'
p148
I01
sS'optimise-speed'
p149
NsS'internal'
p150
NsS'enable-stdinc'
p151
NsS'deploy-only'
p152
NsS'x86'
p153
I01
sS'deploy'
p154
g4
sS'x86_run_exe'
p155
S'c:/marmalade/7.2/s3e\\win32\\s3e_console.exe'
p156
sS'x86_rel_args'
p157
S'-via:"c:\\Users\\Vinicius\\Desktop\\Yes or No\\Stars\\build_stars_vc12x\\Stars_vc12x_release.via"'
p158
sS'gcc_rel_args'
p159
g13
sS'mips'
p160
NsS'xcode-build-settings'
p161
g4
sS'incredibuild'
p162
NsS'strict-compile'
p163
NsS'use-auto-subdirs'
p164
NsS'mips_rel_exe'
p165
g108
sS'android_x86_rel_args'
p166
g13
sS'app-icf'
p167
g4
sS'deployargs'
p168
NsS'iosnativedebug'
p169
NsS'mkf_in'
p170
(lp171
S'c:\\marmalade\\7.2\\extensions\\s3ewebview\\s3ewebview.mkf'
p172
aS'c:\\marmalade\\7.2\\modules\\iwutil\\iwutil.mkf'
p173
aS'c:\\marmalade\\7.2\\modules\\third_party\\libjpeg\\libjpeg.mkf'
p174
aS'c:\\marmalade\\7.2\\modules\\third_party\\libpng\\libpng.mkf'
p175
aS'c:\\marmalade\\7.2\\modules\\third_party\\zlib\\zlib.mkf'
p176
aS'c:\\marmalade\\7.2\\extensions\\s3efacebook\\s3efacebook.mkf'
p177
aS'c:\\marmalade\\7.2\\modules\\iw2d\\iw2d.mkf'
p178
aS'c:\\marmalade\\7.2\\modules\\iwgx\\iwgx.mkf'
p179
aS'c:\\marmalade\\7.2\\modules\\iwgl\\iwgl.mkf'
p180
aS'c:\\marmalade\\7.2\\modules\\iwgeom\\iwgeom.mkf'
p181
aS'c:\\marmalade\\7.2\\modules\\iwresmanager\\iwresmanager.mkf'
p182
aS'c:\\marmalade\\7.2\\modules\\iwgxfont\\iwgxfont.mkf'
p183
aS'c:\\marmalade\\7.2\\modules\\third_party\\tiniconv\\tiniconv.mkf'
p184
aS'c:\\marmalade\\7.2\\modules\\iw2dscenegraph\\iw2dscenegraph.mkf'
p185
aS'c:\\marmalade\\7.2\\modules\\iw2dscenegraphcore\\iw2dscenegraphcore.mkf'
p186
aS'c:\\marmalade\\7.2\\modules\\iwtween\\iwtween.mkf'
p187
aS'c:\\users\\vinicius\\desktop\\yes or no\\stars\\modules\\soundengine\\soundengine.mkf'
p188
aS'c:\\marmalade\\7.2\\extensions\\s3eflurry\\s3eflurry.mkf'
p189
asS'strict-mkb'
p190
NsS'executeargs'
p191
NsS'clean'
p192
NsS'no-asm'
p193
NsS'output-name'
p194
g4
sS'no-modules'
p195
NsS'find_define'
p196
g4
s(dp197
S'c:\\marmalade\\7.2\\s3e\\makefile_builder\\templates\\ws8_sln.pyc'
p198
F1396656910.0
sS'c:\\marmalade\\7.2\\s3e\\makefile_builder\\plugins\\java.pyc'
p199
F1396656908.0
sS'c:\\marmalade\\7.2\\s3e\\makefile_builder\\plugins\\S3EEmitter.pyc'
p200
F1396656908.0
sS'c:\\marmalade\\7.2\\s3e\\makefile_builder\\templates\\win32_vcxproj_filters.pyc'
p201
F1396656910.0
sS'c:\\marmalade\\7.2\\s3e\\makefile_builder\\plugins\\xcode4_schememanagement.py'
p202
F1396655700.0
sS'c:\\marmalade\\7.2\\s3e\\makefile_builder\\plugins\\linux_scons.pyc'
p203
F1396656910.0
sS'c:\\marmalade\\7.2\\s3e\\makefile_builder\\templates\\wp8_sln.pyc'
p204
F1396656910.0
sS'c:\\marmalade\\7.2\\s3e\\makefile_builder\\templates\\ws8_ext_sln.pyc'
p205
F1396656910.0
sS'c:\\marmalade\\7.2\\s3e\\makefile_builder\\templates\\MainWindow.xib'
p206
F1396655700.0
sS'c:\\marmalade\\7.2\\s3e\\makefile_builder\\templates\\ws81_ext_sln.pyc'
p207
F1396656910.0
sS'c:\\marmalade\\7.2\\s3e\\makefile_builder\\plugins\\Win8Emitter.pyc'
p208
F1396656910.0
sS'c:\\marmalade\\7.2\\s3e\\makefile_builder\\templates\\win8_ext_csproj.pyc'
p209
F1396656910.0
sS'c:\\marmalade\\7.2\\s3e\\makefile_builder\\templates\\rvct_linker_script'
p210
F1396655702.0
sS'c:\\marmalade\\7.2\\s3e\\makefile_builder\\templates\\win8_sln.pyc'
p211
F1396656910.0
sS'c:\\marmalade\\7.2\\s3e\\makefile_builder\\templates\\ws8_ext_csproj.pyc'
p212
F1396656910.0
sS'c:\\marmalade\\7.2\\s3e\\makefile_builder\\plugins\\s3e_make.pyc'
p213
F1396656908.0
sS'c:\\marmalade\\7.2\\s3e\\makefile_builder\\templates\\wp8_csproj_user.pyc'
p214
F1396656910.0
sS'c:\\marmalade\\7.2\\s3e\\makefile_builder\\plugins\\s3e_scons.pyc'
p215
F1396656908.0
sS'c:\\marmalade\\7.2\\s3e\\makefile_builder\\plugins\\s3e_qmake.py'
p216
F1396655700.0
sS'c:\\marmalade\\7.2\\s3e\\makefile_builder\\docs\\deprecated.options.txt'
p217
F1396655698.0
sS'c:\\marmalade\\7.2\\s3e\\makefile_builder\\plugins\\ws8_ws8.pyc'
p218
F1396656910.0
sS'c:\\marmalade\\7.2\\s3e\\makefile_builder\\templates\\ws81_sln.pyc'
p219
F1396656910.0
sS'c:\\marmalade\\7.2\\s3e\\makefile_builder\\templates\\ws81_ext_csproj.pyc'
p220
F1396656910.0
sS'c:\\marmalade\\7.2\\s3e\\makefile_builder\\templates\\wp8_vcxproj.pyc'
p221
F1396656910.0
sS'c:\\marmalade\\7.2\\s3e\\makefile_builder\\templates\\vc6_opt.pyc'
p222
F1396656910.0
sS'c:\\marmalade\\7.2\\s3e\\makefile_builder\\plugins\\deploy.pyc'
p223
F1396656908.0
sS'c:\\marmalade\\7.2\\s3e\\makefile_builder\\templates\\scons.pyc'
p224
F1396656910.0
sS'c:\\marmalade\\7.2\\s3e\\makefile_builder\\templates\\win32_vcproj.pyc'
p225
F1396656910.0
sS'c:\\marmalade\\7.2\\s3e\\makefile_builder\\templates\\win8_csproj.pyc'
p226
F1396656910.0
sS'c:\\marmalade\\7.2\\s3e\\makefile_builder\\extensions\\make_dist.py'
p227
F1396655698.0
sS'c:\\marmalade\\7.2\\s3e\\makefile_builder\\templates\\gdb_start.txt'
p228
F1396655702.0
sS'c:\\marmalade\\7.2\\s3e\\makefile_builder\\templates\\vc8_user.pyc'
p229
F1396656910.0
sS'c:\\marmalade\\7.2\\s3e\\makefile_builder\\plugins\\s3e_win8.pyc'
p230
F1396656910.0
sS'c:\\marmalade\\7.2\\s3e\\makefile_builder\\templates\\win32_sln.pyc'
p231
F1396656910.0
sS'c:\\marmalade\\7.2\\s3e\\makefile_builder\\docs\\options.txt'
p232
F1396655698.0
sS'c:\\marmalade\\7.2\\s3e\\makefile_builder\\mkb.py'
p233
F1396655698.0
sS'c:\\marmalade\\7.2\\s3e\\makefile_builder\\templates\\Info.plist'
p234
F1396655700.0
sS'c:\\marmalade\\7.2\\s3e\\makefile_builder\\docs\\parse_options.pyc'
p235
F1396656912.0
sS'c:\\marmalade\\7.2\\s3e\\makefile_builder\\templates\\ws8_csproj.pyc'
p236
F1396656910.0
sS'c:\\marmalade\\7.2\\s3e\\makefile_builder\\templates\\ws81_csproj.pyc'
p237
F1396656910.0
sS'c:\\marmalade\\7.2\\s3e\\makefile_builder\\plugins\\osx_xcode.pyc'
p238
F1396656910.0
sS'c:\\marmalade\\7.2\\s3e\\makefile_builder\\plugins\\s3e_xcode.pyc'
p239
F1397674110.1375155
sS'c:\\marmalade\\7.2\\s3e\\makefile_builder\\plugins\\xcode4_schememanagement.pyc'
p240
F1397674109.1068296
sS'c:\\marmalade\\7.2\\s3e\\makefile_builder\\templates\\xcode4.xcscheme'
p241
F1396655704.0
sS'c:\\marmalade\\7.2\\s3e\\makefile_builder\\plugins\\Emitter.pyc'
p242
F1396656908.0
sS'c:\\marmalade\\7.2\\s3e\\makefile_builder\\templates\\mips_linker_script'
p243
F1396655702.0
sS'c:\\marmalade\\7.2\\s3e\\makefile_builder\\templates\\ws8_vcxproj.pyc'
p244
F1396656910.0
sS'c:\\marmalade\\7.2\\s3e\\makefile_builder\\plugins\\win32_vc6.pyc'
p245
F1396656910.0
sS'c:\\marmalade\\7.2\\s3e\\makefile_builder\\mkb_parser.pyc'
p246
F1396656908.0
sS'c:\\marmalade\\7.2\\s3e\\makefile_builder\\templates\\ws81_csproj_user.pyc'
p247
F1396656910.0
sS'c:\\marmalade\\7.2\\s3e\\makefile_builder\\templates\\linker_script'
p248
F1396655702.0
sS'c:\\marmalade\\7.2\\s3e\\makefile_builder\\docs\\deprecated.defines.txt'
p249
F1396655698.0
sS'c:\\marmalade\\7.2\\s3e\\makefile_builder\\templates\\template.suo'
p250
F1396655702.0
sS'c:\\marmalade\\7.2\\s3e\\makefile_builder\\templates\\make.py'
p251
F1396655702.0
sS'c:\\marmalade\\7.2\\s3e\\makefile_builder\\extensions'
p252
F1397673792.7230873
sS'c:\\marmalade\\7.2\\s3e\\makefile_builder\\templates\\win32_dsp.pyc'
p253
F1396656910.0
sS'c:\\marmalade\\7.2\\s3e\\makefile_builder\\templates\\wp8_ext_csproj.pyc'
p254
F1396656910.0
sS'c:\\marmalade\\7.2\\s3e\\makefile_builder\\plugins\\MakeEmitter.pyc'
p255
F1396656908.0
sS'c:\\marmalade\\7.2\\s3e\\makefile_builder\\plugins\\XcodeEmitter.pyc'
p256
F1397674109.0167696
sS'c:\\marmalade\\7.2\\s3e\\makefile_builder\\templates\\win32_dsw.pyc'
p257
F1396656910.0
sS'c:\\marmalade\\7.2\\s3e\\makefile_builder\\docs\\mkb.defines.txt'
p258
F1396655698.0
sS'c:\\marmalade\\7.2\\s3e\\makefile_builder\\docs\\deployment_options.txt'
p259
F1396655698.0
sS'c:\\marmalade\\7.2\\s3e\\makefile_builder\\plugins\\s3e_qmake.pyc'
p260
F1397674109.7792768
sS'c:\\marmalade\\7.2\\s3e\\makefile_builder\\plugins\\ws81_ws81.pyc'
p261
F1396656910.0
sS'c:\\marmalade\\7.2\\s3e\\makefile_builder\\templates\\win32_vcxproj.pyc'
p262
F1396656910.0
sS'c:\\marmalade\\7.2\\s3e\\makefile_builder\\docs'
p263
F1397673793.1573761
sS'c:\\marmalade\\7.2\\s3e\\makefile_builder\\plugins\\XcodeEmitter.py'
p264
F1396655698.0
sS'c:\\marmalade\\7.2\\s3e\\makefile_builder\\templates\\template.opt'
p265
F1396655702.0
sS'c:\\marmalade\\7.2\\s3e\\makefile_builder\\tool_launcher.exe'
p266
F1396656088.0
sS'c:\\marmalade\\7.2\\s3e\\makefile_builder\\templates\\xcode.py'
p267
F1396655702.0
sS'c:\\marmalade\\7.2\\s3e\\makefile_builder\\plugins\\VisualStudioEmitter.pyc'
p268
F1396656908.0
sS'c:\\marmalade\\7.2\\s3e\\makefile_builder\\plugins\\osx_scons.pyc'
p269
F1396656910.0
sS'c:\\marmalade\\7.2\\s3e\\makefile_builder\\templates'
p270
F1397673792.65204
sS'c:\\marmalade\\7.2\\s3e\\makefile_builder\\templates\\ws81_vcxproj.pyc'
p271
F1396656910.0
sS'c:\\marmalade\\7.2\\s3e\\makefile_builder\\templates\\win8_vcxproj.pyc'
p272
F1396656910.0
sS'c:\\marmalade\\7.2\\s3e\\makefile_builder\\plugins\\s3e_ws8.pyc'
p273
F1396656910.0
sS'c:\\marmalade\\7.2\\s3e\\makefile_builder\\templates\\wp8_csproj.pyc'
p274
F1396656910.0
sS'c:\\marmalade\\7.2\\s3e\\makefile_builder\\templates\\vc7_suo.pyc'
p275
F1396656910.0
sS'c:\\marmalade\\7.2\\s3e\\makefile_builder\\plugins\\SConsEmitter.pyc'
p276
F1396656908.0
sS'c:\\marmalade\\7.2\\s3e\\makefile_builder\\mkb_option.pyc'
p277
F1396656908.0
sS'c:\\marmalade\\7.2\\s3e\\makefile_builder\\templates\\ws8_csproj_user.pyc'
p278
F1396656910.0
sS'c:\\marmalade\\7.2\\s3e\\makefile_builder\\mkb_main.pyc'
p279
F1396656908.0
sS'c:\\marmalade\\7.2\\s3e\\makefile_builder\\plugins'
p280
F1397674110.1315114
sS'c:\\marmalade\\7.2\\s3e\\makefile_builder\\plugins\\s3e_web.pyc'
p281
F1396656908.0
sS'c:\\marmalade\\7.2\\s3e\\makefile_builder\\plugins\\s3e_ws81.pyc'
p282
F1396656910.0
sS'c:\\marmalade\\7.2\\s3e\\makefile_builder\\mkb_globals.pyc'
p283
F1396656908.0
sS'c:\\marmalade\\7.2\\s3e\\makefile_builder\\plugins\\iphone.pyc'
p284
F1396656910.0
sS'c:\\marmalade\\7.2\\s3e\\makefile_builder\\mkb_launcher.exe'
p285
F1396656088.0
sS'c:\\marmalade\\7.2\\s3e\\makefile_builder\\plugins\\vc7_utils.pyc'
p286
F1396656908.0
sS'c:\\marmalade\\7.2\\s3e\\makefile_builder\\plugins\\s3e_wp8.pyc'
p287
F1396656910.0
sS'c:\\marmalade\\7.2\\s3e\\makefile_builder\\plugins\\vc6_utils.pyc'
p288
F1396656908.0
sS'c:\\marmalade\\7.2\\s3e\\makefile_builder\\deployment.pyc'
p289
F1396656908.0
sS'c:\\marmalade\\7.2\\s3e\\makefile_builder\\plugins\\s3e_vc6.pyc'
p290
F1396656908.0
sS'c:\\marmalade\\7.2\\s3e\\makefile_builder\\plugins\\null.pyc'
p291
F1396656908.0
sS'c:\\marmalade\\7.2\\s3e\\makefile_builder\\templates\\qmake.py'
p292
F1396655702.0
sS'c:\\marmalade\\7.2\\s3e\\makefile_builder\\templates\\xcode4_DeployTool.xcscheme'
p293
F1396655704.0
sS'c:\\marmalade\\7.2\\s3e\\makefile_builder\\templates\\win8_csproj_user.pyc'
p294
F1396656910.0
sS'c:\\marmalade\\7.2\\s3e\\makefile_builder\\plugins\\win8_utils.pyc'
p295
F1396656908.0
sS'c:\\marmalade\\7.2\\s3e\\makefile_builder\\mkb_util.pyc'
p296
F1396656908.0
sS'c:\\marmalade\\7.2\\s3e\\makefile_builder\\plugins\\wp8_wp8.pyc'
p297
F1396656910.0
sS'c:\\marmalade\\7.2\\s3e\\makefile_builder\\plugins\\s3e_xcode.py'
p298
F1396655700.0
sS'c:\\marmalade\\7.2\\s3e\\makefile_builder\\templates\\vc10_user.pyc'
p299
F1396656910.0
sS'c:\\marmalade\\7.2\\s3e\\makefile_builder\\templates\\qmake_user.py'
p300
F1396655702.0
sS'c:\\marmalade\\7.2\\s3e\\makefile_builder\\templates\\xcode_pbxuser.py'
p301
F1396655704.0
sccopy_reg
_reconstructor
p302
(cmkb_main
MkbFile
p303
c__builtin__
object
p304
Ntp305
Rp306
(dp307
g5
(lp308
sS'target_name'
p309
S'Stars'
p310
sS'current_file'
p311
g119
sS'package_path'
p312
(lp313
sS'post_build'
p314
(lp315
(lp316
S'c:/marmalade/7.2/s3e/tools'
p317
aS'C:\\Marmalade\\7.2\\s3e\\python\\python.exe .\\process_map.py "$(TargetPath)"'
p318
aa(S'c:\\marmalade\\7.2\\s3e\\bin'
p319
S'"s3e_plink" -l "$(TargetPath)" '
p320
g153
tp321
asS'librarys'
p322
(lp323
g302
(cmkb_main
Library
p324
g304
Ntp325
Rp326
(dp327
S'name'
p328
S'vc6_compat.lib'
p329
sS'expand_name'
p330
I00
sS'include_spec_rvct_objs'
p331
(lp332
sS'include_all_objs'
p333
I00
sS'share_arm'
p334
I00
sS'arch'
p335
S'x86'
p336
sS'nodebug'
p337
I00
sg35
Nsbag302
(g324
g304
Ntp338
Rp339
(dp340
g328
S'iwutil'
p341
sg330
I01
sg331
(lp342
sg333
Nsg334
Nsg335
Nsg337
I00
sg35
Nsbag302
(g324
g304
Ntp343
Rp344
(dp345
g328
S'jpeg'
p346
sg330
I01
sg331
g342
sg333
Nsg334
Nsg335
Nsg337
I00
sg35
Nsbag302
(g324
g304
Ntp347
Rp348
(dp349
g328
S'z'
p350
sg330
I01
sg331
g342
sg333
Nsg334
Nsg335
Nsg337
I00
sg35
Nsbag302
(g324
g304
Ntp351
Rp352
(dp353
g328
S'png'
p354
sg330
I01
sg331
g342
sg333
Nsg334
Nsg335
Nsg337
I00
sg35
Nsbag302
(g324
g304
Ntp355
Rp356
(dp357
g328
S'iw2d'
p358
sg330
I01
sg331
g342
sg333
Nsg334
Nsg335
Nsg337
I00
sg35
Nsbag302
(g324
g304
Ntp359
Rp360
(dp361
g328
S'ATI_Compress_MT_VC7.lib'
p362
sg330
I00
sg331
g342
sg333
Nsg334
Nsg335
S'x86'
p363
sg337
I00
sg35
Nsbag302
(g324
g304
Ntp364
Rp365
(dp366
g328
S'iwgx'
p367
sg330
I01
sg331
g342
sg333
Nsg334
Nsg335
Nsg337
I00
sg35
Nsbag302
(g324
g304
Ntp368
Rp369
(dp370
g328
S'iwgl'
p371
sg330
I01
sg331
g342
sg333
Nsg334
Nsg335
Nsg337
I00
sg35
Nsbag302
(g324
g304
Ntp372
Rp373
(dp374
g328
S'iwgeom'
p375
sg330
I01
sg331
g342
sg333
Nsg334
Nsg335
Nsg337
I00
sg35
Nsbag302
(g324
g304
Ntp376
Rp377
(dp378
g328
S'iwresmanager'
p379
sg330
I01
sg331
g342
sg333
Nsg334
Nsg335
Nsg337
I00
sg35
Nsbag302
(g324
g304
Ntp380
Rp381
(dp382
g328
S'iwgxfont'
p383
sg330
I01
sg331
g342
sg333
Nsg334
Nsg335
Nsg337
I00
sg35
Nsbag302
(g324
g304
Ntp384
Rp385
(dp386
g328
S'tiniconv'
p387
sg330
I01
sg331
g342
sg333
Nsg334
Nsg335
Nsg337
I00
sg35
Nsbag302
(g324
g304
Ntp388
Rp389
(dp390
g328
S's3e_cpp'
p391
sg330
I01
sg331
g332
sg333
I00
sg334
I00
sg335
Nsg337
I00
sg35
Nsbag302
(g324
g304
Ntp392
Rp393
(dp394
g328
S's3e'
p395
sg330
I01
sg331
(lp396
S'iwcrt.o'
p397
asg333
I00
sg334
I00
sg335
Nsg337
I00
sg35
Nsbag302
(g324
g304
Ntp398
Rp399
(dp400
g328
S's3e_api'
p401
sg330
I01
sg331
g332
sg333
I00
sg334
I00
sg335
S'x86'
p402
sg337
I01
sg35
Nsbag302
(g324
g304
Ntp403
Rp404
(dp405
g328
S's3e_api'
p406
sg330
I01
sg331
g332
sg333
I00
sg334
I00
sg335
S'!x86'
p407
sg337
I01
sg35
Nsbag302
(g324
g304
Ntp408
Rp409
(dp410
g328
S'stdc++'
p411
sg330
I00
sg331
g332
sg333
I00
sg334
I00
sg335
S'mips'
p412
sg337
I00
sg35
Nsbag302
(g324
g304
Ntp413
Rp414
(dp415
g328
S'c'
p416
sg330
I00
sg331
g332
sg333
I00
sg334
I00
sg335
S'mips'
p417
sg337
I00
sg35
Nsbag302
(g324
g304
Ntp418
Rp419
(dp420
g328
S'm'
p421
sg330
I00
sg331
g332
sg333
I00
sg334
I00
sg335
S'mips'
p422
sg337
I00
sg35
Nsbag302
(g324
g304
Ntp423
Rp424
(dp425
g328
S'gcc'
p426
sg330
I00
sg331
g332
sg333
I00
sg334
I00
sg335
S'mips'
p427
sg337
I00
sg35
Nsbag302
(g324
g304
Ntp428
Rp429
(dp430
g328
S'stdc++'
p431
sg330
I00
sg331
g332
sg333
I00
sg334
I00
sg335
S'gcc_x86_tizen'
p432
sg337
I00
sg35
Nsbag302
(g324
g304
Ntp433
Rp434
(dp435
g328
g416
sg330
I00
sg331
g332
sg333
I00
sg334
I00
sg335
S'gcc_x86_tizen'
p436
sg337
I00
sg35
Nsbag302
(g324
g304
Ntp437
Rp438
(dp439
g328
g421
sg330
I00
sg331
g332
sg333
I00
sg334
I00
sg335
S'gcc_x86_tizen'
p440
sg337
I00
sg35
Nsbag302
(g324
g304
Ntp441
Rp442
(dp443
g328
S'gcc'
p444
sg330
I00
sg331
g332
sg333
I00
sg334
I00
sg335
S'gcc_x86_tizen'
p445
sg337
I00
sg35
Nsbag302
(g324
g304
Ntp446
Rp447
(dp448
g328
S'gcc_eh'
p449
sg330
I00
sg331
g332
sg333
I00
sg334
I00
sg335
S'gcc_x86_tizen'
p450
sg337
I00
sg35
Nsbag302
(g324
g304
Ntp451
Rp452
(dp453
g328
S'stdc++'
p454
sg330
I00
sg331
g332
sg333
I00
sg334
I00
sg335
S'gcc_x86_android'
p455
sg337
I00
sg35
Nsbag302
(g324
g304
Ntp456
Rp457
(dp458
g328
g416
sg330
I00
sg331
g332
sg333
I00
sg334
I00
sg335
S'gcc_x86_android'
p459
sg337
I00
sg35
Nsbag302
(g324
g304
Ntp460
Rp461
(dp462
g328
g421
sg330
I00
sg331
g332
sg333
I00
sg334
I00
sg335
S'gcc_x86_android'
p463
sg337
I00
sg35
Nsbag302
(g324
g304
Ntp464
Rp465
(dp466
g328
S'gcc'
p467
sg330
I00
sg331
g332
sg333
I00
sg334
I00
sg335
S'gcc_x86_android'
p468
sg337
I00
sg35
NsbasS'library_paths'
p469
(lp470
g302
(cmkb_main
LibraryPath
p471
g304
Ntp472
Rp473
(dp474
S'expand_path'
p475
I01
sS'add_cpu_variant'
p476
I00
sg328
S'c:/marmalade/7.2/modules/iwutil'
p477
sbag302
(g471
g304
Ntp478
Rp479
(dp480
g475
I01
sg476
I00
sg328
S'c:/marmalade/7.2/modules/third_party/libjpeg'
p481
sbag302
(g471
g304
Ntp482
Rp483
(dp484
g475
I01
sg476
I00
sg328
S'c:/marmalade/7.2/modules/third_party/zlib'
p485
sbag302
(g471
g304
Ntp486
Rp487
(dp488
g475
I01
sg476
I00
sg328
S'c:/marmalade/7.2/modules/third_party/libpng'
p489
sbag302
(g471
g304
Ntp490
Rp491
(dp492
g475
I01
sg476
I00
sg328
S'c:/marmalade/7.2/modules/iw2d'
p493
sbag302
(g471
g304
Ntp494
Rp495
(dp496
g475
I00
sg476
I00
sg328
S'c:/marmalade/7.2/modules/iwgx/atitools'
p497
sbag302
(g471
g304
Ntp498
Rp499
(dp500
g475
I01
sg476
I00
sg328
S'c:/marmalade/7.2/modules/iwgx'
p501
sbag302
(g471
g304
Ntp502
Rp503
(dp504
g475
I01
sg476
I00
sg328
S'c:/marmalade/7.2/modules/iwgl'
p505
sbag302
(g471
g304
Ntp506
Rp507
(dp508
g475
I01
sg476
I00
sg328
S'c:/marmalade/7.2/modules/iwgeom'
p509
sbag302
(g471
g304
Ntp510
Rp511
(dp512
g475
I01
sg476
I00
sg328
S'c:/marmalade/7.2/modules/iwresmanager'
p513
sbag302
(g471
g304
Ntp514
Rp515
(dp516
g475
I01
sg476
I00
sg328
S'c:/marmalade/7.2/modules/iwgxfont'
p517
sbag302
(g471
g304
Ntp518
Rp519
(dp520
g475
I01
sg476
I00
sg328
S'c:/marmalade/7.2/modules/third_party/tiniconv'
p521
sbag302
(g471
g304
Ntp522
Rp523
(dp524
g475
I01
sg476
I00
sg328
S'c:/marmalade/7.2/s3e'
p525
sbasS'macros'
p526
(dp527
S'IW_TRACE_CHANNEL_WEBVIEW_VERBOSE'
p528
S'2'
p529
sS'IW_MKF_S3EFACEBOOK'
p530
NsS'I3D_PLATFORM_S3E'
p531
NsS'IW_TRACE_CHANNEL_FLURRY'
p532
S'1'
p533
sS'IW_USE_CALLSTACK'
p534
NsS'__S3E__'
p535
NsS'IW_TRACE_CHANNEL_WEBVIEW'
p536
g533
sS'IW_MKF_LIBJPEG'
p537
NsS'I3D_OS_S3E'
p538
NsS'IW_ASSERTION_CHANNEL_FLURRY'
p539
g533
sS'IW_MKF_TINICONV'
p540
NsS'IW_APP_VERSION'
p541
S'"1.0"'
p542
sS'IW_MKF_IWRESMANAGER'
p543
NsS'IW_MKF_IWUTIL'
p544
NsS'IW_PLATFORM_S3E'
p545
NsS'IW_ASSERTION_CHANNEL_2D'
p546
g533
sS'IW_APP_NAME'
p547
S'"Stars"'
p548
sS'IW_MKF_IWGXFONT'
p549
NsS'IW_MKF_IWTWEEN'
p550
NsS'IW_MKF_S3EFLURRY'
p551
NsS'IW_MKF_ZLIB'
p552
NsS'IW_MKF_IWGX'
p553
NsS'IW_MKF_IW2DSCENEGRAPH'
p554
NsS'IW_MKF_SOUNDENGINE'
p555
NsS'IW_ASSERTION_CHANNEL_WEBVIEW'
p556
g533
sS'IW_USE_ASSERTIONS'
p557
NsS'_CRT_SECURE_NO_DEPRECATE'
p558
NsS'IW_MKF_IWGL'
p559
NsS'IW_MKF_LIBPNG'
p560
NsS'IW_MKF_S3EWEBVIEW'
p561
NsS'IW_TRACE_CHANNEL_IW_2DSCENEGRAPH'
p562
g533
sS'IW_ASSERTION_CHANNEL_FACEBOOK'
p563
g533
sS'IW_TRACE_CHANNEL_FACEBOOK_VERBOSE'
p564
g529
sS'IW_DEBUG'
p565
NsS'IW_USE_TRACING'
p566
NsS'IW_ASSERTION_CHANNEL_IW_2DSCENEGRAPH'
p567
g533
sS'IW_SDK'
p568
NsS'S3E_INCLUDE_LEGACY'
p569
NsS'IW_MKF_IW2DSCENEGRAPHCORE'
p570
NsS'IW_TRACE_CHANNEL_FACEBOOK'
p571
g533
sS'IW_TRACE_CHANNEL_FLURRY_VERBOSE'
p572
g529
sS'IW_MKF_IW2D'
p573
NsS'IW_MKF_IWGEOM'
p574
NssS'done_warnings'
p575
(dp576
sS'subprojects'
p577
(dp578
g183
S'iwgxfont'
p579
sg177
S's3eFacebook'
p580
sg172
S's3eWebView'
p581
sg173
S'iwutil'
p582
sg179
S'iwgx'
p583
sg186
S'../iw2dscenegraphcore'
p584
sg174
S'libjpeg'
p585
sg175
S'libpng'
p586
sg180
S'iwgl'
p587
sg187
S'iwtween'
p588
sg185
S'iw2dscenegraph'
p589
sg178
S'iw2d'
p590
sg181
S'iwgeom'
p591
sg184
S'tiniconv'
p592
sg176
S'zlib'
p593
sg188
S'SoundEngine'
p594
sg182
S'iwresmanager'
p595
sg189
S's3eFlurry'
p596
ssS'deployments'
p597
(dp598
S'Default'
p599
g302
(cdeployment
Deployment
p600
g304
Ntp601
Rp602
(dp603
S'got_version'
p604
I0
sS'assets'
p605
g599
sS'mkb'
p606
g306
sS'target'
p607
Nsg335
(lp608
sS'options'
p609
(dp610
S'iphone-link-lib'
p611
(lp612
S's3eWebView'
p613
aS's3eFacebook'
p614
aS'FlurryAnalytics'
p615
aS's3eFlurry'
p616
asS'game-icf'
p617
NsS'winmobile-icon32'
p618
NsS'ws8-logo-image150x150'
p619
NsS'ws81-product-version'
p620
NsS'osx-ext-dll'
p621
(lp622
S'c:/marmalade/7.2/extensions/s3ewebview/lib/osx/libs3eWebView.dylib'
p623
aS'c:/marmalade/7.2/extensions/s3eflurry/lib/osx/libs3eFlurry.dylib'
p624
asS'iphone-provisioning-profile'
p625
NsS'ws8-splash-screen-image620x300'
p626
NsS'ws8-ext-capabilities'
p627
(lp628
sS'android-icon-hdpi'
p629
NsS'brew-icon-large'
p630
NsS'iphone-splash-full-orient'
p631
NsS'wp8-tile-fliptemplate-supports-large'
p632
NsS'iphone-show-status-bar'
p633
NsS'roku-requires-mkv'
p634
NsS'long-caption'
p635
NsS'android-pkgname'
p636
NsS'blackberry-permissions-read-device-identifying-information'
p637
NsS'ws81-certificate-end-date'
p638
NsS'psp-dlgcontentid'
p639
NsS'target-folder'
p640
NsS'tizen-dist1-CA-path'
p641
NsS'symbian-icon2-format'
p642
NsS'iphone-region'
p643
NsS'uiq3-icon3-mask'
p644
NsS'brew-encoding'
p645
NsS'android-x86'
p646
NsS'nds-initialcode'
p647
NsS'iphone-persistent-wifi'
p648
NsS'psp-snd0'
p649
NsS'osx-signing-identity-inst'
p650
NsS'winmobile-install-folder'
p651
NsS'android-external-res'
p652
(lp653
S'c:/marmalade/7.2/extensions/s3efacebook/facebook-android-sdk/facebook/res'
p654
asS'ws8-product-version'
p655
NsS'brew-priviledges'
p656
NsS'symbian-icon2-mask-black'
p657
NsS'iphone-icon-ipad'
p658
NsS'roku-hidden'
p659
NsS'psp-titlename'
p660
NsS'symbian-icon1-mask'
p661
NsS'psp-parentallevel'
p662
NsS'splashscreen-use-all'
p663
NsS'wp8-author'
p664
NsS'symbian-disable-ecompxl'
p665
NsS'splashscreen-auto-onblack'
p666
NsS'win32-ext-dll'
p667
(lp668
S'c:/marmalade/7.2/extensions/s3ewebview/lib/win32/s3eWebView.dll'
p669
aS'c:/marmalade/7.2/extensions/s3eflurry/lib/win32/s3eFlurry.dll'
p670
asS'iphone-development-key'
p671
NsS'winmobile-icon48'
p672
NsS'android-unsigned'
p673
NsS'osx-appstore-category'
p674
NsS'version-revision'
p675
NsS'roku-icon-focus-sd'
p676
NsS'android-keystore'
p677
NsS'winmobile-png90'
p678
NsS'iphone-icon-ipad-high-res'
p679
NsS'iphone-disable-ipad'
p680
NsS'wp8-product-id'
p681
NsS'wp8-ext-capabilities'
p682
(lp683
sS'iphone-ipad-only'
p684
NsS'symbian-icon1-mask-black'
p685
NsS'iphone-bundle-localisations'
p686
NsS'winmobile-png60'
p687
NsS'blackberry-permissions-access-shared'
p688
NsS'blackberry-author'
p689
NsS'android-icon-xxxhdpi'
p690
NsS'olddeploytoolstyle'
p691
NsS'android_icon_gallery'
p692
NsS'winmobile-cab-compress'
p693
NsS'ws81-ext-managed-dll'
p694
(lp695
sS'win32-icon'
p696
NsS'symbian-key'
p697
NsS'app-icf'
p698
NsS'blackberry-storepass'
p699
NsS'wp8-tile-fliptemplate-back-title'
p700
NsS'brew-compress-loader'
p701
NsS'win32-pref-windowposy'
p702
NsS'win32-pref-windowposx'
p703
NsS'roku-requires-audiometadata'
p704
NsS'wp8-exclude-low-mem'
p705
NsS'wp8-tile-fliptemplate-title'
p706
NsS'iphone-icon-ipad-search-high-res'
p707
NsS'iphone-link-libdir'
p708
(lp709
S'c:/marmalade/7.2/extensions/s3ewebview/lib/iphone'
p710
aS'c:/marmalade/7.2/extensions/s3efacebook/lib/iphone'
p711
aS'c:/marmalade/7.2/extensions/s3eflurry/lib/iphone'
p712
asS'blackberry-permissions-read-geolocation'
p713
NsS'winmobile-nouninstall'
p714
NsS'tizen-signed'
p715
NsS'android-extra-application-manifest'
p716
(lp717
S'c:/marmalade/7.2/extensions/s3efacebook/source/android/extra_app_manifest.xml'
p718
asS'ws8-ext-native-dll'
p719
(lp720
sS'symbian-icon2-mask'
p721
NsS'iphone-backgroundmode-audio'
p722
NsS'webos-memory'
p723
NsS'android-keypass'
p724
NsS'name'
p725
NsS'uiq3-icon2-format'
p726
NsS'roku-splash-screen-sd'
p727
NsS'auto-derbh'
p728
NsS'roku-icon-side-sd'
p729
NsS'symbian-maxheapsize'
p730
NsS'nds-publicsavedatasize'
p731
NsS'splashscreen'
p732
NsS'brew-mif'
p733
NsS'iphone-icon-settings-high-res'
p734
NsS'android-manifest'
p735
NsS'ws81-splash-screen-image620x300'
p736
NsS's3e-compression'
p737
NsS'tizen-author-password'
p738
NsS'wp8-tile-fliptemplate-back-content'
p739
NsS'symbian-icon1'
p740
NsS'symbian-icon2'
p741
NsS'android-extra-styles-file'
p742
NsS'nds-bannertitle-jp'
p743
NsS'osx-sign-for-store'
p744
NsS'symbian7-uid'
p745
NsS'wp8-tile-fliptemplate-large-back-content'
p746
NsS'nds-bannertitle-cn'
p747
NsS'iphone-distribution-key'
p748
NsS'android-icon-gallery'
p749
NsS'blackberry-keystore'
p750
NsS'iphone-nosign'
p751
NsS'caption'
p752
NsS'android-extra-manifest'
p753
(lp754
sS'android-icon-xxhdpi'
p755
NsS'version-minor'
p756
NsS'iphone-link-libdirs'
p757
(lp758
sS'iphone-icon-large'
p759
NsS'symbian-keypwd'
p760
NsS'symbian8-uid'
p761
NsS'symbian-cert-key'
p762
NsS'winmobile-ampd-part-number'
p763
NsS'arch'
p764
NsS'nds-romheadertemplate'
p765
NsS'webos-icon'
p766
NsS'psp-dlgprotectdocument'
p767
NsS'android-icon-mdpi'
p768
NsS'nds-icon'
p769
NsS'ws8-custom-manifest-fill'
p770
NsS'iphone-development-cert'
p771
NsS'blackberry-phone-icon'
p772
NsS'iphone-enable-4inch-retina'
p773
NsS'ws8-custom-manifest'
p774
NsS'version-major'
p775
NsS'wp8-genre-isgame'
p776
NsS'uiq3-uid'
p777
NsS'iphone-splash-retina-generate'
p778
NsS'tizen-hw-acceleration'
p779
NsS'iphone_bundle_localisations'
p780
NsS'tizen-dist1-key'
p781
NsS'wp8-custom-manifest'
p782
NsS'nds-bannertitle-ge'
p783
NsS'iphone-sign-for-distribution'
p784
NsS'wp8-tile-fliptemplate-medium-back-image'
p785
NsS'wp8-publisher-id'
p786
NsS'icon'
p787
NsS'wp8-exclude-wxga'
p788
NsS'uiq3-icon2-mask'
p789
NsS'iphone-splashscreen-portrait'
p790
NsS'iphone-icon-high-res'
p791
NsS'ws81-distribution-pfx-password'
p792
NsS'playbook-author'
p793
NsS'android-icon-xhdpi'
p794
NsS'linux-ext-lib'
p795
(lp796
sS'blackberry-permissions-access-internet'
p797
NsS'wp8-exclude-720p'
p798
NsS'lgtv-use-drm'
p799
NsS'symbian-platsecflags'
p800
NsS'ws8-description'
p801
NsS'blackberry-playbook-icon'
p802
NsS'copyright'
p803
NsS'version'
p804
NsS'ws81-logo-image150x150'
p805
NsS'osx-signing-identity-app'
p806
NsS'tizen-project-url'
p807
NsS'symbian-icon-svg'
p808
NsS'android-aliasname'
p809
NsS'psp-dlgmanual'
p810
NsS'brew-uid'
p811
NsS'symbian-locationsupport'
p812
NsS'ws8-ext-managed-dll'
p813
(lp814
sS'nds-bannertitle-it'
p815
NsS'ws8-ext-sdk-manifest-part'
p816
(lp817
sS'uiq3-icon1-mask'
p818
NsS'winmobile-icon16'
p819
NsS'ws8-product-name'
p820
NsS'blackberry-cskpass'
p821
NsS'winmobile-start-menu-folder'
p822
NsS'brew-clsid'
p823
NsS'roku-requires-bluetooth'
p824
NsS'ws8-ext-device-capabilities'
p825
(lp826
sS'blackberry-permissions-use-camera'
p827
NsS'iphone-prerendered-icon'
p828
NsS'iphone-appid'
p829
S'com.yesornogames.countingstarts'
p830
sS'ws8-identity-name'
p831
NsS'tizen-dist2-CA-path'
p832
NsS'winmobile-icon64'
p833
NsS'blackberry-permissions-post-notification'
p834
NsS'winmobile-setup-dll'
p835
NsS'android-external-jars'
p836
(lp837
S'c:/marmalade/7.2/extensions/s3ewebview/lib/android/s3eWebView.jar'
p838
aS'c:/marmalade/7.2/extensions/s3efacebook/lib/android/s3eFacebook.jar'
p839
aS'c:/marmalade/7.2/extensions/s3efacebook/facebook-android-sdk/libs/android-support-v4.jar'
p840
aS'c:/marmalade/7.2/extensions/s3efacebook/lib/android/annotations-4.1.1.4.jar'
p841
aS'c:/marmalade/7.2/extensions/s3eflurry/lib/android/s3eFlurry.jar'
p842
aS'c:/marmalade/7.2/extensions/s3eflurry/lib/android/FlurryAgent.jar'
p843
asS'symbian9-uid'
p844
NsS'iphone-icon-ipad-ios7'
p845
NsS'winmobile-trace-file'
p846
NsS'roku-splash-color'
p847
NsS'psp-appversion'
p848
NsS'ws8-publisher-id'
p849
NsS'android-supports-gl-texture'
p850
(lp851
sS'winmobile-png45'
p852
NsS'android-storepass'
p853
NsS'roku-icon-focus-hd'
p854
NsS'android-custom-activity'
p855
NsS'psp-discversion'
p856
NsS'psp-copyright'
p857
NsS'embed-icf'
p858
NsS'tizen-manifest'
p859
NsS'osx-icon'
p860
NsS'webos-appinfo'
p861
NsS'psp-dlghealthwarning'
p862
NsS'webos-appid'
p863
NsS'roku-icon-side-hd'
p864
NsS'iphone-icon-ipad-search-high-res-ios7'
p865
NsS'ws81-ext-sdk-manifest-part'
p866
(lp867
sS'loader_name_prefix'
p868
NsS'nds-titlename'
p869
NsS'ws81-logo-image50x50'
p870
NsS'osx-entitlements-plist'
p871
NsS'psp-dlgicon0'
p872
NsS'ws81-ext-device-capabilities'
p873
(lp874
sS'psp-discid'
p875
NsS'tizen-dist2-password'
p876
NsS'ws8-ext-sdk-ref'
p877
(lp878
sS'iphone-extra-string'
p879
(lp880
sS'version-string'
p881
NsS'iphone-icon-high-res-ios7'
p882
NsS'blackberry-permissions-record-audio'
p883
NsS'ws8-certificate-end-date'
p884
NsS'tizen-so'
p885
(lp886
sS'wp8-tile-fliptemplate-small-image'
p887
NsS'pkguid-as-uid'
p888
NsS'iphone-signing-identity'
p889
NsS'roku-persist-quota'
p890
NsS'nds-bannertitle-fr'
p891
NsS'ws8-distribution-pfx'
p892
NsS'ws8-publisher-display-name'
p893
NsS'brew-icon-small'
p894
NsS'psp-dlgpic2'
p895
NsS'psp-dlgpic0'
p896
NsS'psp-pic0'
p897
NsS'psp-pic1'
p898
NsS'psp-icon0'
p899
NsS'psp-icon1'
p900
NsS'ws81-identity-name'
p901
NsS'winmobile-icon'
p902
NsS'iphone-no-splash'
p903
NsS'iphone-splash'
p904
NsS'iphone-app-fonts'
p905
NsS'wp8-ext-native-dll'
p906
(lp907
S'c:/marmalade/7.2/extensions/s3ewebview/lib/wp8/s3eWebViewExtension.dll'
p908
aS'c:/marmalade/7.2/extensions/s3efacebook/lib/wp8/s3eFacebookExtension.dll'
p909
aS'c:/marmalade/7.2/extensions/s3eflurry/lib/wp8/s3eFlurryExtension.dll'
p910
asS'ws81-distribution-cer'
p911
NsS'uiq3-icon2'
p912
NsS'uiq3-icon3'
p913
NsS'uiq3-icon1'
p914
NsS'uiq3-icon1-format'
p915
NsS'ws8-logo-image50x50'
p916
NsS'iphone-icon-ipad-search'
p917
NsS'symbian-run-on-install'
p918
NsS'ws81-publisher-display-name'
p919
NsS'ws81-custom-manifest-fill'
p920
NsS'symbian-soundrecordsupport'
p921
NsS'nds-bannertitle-sp'
p922
NsS'psp-producer'
p923
NsS'iphone-apple-wwdr-cert'
p924
NsS'android-icon-nonstandard'
p925
NsS'win32-pref-processtitle'
p926
NsS'nds-bannertitle-hn'
p927
NsS'tizen-dist2-key'
p928
NsS'brew-depends'
p929
NsS'ws81-custom-manifest'
p930
NsS'iphone-icon-ipad-search-ios7'
p931
NsS'brew-icon-medium'
p932
NsS'iphone-bundle-url-name'
p933
S'com.yesornogames.countingstarts'
p934
sS'wp8-tile-fliptemplate-large-front-image'
p935
NsS'tizen-dist2-CA-root-path'
p936
NsS'ws81-description'
p937
NsS'uiq3-icon3-format'
p938
NsS'ws81-logo-image30x30'
p939
NsS'iphone-signing-host'
p940
NsS'tizen-icon'
p941
NsS'osx-info-plist'
p942
NsS'symbian-icon1-format'
p943
NsS'ws81-distribution-pfx'
p944
NsS'blackberry-authorid'
p945
NsS'ws81-publisher-id'
p946
NsS'ws81-ext-sdk-ref'
p947
(lp948
sS'wp8-description'
p949
NsS'iphone-link-opts'
p950
(lp951
S'-F$MARMALADE_ROOT/extensions/s3eFacebook/source/iphone/facebook-ios-sdk -framework FacebookSDK -weak_framework AdSupport -weak_framework Accounts -weak_framework Social -lsqlite3'
p952
aS'-framework SystemConfiguration -framework Security'
p953
asS'roku-splash-min-time'
p954
NsS'wp8-tile-fliptemplate-medium-front-image'
p955
NsS'provider'
p956
NsS'playbook-keystore'
p957
NsS'tizen-appid'
p958
NsS'tizen-author-key'
p959
NsS'symbian-osexecsupport'
p960
NsS'android-install-location'
p961
NsS'nds-privatesavedatasize'
p962
NsS'playbook-storepass'
p963
NsS'android-icon-ldpi'
p964
NsS'manufacturer'
p965
NsS'itunes-artwork'
p966
NsS'iphone-extra-sections'
p967
NsS'ws81-product-name'
p968
NsS'ws81-ext-native-dll'
p969
(lp970
sS'iphone-info-plist'
p971
NsS'ws8-distribution-pfx-password'
p972
NsS'ws8-logo-image30x30'
p973
NsS'wp8-ext-managed-dll'
p974
(lp975
S'c:/marmalade/7.2/extensions/s3ewebview/lib/wp8/s3eWebViewManaged.dll'
p976
aS'c:/marmalade/7.2/extensions/s3efacebook/lib/wp8/s3eFacebookManaged.dll'
p977
aS'c:/marmalade/7.2/extensions/s3efacebook/facebook_wp8_lib/Facebook.Client.dll'
p978
aS'c:/marmalade/7.2/extensions/s3efacebook/facebook_wp8_lib/Facebook.dll'
p979
aS'c:/marmalade/7.2/extensions/s3eflurry/lib/wp8/FlurryWP8SDK.dll'
p980
aS'c:/marmalade/7.2/extensions/s3eflurry/lib/wp8/s3eFlurryManaged.dll'
p981
asS'iphone-splashscreen-landscape'
p982
NsS'nds-makercode'
p983
NsS'priv-sign-key'
p984
NsS'networking'
p985
NsS'android-icon'
p986
NsS'iphone-icon-settings'
p987
NsS'iphone-distribution-cert'
p988
NsS'android_extra_strings'
p989
NsS'nds-bannertitle-en'
p990
NsS'playbook-cskpass'
p991
NsS'android-so'
p992
(lp993
S'c:/marmalade/7.2/extensions/s3ewebview/lib/android/libs3eWebView.so'
p994
aS'c:/marmalade/7.2/extensions/s3efacebook/lib/android/libs3eFacebook.so'
p995
aS'c:/marmalade/7.2/extensions/s3eflurry/lib/android/libs3eFlurry.so'
p996
asS'wp8-higher-mem'
p997
NsS'roku-splash-screen-hd'
p998
NsS'iphone-bundle-url-schemes'
p999
S'fd<FACEBOOK_APP_ID>'
p1000
sS'roku-screensaver-private'
p1001
NsS'osx-extra-res'
p1002
(lp1003
sS'playbook-icon'
p1004
NsS'uid'
p1005
NsS'playbook-authorid'
p1006
NsS'win32-pref-windowtitle'
p1007
NsS'tizen-dist1-password'
p1008
NsS'roku-screensaver-title'
p1009
NsS'osx-minimum-osx-version'
p1010
NsS'symbian-cert'
p1011
NsS'iphone-icon'
p1012
NsS'ws81-ext-capabilities'
p1013
(lp1014
sS'ws8-distribution-cer'
p1015
NsS'playbook-access-shared'
p1016
NsS'iphone-icon-ipad-high-res-ios7'
p1017
NsS'iphone-link-libs'
p1018
(lp1019
sS'wp8-exclude-wvga'
p1020
NsS'assets'
p1021
NsS'wp8-tile-fliptemplate-large-back-image'
p1022
NsS'wp8-custom-manifest-fill'
p1023
NsS'pub-sign-key'
p1024
NsS'android-extra-strings'
p1025
NsS'tizen-author-CA-path'
p1026
Nssg328
g599
sbssS'platform'
p1027
S'S3E'
p1028
sg62
S'1.0'
p1029
sS'arcade_platform'
p1030
g4
sS'extensions'
p1031
(dp1032
sS'source_groups_tree'
p1033
(dp1034
S'(libpng)'
p1035
(dp1036
S'h'
p1037
(dp1038
S'c:/marmalade/7.2/modules/third_party/libpng/h/png.h'
p1039
(lp1040
I1
a(dp1041
asS'c:/marmalade/7.2/modules/third_party/libpng/h/pngconf.h'
p1042
(lp1043
I1
ag1041
assS'c:/marmalade/7.2/modules/third_party/libpng/libpng.mkf'
p1044
(lp1045
I1
a(dp1046
assS'(libjpeg)'
p1047
(dp1048
g1037
(dp1049
S'c:/marmalade/7.2/modules/third_party/libjpeg/h/jchuff.h'
p1050
(lp1051
I1
a(dp1052
asS'c:/marmalade/7.2/modules/third_party/libjpeg/h/jconfig.h'
p1053
(lp1054
I1
ag1052
asS'c:/marmalade/7.2/modules/third_party/libjpeg/h/cdjpeg.h'
p1055
(lp1056
I1
ag1052
asS'c:/marmalade/7.2/modules/third_party/libjpeg/h/jpegint.h'
p1057
(lp1058
I1
ag1052
asS'c:/marmalade/7.2/modules/third_party/libjpeg/h/transupp.h'
p1059
(lp1060
I1
ag1052
asS'c:/marmalade/7.2/modules/third_party/libjpeg/h/jversion.h'
p1061
(lp1062
I1
ag1052
asS'c:/marmalade/7.2/modules/third_party/libjpeg/h/jpeglib.h'
p1063
(lp1064
I1
ag1052
asS'c:/marmalade/7.2/modules/third_party/libjpeg/h/jinclude.h'
p1065
(lp1066
I1
ag1052
asS'c:/marmalade/7.2/modules/third_party/libjpeg/h/jdct.h'
p1067
(lp1068
I1
ag1052
asS'c:/marmalade/7.2/modules/third_party/libjpeg/h/jdhuff.h'
p1069
(lp1070
I1
ag1052
asS'c:/marmalade/7.2/modules/third_party/libjpeg/h/jmemsys.h'
p1071
(lp1072
I1
ag1052
asS'c:/marmalade/7.2/modules/third_party/libjpeg/h/jmorecfg.h'
p1073
(lp1074
I1
ag1052
asS'c:/marmalade/7.2/modules/third_party/libjpeg/h/jerror.h'
p1075
(lp1076
I1
ag1052
asS'c:/marmalade/7.2/modules/third_party/libjpeg/h/cderror.h'
p1077
(lp1078
I1
ag1052
assS'c:/marmalade/7.2/modules/third_party/libjpeg/libjpeg.mkf'
p1079
(lp1080
I1
a(dp1081
assS'(tiniconv)'
p1082
(dp1083
S'c:/marmalade/7.2/modules/third_party/tiniconv/source/tiniconv.h'
p1084
(lp1085
I1
a(dp1086
asS'c:/marmalade/7.2/modules/third_party/tiniconv/source/tiniconv_int.h'
p1087
(lp1088
I1
ag1086
asS'c:/marmalade/7.2/modules/third_party/tiniconv/tiniconv.mkf'
p1089
(lp1090
I1
a(dp1091
assS'(SoundEngine)'
p1092
(dp1093
S'c:/users/vinicius/desktop/yes or no/stars/modules/soundengine/source/IwSoundManager.cpp'
p1094
(lp1095
I1
a(dp1096
asS'c:/users/vinicius/desktop/yes or no/stars/modules/soundengine/soundengine.mkf'
p1097
(lp1098
I1
a(dp1099
asS'c:/users/vinicius/desktop/yes or no/stars/modules/soundengine/source/IwSoundInst.cpp'
p1100
(lp1101
I1
ag1096
asS'c:/users/vinicius/desktop/yes or no/stars/modules/soundengine/source/IwSoundADPCM.cpp'
p1102
(lp1103
I1
ag1096
asS'c:/users/vinicius/desktop/yes or no/stars/modules/soundengine/h/IwSoundManager.h'
p1104
(lp1105
I1
ag1096
asS'c:/users/vinicius/desktop/yes or no/stars/modules/soundengine/source/IwSoundParams.cpp'
p1106
(lp1107
I1
ag1096
asS'c:/users/vinicius/desktop/yes or no/stars/modules/soundengine/source/IwSoundData.cpp'
p1108
(lp1109
I1
ag1096
asS'Docs'
p1110
(dp1111
S'c:/users/vinicius/desktop/yes or no/stars/modules/soundengine/docs/iwsound.config.txt'
p1112
(lp1113
I1
ag1096
assS'c:/users/vinicius/desktop/yes or no/stars/modules/soundengine/source/IwResHandlerWAV.cpp'
p1114
(lp1115
I1
ag1096
asS'c:/users/vinicius/desktop/yes or no/stars/modules/soundengine/h/IwSoundInst.h'
p1116
(lp1117
I1
ag1096
asS'c:/users/vinicius/desktop/yes or no/stars/modules/soundengine/h/IwSoundADPCM.h'
p1118
(lp1119
I1
ag1096
asS'c:/users/vinicius/desktop/yes or no/stars/modules/soundengine/source/IwSoundWAV.cpp'
p1120
(lp1121
I1
ag1096
asS'c:/users/vinicius/desktop/yes or no/stars/modules/soundengine/source/IwSoundGroup.cpp'
p1122
(lp1123
I1
ag1096
asS'c:/users/vinicius/desktop/yes or no/stars/modules/soundengine/h/IwSound.h'
p1124
(lp1125
I1
ag1096
asS'c:/users/vinicius/desktop/yes or no/stars/modules/soundengine/h/IwSoundWAV.h'
p1126
(lp1127
I1
ag1096
asS'c:/users/vinicius/desktop/yes or no/stars/modules/soundengine/source/IwSoundPCM.cpp'
p1128
(lp1129
I1
ag1096
asS'c:/users/vinicius/desktop/yes or no/stars/modules/soundengine/h/IwSoundSpec.h'
p1130
(lp1131
I1
ag1096
asS'c:/users/vinicius/desktop/yes or no/stars/modules/soundengine/h/IwSoundPCM.h'
p1132
(lp1133
I1
ag1096
asS'c:/users/vinicius/desktop/yes or no/stars/modules/soundengine/h/IwSoundGroup.h'
p1134
(lp1135
I1
ag1096
asS'c:/users/vinicius/desktop/yes or no/stars/modules/soundengine/h/IwResHandlerWAV.h'
p1136
(lp1137
I1
ag1096
asS'c:/users/vinicius/desktop/yes or no/stars/modules/soundengine/h/IwSoundParams.h'
p1138
(lp1139
I1
ag1096
asS'c:/users/vinicius/desktop/yes or no/stars/modules/soundengine/h/IwSoundData.h'
p1140
(lp1141
I1
ag1096
asS'c:/users/vinicius/desktop/yes or no/stars/modules/soundengine/source/IwSoundSpec.cpp'
p1142
(lp1143
I1
ag1096
assS'Extensions'
p1144
(dp1145
S's3eWebView'
p1146
(dp1147
S'interface'
p1148
(dp1149
S'c:/marmalade/7.2/extensions/s3ewebview/interface/s3eWebView.defines.txt'
p1150
(lp1151
I1
a(dp1152
asS'c:/marmalade/7.2/extensions/s3ewebview/interface/s3eWebView_interface.cpp'
p1153
(lp1154
I1
ag1152
assS'c:/marmalade/7.2/extensions/s3ewebview/h/s3eWebView.h'
p1155
(lp1156
I1
ag1152
asS'c:/marmalade/7.2/extensions/s3ewebview/s3ewebview.mkf'
p1157
(lp1158
I1
a(dp1159
assS's3eFacebook'
p1160
(dp1161
S'interface'
p1162
(dp1163
S'c:/marmalade/7.2/extensions/s3efacebook/interface/s3eFacebook_interface.cpp'
p1164
(lp1165
I1
a(dp1166
asS'c:/marmalade/7.2/extensions/s3efacebook/interface/s3eFacebook.defines.txt'
p1167
(lp1168
I1
ag1166
assg1037
(dp1169
S'c:/marmalade/7.2/extensions/s3efacebook/h/s3eFacebook.h'
p1170
(lp1171
I1
ag1166
assS'c:/marmalade/7.2/extensions/s3efacebook/s3efacebook.mkf'
p1172
(lp1173
I1
a(dp1174
assS's3eFlurry'
p1175
(dp1176
S'interface'
p1177
(dp1178
S'c:/marmalade/7.2/extensions/s3eflurry/interface/s3eFlurry_interface.cpp'
p1179
(lp1180
I1
a(dp1181
asS'c:/marmalade/7.2/extensions/s3eflurry/interface/s3eFlurry.defines.txt'
p1182
(lp1183
I1
ag1181
assS'c:/marmalade/7.2/extensions/s3eflurry/h/s3eFlurry.h'
p1184
(lp1185
I1
ag1181
asS'c:/marmalade/7.2/extensions/s3eflurry/s3eflurry.mkf'
p1186
(lp1187
I1
a(dp1188
asssS'stars'
p1189
(dp1190
S'entities'
p1191
(dp1192
S'c:/Users/Vinicius/Desktop/Yes or No/Stars/source/player.h'
p1193
(lp1194
I1
a(dp1195
asS'c:/Users/Vinicius/Desktop/Yes or No/Stars/source/star.cpp'
p1196
(lp1197
I1
ag1195
asS'c:/Users/Vinicius/Desktop/Yes or No/Stars/source/star.h'
p1198
(lp1199
I1
ag1195
asS'c:/Users/Vinicius/Desktop/Yes or No/Stars/source/comet.h'
p1200
(lp1201
I1
ag1195
asS'c:/Users/Vinicius/Desktop/Yes or No/Stars/source/satellite.h'
p1202
(lp1203
I1
ag1195
asS'c:/Users/Vinicius/Desktop/Yes or No/Stars/source/satellite.cpp'
p1204
(lp1205
I1
ag1195
asS'c:/Users/Vinicius/Desktop/Yes or No/Stars/source/comet.cpp'
p1206
(lp1207
I1
ag1195
asS'c:/Users/Vinicius/Desktop/Yes or No/Stars/source/asteroid.cpp'
p1208
(lp1209
I1
ag1195
asS'c:/Users/Vinicius/Desktop/Yes or No/Stars/source/asteroid.h'
p1210
(lp1211
I1
ag1195
asS'c:/Users/Vinicius/Desktop/Yes or No/Stars/source/vortex.cpp'
p1212
(lp1213
I1
ag1195
asS'c:/Users/Vinicius/Desktop/Yes or No/Stars/source/gameObject.cpp'
p1214
(lp1215
I1
ag1195
asS'c:/Users/Vinicius/Desktop/Yes or No/Stars/source/gameObject.h'
p1216
(lp1217
I1
ag1195
asS'c:/Users/Vinicius/Desktop/Yes or No/Stars/source/vortex.h'
p1218
(lp1219
I1
ag1195
asS'c:/Users/Vinicius/Desktop/Yes or No/Stars/source/player.cpp'
p1220
(lp1221
I1
ag1195
assS'utils'
p1222
(dp1223
S'c:/Users/Vinicius/Desktop/Yes or No/Stars/source/easyArray.h'
p1224
(lp1225
I1
ag1195
assS'main'
p1226
(dp1227
S'c:/Users/Vinicius/Desktop/Yes or No/Stars/source/main.h'
p1228
(lp1229
I1
ag1195
asS'c:/Users/Vinicius/Desktop/Yes or No/Stars/source/main.cpp'
p1230
(lp1231
I1
ag1195
asS'c:/Users/Vinicius/Desktop/Yes or No/Stars/source/include.h'
p1232
(lp1233
I1
ag1195
assS'managers'
p1234
(dp1235
S'c:/Users/Vinicius/Desktop/Yes or No/Stars/source/timerManager.cpp'
p1236
(lp1237
I1
ag1195
asS'c:/Users/Vinicius/Desktop/Yes or No/Stars/source/spriteManager.cpp'
p1238
(lp1239
I1
ag1195
asS'c:/Users/Vinicius/Desktop/Yes or No/Stars/source/inputManager.h'
p1240
(lp1241
I1
ag1195
asS'c:/Users/Vinicius/Desktop/Yes or No/Stars/source/sceneManager.cpp'
p1242
(lp1243
I1
ag1195
asS'c:/Users/Vinicius/Desktop/Yes or No/Stars/source/resourceManager.h'
p1244
(lp1245
I1
ag1195
asS'c:/Users/Vinicius/Desktop/Yes or No/Stars/source/savedataManager.h'
p1246
(lp1247
I1
ag1195
asS'c:/Users/Vinicius/Desktop/Yes or No/Stars/source/spriteManager.h'
p1248
(lp1249
I1
ag1195
asS'c:/Users/Vinicius/Desktop/Yes or No/Stars/source/parallaxManager.cpp'
p1250
(lp1251
I1
ag1195
asS'c:/Users/Vinicius/Desktop/Yes or No/Stars/source/timerManager.h'
p1252
(lp1253
I1
ag1195
asS'c:/Users/Vinicius/Desktop/Yes or No/Stars/source/sceneManager.h'
p1254
(lp1255
I1
ag1195
asS'c:/Users/Vinicius/Desktop/Yes or No/Stars/source/savedataManager.cpp'
p1256
(lp1257
I1
ag1195
asS'c:/Users/Vinicius/Desktop/Yes or No/Stars/source/audioManager.h'
p1258
(lp1259
I1
ag1195
asS'c:/Users/Vinicius/Desktop/Yes or No/Stars/source/inputManager.cpp'
p1260
(lp1261
I1
ag1195
asS'c:/Users/Vinicius/Desktop/Yes or No/Stars/source/audioManager.cpp'
p1262
(lp1263
I1
ag1195
asS'c:/Users/Vinicius/Desktop/Yes or No/Stars/source/parallaxManager.h'
p1264
(lp1265
I1
ag1195
asS'c:/Users/Vinicius/Desktop/Yes or No/Stars/source/resourceManager.cpp'
p1266
(lp1267
I1
ag1195
assS'scenes'
p1268
(dp1269
S'c:/Users/Vinicius/Desktop/Yes or No/Stars/source/items.cpp'
p1270
(lp1271
I1
ag1195
asS'c:/Users/Vinicius/Desktop/Yes or No/Stars/source/customize.h'
p1272
(lp1273
I1
ag1195
asS'c:/Users/Vinicius/Desktop/Yes or No/Stars/source/customize.cpp'
p1274
(lp1275
I1
ag1195
asS'c:/Users/Vinicius/Desktop/Yes or No/Stars/source/mainMenu.h'
p1276
(lp1277
I1
ag1195
asS'c:/Users/Vinicius/Desktop/Yes or No/Stars/source/getStars.h'
p1278
(lp1279
I1
ag1195
asS'c:/Users/Vinicius/Desktop/Yes or No/Stars/source/store.h'
p1280
(lp1281
I1
ag1195
asS'c:/Users/Vinicius/Desktop/Yes or No/Stars/source/options.h'
p1282
(lp1283
I1
ag1195
asS'c:/Users/Vinicius/Desktop/Yes or No/Stars/source/getStars.cpp'
p1284
(lp1285
I1
ag1195
asS'c:/Users/Vinicius/Desktop/Yes or No/Stars/source/mainMenu.cpp'
p1286
(lp1287
I1
ag1195
asS'c:/Users/Vinicius/Desktop/Yes or No/Stars/source/items.h'
p1288
(lp1289
I1
ag1195
asS'c:/Users/Vinicius/Desktop/Yes or No/Stars/source/store.cpp'
p1290
(lp1291
I1
ag1195
asS'c:/Users/Vinicius/Desktop/Yes or No/Stars/source/options.cpp'
p1292
(lp1293
I1
ag1195
asS'c:/Users/Vinicius/Desktop/Yes or No/Stars/source/game.h'
p1294
(lp1295
I1
ag1195
asS'c:/Users/Vinicius/Desktop/Yes or No/Stars/source/game.cpp'
p1296
(lp1297
I1
ag1195
asssS"'Marmalade Studio'"
p1298
(dp1299
S'iw2dscenegraph'
p1300
(dp1301
S'c:/marmalade/7.2/modules/iw2dscenegraph/source/Iw2DSceneGraph.cpp'
p1302
(lp1303
I1
a(dp1304
asS'c:/marmalade/7.2/modules/iw2dscenegraph/iw2dscenegraph.mkf'
p1305
(lp1306
I1
a(dp1307
asS'c:/marmalade/7.2/modules/iw2dscenegraph/h/Iw2DSceneGraph.h'
p1308
(lp1309
I1
ag1304
asS'c:/marmalade/7.2/modules/iw2dscenegraph/docs/iw2dscenegraph.defines.txt'
p1310
(lp1311
I1
ag1304
assS'iwgl'
p1312
(dp1313
S'c:/marmalade/7.2/modules/iwgl/h/IwGL.h'
p1314
(lp1315
I1
a(dp1316
asS'c:/marmalade/7.2/modules/iwgl/iwgl.mkf'
p1317
(lp1318
I1
a(dp1319
asS'c:/marmalade/7.2/modules/iwgl/h/IwGLExt.h'
p1320
(lp1321
I1
ag1316
asS'c:/marmalade/7.2/modules/iwgl/docs/iwgl.config.txt'
p1322
(lp1323
I1
ag1316
assS'iw2d'
p1324
(dp1325
S'c:/marmalade/7.2/modules/iw2d/docs/iw2d_public.defines.txt'
p1326
(lp1327
I1
a(dp1328
asS'c:/marmalade/7.2/modules/iw2d/h/Iw2D.h'
p1329
(lp1330
I1
ag1328
asS'c:/marmalade/7.2/modules/iw2d/docs/iw2d.config.txt'
p1331
(lp1332
I1
ag1328
asS'c:/marmalade/7.2/modules/iw2d/iw2d.mkf'
p1333
(lp1334
I1
a(dp1335
assS'iwgxfont'
p1336
(dp1337
S'c:/marmalade/7.2/modules/iwgxfont/h/IwGxFont.h'
p1338
(lp1339
I1
a(dp1340
asS'c:/marmalade/7.2/modules/iwgxfont/h/IwGxFontPreparedData.h'
p1341
(lp1342
I1
ag1340
asS'c:/marmalade/7.2/modules/iwgxfont/h/IwGxFontContainer.h'
p1343
(lp1344
I1
ag1340
asS'c:/marmalade/7.2/modules/iwgxfont/docs/iwgxfont_public.defines.txt'
p1345
(lp1346
I1
ag1340
asS'c:/marmalade/7.2/modules/iwgxfont/h/IwGxFontGlyph.h'
p1347
(lp1348
I1
ag1340
asS'c:/marmalade/7.2/modules/iwgxfont/h/IwGxFontState.h'
p1349
(lp1350
I1
ag1340
asS'c:/marmalade/7.2/modules/iwgxfont/h/IwGxFontTypes.h'
p1351
(lp1352
I1
ag1340
asS'c:/marmalade/7.2/modules/iwgxfont/iwgxfont.mkf'
p1353
(lp1354
I1
a(dp1355
asS'c:/marmalade/7.2/modules/iwgxfont/docs/iwgxfont.config.txt'
p1356
(lp1357
I1
ag1340
assS'iwgeom'
p1358
(dp1359
S'c:/marmalade/7.2/modules/iwgeom/docs/iwgeom.config.txt'
p1360
(lp1361
I1
a(dp1362
asS'c:/marmalade/7.2/modules/iwgeom/h/IwGeomFPlane.h'
p1363
(lp1364
I1
ag1362
asS'c:/marmalade/7.2/modules/iwgeom/h/IwGeomPlane.h'
p1365
(lp1366
I1
ag1362
asS'c:/marmalade/7.2/modules/iwgeom/h/IwGeomMat.h'
p1367
(lp1368
I1
ag1362
asS'c:/marmalade/7.2/modules/iwgeom/h/IwGeomMat2D.h'
p1369
(lp1370
I1
ag1362
asS'c:/marmalade/7.2/modules/iwgeom/h/IwGeomMenu.h'
p1371
(lp1372
I1
ag1362
asS'c:/marmalade/7.2/modules/iwgeom/h/IwGeomSqrt.h'
p1373
(lp1374
I1
ag1362
asS'c:/marmalade/7.2/modules/iwgeom/h/IwGeomFMat2D.h'
p1375
(lp1376
I1
ag1362
asS'c:/marmalade/7.2/modules/iwgeom/h/IwGeomCore.h'
p1377
(lp1378
I1
ag1362
asS'c:/marmalade/7.2/modules/iwgeom/h/IwGeomFVec3.h'
p1379
(lp1380
I1
ag1362
asS'c:/marmalade/7.2/modules/iwgeom/h/IwGeomFVec2.h'
p1381
(lp1382
I1
ag1362
asS'c:/marmalade/7.2/modules/iwgeom/h/IwGeom.h'
p1383
(lp1384
I1
ag1362
asS'c:/marmalade/7.2/modules/iwgeom/h/IwGeomSVec2.h'
p1385
(lp1386
I1
ag1362
asS'c:/marmalade/7.2/modules/iwgeom/h/IwGeomFVec4.h'
p1387
(lp1388
I1
ag1362
asS'c:/marmalade/7.2/modules/iwgeom/h/IwGeomSVec3.h'
p1389
(lp1390
I1
ag1362
asS'c:/marmalade/7.2/modules/iwgeom/h/IwGeomBBox.h'
p1391
(lp1392
I1
ag1362
asS'c:/marmalade/7.2/modules/iwgeom/h/IwGeomVec2.h'
p1393
(lp1394
I1
ag1362
asS'c:/marmalade/7.2/modules/iwgeom/h/IwGeomFMat.h'
p1395
(lp1396
I1
ag1362
asS'c:/marmalade/7.2/modules/iwgeom/h/IwGeomFQuat.h'
p1397
(lp1398
I1
ag1362
asS'c:/marmalade/7.2/modules/iwgeom/h/IwGeomVec3.h'
p1399
(lp1400
I1
ag1362
asS'c:/marmalade/7.2/modules/iwgeom/h/IwGeomSVec4.h'
p1401
(lp1402
I1
ag1362
asS'c:/marmalade/7.2/modules/iwgeom/h/IwGeomVec.h'
p1403
(lp1404
I1
ag1362
asS'c:/marmalade/7.2/modules/iwgeom/h/IwGeomFIntersect.h'
p1405
(lp1406
I1
ag1362
asS'c:/marmalade/7.2/modules/iwgeom/iwgeom.mkf'
p1407
(lp1408
I1
a(dp1409
asS'c:/marmalade/7.2/modules/iwgeom/h/IwGeomFSphere.h'
p1410
(lp1411
I1
ag1362
asS'c:/marmalade/7.2/modules/iwgeom/h/IwGeomIntersect.h'
p1412
(lp1413
I1
ag1362
asS'c:/marmalade/7.2/modules/iwgeom/h/IwGeomSQuat.h'
p1414
(lp1415
I1
ag1362
asS'c:/marmalade/7.2/modules/iwgeom/h/IwGeomQuat.h'
p1416
(lp1417
I1
ag1362
asS'c:/marmalade/7.2/modules/iwgeom/h/IwGeomSphere.h'
p1418
(lp1419
I1
ag1362
asS'c:/marmalade/7.2/modules/iwgeom/h/IwGeomLegacy.h'
p1420
(lp1421
I1
ag1362
asS'c:/marmalade/7.2/modules/iwgeom/h/IwGeomVec4.h'
p1422
(lp1423
I1
ag1362
asS'c:/marmalade/7.2/modules/iwgeom/h/IwGeomFBBox.h'
p1424
(lp1425
I1
ag1362
assS'iwresmanager'
p1426
(dp1427
S'c:/marmalade/7.2/modules/iwresmanager/h/IwResHandlerGROUP.h'
p1428
(lp1429
I1
a(dp1430
asS'c:/marmalade/7.2/modules/iwresmanager/h/IwResHandler.h'
p1431
(lp1432
I1
ag1430
asS'c:/marmalade/7.2/modules/iwresmanager/iwresmanager.mkf'
p1433
(lp1434
I1
a(dp1435
asS'c:/marmalade/7.2/modules/iwresmanager/h/IwResGroup.h'
p1436
(lp1437
I1
ag1430
asS'c:/marmalade/7.2/modules/iwresmanager/h/IwResHandlerImage.h'
p1438
(lp1439
I1
ag1430
asS'c:/marmalade/7.2/modules/iwresmanager/docs/iwresmanager.config.txt'
p1440
(lp1441
I1
ag1430
asS'c:/marmalade/7.2/modules/iwresmanager/h/IwResManagerClass.h'
p1442
(lp1443
I1
ag1430
asS'c:/marmalade/7.2/modules/iwresmanager/h/IwResHandlerITX.h'
p1444
(lp1445
I1
ag1430
asS'c:/marmalade/7.2/modules/iwresmanager/h/IwResSerialise.h'
p1446
(lp1447
I1
ag1430
asS'c:/marmalade/7.2/modules/iwresmanager/h/IwResManager.h'
p1448
(lp1449
I1
ag1430
assS'iwgx'
p1450
(dp1451
S'c:/marmalade/7.2/modules/iwgx/h/IwTPage.h'
p1452
(lp1453
I1
a(dp1454
asS'c:/marmalade/7.2/modules/iwgx/h/IwGxStream.h'
p1455
(lp1456
I1
ag1454
asS'c:/marmalade/7.2/modules/iwgx/h/IwGxTransformSW.h'
p1457
(lp1458
I1
ag1454
asS'c:/marmalade/7.2/modules/iwgx/h/IwMaterial.h'
p1459
(lp1460
I1
ag1454
asS'c:/marmalade/7.2/modules/iwgx/h/IwMatAnim.h'
p1461
(lp1462
I1
ag1454
asS'c:/marmalade/7.2/modules/iwgx/docs/iwgx.config.txt'
p1463
(lp1464
I1
ag1454
asS'c:/marmalade/7.2/modules/iwgx/iwgx.mkf'
p1465
(lp1466
I1
a(dp1467
asS'c:/marmalade/7.2/modules/iwgx/h/IwResHandlerMTL.h'
p1468
(lp1469
I1
ag1454
asS'c:/marmalade/7.2/modules/iwgx/h/IwGxPrint.h'
p1470
(lp1471
I1
ag1454
asS'c:/marmalade/7.2/modules/iwgx/h/IwGxSurface.h'
p1472
(lp1473
I1
ag1454
asS'c:/marmalade/7.2/modules/iwgx/docs/iwgx_public.defines.txt'
p1474
(lp1475
I1
ag1454
asS'c:/marmalade/7.2/modules/iwgx/h/IwClip.h'
p1476
(lp1477
I1
ag1454
asS'c:/marmalade/7.2/modules/iwgx/h/IwGx.h'
p1478
(lp1479
I1
ag1454
asS'c:/marmalade/7.2/modules/iwgx/h/IwGxDebug.h'
p1480
(lp1481
I1
ag1454
asS'c:/marmalade/7.2/modules/iwgx/h/IwDebugPrim.h'
p1482
(lp1483
I1
ag1454
asS'c:/marmalade/7.2/modules/iwgx/h/IwGxMetrics.h'
p1484
(lp1485
I1
ag1454
asS'c:/marmalade/7.2/modules/iwgx/h/IwGxError.h'
p1486
(lp1487
I1
ag1454
asS'c:/marmalade/7.2/modules/iwgx/h/IwClip.inl'
p1488
(lp1489
I1
ag1454
asS'c:/marmalade/7.2/modules/iwgx/h/IwGxFuncTable.h'
p1490
(lp1491
I1
ag1454
asS'c:/marmalade/7.2/modules/iwgx/h/IwTexture.h'
p1492
(lp1493
I1
ag1454
asS'c:/marmalade/7.2/modules/iwgx/h/IwFColour.h'
p1494
(lp1495
I1
ag1454
asS'c:/marmalade/7.2/modules/iwgx/h/IwColour.h'
p1496
(lp1497
I1
ag1454
asS'c:/marmalade/7.2/modules/iwgx/h/IwGxShaderTechnique.h'
p1498
(lp1499
I1
ag1454
asS'c:/marmalade/7.2/modules/iwgx/h/IwGxTypes.h'
p1500
(lp1501
I1
ag1454
asS'c:/marmalade/7.2/modules/iwgx/h/IwGxState.h'
p1502
(lp1503
I1
ag1454
assS'iw2dscenegraphcore'
p1504
(dp1505
S'c:/marmalade/7.2/modules/iw2dscenegraphcore/iw2dscenegraphcore.mkf'
p1506
(lp1507
I1
a(dp1508
asS'c:/marmalade/7.2/modules/iw2dscenegraphcore/h/Iw2DSceneGraphCore.h'
p1509
(lp1510
I1
a(dp1511
asS'c:/marmalade/7.2/modules/iw2dscenegraphcore/source/Iw2DSceneGraphCore.cpp'
p1512
(lp1513
I1
ag1511
assS'iwutil'
p1514
(dp1515
S'c:/marmalade/7.2/modules/iwutil/h/IwCore.h'
p1516
(lp1517
I1
a(dp1518
asS'c:/marmalade/7.2/modules/iwutil/h/IwArray.h'
p1519
(lp1520
I1
ag1518
asS'c:/marmalade/7.2/modules/iwutil/h/IwResource.h'
p1521
(lp1522
I1
ag1518
asS'c:/marmalade/7.2/modules/iwutil/h/IwFibre.h'
p1523
(lp1524
I1
ag1518
asS'c:/marmalade/7.2/modules/iwutil/h/IwBuffer.h'
p1525
(lp1526
I1
ag1518
asS'c:/marmalade/7.2/modules/iwutil/h/IwRandom.h'
p1527
(lp1528
I1
ag1518
asS'c:/marmalade/7.2/modules/iwutil/h/IwManagedList.h'
p1529
(lp1530
I1
ag1518
asS'c:/marmalade/7.2/modules/iwutil/h/IwList.h'
p1531
(lp1532
I1
ag1518
asS'c:/marmalade/7.2/modules/iwutil/h/IwProfileMenu.h'
p1533
(lp1534
I1
ag1518
asS'c:/marmalade/7.2/modules/iwutil/h/IwMemory.h'
p1535
(lp1536
I1
ag1518
asS'c:/marmalade/7.2/modules/iwutil/h/IwMath.h'
p1537
(lp1538
I1
ag1518
asS'c:/marmalade/7.2/modules/iwutil/h/IwDivTable.h'
p1539
(lp1540
I1
ag1518
asS'c:/marmalade/7.2/modules/iwutil/h/IwTextParserITX.h'
p1541
(lp1542
I1
ag1518
asS'c:/marmalade/7.2/modules/iwutil/h/IwMenu.h'
p1543
(lp1544
I1
ag1518
asS'c:/marmalade/7.2/modules/iwutil/h/IwChar.h'
p1545
(lp1546
I1
ag1518
asS'c:/marmalade/7.2/modules/iwutil/h/IwEvent.h'
p1547
(lp1548
I1
ag1518
asS'c:/marmalade/7.2/modules/iwutil/h/IwTextParser.h'
p1549
(lp1550
I1
ag1518
asS'c:/marmalade/7.2/modules/iwutil/h/IwOptimiseSize.h'
p1551
(lp1552
I1
ag1518
asS'c:/marmalade/7.2/modules/iwutil/h/IwSingleton.h'
p1553
(lp1554
I1
ag1518
asS'c:/marmalade/7.2/modules/iwutil/h/IwAllocator.h'
p1555
(lp1556
I1
ag1518
asS'c:/marmalade/7.2/modules/iwutil/h/IwFile.h'
p1557
(lp1558
I1
ag1518
asS'c:/marmalade/7.2/modules/iwutil/h/IwString.h'
p1559
(lp1560
I1
ag1518
asS'c:/marmalade/7.2/modules/iwutil/h/IwVariableBitField.h'
p1561
(lp1562
I1
ag1518
asS'c:/marmalade/7.2/modules/iwutil/h/IwUncopyable.h'
p1563
(lp1564
I1
ag1518
asS'c:/marmalade/7.2/modules/iwutil/h/IwImage.h'
p1565
(lp1566
I1
ag1518
asS'c:/marmalade/7.2/modules/iwutil/h/IwTypes.h'
p1567
(lp1568
I1
ag1518
asS'c:/marmalade/7.2/modules/iwutil/h/IwManaged.h'
p1569
(lp1570
I1
ag1518
asS'c:/marmalade/7.2/modules/iwutil/h/IwRuntime.h'
p1571
(lp1572
I1
ag1518
asS'c:/marmalade/7.2/modules/iwutil/h/IwMemManagerDL.h'
p1573
(lp1574
I1
ag1518
asS'c:/marmalade/7.2/modules/iwutil/h/IwOptimiseThumb.h'
p1575
(lp1576
I1
ag1518
asS'c:/marmalade/7.2/modules/iwutil/h/IwUtil.h'
p1577
(lp1578
I1
ag1518
asS'c:/marmalade/7.2/modules/iwutil/docs/iwutil.config.txt'
p1579
(lp1580
I1
ag1518
asS'c:/marmalade/7.2/modules/iwutil/h/IwClassFactory.h'
p1581
(lp1582
I1
ag1518
asS'c:/marmalade/7.2/modules/iwutil/h/IwUtilInitTerm.h'
p1583
(lp1584
I1
ag1518
asS'c:/marmalade/7.2/modules/iwutil/h/IwAutoFile.h'
p1585
(lp1586
I1
ag1518
asS'c:/marmalade/7.2/modules/iwutil/h/IwUTF8.h'
p1587
(lp1588
I1
ag1518
asS'c:/marmalade/7.2/modules/iwutil/h/IwSerialise.h'
p1589
(lp1590
I1
ag1518
asS'c:/marmalade/7.2/modules/iwutil/h/IwPath.h'
p1591
(lp1592
I1
ag1518
asS'c:/marmalade/7.2/modules/iwutil/h/IwMemBucketHelpers.h'
p1593
(lp1594
I1
ag1518
asS'c:/marmalade/7.2/modules/iwutil/h/IwCopyingPtr.h'
p1595
(lp1596
I1
ag1518
asS'c:/marmalade/7.2/modules/iwutil/h/IwOptimiseARM.h'
p1597
(lp1598
I1
ag1518
asS'c:/marmalade/7.2/modules/iwutil/h/IwMemBucket.h'
p1599
(lp1600
I1
ag1518
asS'c:/marmalade/7.2/modules/iwutil/iwutil.mkf'
p1601
(lp1602
I1
a(dp1603
asS'c:/marmalade/7.2/modules/iwutil/h/IwKeymap.h'
p1604
(lp1605
I1
ag1518
asS'c:/marmalade/7.2/modules/iwutil/h/IwImageHelper.h'
p1606
(lp1607
I1
ag1518
asS'c:/marmalade/7.2/modules/iwutil/h/IwOptimiseSpeed.h'
p1608
(lp1609
I1
ag1518
asS'c:/marmalade/7.2/modules/iwutil/h/IwTextParseable.h'
p1610
(lp1611
I1
ag1518
asS'c:/marmalade/7.2/modules/iwutil/h/IwDebug.h'
p1612
(lp1613
I1
ag1518
asS'c:/marmalade/7.2/modules/iwutil/h/IwDivide.h'
p1614
(lp1615
I1
ag1518
asS'c:/marmalade/7.2/modules/iwutil/h/IwHashString.h'
p1616
(lp1617
I1
ag1518
asssS'(zlib)'
p1618
(dp1619
g1037
(dp1620
S'c:/marmalade/7.2/modules/third_party/zlib/h/zconf.h'
p1621
(lp1622
I1
a(dp1623
asS'c:/marmalade/7.2/modules/third_party/zlib/h/zlib.h'
p1624
(lp1625
I1
ag1623
assS'c:/marmalade/7.2/modules/third_party/zlib/zlib.mkf'
p1626
(lp1627
I1
a(dp1628
assS'(iwtween)'
p1629
(dp1630
S'c:/marmalade/7.2/modules/iwtween/iwtween.mkf'
p1631
(lp1632
I1
a(dp1633
asS'c:/marmalade/7.2/modules/iwtween/source/IwTween.cpp'
p1634
(lp1635
I1
a(dp1636
asS'c:/marmalade/7.2/modules/iwtween/h/IwTween.h'
p1637
(lp1638
I1
ag1636
asssS'files'
p1639
(dp1640
S'IwGxFontPreparedData.h'
p1641
g302
(cmkb_main
File
p1642
g304
Ntp1643
Rp1644
(dp1645
S'flags'
p1646
g1340
sS'group'
p1647
(lp1648
S"'Marmalade Studio'"
p1649
ag1336
asg328
g1341
sbsS'iterator'
p1650
g302
(g1642
g304
Ntp1651
Rp1652
(dp1653
g1646
(dp1654
sg1647
(lp1655
S"'Marmalade System (S3E)'"
p1656
aS'stdc headers'
p1657
aS'c++'
p1658
asg328
S'c:/marmalade/7.2/s3e/h/std/c++/iterator'
p1659
sbsS'IwGL.h'
p1660
g302
(g1642
g304
Ntp1661
Rp1662
(dp1663
g1646
g1316
sg1647
(lp1664
S"'Marmalade Studio'"
p1665
ag1312
asg328
g1314
sbsS's3e.h'
p1666
g302
(g1642
g304
Ntp1667
Rp1668
(dp1669
g1646
g1654
sg1647
(lp1670
g1656
asg328
S'c:/marmalade/7.2/s3e/h/s3e.h'
p1671
sbsS'errno.h'
p1672
g302
(g1642
g304
Ntp1673
Rp1674
(dp1675
g1646
g1654
sg1647
(lp1676
g1656
aS'stdc headers'
p1677
asg328
S'c:/marmalade/7.2/s3e/h/std/errno.h'
p1678
sbsS'IwSingleton.h'
p1679
g302
(g1642
g304
Ntp1680
Rp1681
(dp1682
g1646
g1518
sg1647
(lp1683
S"'Marmalade Studio'"
p1684
ag1514
asg328
g1553
sbsS'spriteManager.cpp'
p1685
g302
(g1642
g304
Ntp1686
Rp1687
(dp1688
g1646
g1195
sg1647
(lp1689
S'stars'
p1690
ag1234
asg328
g1238
sbsS'dlfcn.h'
p1691
g302
(g1642
g304
Ntp1692
Rp1693
(dp1694
g1646
g1654
sg1647
g1676
sg328
S'c:/marmalade/7.2/s3e/h/std/dlfcn.h'
p1695
sbsS'IwSoundWAV.cpp'
p1696
g302
(g1642
g304
Ntp1697
Rp1698
(dp1699
g1646
g1096
sg1647
(lp1700
g1092
asg328
g1120
sbsS'sched.h'
p1701
g302
(g1642
g304
Ntp1702
Rp1703
(dp1704
g1646
g1654
sg1647
g1676
sg328
S'c:/marmalade/7.2/s3e/h/std/sched.h'
p1705
sbsS'customize.cpp'
p1706
g302
(g1642
g304
Ntp1707
Rp1708
(dp1709
g1646
g1195
sg1647
(lp1710
g1189
ag1268
asg328
g1274
sbsS'IwGeomFMat2D.h'
p1711
g302
(g1642
g304
Ntp1712
Rp1713
(dp1714
g1646
g1362
sg1647
(lp1715
S"'Marmalade Studio'"
p1716
ag1358
asg328
g1375
sbsS'cassert'
p1717
g302
(g1642
g304
Ntp1718
Rp1719
(dp1720
g1646
g1654
sg1647
g1655
sg328
S'c:/marmalade/7.2/s3e/h/std/c++/cassert'
p1721
sbsS'grp.h'
p1722
g302
(g1642
g304
Ntp1723
Rp1724
(dp1725
g1646
g1654
sg1647
g1676
sg328
S'c:/marmalade/7.2/s3e/h/std/grp.h'
p1726
sbsS'list'
p1727
g302
(g1642
g304
Ntp1728
Rp1729
(dp1730
g1646
g1654
sg1647
g1655
sg328
S'c:/marmalade/7.2/s3e/h/std/c++/list'
p1731
sbsS'IwSoundSpec.cpp'
p1732
g302
(g1642
g304
Ntp1733
Rp1734
(dp1735
g1646
g1096
sg1647
g1700
sg328
g1142
sbsS'istream'
p1736
g302
(g1642
g304
Ntp1737
Rp1738
(dp1739
g1646
g1654
sg1647
g1655
sg328
S'c:/marmalade/7.2/s3e/h/std/c++/istream'
p1740
sbsS'jpeglib.h'
p1741
g302
(g1642
g304
Ntp1742
Rp1743
(dp1744
g1646
g1052
sg1647
(lp1745
g1047
ag1037
asg328
g1063
sbsS'iw2d_public.defines.txt'
p1746
g302
(g1642
g304
Ntp1747
Rp1748
(dp1749
g1646
g1328
sg1647
(lp1750
S"'Marmalade Studio'"
p1751
ag1324
asg328
g1326
sbsS'iostream.h'
p1752
g302
(g1642
g304
Ntp1753
Rp1754
(dp1755
g1646
g1654
sg1647
g1655
sg328
S'c:/marmalade/7.2/s3e/h/std/c++/iostream.h'
p1756
sbsS'IwSoundADPCM.h'
p1757
g302
(g1642
g304
Ntp1758
Rp1759
(dp1760
g1646
g1096
sg1647
g1700
sg328
g1118
sbsS'string'
p1761
g302
(g1642
g304
Ntp1762
Rp1763
(dp1764
g1646
g1654
sg1647
g1655
sg328
S'c:/marmalade/7.2/s3e/h/std/c++/string'
p1765
sbsS'IwMemory.h'
p1766
g302
(g1642
g304
Ntp1767
Rp1768
(dp1769
g1646
g1518
sg1647
g1683
sg328
g1535
sbsS'IwGeomPlane.h'
p1770
g302
(g1642
g304
Ntp1771
Rp1772
(dp1773
g1646
g1362
sg1647
g1715
sg328
g1365
sbsS'items.h'
p1774
g302
(g1642
g304
Ntp1775
Rp1776
(dp1777
g1646
g1195
sg1647
g1710
sg328
g1288
sbsS'iw2d.config.txt'
p1778
g302
(g1642
g304
Ntp1779
Rp1780
(dp1781
g1646
g1328
sg1647
g1750
sg328
g1331
sbsS'iomanip'
p1782
g302
(g1642
g304
Ntp1783
Rp1784
(dp1785
g1646
g1654
sg1647
g1655
sg328
S'c:/marmalade/7.2/s3e/h/std/c++/iomanip'
p1786
sbsS'iwgeom.mkf'
p1787
g302
(g1642
g304
Ntp1788
Rp1789
(dp1790
g1646
g1409
sg1647
g1715
sg328
g1407
sbsS'IwGxError.h'
p1791
g302
(g1642
g304
Ntp1792
Rp1793
(dp1794
g1646
g1454
sg1647
(lp1795
S"'Marmalade Studio'"
p1796
ag1450
asg328
g1486
sbsS'IwGeom.h'
p1797
g302
(g1642
g304
Ntp1798
Rp1799
(dp1800
g1646
g1362
sg1647
g1715
sg328
g1383
sbsS'IwGeomVec4.h'
p1801
g302
(g1642
g304
Ntp1802
Rp1803
(dp1804
g1646
g1362
sg1647
g1715
sg328
g1422
sbsS'dir.h'
p1805
g302
(g1642
g304
Ntp1806
Rp1807
(dp1808
g1646
g1654
sg1647
(lp1809
g1656
aS'stdc headers'
p1810
aS'sys'
p1811
asg328
S'c:/marmalade/7.2/s3e/h/std/sys/dir.h'
p1812
sbsS'locale.h'
p1813
g302
(g1642
g304
Ntp1814
Rp1815
(dp1816
g1646
g1654
sg1647
g1676
sg328
S'c:/marmalade/7.2/s3e/h/std/locale.h'
p1817
sbsS'vector'
p1818
g302
(g1642
g304
Ntp1819
Rp1820
(dp1821
g1646
g1654
sg1647
g1655
sg328
S'c:/marmalade/7.2/s3e/h/std/c++/vector'
p1822
sbsS'IwManaged.h'
p1823
g302
(g1642
g304
Ntp1824
Rp1825
(dp1826
g1646
g1518
sg1647
g1683
sg328
g1569
sbsS's3eCompass.h'
p1827
g302
(g1642
g304
Ntp1828
Rp1829
(dp1830
g1646
g1654
sg1647
g1670
sg328
S'c:/marmalade/7.2/s3e/h/s3eCompass.h'
p1831
sbsS'cderror.h'
p1832
g302
(g1642
g304
Ntp1833
Rp1834
(dp1835
g1646
g1052
sg1647
g1745
sg328
g1077
sbsS'climits'
p1836
g302
(g1642
g304
Ntp1837
Rp1838
(dp1839
g1646
g1654
sg1647
g1655
sg328
S'c:/marmalade/7.2/s3e/h/std/c++/climits'
p1840
sbsS'easyArray.h'
p1841
g302
(g1642
g304
Ntp1842
Rp1843
(dp1844
g1646
g1195
sg1647
(lp1845
S'stars'
p1846
ag1222
asg328
g1224
sbsS's3eVibra.h'
p1847
g302
(g1642
g304
Ntp1848
Rp1849
(dp1850
g1646
g1654
sg1647
g1670
sg328
S'c:/marmalade/7.2/s3e/h/s3eVibra.h'
p1851
sbsS'jversion.h'
p1852
g302
(g1642
g304
Ntp1853
Rp1854
(dp1855
g1646
g1052
sg1647
g1745
sg328
g1061
sbsS'fnmatch.h'
p1856
g302
(g1642
g304
Ntp1857
Rp1858
(dp1859
g1646
g1654
sg1647
g1676
sg328
S'c:/marmalade/7.2/s3e/h/std/fnmatch.h'
p1860
sbsS'IwGxState.h'
p1861
g302
(g1642
g304
Ntp1862
Rp1863
(dp1864
g1646
g1454
sg1647
g1795
sg328
g1502
sbsS's3eAudio.h'
p1865
g302
(g1642
g304
Ntp1866
Rp1867
(dp1868
g1646
g1654
sg1647
g1670
sg328
S'c:/marmalade/7.2/s3e/h/s3eAudio.h'
p1869
sbsS'store.h'
p1870
g302
(g1642
g304
Ntp1871
Rp1872
(dp1873
g1646
g1195
sg1647
g1710
sg328
g1280
sbsS's3eSurface.h'
p1874
g302
(g1642
g304
Ntp1875
Rp1876
(dp1877
g1646
g1654
sg1647
g1670
sg328
S'c:/marmalade/7.2/s3e/h/s3eSurface.h'
p1878
sbsS'new'
p1879
g302
(g1642
g304
Ntp1880
Rp1881
(dp1882
g1646
g1654
sg1647
g1655
sg328
S'c:/marmalade/7.2/s3e/h/std/c++/new'
p1883
sbsS's3eWindow.h'
p1884
g302
(g1642
g304
Ntp1885
Rp1886
(dp1887
g1646
g1654
sg1647
(lp1888
g1656
aS'Extensions'
p1889
asg328
S'c:/marmalade/7.2/s3e/h/ext/s3eWindow.h'
p1890
sbsS'IwBuffer.h'
p1891
g302
(g1642
g304
Ntp1892
Rp1893
(dp1894
g1646
g1518
sg1647
g1683
sg328
g1525
sbsS's3eflurry.mkf'
p1895
g302
(g1642
g304
Ntp1896
Rp1897
(dp1898
g1646
g1188
sg1647
(lp1899
g1144
ag1175
asg328
g1186
sbsS'stdio_streambuf'
p1900
g302
(g1642
g304
Ntp1901
Rp1902
(dp1903
g1646
g1654
sg1647
g1655
sg328
S'c:/marmalade/7.2/s3e/h/std/c++/stdio_streambuf'
p1904
sbsS's3eOSExec.h'
p1905
g302
(g1642
g304
Ntp1906
Rp1907
(dp1908
g1646
g1654
sg1647
g1888
sg328
S'c:/marmalade/7.2/s3e/h/ext/s3eOSExec.h'
p1909
sbsS'star.cpp'
p1910
g302
(g1642
g304
Ntp1911
Rp1912
(dp1913
g1646
g1195
sg1647
(lp1914
S'stars'
p1915
ag1191
asg328
g1196
sbsS'IwGxTransformSW.h'
p1916
g302
(g1642
g304
Ntp1917
Rp1918
(dp1919
g1646
g1454
sg1647
g1795
sg328
g1457
sbsS'unistd.h'
p1920
g302
(g1642
g304
Ntp1921
Rp1922
(dp1923
g1646
g1654
sg1647
g1676
sg328
S'c:/marmalade/7.2/s3e/h/std/unistd.h'
p1924
sbsS'spriteManager.h'
p1925
g302
(g1642
g304
Ntp1926
Rp1927
(dp1928
g1646
g1195
sg1647
g1689
sg328
g1248
sbsS'iwgxfont.config.txt'
p1929
g302
(g1642
g304
Ntp1930
Rp1931
(dp1932
g1646
g1340
sg1647
g1648
sg328
g1356
sbsS'gl2platform.h'
p1933
g302
(g1642
g304
Ntp1934
Rp1935
(dp1936
g1646
g1654
sg1647
(lp1937
g1656
aS'GL'
p1938
aS'GLES 2.0'
p1939
asg328
S'c:/marmalade/7.2/s3e/h/GLES2/gl2platform.h'
p1940
sbsS'IwResManagerClass.h'
p1941
g302
(g1642
g304
Ntp1942
Rp1943
(dp1944
g1646
g1430
sg1647
(lp1945
g1298
ag1426
asg328
g1442
sbsS'queue'
p1946
g302
(g1642
g304
Ntp1947
Rp1948
(dp1949
g1646
g1654
sg1647
g1655
sg328
S'c:/marmalade/7.2/s3e/h/std/c++/queue'
p1950
sbsS'time_1.h'
p1951
g302
(g1642
g304
Ntp1952
Rp1953
(dp1954
g1646
g1654
sg1647
g1809
sg328
S'c:/marmalade/7.2/s3e/h/std/sys/time.h'
p1955
sbsS'IwSoundPCM.h'
p1956
g302
(g1642
g304
Ntp1957
Rp1958
(dp1959
g1646
g1096
sg1647
g1700
sg328
g1132
sbsS'Iw2D.h'
p1960
g302
(g1642
g304
Ntp1961
Rp1962
(dp1963
g1646
g1328
sg1647
g1750
sg328
g1329
sbsS'IwGeomVec2.h'
p1964
g302
(g1642
g304
Ntp1965
Rp1966
(dp1967
g1646
g1362
sg1647
g1715
sg328
g1393
sbsS'sendfile.h'
p1968
g302
(g1642
g304
Ntp1969
Rp1970
(dp1971
g1646
g1654
sg1647
g1809
sg328
S'c:/marmalade/7.2/s3e/h/std/sys/sendfile.h'
p1972
sbsS'malloc.h'
p1973
g302
(g1642
g304
Ntp1974
Rp1975
(dp1976
g1646
g1654
sg1647
g1676
sg328
S'c:/marmalade/7.2/s3e/h/std/malloc.h'
p1977
sbsS'timerManager.h'
p1978
g302
(g1642
g304
Ntp1979
Rp1980
(dp1981
g1646
g1195
sg1647
g1689
sg328
g1252
sbsS'stdarg.h'
p1982
g302
(g1642
g304
Ntp1983
Rp1984
(dp1985
g1646
g1654
sg1647
g1676
sg328
S'c:/marmalade/7.2/s3e/h/std/stdarg.h'
p1986
sbsS'IwGeomCore.h'
p1987
g302
(g1642
g304
Ntp1988
Rp1989
(dp1990
g1646
g1362
sg1647
g1715
sg328
g1377
sbsS'Iw2DSceneGraph.h'
p1991
g302
(g1642
g304
Ntp1992
Rp1993
(dp1994
g1646
g1304
sg1647
(lp1995
S"'Marmalade Studio'"
p1996
ag1300
asg328
g1308
sbsS'endian.h'
p1997
g302
(g1642
g304
Ntp1998
Rp1999
(dp2000
g1646
g1654
sg1647
g1676
sg328
S'c:/marmalade/7.2/s3e/h/std/endian.h'
p2001
sbsS'glob.h'
p2002
g302
(g1642
g304
Ntp2003
Rp2004
(dp2005
g1646
g1654
sg1647
g1676
sg328
S'c:/marmalade/7.2/s3e/h/std/glob.h'
p2006
sbsS'fstream'
p2007
g302
(g1642
g304
Ntp2008
Rp2009
(dp2010
g1646
g1654
sg1647
g1655
sg328
S'c:/marmalade/7.2/s3e/h/std/c++/fstream'
p2011
sbsS'include.h'
p2012
g302
(g1642
g304
Ntp2013
Rp2014
(dp2015
g1646
g1195
sg1647
(lp2016
S'stars'
p2017
ag1226
asg328
g1232
sbsS'jconfig.h'
p2018
g302
(g1642
g304
Ntp2019
Rp2020
(dp2021
g1646
g1052
sg1647
g1745
sg328
g1053
sbsS'memory'
p2022
g302
(g1642
g304
Ntp2023
Rp2024
(dp2025
g1646
g1654
sg1647
g1655
sg328
S'c:/marmalade/7.2/s3e/h/std/c++/memory'
p2026
sbsS'strstream'
p2027
g302
(g1642
g304
Ntp2028
Rp2029
(dp2030
g1646
g1654
sg1647
g1655
sg328
S'c:/marmalade/7.2/s3e/h/std/c++/strstream'
p2031
sbsS'pthread.h'
p2032
g302
(g1642
g304
Ntp2033
Rp2034
(dp2035
g1646
g1654
sg1647
g1676
sg328
S'c:/marmalade/7.2/s3e/h/std/pthread.h'
p2036
sbsS'egl_1.h'
p2037
g302
(g1642
g304
Ntp2038
Rp2039
(dp2040
g1646
g1654
sg1647
(lp2041
g1656
aS'GL'
p2042
aS'GLES 1.x'
p2043
asg328
S'c:/marmalade/7.2/s3e/h/GLES/egl.h'
p2044
sbsS'IwMemManagerDL.h'
p2045
g302
(g1642
g304
Ntp2046
Rp2047
(dp2048
g1646
g1518
sg1647
g1683
sg328
g1573
sbsS'deque'
p2049
g302
(g1642
g304
Ntp2050
Rp2051
(dp2052
g1646
g1654
sg1647
g1655
sg328
S'c:/marmalade/7.2/s3e/h/std/c++/deque'
p2053
sbsS'IwString.h'
p2054
g302
(g1642
g304
Ntp2055
Rp2056
(dp2057
g1646
g1518
sg1647
g1683
sg328
g1559
sbsS'cwchar'
p2058
g302
(g1642
g304
Ntp2059
Rp2060
(dp2061
g1646
g1654
sg1647
g1655
sg328
S'c:/marmalade/7.2/s3e/h/std/c++/cwchar'
p2062
sbsS'iwutil.mkf'
p2063
g302
(g1642
g304
Ntp2064
Rp2065
(dp2066
g1646
g1603
sg1647
g1683
sg328
g1601
sbsS'csignal'
p2067
g302
(g1642
g304
Ntp2068
Rp2069
(dp2070
g1646
g1654
sg1647
g1655
sg328
S'c:/marmalade/7.2/s3e/h/std/c++/csignal'
p2071
sbsS'float.h'
p2072
g302
(g1642
g304
Ntp2073
Rp2074
(dp2075
g1646
g1654
sg1647
g1676
sg328
S'c:/marmalade/7.2/s3e/h/std/float.h'
p2076
sbsS'pthread_alloc'
p2077
g302
(g1642
g304
Ntp2078
Rp2079
(dp2080
g1646
g1654
sg1647
g1655
sg328
S'c:/marmalade/7.2/s3e/h/std/c++/pthread_alloc'
p2081
sbsS'getopt.h'
p2082
g302
(g1642
g304
Ntp2083
Rp2084
(dp2085
g1646
g1654
sg1647
g1676
sg328
S'c:/marmalade/7.2/s3e/h/std/getopt.h'
p2086
sbsS'IwOptimiseARM.h'
p2087
g302
(g1642
g304
Ntp2088
Rp2089
(dp2090
g1646
g1518
sg1647
g1683
sg328
g1597
sbsS'times.h'
p2091
g302
(g1642
g304
Ntp2092
Rp2093
(dp2094
g1646
g1654
sg1647
g1809
sg328
S'c:/marmalade/7.2/s3e/h/std/sys/times.h'
p2095
sbsS'IwGeomFSphere.h'
p2096
g302
(g1642
g304
Ntp2097
Rp2098
(dp2099
g1646
g1362
sg1647
g1715
sg328
g1410
sbsS'game.h'
p2100
g302
(g1642
g304
Ntp2101
Rp2102
(dp2103
g1646
g1195
sg1647
g1710
sg328
g1294
sbsS'functional'
p2104
g302
(g1642
g304
Ntp2105
Rp2106
(dp2107
g1646
g1654
sg1647
g1655
sg328
S'c:/marmalade/7.2/s3e/h/std/c++/functional'
p2108
sbsS'IwTypes.h'
p2109
g302
(g1642
g304
Ntp2110
Rp2111
(dp2112
g1646
g1518
sg1647
g1683
sg328
g1567
sbsS'IwGxMetrics.h'
p2113
g302
(g1642
g304
Ntp2114
Rp2115
(dp2116
g1646
g1454
sg1647
g1795
sg328
g1484
sbsS's3eCompression.h'
p2117
g302
(g1642
g304
Ntp2118
Rp2119
(dp2120
g1646
g1654
sg1647
g1670
sg328
S'c:/marmalade/7.2/s3e/h/s3eCompression.h'
p2121
sbsS'langinfo.h'
p2122
g302
(g1642
g304
Ntp2123
Rp2124
(dp2125
g1646
g1654
sg1647
g1676
sg328
S'c:/marmalade/7.2/s3e/h/std/langinfo.h'
p2126
sbsS's3edebugHeap.h'
p2127
g302
(g1642
g304
Ntp2128
Rp2129
(dp2130
g1646
g1654
sg1647
g1888
sg328
S'c:/marmalade/7.2/s3e/h/ext/s3edebugHeap.h'
p2131
sbsS'AirplayVersion.h'
p2132
g302
(g1642
g304
Ntp2133
Rp2134
(dp2135
g1646
g1654
sg1647
g1670
sg328
S'c:/marmalade/7.2/s3e/h/AirplayVersion.h'
p2136
sbsS'gl2extimg.h'
p2137
g302
(g1642
g304
Ntp2138
Rp2139
(dp2140
g1646
g1654
sg1647
g1937
sg328
S'c:/marmalade/7.2/s3e/h/GLES2/gl2extimg.h'
p2141
sbsS'app.config.txt'
p2142
g302
(g1642
g304
Ntp2143
Rp2144
(dp2145
g1646
(dp2146
sg1647
g4
sg328
S'c:/Users/Vinicius/Desktop/Yes or No/Stars/data/app.config.txt'
p2147
sbsS'IwGeomSqrt.h'
p2148
g302
(g1642
g304
Ntp2149
Rp2150
(dp2151
g1646
g1362
sg1647
g1715
sg328
g1373
sbsS'tiniconv_int.h'
p2152
g302
(g1642
g304
Ntp2153
Rp2154
(dp2155
g1646
g1086
sg1647
(lp2156
g1082
asg328
g1087
sbsS'syslog.h'
p2157
g302
(g1642
g304
Ntp2158
Rp2159
(dp2160
g1646
g1654
sg1647
g1676
sg328
S'c:/marmalade/7.2/s3e/h/std/syslog.h'
p2161
sbsS'IwGxFontTypes.h'
p2162
g302
(g1642
g304
Ntp2163
Rp2164
(dp2165
g1646
g1340
sg1647
g1648
sg328
g1351
sbsS'IwGeomFIntersect.h'
p2166
g302
(g1642
g304
Ntp2167
Rp2168
(dp2169
g1646
g1362
sg1647
g1715
sg328
g1405
sbsS'hash_map'
p2170
g302
(g1642
g304
Ntp2171
Rp2172
(dp2173
g1646
g1654
sg1647
g1655
sg328
S'c:/marmalade/7.2/s3e/h/std/c++/hash_map'
p2174
sbsS's3e.mkf'
p2175
g302
(g1642
g304
Ntp2176
Rp2177
(dp2178
g1646
(dp2179
sg1647
g1670
sg328
S'c:/marmalade/7.2/s3e/s3e.mkf'
p2180
sbsS's3eOSReadString.h'
p2181
g302
(g1642
g304
Ntp2182
Rp2183
(dp2184
g1646
g1654
sg1647
g1888
sg328
S'c:/marmalade/7.2/s3e/h/ext/s3eOSReadString.h'
p2185
sbsS'vortex.h'
p2186
g302
(g1642
g304
Ntp2187
Rp2188
(dp2189
g1646
g1195
sg1647
g1914
sg328
g1218
sbsS'player.cpp'
p2190
g302
(g1642
g304
Ntp2191
Rp2192
(dp2193
g1646
g1195
sg1647
g1914
sg328
g1220
sbsS'IwSound.h'
p2194
g302
(g1642
g304
Ntp2195
Rp2196
(dp2197
g1646
g1096
sg1647
g1700
sg328
g1124
sbsS'map'
p2198
g302
(g1642
g304
Ntp2199
Rp2200
(dp2201
g1646
g1654
sg1647
g1655
sg328
S'c:/marmalade/7.2/s3e/h/std/c++/map'
p2202
sbsS'iwtween.mkf'
p2203
g302
(g1642
g304
Ntp2204
Rp2205
(dp2206
g1646
g1633
sg1647
(lp2207
g1629
asg328
g1631
sbsS'IwOptimiseSpeed.h'
p2208
g302
(g1642
g304
Ntp2209
Rp2210
(dp2211
g1646
g1518
sg1647
g1683
sg328
g1608
sbsS'inputManager.h'
p2212
g302
(g1642
g304
Ntp2213
Rp2214
(dp2215
g1646
g1195
sg1647
g1689
sg328
g1240
sbsS'asteroid.cpp'
p2216
g302
(g1642
g304
Ntp2217
Rp2218
(dp2219
g1646
g1195
sg1647
g1914
sg328
g1208
sbsS'msl_string.h'
p2220
g302
(g1642
g304
Ntp2221
Rp2222
(dp2223
g1646
g1654
sg1647
g1655
sg328
S'c:/marmalade/7.2/s3e/h/std/c++/msl_string.h'
p2224
sbsS'sigcontext.h'
p2225
g302
(g1642
g304
Ntp2226
Rp2227
(dp2228
g1646
g1654
sg1647
g1676
sg328
S'c:/marmalade/7.2/s3e/h/std/sigcontext.h'
p2229
sbsS'select.h'
p2230
g302
(g1642
g304
Ntp2231
Rp2232
(dp2233
g1646
g1654
sg1647
g1809
sg328
S'c:/marmalade/7.2/s3e/h/std/sys/select.h'
p2234
sbsS'zlib.mkf'
p2235
g302
(g1642
g304
Ntp2236
Rp2237
(dp2238
g1646
g1628
sg1647
(lp2239
g1618
asg328
g1626
sbsS'signal.h'
p2240
g302
(g1642
g304
Ntp2241
Rp2242
(dp2243
g1646
g1654
sg1647
g1676
sg328
S'c:/marmalade/7.2/s3e/h/std/signal.h'
p2244
sbsS's3eLibrary.h'
p2245
g302
(g1642
g304
Ntp2246
Rp2247
(dp2248
g1646
g1654
sg1647
g1888
sg328
S'c:/marmalade/7.2/s3e/h/ext/s3eLibrary.h'
p2249
sbsS'libpng.mkf'
p2250
g302
(g1642
g304
Ntp2251
Rp2252
(dp2253
g1646
g1046
sg1647
(lp2254
g1035
asg328
g1044
sbsS's3eClipboard.h'
p2255
g302
(g1642
g304
Ntp2256
Rp2257
(dp2258
g1646
g1654
sg1647
g1670
sg328
S'c:/marmalade/7.2/s3e/h/s3eClipboard.h'
p2259
sbsS'IwGxFuncTable.h'
p2260
g302
(g1642
g304
Ntp2261
Rp2262
(dp2263
g1646
g1454
sg1647
g1795
sg328
g1490
sbsS'IwResHandlerGROUP.h'
p2264
g302
(g1642
g304
Ntp2265
Rp2266
(dp2267
g1646
g1430
sg1647
g1945
sg328
g1428
sbsS's3eDebug.h'
p2268
g302
(g1642
g304
Ntp2269
Rp2270
(dp2271
g1646
g1654
sg1647
g1670
sg328
S'c:/marmalade/7.2/s3e/h/s3eDebug.h'
p2272
sbsS'socket.h'
p2273
g302
(g1642
g304
Ntp2274
Rp2275
(dp2276
g1646
g1654
sg1647
g1809
sg328
S'c:/marmalade/7.2/s3e/h/std/sys/socket.h'
p2277
sbsS'glext.h'
p2278
g302
(g1642
g304
Ntp2279
Rp2280
(dp2281
g1646
g1654
sg1647
g2041
sg328
S'c:/marmalade/7.2/s3e/h/GLES/glext.h'
p2282
sbsS'typeinfo.h'
p2283
g302
(g1642
g304
Ntp2284
Rp2285
(dp2286
g1646
g1654
sg1647
g1655
sg328
S'c:/marmalade/7.2/s3e/h/std/c++/typeinfo.h'
p2287
sbsS'typeinfo'
p2288
g302
(g1642
g304
Ntp2289
Rp2290
(dp2291
g1646
g1654
sg1647
g1655
sg328
S'c:/marmalade/7.2/s3e/h/std/c++/typeinfo'
p2292
sbsS'iwsound.config.txt'
p2293
g302
(g1642
g304
Ntp2294
Rp2295
(dp2296
g1646
g1096
sg1647
(lp2297
g1092
ag1110
asg328
g1112
sbsS'fstream.h'
p2298
g302
(g1642
g304
Ntp2299
Rp2300
(dp2301
g1646
g1654
sg1647
g1655
sg328
S'c:/marmalade/7.2/s3e/h/std/c++/fstream.h'
p2302
sbsS'IwGeomMat.h'
p2303
g302
(g1642
g304
Ntp2304
Rp2305
(dp2306
g1646
g1362
sg1647
g1715
sg328
g1367
sbsS's3ePointer.h'
p2307
g302
(g1642
g304
Ntp2308
Rp2309
(dp2310
g1646
g1654
sg1647
g1670
sg328
S'c:/marmalade/7.2/s3e/h/s3ePointer.h'
p2311
sbsS'getStars.cpp'
p2312
g302
(g1642
g304
Ntp2313
Rp2314
(dp2315
g1646
g1195
sg1647
g1710
sg328
g1284
sbsS'options.cpp'
p2316
g302
(g1642
g304
Ntp2317
Rp2318
(dp2319
g1646
g1195
sg1647
g1710
sg328
g1292
sbsS's3eGL.h'
p2320
g302
(g1642
g304
Ntp2321
Rp2322
(dp2323
g1646
g1654
sg1647
g1670
sg328
S'c:/marmalade/7.2/s3e/h/s3eGL.h'
p2324
sbsS'IwGeomFVec2.h'
p2325
g302
(g1642
g304
Ntp2326
Rp2327
(dp2328
g1646
g1362
sg1647
g1715
sg328
g1381
sbsS'IwGeomSVec4.h'
p2329
g302
(g1642
g304
Ntp2330
Rp2331
(dp2332
g1646
g1362
sg1647
g1715
sg328
g1401
sbsS'poll.h'
p2333
g302
(g1642
g304
Ntp2334
Rp2335
(dp2336
g1646
g1654
sg1647
g1676
sg328
S'c:/marmalade/7.2/s3e/h/std/poll.h'
p2337
sbsS'IwMatAnim.h'
p2338
g302
(g1642
g304
Ntp2339
Rp2340
(dp2341
g1646
g1454
sg1647
g1795
sg328
g1461
sbsS'IwGeomFVec4.h'
p2342
g302
(g1642
g304
Ntp2343
Rp2344
(dp2345
g1646
g1362
sg1647
g1715
sg328
g1387
sbsS'IwGx.h'
p2346
g302
(g1642
g304
Ntp2347
Rp2348
(dp2349
g1646
g1454
sg1647
g1795
sg328
g1478
sbsS'valarray'
p2350
g302
(g1642
g304
Ntp2351
Rp2352
(dp2353
g1646
g1654
sg1647
g1655
sg328
S'c:/marmalade/7.2/s3e/h/std/c++/valarray'
p2354
sbsS'iosfwd'
p2355
g302
(g1642
g304
Ntp2356
Rp2357
(dp2358
g1646
g1654
sg1647
g1655
sg328
S'c:/marmalade/7.2/s3e/h/std/c++/iosfwd'
p2359
sbsS'gl2.h'
p2360
g302
(g1642
g304
Ntp2361
Rp2362
(dp2363
g1646
g1654
sg1647
g1937
sg328
S'c:/marmalade/7.2/s3e/h/GLES2/gl2.h'
p2364
sbsS'jpegint.h'
p2365
g302
(g1642
g304
Ntp2366
Rp2367
(dp2368
g1646
g1052
sg1647
g1745
sg328
g1057
sbsS'stdiostream.h'
p2369
g302
(g1642
g304
Ntp2370
Rp2371
(dp2372
g1646
g1654
sg1647
g1655
sg328
S'c:/marmalade/7.2/s3e/h/std/c++/stdiostream.h'
p2373
sbsS'mem.h'
p2374
g302
(g1642
g304
Ntp2375
Rp2376
(dp2377
g1646
g1654
sg1647
g1655
sg328
S'c:/marmalade/7.2/s3e/h/std/c++/mem.h'
p2378
sbsS'main.cpp'
p2379
g302
(g1642
g304
Ntp2380
Rp2381
(dp2382
g1646
g1195
sg1647
g2016
sg328
g1230
sbsS'zconf.h'
p2383
g302
(g1642
g304
Ntp2384
Rp2385
(dp2386
g1646
g1623
sg1647
(lp2387
g1618
ag1037
asg328
g1621
sbsS's3e.config.txt'
p2388
g302
(g1642
g304
Ntp2389
Rp2390
(dp2391
g1646
g1654
sg1647
g1670
sg328
S'c:/marmalade/7.2/s3e/s3e.config.txt'
p2392
sbsS'numeric'
p2393
g302
(g1642
g304
Ntp2394
Rp2395
(dp2396
g1646
g1654
sg1647
g1655
sg328
S'c:/marmalade/7.2/s3e/h/std/c++/numeric'
p2397
sbsS'utime.h'
p2398
g302
(g1642
g304
Ntp2399
Rp2400
(dp2401
g1646
g1654
sg1647
g1676
sg328
S'c:/marmalade/7.2/s3e/h/std/utime.h'
p2402
sbsS'jdhuff.h'
p2403
g302
(g1642
g304
Ntp2404
Rp2405
(dp2406
g1646
g1052
sg1647
g1745
sg328
g1069
sbsS'IwResHandlerWAV.cpp'
p2407
g302
(g1642
g304
Ntp2408
Rp2409
(dp2410
g1646
g1096
sg1647
g1700
sg328
g1114
sbsS'IwGxStream.h'
p2411
g302
(g1642
g304
Ntp2412
Rp2413
(dp2414
g1646
g1454
sg1647
g1795
sg328
g1455
sbsS'resourceManager.h'
p2415
g302
(g1642
g304
Ntp2416
Rp2417
(dp2418
g1646
g1195
sg1647
g1689
sg328
g1244
sbsS'IwImage.h'
p2419
g302
(g1642
g304
Ntp2420
Rp2421
(dp2422
g1646
g1518
sg1647
g1683
sg328
g1565
sbsS's3eImagePicker.h'
p2423
g302
(g1642
g304
Ntp2424
Rp2425
(dp2426
g1646
g1654
sg1647
g1888
sg328
S'c:/marmalade/7.2/s3e/h/ext/s3eImagePicker.h'
p2427
sbsS's3eWebView.defines.txt'
p2428
g302
(g1642
g304
Ntp2429
Rp2430
(dp2431
g1646
g1152
sg1647
(lp2432
S'Extensions'
p2433
ag1146
ag1148
asg328
g1150
sbsS'stdlib.h'
p2434
g302
(g1642
g304
Ntp2435
Rp2436
(dp2437
g1646
g1654
sg1647
g1676
sg328
S'c:/marmalade/7.2/s3e/h/std/stdlib.h'
p2438
sbsS'IwCopyingPtr.h'
p2439
g302
(g1642
g304
Ntp2440
Rp2441
(dp2442
g1646
g1518
sg1647
g1683
sg328
g1595
sbsS'iostream'
p2443
g302
(g1642
g304
Ntp2444
Rp2445
(dp2446
g1646
g1654
sg1647
g1655
sg328
S'c:/marmalade/7.2/s3e/h/std/c++/iostream'
p2447
sbsS'png.h'
p2448
g302
(g1642
g304
Ntp2449
Rp2450
(dp2451
g1646
g1041
sg1647
(lp2452
g1035
ag1037
asg328
g1039
sbsS'stddef.h'
p2453
g302
(g1642
g304
Ntp2454
Rp2455
(dp2456
g1646
g1654
sg1647
g1676
sg328
S'c:/marmalade/7.2/s3e/h/std/stddef.h'
p2457
sbsS'setjmp_win32.h'
p2458
g302
(g1642
g304
Ntp2459
Rp2460
(dp2461
g1646
g1654
sg1647
g1676
sg328
S'c:/marmalade/7.2/s3e/h/std/setjmp_win32.h'
p2462
sbsS'IwGxPrint.h'
p2463
g302
(g1642
g304
Ntp2464
Rp2465
(dp2466
g1646
g1454
sg1647
g1795
sg328
g1470
sbsS'iwgx_public.defines.txt'
p2467
g302
(g1642
g304
Ntp2468
Rp2469
(dp2470
g1646
g1454
sg1647
g1795
sg328
g1474
sbsS'streambuf.h'
p2471
g302
(g1642
g304
Ntp2472
Rp2473
(dp2474
g1646
g1654
sg1647
g1655
sg328
S'c:/marmalade/7.2/s3e/h/std/c++/streambuf.h'
p2475
sbsS'IwGeomFPlane.h'
p2476
g302
(g1642
g304
Ntp2477
Rp2478
(dp2479
g1646
g1362
sg1647
g1715
sg328
g1363
sbsS'un.h'
p2480
g302
(g1642
g304
Ntp2481
Rp2482
(dp2483
g1646
g1654
sg1647
g1809
sg328
S'c:/marmalade/7.2/s3e/h/std/sys/un.h'
p2484
sbsS'wchar.h'
p2485
g302
(g1642
g304
Ntp2486
Rp2487
(dp2488
g1646
g1654
sg1647
g1676
sg328
S'c:/marmalade/7.2/s3e/h/std/wchar.h'
p2489
sbsS's3eCameraCapture.h'
p2490
g302
(g1642
g304
Ntp2491
Rp2492
(dp2493
g1646
g1654
sg1647
g1888
sg328
S'c:/marmalade/7.2/s3e/h/ext/s3eCameraCapture.h'
p2494
sbsS'eglext.h'
p2495
g302
(g1642
g304
Ntp2496
Rp2497
(dp2498
g1646
g1654
sg1647
(lp2499
g1656
aS'GL'
p2500
aS'EGL'
p2501
asg328
S'c:/marmalade/7.2/s3e/h/EGL/eglext.h'
p2502
sbsS'IwResHandlerImage.h'
p2503
g302
(g1642
g304
Ntp2504
Rp2505
(dp2506
g1646
g1430
sg1647
g1945
sg328
g1438
sbsS'strstream.h'
p2507
g302
(g1642
g304
Ntp2508
Rp2509
(dp2510
g1646
g1654
sg1647
g1655
sg328
S'c:/marmalade/7.2/s3e/h/std/c++/strstream.h'
p2511
sbsS'tiniconv.h'
p2512
g302
(g1642
g304
Ntp2513
Rp2514
(dp2515
g1646
g1086
sg1647
g2156
sg328
g1084
sbsS'IwGLExt.h'
p2516
g302
(g1642
g304
Ntp2517
Rp2518
(dp2519
g1646
g1316
sg1647
g1664
sg328
g1320
sbsS'app.icf'
p2520
g302
(g1642
g304
Ntp2521
Rp2522
(dp2523
g1646
(dp2524
sg1647
g4
sg328
S'c:/Users/Vinicius/Desktop/Yes or No/Stars/data/app.icf'
p2525
sbsS'IwClassFactory.h'
p2526
g302
(g1642
g304
Ntp2527
Rp2528
(dp2529
g1646
g1518
sg1647
g1683
sg328
g1581
sbsS'file.h'
p2530
g302
(g1642
g304
Ntp2531
Rp2532
(dp2533
g1646
g1654
sg1647
g1809
sg328
S'c:/marmalade/7.2/s3e/h/std/sys/file.h'
p2534
sbsS'cstring'
p2535
g302
(g1642
g304
Ntp2536
Rp2537
(dp2538
g1646
g1654
sg1647
g1655
sg328
S'c:/marmalade/7.2/s3e/h/std/c++/cstring'
p2539
sbsS'IwSoundInst.cpp'
p2540
g302
(g1642
g304
Ntp2541
Rp2542
(dp2543
g1646
g1096
sg1647
g1700
sg328
g1100
sbsS'iwutil.config.txt'
p2544
g302
(g1642
g304
Ntp2545
Rp2546
(dp2547
g1646
g1518
sg1647
g1683
sg328
g1579
sbsS's3eSMS.h'
p2548
g302
(g1642
g304
Ntp2549
Rp2550
(dp2551
g1646
g1654
sg1647
g1888
sg328
S'c:/marmalade/7.2/s3e/h/ext/s3eSMS.h'
p2552
sbsS'limits.h'
p2553
g302
(g1642
g304
Ntp2554
Rp2555
(dp2556
g1646
g1654
sg1647
g1676
sg328
S'c:/marmalade/7.2/s3e/h/std/limits.h'
p2557
sbsS'iwgl.config.txt'
p2558
g302
(g1642
g304
Ntp2559
Rp2560
(dp2561
g1646
g1316
sg1647
g1664
sg328
g1322
sbsS'savedataManager.cpp'
p2562
g302
(g1642
g304
Ntp2563
Rp2564
(dp2565
g1646
g1195
sg1647
g1689
sg328
g1256
sbsS'IwMaterial.h'
p2566
g302
(g1642
g304
Ntp2567
Rp2568
(dp2569
g1646
g1454
sg1647
g1795
sg328
g1459
sbsS's3eFlurry.defines.txt'
p2570
g302
(g1642
g304
Ntp2571
Rp2572
(dp2573
g1646
g1181
sg1647
(lp2574
g1144
ag1175
ag1177
asg328
g1182
sbsS'IwGxSurface.h'
p2575
g302
(g1642
g304
Ntp2576
Rp2577
(dp2578
g1646
g1454
sg1647
g1795
sg328
g1472
sbsS's3eSocket.h'
p2579
g302
(g1642
g304
Ntp2580
Rp2581
(dp2582
g1646
g1654
sg1647
g1670
sg328
S'c:/marmalade/7.2/s3e/h/s3eSocket.h'
p2583
sbsS'IwAutoFile.h'
p2584
g302
(g1642
g304
Ntp2585
Rp2586
(dp2587
g1646
g1518
sg1647
g1683
sg328
g1585
sbsS'ipc.h'
p2588
g302
(g1642
g304
Ntp2589
Rp2590
(dp2591
g1646
g1654
sg1647
g1809
sg328
S'c:/marmalade/7.2/s3e/h/std/sys/ipc.h'
p2592
sbsS'poll_1.h'
p2593
g302
(g1642
g304
Ntp2594
Rp2595
(dp2596
g1646
g1654
sg1647
g1809
sg328
S'c:/marmalade/7.2/s3e/h/std/sys/poll.h'
p2597
sbsS's3eThread.h'
p2598
g302
(g1642
g304
Ntp2599
Rp2600
(dp2601
g1646
g1654
sg1647
g1670
sg328
S'c:/marmalade/7.2/s3e/h/s3eThread.h'
p2602
sbsS'ostream'
p2603
g302
(g1642
g304
Ntp2604
Rp2605
(dp2606
g1646
g1654
sg1647
g1655
sg328
S'c:/marmalade/7.2/s3e/h/std/c++/ostream'
p2607
sbsS'ucontext.h'
p2608
g302
(g1642
g304
Ntp2609
Rp2610
(dp2611
g1646
g1654
sg1647
g1676
sg328
S'c:/marmalade/7.2/s3e/h/std/ucontext.h'
p2612
sbsS'time.h'
p2613
g302
(g1642
g304
Ntp2614
Rp2615
(dp2616
g1646
g1654
sg1647
g1676
sg328
S'c:/marmalade/7.2/s3e/h/std/time.h'
p2617
sbsS'jchuff.h'
p2618
g302
(g1642
g304
Ntp2619
Rp2620
(dp2621
g1646
g1052
sg1647
g1745
sg328
g1050
sbsS'IwSoundPCM.cpp'
p2622
g302
(g1642
g304
Ntp2623
Rp2624
(dp2625
g1646
g1096
sg1647
g1700
sg328
g1128
sbsS's3eSoundRecord.h'
p2626
g302
(g1642
g304
Ntp2627
Rp2628
(dp2629
g1646
g1654
sg1647
g1670
sg328
S'c:/marmalade/7.2/s3e/h/s3eSoundRecord.h'
p2630
sbsS'IwFibre.h'
p2631
g302
(g1642
g304
Ntp2632
Rp2633
(dp2634
g1646
g1518
sg1647
g1683
sg328
g1523
sbsS'IwMemBucket.h'
p2635
g302
(g1642
g304
Ntp2636
Rp2637
(dp2638
g1646
g1518
sg1647
g1683
sg328
g1599
sbsS'strings.h'
p2639
g302
(g1642
g304
Ntp2640
Rp2641
(dp2642
g1646
g1654
sg1647
g1676
sg328
S'c:/marmalade/7.2/s3e/h/std/strings.h'
p2643
sbsS's3eVersion.h'
p2644
g302
(g1642
g304
Ntp2645
Rp2646
(dp2647
g1646
g1654
sg1647
g1670
sg328
S'c:/marmalade/7.2/s3e/h/s3eVersion.h'
p2648
sbsS'IwSoundGroup.h'
p2649
g302
(g1642
g304
Ntp2650
Rp2651
(dp2652
g1646
g1096
sg1647
g1700
sg328
g1134
sbsS'IwSoundWAV.h'
p2653
g302
(g1642
g304
Ntp2654
Rp2655
(dp2656
g1646
g1096
sg1647
g1700
sg328
g1126
sbsS'IwGxFontGlyph.h'
p2657
g302
(g1642
g304
Ntp2658
Rp2659
(dp2660
g1646
g1340
sg1647
g1648
sg328
g1347
sbsS's3eTypes.h'
p2661
g302
(g1642
g304
Ntp2662
Rp2663
(dp2664
g1646
g1654
sg1647
g1670
sg328
S'c:/marmalade/7.2/s3e/h/s3eTypes.h'
p2665
sbsS'IwSoundSpec.h'
p2666
g302
(g1642
g304
Ntp2667
Rp2668
(dp2669
g1646
g1096
sg1647
g1700
sg328
g1130
sbsS'signal_2.h'
p2670
g302
(g1642
g304
Ntp2671
Rp2672
(dp2673
g1646
g1654
sg1647
g1655
sg328
S'c:/marmalade/7.2/s3e/h/std/c++/signal.h'
p2674
sbsS'termios.h'
p2675
g302
(g1642
g304
Ntp2676
Rp2677
(dp2678
g1646
g1654
sg1647
g1676
sg328
S'c:/marmalade/7.2/s3e/h/std/termios.h'
p2679
sbsS'iw2dscenegraph.mkf'
p2680
g302
(g1642
g304
Ntp2681
Rp2682
(dp2683
g1646
g1307
sg1647
g1995
sg328
g1305
sbsS'slist'
p2684
g302
(g1642
g304
Ntp2685
Rp2686
(dp2687
g1646
g1654
sg1647
g1655
sg328
S'c:/marmalade/7.2/s3e/h/std/c++/slist'
p2688
sbsS'cstdlib'
p2689
g302
(g1642
g304
Ntp2690
Rp2691
(dp2692
g1646
g1654
sg1647
g1655
sg328
S'c:/marmalade/7.2/s3e/h/std/c++/cstdlib'
p2693
sbsS's3eLocation.h'
p2694
g302
(g1642
g304
Ntp2695
Rp2696
(dp2697
g1646
g1654
sg1647
g1670
sg328
S'c:/marmalade/7.2/s3e/h/s3eLocation.h'
p2698
sbsS'IwMemBucketHelpers.h'
p2699
g302
(g1642
g304
Ntp2700
Rp2701
(dp2702
g1646
g1518
sg1647
g1683
sg328
g1593
sbsS's3eHash.h'
p2703
g302
(g1642
g304
Ntp2704
Rp2705
(dp2706
g1646
g1654
sg1647
g1670
sg328
S'c:/marmalade/7.2/s3e/h/s3eHash.h'
p2707
sbsS'IwSoundGroup.cpp'
p2708
g302
(g1642
g304
Ntp2709
Rp2710
(dp2711
g1646
g1096
sg1647
g1700
sg328
g1122
sbsS'IwGeomFMat.h'
p2712
g302
(g1642
g304
Ntp2713
Rp2714
(dp2715
g1646
g1362
sg1647
g1715
sg328
g1395
sbsS'type_traits.h'
p2716
g302
(g1642
g304
Ntp2717
Rp2718
(dp2719
g1646
g1654
sg1647
g1655
sg328
S'c:/marmalade/7.2/s3e/h/std/c++/type_traits.h'
p2720
sbsS'IwMenu.h'
p2721
g302
(g1642
g304
Ntp2722
Rp2723
(dp2724
g1646
g1518
sg1647
g1683
sg328
g1543
sbsS'IwResHandlerITX.h'
p2725
g302
(g1642
g304
Ntp2726
Rp2727
(dp2728
g1646
g1430
sg1647
g1945
sg328
g1444
sbsS'IwSoundData.h'
p2729
g302
(g1642
g304
Ntp2730
Rp2731
(dp2732
g1646
g1096
sg1647
g1700
sg328
g1140
sbsS'IwArray.h'
p2733
g302
(g1642
g304
Ntp2734
Rp2735
(dp2736
g1646
g1518
sg1647
g1683
sg328
g1519
sbsS'IwUTF8.h'
p2737
g302
(g1642
g304
Ntp2738
Rp2739
(dp2740
g1646
g1518
sg1647
g1683
sg328
g1587
sbsS'math_rvct.h'
p2741
g302
(g1642
g304
Ntp2742
Rp2743
(dp2744
g1646
g1654
sg1647
g1676
sg328
S'c:/marmalade/7.2/s3e/h/std/math_rvct.h'
p2745
sbsS'IwUtil.h'
p2746
g302
(g1642
g304
Ntp2747
Rp2748
(dp2749
g1646
g1518
sg1647
g1683
sg328
g1577
sbsS'IwGeomVec3.h'
p2750
g302
(g1642
g304
Ntp2751
Rp2752
(dp2753
g1646
g1362
sg1647
g1715
sg328
g1399
sbsS'wctype.h'
p2754
g302
(g1642
g304
Ntp2755
Rp2756
(dp2757
g1646
g1654
sg1647
g1676
sg328
S'c:/marmalade/7.2/s3e/h/std/wctype.h'
p2758
sbsS'mainMenu.h'
p2759
g302
(g1642
g304
Ntp2760
Rp2761
(dp2762
g1646
g1195
sg1647
g1710
sg328
g1276
sbsS'cstddef'
p2763
g302
(g1642
g304
Ntp2764
Rp2765
(dp2766
g1646
g1654
sg1647
g1655
sg328
S'c:/marmalade/7.2/s3e/h/std/c++/cstddef'
p2767
sbsS'assert.h'
p2768
g302
(g1642
g304
Ntp2769
Rp2770
(dp2771
g1646
g1654
sg1647
g1676
sg328
S'c:/marmalade/7.2/s3e/h/std/assert.h'
p2772
sbsS'mman.h'
p2773
g302
(g1642
g304
Ntp2774
Rp2775
(dp2776
g1646
g1654
sg1647
g1809
sg328
S'c:/marmalade/7.2/s3e/h/std/sys/mman.h'
p2777
sbsS'IwRandom.h'
p2778
g302
(g1642
g304
Ntp2779
Rp2780
(dp2781
g1646
g1518
sg1647
g1683
sg328
g1527
sbsS'libgen.h'
p2782
g302
(g1642
g304
Ntp2783
Rp2784
(dp2785
g1646
g1654
sg1647
g1676
sg328
S'c:/marmalade/7.2/s3e/h/std/libgen.h'
p2786
sbsS'utsname.h'
p2787
g302
(g1642
g304
Ntp2788
Rp2789
(dp2790
g1646
g1654
sg1647
g1809
sg328
S'c:/marmalade/7.2/s3e/h/std/sys/utsname.h'
p2791
sbsS'gameObject.h'
p2792
g302
(g1642
g304
Ntp2793
Rp2794
(dp2795
g1646
g1195
sg1647
g1914
sg328
g1216
sbsS'wait.h'
p2796
g302
(g1642
g304
Ntp2797
Rp2798
(dp2799
g1646
g1654
sg1647
g1809
sg328
S'c:/marmalade/7.2/s3e/h/std/sys/wait.h'
p2800
sbsS'comet.h'
p2801
g302
(g1642
g304
Ntp2802
Rp2803
(dp2804
g1646
g1195
sg1647
g1914
sg328
g1200
sbsS'param.h'
p2805
g302
(g1642
g304
Ntp2806
Rp2807
(dp2808
g1646
g1654
sg1647
g1809
sg328
S'c:/marmalade/7.2/s3e/h/std/sys/param.h'
p2809
sbsS'IwDivide.h'
p2810
g302
(g1642
g304
Ntp2811
Rp2812
(dp2813
g1646
g1518
sg1647
g1683
sg328
g1614
sbsS'Iw2DSceneGraphCore.cpp'
p2814
g302
(g1642
g304
Ntp2815
Rp2816
(dp2817
g1646
g1511
sg1647
(lp2818
S"'Marmalade Studio'"
p2819
ag1504
asg328
g1512
sbsS'IwResManager.h'
p2820
g302
(g1642
g304
Ntp2821
Rp2822
(dp2823
g1646
g1430
sg1647
g1945
sg328
g1448
sbsS'IwSoundManager.h'
p2824
g302
(g1642
g304
Ntp2825
Rp2826
(dp2827
g1646
g1096
sg1647
g1700
sg328
g1104
sbsS'cwctype'
p2828
g302
(g1642
g304
Ntp2829
Rp2830
(dp2831
g1646
g1654
sg1647
g1655
sg328
S'c:/marmalade/7.2/s3e/h/std/c++/cwctype'
p2832
sbsS'set'
p2833
g302
(g1642
g304
Ntp2834
Rp2835
(dp2836
g1646
g1654
sg1647
g1655
sg328
S'c:/marmalade/7.2/s3e/h/std/c++/set'
p2837
sbsS'IwGeomSQuat.h'
p2838
g302
(g1642
g304
Ntp2839
Rp2840
(dp2841
g1646
g1362
sg1647
g1715
sg328
g1414
sbsS'locale'
p2842
g302
(g1642
g304
Ntp2843
Rp2844
(dp2845
g1646
g1654
sg1647
g1655
sg328
S'c:/marmalade/7.2/s3e/h/std/c++/locale'
p2846
sbsS'cstdio'
p2847
g302
(g1642
g304
Ntp2848
Rp2849
(dp2850
g1646
g1654
sg1647
g1655
sg328
S'c:/marmalade/7.2/s3e/h/std/c++/cstdio'
p2851
sbsS'cdjpeg.h'
p2852
g302
(g1642
g304
Ntp2853
Rp2854
(dp2855
g1646
g1052
sg1647
g1745
sg328
g1055
sbsS'IwList.h'
p2856
g302
(g1642
g304
Ntp2857
Rp2858
(dp2859
g1646
g1518
sg1647
g1683
sg328
g1531
sbsS's3eWebView_interface.cpp'
p2860
g302
(g1642
g304
Ntp2861
Rp2862
(dp2863
g1646
g1152
sg1647
g2432
sg328
g1153
sbsS'inttypes.h'
p2864
g302
(g1642
g304
Ntp2865
Rp2866
(dp2867
g1646
g1654
sg1647
g1676
sg328
S'c:/marmalade/7.2/s3e/h/std/inttypes.h'
p2868
sbsS'dirent.h'
p2869
g302
(g1642
g304
Ntp2870
Rp2871
(dp2872
g1646
g1654
sg1647
g1676
sg328
S'c:/marmalade/7.2/s3e/h/std/dirent.h'
p2873
sbsS'IwFColour.h'
p2874
g302
(g1642
g304
Ntp2875
Rp2876
(dp2877
g1646
g1454
sg1647
g1795
sg328
g1494
sbsS'transupp.h'
p2878
g302
(g1642
g304
Ntp2879
Rp2880
(dp2881
g1646
g1052
sg1647
g1745
sg328
g1059
sbsS'IwMath.h'
p2882
g302
(g1642
g304
Ntp2883
Rp2884
(dp2885
g1646
g1518
sg1647
g1683
sg328
g1537
sbsS'IwGeomQuat.h'
p2886
g302
(g1642
g304
Ntp2887
Rp2888
(dp2889
g1646
g1362
sg1647
g1715
sg328
g1416
sbsS'glplatform.h'
p2890
g302
(g1642
g304
Ntp2891
Rp2892
(dp2893
g1646
g1654
sg1647
g2041
sg328
S'c:/marmalade/7.2/s3e/h/GLES/glplatform.h'
p2894
sbsS'bitset'
p2895
g302
(g1642
g304
Ntp2896
Rp2897
(dp2898
g1646
g1654
sg1647
g1655
sg328
S'c:/marmalade/7.2/s3e/h/std/c++/bitset'
p2899
sbsS'alloca.h'
p2900
g302
(g1642
g304
Ntp2901
Rp2902
(dp2903
g1646
g1654
sg1647
g1676
sg328
S'c:/marmalade/7.2/s3e/h/std/alloca.h'
p2904
sbsS'IwResHandler.h'
p2905
g302
(g1642
g304
Ntp2906
Rp2907
(dp2908
g1646
g1430
sg1647
g1945
sg328
g1431
sbsS'comet.cpp'
p2909
g302
(g1642
g304
Ntp2910
Rp2911
(dp2912
g1646
g1195
sg1647
g1914
sg328
g1206
sbsS'IwResHandlerMTL.h'
p2913
g302
(g1642
g304
Ntp2914
Rp2915
(dp2916
g1646
g1454
sg1647
g1795
sg328
g1468
sbsS'IwRuntime.h'
p2917
g302
(g1642
g304
Ntp2918
Rp2919
(dp2920
g1646
g1518
sg1647
g1683
sg328
g1571
sbsS's3eFlurry.h'
p2921
g302
(g1642
g304
Ntp2922
Rp2923
(dp2924
g1646
g1181
sg1647
g1899
sg328
g1184
sbsS'limits'
p2925
g302
(g1642
g304
Ntp2926
Rp2927
(dp2928
g1646
g1654
sg1647
g1655
sg328
S'c:/marmalade/7.2/s3e/h/std/c++/limits'
p2929
sbsS'IwGeomBBox.h'
p2930
g302
(g1642
g304
Ntp2931
Rp2932
(dp2933
g1646
g1362
sg1647
g1715
sg328
g1391
sbsS'audioManager.h'
p2934
g302
(g1642
g304
Ntp2935
Rp2936
(dp2937
g1646
g1195
sg1647
g1689
sg328
g1258
sbsS's3eContacts.h'
p2938
g302
(g1642
g304
Ntp2939
Rp2940
(dp2941
g1646
g1654
sg1647
g1670
sg328
S'c:/marmalade/7.2/s3e/h/s3eContacts.h'
p2942
sbsS's3eLicense.h'
p2943
g302
(g1642
g304
Ntp2944
Rp2945
(dp2946
g1646
g1654
sg1647
g1670
sg328
S'c:/marmalade/7.2/s3e/h/s3eLicense.h'
p2947
sbsS'iwgx.config.txt'
p2948
g302
(g1642
g304
Ntp2949
Rp2950
(dp2951
g1646
g1454
sg1647
g1795
sg328
g1463
sbsS'IwTextParser.h'
p2952
g302
(g1642
g304
Ntp2953
Rp2954
(dp2955
g1646
g1518
sg1647
g1683
sg328
g1549
sbsS's3eTimer.h'
p2956
g302
(g1642
g304
Ntp2957
Rp2958
(dp2959
g1646
g1654
sg1647
g1670
sg328
S'c:/marmalade/7.2/s3e/h/s3eTimer.h'
p2960
sbsS'IwGeomVec.h'
p2961
g302
(g1642
g304
Ntp2962
Rp2963
(dp2964
g1646
g1362
sg1647
g1715
sg328
g1403
sbsS'IwSerialise.h'
p2965
g302
(g1642
g304
Ntp2966
Rp2967
(dp2968
g1646
g1518
sg1647
g1683
sg328
g1589
sbsS'cstdarg'
p2969
g302
(g1642
g304
Ntp2970
Rp2971
(dp2972
g1646
g1654
sg1647
g1655
sg328
S'c:/marmalade/7.2/s3e/h/std/c++/cstdarg'
p2973
sbsS'gl2ext.h'
p2974
g302
(g1642
g304
Ntp2975
Rp2976
(dp2977
g1646
g1654
sg1647
g1937
sg328
S'c:/marmalade/7.2/s3e/h/GLES2/gl2ext.h'
p2978
sbsS'IwChar.h'
p2979
g302
(g1642
g304
Ntp2980
Rp2981
(dp2982
g1646
g1518
sg1647
g1683
sg328
g1545
sbsS's3eSound.h'
p2983
g302
(g1642
g304
Ntp2984
Rp2985
(dp2986
g1646
g1654
sg1647
g1670
sg328
S'c:/marmalade/7.2/s3e/h/s3eSound.h'
p2987
sbsS'gameObject.cpp'
p2988
g302
(g1642
g304
Ntp2989
Rp2990
(dp2991
g1646
g1195
sg1647
g1914
sg328
g1214
sbsS's3eIOSBackgroundAudio.h'
p2992
g302
(g1642
g304
Ntp2993
Rp2994
(dp2995
g1646
g1654
sg1647
g1888
sg328
S'c:/marmalade/7.2/s3e/h/ext/s3eIOSBackgroundAudio.h'
p2996
sbsS'exception.h'
p2997
g302
(g1642
g304
Ntp2998
Rp2999
(dp3000
g1646
g1654
sg1647
g1655
sg328
S'c:/marmalade/7.2/s3e/h/std/c++/exception.h'
p3001
sbsS'iwgeom.config.txt'
p3002
g302
(g1642
g304
Ntp3003
Rp3004
(dp3005
g1646
g1362
sg1647
g1715
sg328
g1360
sbsS'iwgx.mkf'
p3006
g302
(g1642
g304
Ntp3007
Rp3008
(dp3009
g1646
g1467
sg1647
g1795
sg328
g1465
sbsS'gl.h'
p3010
g302
(g1642
g304
Ntp3011
Rp3012
(dp3013
g1646
g1654
sg1647
g2041
sg328
S'c:/marmalade/7.2/s3e/h/GLES/gl.h'
p3014
sbsS'savedataManager.h'
p3015
g302
(g1642
g304
Ntp3016
Rp3017
(dp3018
g1646
g1195
sg1647
g1689
sg328
g1246
sbsS's3eFacebook.defines.txt'
p3019
g302
(g1642
g304
Ntp3020
Rp3021
(dp3022
g1646
g1166
sg1647
(lp3023
S'Extensions'
p3024
ag1160
ag1162
asg328
g1167
sbsS'iwgl.mkf'
p3025
g302
(g1642
g304
Ntp3026
Rp3027
(dp3028
g1646
g1319
sg1647
g1664
sg328
g1317
sbsS'audioManager.cpp'
p3029
g302
(g1642
g304
Ntp3030
Rp3031
(dp3032
g1646
g1195
sg1647
g1689
sg328
g1262
sbsS'IwColour.h'
p3033
g302
(g1642
g304
Ntp3034
Rp3035
(dp3036
g1646
g1454
sg1647
g1795
sg328
g1496
sbsS'types.h'
p3037
g302
(g1642
g304
Ntp3038
Rp3039
(dp3040
g1646
g1654
sg1647
g1809
sg328
S'c:/marmalade/7.2/s3e/h/std/sys/types.h'
p3041
sbsS'ifaddrs.h'
p3042
g302
(g1642
g304
Ntp3043
Rp3044
(dp3045
g1646
g1654
sg1647
g1676
sg328
S'c:/marmalade/7.2/s3e/h/std/ifaddrs.h'
p3046
sbsS'inputManager.cpp'
p3047
g302
(g1642
g304
Ntp3048
Rp3049
(dp3050
g1646
g1195
sg1647
g1689
sg328
g1260
sbsS'IwTween.cpp'
p3051
g302
(g1642
g304
Ntp3052
Rp3053
(dp3054
g1646
g1636
sg1647
g2207
sg328
g1634
sbsS'exception'
p3055
g302
(g1642
g304
Ntp3056
Rp3057
(dp3058
g1646
g1654
sg1647
g1655
sg328
S'c:/marmalade/7.2/s3e/h/std/c++/exception'
p3059
sbsS's3eFacebook_interface.cpp'
p3060
g302
(g1642
g304
Ntp3061
Rp3062
(dp3063
g1646
g1166
sg1647
g3023
sg328
g1164
sbsS'rlocks.h'
p3064
g302
(g1642
g304
Ntp3065
Rp3066
(dp3067
g1646
g1654
sg1647
g1655
sg328
S'c:/marmalade/7.2/s3e/h/std/c++/rlocks.h'
p3068
sbsS'ioctl.h'
p3069
g302
(g1642
g304
Ntp3070
Rp3071
(dp3072
g1646
g1654
sg1647
g1809
sg328
S'c:/marmalade/7.2/s3e/h/std/sys/ioctl.h'
p3073
sbsS'rope'
p3074
g302
(g1642
g304
Ntp3075
Rp3076
(dp3077
g1646
g1654
sg1647
g1655
sg328
S'c:/marmalade/7.2/s3e/h/std/c++/rope'
p3078
sbsS'jinclude.h'
p3079
g302
(g1642
g304
Ntp3080
Rp3081
(dp3082
g1646
g1052
sg1647
g1745
sg328
g1065
sbsS's3eFlurry_interface.cpp'
p3083
g302
(g1642
g304
Ntp3084
Rp3085
(dp3086
g1646
g1181
sg1647
g2574
sg328
g1179
sbsS's3eWebView.h'
p3087
g302
(g1642
g304
Ntp3088
Rp3089
(dp3090
g1646
g1152
sg1647
(lp3091
g2433
ag1146
asg328
g1155
sbsS'IwEvent.h'
p3092
g302
(g1642
g304
Ntp3093
Rp3094
(dp3095
g1646
g1518
sg1647
g1683
sg328
g1547
sbsS'IwOptimiseSize.h'
p3096
g302
(g1642
g304
Ntp3097
Rp3098
(dp3099
g1646
g1518
sg1647
g1683
sg328
g1551
sbsS'iwgxfont_public.defines.txt'
p3100
g302
(g1642
g304
Ntp3101
Rp3102
(dp3103
g1646
g1340
sg1647
g1648
sg328
g1345
sbsS'iconv.h'
p3104
g302
(g1642
g304
Ntp3105
Rp3106
(dp3107
g1646
g1654
sg1647
g1676
sg328
S'c:/marmalade/7.2/s3e/h/std/iconv.h'
p3108
sbsS's3eDevice.h'
p3109
g302
(g1642
g304
Ntp3110
Rp3111
(dp3112
g1646
g1654
sg1647
g1670
sg328
S'c:/marmalade/7.2/s3e/h/s3eDevice.h'
p3113
sbsS'IwGeomSphere.h'
p3114
g302
(g1642
g304
Ntp3115
Rp3116
(dp3117
g1646
g1362
sg1647
g1715
sg328
g1418
sbsS'tiniconv.mkf'
p3118
g302
(g1642
g304
Ntp3119
Rp3120
(dp3121
g1646
g1091
sg1647
g2156
sg328
g1089
sbsS'iw2dscenegraph.defines.txt'
p3122
g302
(g1642
g304
Ntp3123
Rp3124
(dp3125
g1646
g1304
sg1647
g1995
sg328
g1310
sbsS'jdct.h'
p3126
g302
(g1642
g304
Ntp3127
Rp3128
(dp3129
g1646
g1052
sg1647
g1745
sg328
g1067
sbsS'cctype'
p3130
g302
(g1642
g304
Ntp3131
Rp3132
(dp3133
g1646
g1654
sg1647
g1655
sg328
S'c:/marmalade/7.2/s3e/h/std/c++/cctype'
p3134
sbsS'IwSoundADPCM.cpp'
p3135
g302
(g1642
g304
Ntp3136
Rp3137
(dp3138
g1646
g1096
sg1647
g1700
sg328
g1102
sbsS's3eConfig.h'
p3139
g302
(g1642
g304
Ntp3140
Rp3141
(dp3142
g1646
g1654
sg1647
g1670
sg328
S'c:/marmalade/7.2/s3e/h/s3eConfig.h'
p3143
sbsS'IwHashString.h'
p3144
g302
(g1642
g304
Ntp3145
Rp3146
(dp3147
g1646
g1518
sg1647
g1683
sg328
g1616
sbsS'stat.h'
p3148
g302
(g1642
g304
Ntp3149
Rp3150
(dp3151
g1646
g1654
sg1647
g1809
sg328
S'c:/marmalade/7.2/s3e/h/std/sys/stat.h'
p3152
sbsS'byteswap.h'
p3153
g302
(g1642
g304
Ntp3154
Rp3155
(dp3156
g1646
g1654
sg1647
g1676
sg328
S'c:/marmalade/7.2/s3e/h/std/byteswap.h'
p3157
sbsS'iwresmanager.mkf'
p3158
g302
(g1642
g304
Ntp3159
Rp3160
(dp3161
g1646
g1435
sg1647
g1945
sg328
g1433
sbsS'IwUtilInitTerm.h'
p3162
g302
(g1642
g304
Ntp3163
Rp3164
(dp3165
g1646
g1518
sg1647
g1683
sg328
g1583
sbsS'star.h'
p3166
g302
(g1642
g304
Ntp3167
Rp3168
(dp3169
g1646
g1195
sg1647
g1914
sg328
g1198
sbsS'pthread_1.h'
p3170
g302
(g1642
g304
Ntp3171
Rp3172
(dp3173
g1646
g1654
sg1647
g1655
sg328
S'c:/marmalade/7.2/s3e/h/std/c++/pthread.h'
p3174
sbsS'iw2d.mkf'
p3175
g302
(g1642
g304
Ntp3176
Rp3177
(dp3178
g1646
g1335
sg1647
g1750
sg328
g1333
sbsS'complex'
p3179
g302
(g1642
g304
Ntp3180
Rp3181
(dp3182
g1646
g1654
sg1647
g1655
sg328
S'c:/marmalade/7.2/s3e/h/std/c++/complex'
p3183
sbsS'game.cpp'
p3184
g302
(g1642
g304
Ntp3185
Rp3186
(dp3187
g1646
g1195
sg1647
g1710
sg328
g1296
sbsS'algorithm'
p3188
g302
(g1642
g304
Ntp3189
Rp3190
(dp3191
g1646
g1654
sg1647
g1655
sg328
S'c:/marmalade/7.2/s3e/h/std/c++/algorithm'
p3192
sbsS's3e.icf'
p3193
g302
(g1642
g304
Ntp3194
Rp3195
(dp3196
g1646
g1654
sg1647
g1670
sg328
S'c:/marmalade/7.2/s3e/s3e.icf'
p3197
sbsS'sem.h'
p3198
g302
(g1642
g304
Ntp3199
Rp3200
(dp3201
g1646
g1654
sg1647
g1809
sg328
S'c:/marmalade/7.2/s3e/h/std/sys/sem.h'
p3202
sbsS'IwGxFontState.h'
p3203
g302
(g1642
g304
Ntp3204
Rp3205
(dp3206
g1646
g1340
sg1647
g1648
sg328
g1349
sbsS'stdio.h'
p3207
g302
(g1642
g304
Ntp3208
Rp3209
(dp3210
g1646
g1654
sg1647
g1676
sg328
S'c:/marmalade/7.2/s3e/h/std/stdio.h'
p3211
sbsS's3eFacebook.h'
p3212
g302
(g1642
g304
Ntp3213
Rp3214
(dp3215
g1646
g1166
sg1647
(lp3216
g3024
ag1160
ag1037
asg328
g1170
sbsS'jmemsys.h'
p3217
g302
(g1642
g304
Ntp3218
Rp3219
(dp3220
g1646
g1052
sg1647
g1745
sg328
g1071
sbsS'ios'
p3221
g302
(g1642
g304
Ntp3222
Rp3223
(dp3224
g1646
g1654
sg1647
g1655
sg328
S'c:/marmalade/7.2/s3e/h/std/c++/ios'
p3225
sbsS'IwTween.h'
p3226
g302
(g1642
g304
Ntp3227
Rp3228
(dp3229
g1646
g1636
sg1647
g2207
sg328
g1637
sbsS'stack'
p3230
g302
(g1642
g304
Ntp3231
Rp3232
(dp3233
g1646
g1654
sg1647
g1655
sg328
S'c:/marmalade/7.2/s3e/h/std/c++/stack'
p3234
sbsS'IwSoundParams.h'
p3235
g302
(g1642
g304
Ntp3236
Rp3237
(dp3238
g1646
g1096
sg1647
g1700
sg328
g1138
sbsS'new.h'
p3239
g302
(g1642
g304
Ntp3240
Rp3241
(dp3242
g1646
g1654
sg1647
g1655
sg328
S'c:/marmalade/7.2/s3e/h/std/c++/new.h'
p3243
sbsS'satellite.cpp'
p3244
g302
(g1642
g304
Ntp3245
Rp3246
(dp3247
g1646
g1195
sg1647
g1914
sg328
g1204
sbsS's3eEMail.h'
p3248
g302
(g1642
g304
Ntp3249
Rp3250
(dp3251
g1646
g1654
sg1647
g1888
sg328
S'c:/marmalade/7.2/s3e/h/ext/s3eEMail.h'
p3252
sbsS's3eVideo.h'
p3253
g302
(g1642
g304
Ntp3254
Rp3255
(dp3256
g1646
g1654
sg1647
g1670
sg328
S'c:/marmalade/7.2/s3e/h/s3eVideo.h'
p3257
sbsS'pngconf.h'
p3258
g302
(g1642
g304
Ntp3259
Rp3260
(dp3261
g1646
g1041
sg1647
g2452
sg328
g1042
sbsS'pwd.h'
p3262
g302
(g1642
g304
Ntp3263
Rp3264
(dp3265
g1646
g1654
sg1647
g1676
sg328
S'c:/marmalade/7.2/s3e/h/std/pwd.h'
p3266
sbsS'IwOptimiseThumb.h'
p3267
g302
(g1642
g304
Ntp3268
Rp3269
(dp3270
g1646
g1518
sg1647
g1683
sg328
g1575
sbsS'IwClip.h'
p3271
g302
(g1642
g304
Ntp3272
Rp3273
(dp3274
g1646
g1454
sg1647
g1795
sg328
g1476
sbsS'IwSoundInst.h'
p3275
g302
(g1642
g304
Ntp3276
Rp3277
(dp3278
g1646
g1096
sg1647
g1700
sg328
g1116
sbsS'iwresmanager.config.txt'
p3279
g302
(g1642
g304
Ntp3280
Rp3281
(dp3282
g1646
g1430
sg1647
g1945
sg328
g1440
sbsS'IwGxShaderTechnique.h'
p3283
g302
(g1642
g304
Ntp3284
Rp3285
(dp3286
g1646
g1454
sg1647
g1795
sg328
g1498
sbsS'getStars.h'
p3287
g302
(g1642
g304
Ntp3288
Rp3289
(dp3290
g1646
g1195
sg1647
g1710
sg328
g1278
sbsS'IwCore.h'
p3291
g302
(g1642
g304
Ntp3292
Rp3293
(dp3294
g1646
g1518
sg1647
g1683
sg328
g1516
sbsS'cfloat'
p3295
g302
(g1642
g304
Ntp3296
Rp3297
(dp3298
g1646
g1654
sg1647
g1655
sg328
S'c:/marmalade/7.2/s3e/h/std/c++/cfloat'
p3299
sbsS'IwGeomMat2D.h'
p3300
g302
(g1642
g304
Ntp3301
Rp3302
(dp3303
g1646
g1362
sg1647
g1715
sg328
g1369
sbsS'IwAllocator.h'
p3304
g302
(g1642
g304
Ntp3305
Rp3306
(dp3307
g1646
g1518
sg1647
g1683
sg328
g1555
sbsS'timerManager.cpp'
p3308
g302
(g1642
g304
Ntp3309
Rp3310
(dp3311
g1646
g1195
sg1647
g1689
sg328
g1236
sbsS'customize.h'
p3312
g302
(g1642
g304
Ntp3313
Rp3314
(dp3315
g1646
g1195
sg1647
g1710
sg328
g1272
sbsS'IwPath.h'
p3316
g302
(g1642
g304
Ntp3317
Rp3318
(dp3319
g1646
g1518
sg1647
g1683
sg328
g1591
sbsS'iwgxfont.mkf'
p3320
g302
(g1642
g304
Ntp3321
Rp3322
(dp3323
g1646
g1355
sg1647
g1648
sg328
g1353
sbsS'IwTexture.h'
p3324
g302
(g1642
g304
Ntp3325
Rp3326
(dp3327
g1646
g1454
sg1647
g1795
sg328
g1492
sbsS'vortex.cpp'
p3328
g302
(g1642
g304
Ntp3329
Rp3330
(dp3331
g1646
g1195
sg1647
g1914
sg328
g1212
sbsS's3eAccelerometer.h'
p3332
g302
(g1642
g304
Ntp3333
Rp3334
(dp3335
g1646
g1654
sg1647
g1670
sg328
S'c:/marmalade/7.2/s3e/h/s3eAccelerometer.h'
p3336
sbsS'setjmp.h'
p3337
g302
(g1642
g304
Ntp3338
Rp3339
(dp3340
g1646
g1654
sg1647
g1676
sg328
S'c:/marmalade/7.2/s3e/h/std/setjmp.h'
p3341
sbsS'items.cpp'
p3342
g302
(g1642
g304
Ntp3343
Rp3344
(dp3345
g1646
g1195
sg1647
g1710
sg328
g1270
sbsS'IwSoundParams.cpp'
p3346
g302
(g1642
g304
Ntp3347
Rp3348
(dp3349
g1646
g1096
sg1647
g1700
sg328
g1106
sbsS'IwFile.h'
p3350
g302
(g1642
g304
Ntp3351
Rp3352
(dp3353
g1646
g1518
sg1647
g1683
sg328
g1557
sbsS'IwTextParseable.h'
p3354
g302
(g1642
g304
Ntp3355
Rp3356
(dp3357
g1646
g1518
sg1647
g1683
sg328
g1610
sbsS'istream.h'
p3358
g302
(g1642
g304
Ntp3359
Rp3360
(dp3361
g1646
g1654
sg1647
g1655
sg328
S'c:/marmalade/7.2/s3e/h/std/c++/istream.h'
p3362
sbsS'stdint.h'
p3363
g302
(g1642
g304
Ntp3364
Rp3365
(dp3366
g1646
g1654
sg1647
g1676
sg328
S'c:/marmalade/7.2/s3e/h/std/stdint.h'
p3367
sbsS'semaphore.h'
p3368
g302
(g1642
g304
Ntp3369
Rp3370
(dp3371
g1646
g1654
sg1647
g1676
sg328
S'c:/marmalade/7.2/s3e/h/std/semaphore.h'
p3372
sbsS'ctime'
p3373
g302
(g1642
g304
Ntp3374
Rp3375
(dp3376
g1646
g1654
sg1647
g1655
sg328
S'c:/marmalade/7.2/s3e/h/std/c++/ctime'
p3377
sbsS'sstream'
p3378
g302
(g1642
g304
Ntp3379
Rp3380
(dp3381
g1646
g1654
sg1647
g1655
sg328
S'c:/marmalade/7.2/s3e/h/std/c++/sstream'
p3382
sbsS'IwGeomFBBox.h'
p3383
g302
(g1642
g304
Ntp3384
Rp3385
(dp3386
g1646
g1362
sg1647
g1715
sg328
g1424
sbsS'IwDebugPrim.h'
p3387
g302
(g1642
g304
Ntp3388
Rp3389
(dp3390
g1646
g1454
sg1647
g1795
sg328
g1482
sbsS'parallaxManager.cpp'
p3391
g302
(g1642
g304
Ntp3392
Rp3393
(dp3394
g1646
g1195
sg1647
g1689
sg328
g1250
sbsS'parallaxManager.h'
p3395
g302
(g1642
g304
Ntp3396
Rp3397
(dp3398
g1646
g1195
sg1647
g1689
sg328
g1264
sbsS'IwGxFontContainer.h'
p3399
g302
(g1642
g304
Ntp3400
Rp3401
(dp3402
g1646
g1340
sg1647
g1648
sg328
g1343
sbsS'player.h'
p3403
g302
(g1642
g304
Ntp3404
Rp3405
(dp3406
g1646
g1195
sg1647
g1914
sg328
g1193
sbsS'iw2dscenegraphcore.mkf'
p3407
g302
(g1642
g304
Ntp3408
Rp3409
(dp3410
g1646
g1508
sg1647
g2818
sg328
g1506
sbsS'resourceManager.cpp'
p3411
g302
(g1642
g304
Ntp3412
Rp3413
(dp3414
g1646
g1195
sg1647
g1689
sg328
g1266
sbsS's3eExt.h'
p3415
g302
(g1642
g304
Ntp3416
Rp3417
(dp3418
g1646
g1654
sg1647
g1670
sg328
S'c:/marmalade/7.2/s3e/h/s3eExt.h'
p3419
sbsS'IwGeomFVec3.h'
p3420
g302
(g1642
g304
Ntp3421
Rp3422
(dp3423
g1646
g1362
sg1647
g1715
sg328
g1379
sbsS'IwClip.inl'
p3424
g302
(g1642
g304
Ntp3425
Rp3426
(dp3427
g1646
g1454
sg1647
g1795
sg328
g1488
sbsS'streambuf'
p3428
g302
(g1642
g304
Ntp3429
Rp3430
(dp3431
g1646
g1654
sg1647
g1655
sg328
S'c:/marmalade/7.2/s3e/h/std/c++/streambuf'
p3432
sbsS'asteroid.h'
p3433
g302
(g1642
g304
Ntp3434
Rp3435
(dp3436
g1646
g1195
sg1647
g1914
sg328
g1210
sbsS's3eMetrics.h'
p3437
g302
(g1642
g304
Ntp3438
Rp3439
(dp3440
g1646
g1654
sg1647
g1888
sg328
S'c:/marmalade/7.2/s3e/h/ext/s3eMetrics.h'
p3441
sbsS'IwGxFont.h'
p3442
g302
(g1642
g304
Ntp3443
Rp3444
(dp3445
g1646
g1340
sg1647
g1648
sg328
g1338
sbsS's3eSecureStorage.h'
p3446
g302
(g1642
g304
Ntp3447
Rp3448
(dp3449
g1646
g1654
sg1647
g1670
sg328
S'c:/marmalade/7.2/s3e/h/s3eSecureStorage.h'
p3450
sbsS'string.h'
p3451
g302
(g1642
g304
Ntp3452
Rp3453
(dp3454
g1646
g1654
sg1647
g1676
sg328
S'c:/marmalade/7.2/s3e/h/std/string.h'
p3455
sbsS'IwResource.h'
p3456
g302
(g1642
g304
Ntp3457
Rp3458
(dp3459
g1646
g1518
sg1647
g1683
sg328
g1521
sbsS'IwGeomSVec2.h'
p3460
g302
(g1642
g304
Ntp3461
Rp3462
(dp3463
g1646
g1362
sg1647
g1715
sg328
g1385
sbsS'libjpeg.mkf'
p3464
g302
(g1642
g304
Ntp3465
Rp3466
(dp3467
g1646
g1081
sg1647
(lp3468
g1047
asg328
g1079
sbsS'IwGxDebug.h'
p3469
g302
(g1642
g304
Ntp3470
Rp3471
(dp3472
g1646
g1454
sg1647
g1795
sg328
g1480
sbsS'pthread_types.h'
p3473
g302
(g1642
g304
Ntp3474
Rp3475
(dp3476
g1646
g1654
sg1647
g1676
sg328
S'c:/marmalade/7.2/s3e/h/std/pthread_types.h'
p3477
sbsS'iomanip.h'
p3478
g302
(g1642
g304
Ntp3479
Rp3480
(dp3481
g1646
g1654
sg1647
g1655
sg328
S'c:/marmalade/7.2/s3e/h/std/c++/iomanip.h'
p3482
sbsS'IwKeymap.h'
p3483
g302
(g1642
g304
Ntp3484
Rp3485
(dp3486
g1646
g1518
sg1647
g1683
sg328
g1604
sbsS'IwDebug.h'
p3487
g302
(g1642
g304
Ntp3488
Rp3489
(dp3490
g1646
g1518
sg1647
g1683
sg328
g1612
sbsS'IwVariableBitField.h'
p3491
g302
(g1642
g304
Ntp3492
Rp3493
(dp3494
g1646
g1518
sg1647
g1683
sg328
g1561
sbsS'IwGeomMenu.h'
p3495
g302
(g1642
g304
Ntp3496
Rp3497
(dp3498
g1646
g1362
sg1647
g1715
sg328
g1371
sbsS'IwDivTable.h'
p3499
g302
(g1642
g304
Ntp3500
Rp3501
(dp3502
g1646
g1518
sg1647
g1683
sg328
g1539
sbsS'ctype.h'
p3503
g302
(g1642
g304
Ntp3504
Rp3505
(dp3506
g1646
g1654
sg1647
g1676
sg328
S'c:/marmalade/7.2/s3e/h/std/ctype.h'
p3507
sbsS'mainMenu.cpp'
p3508
g302
(g1642
g304
Ntp3509
Rp3510
(dp3511
g1646
g1195
sg1647
g1710
sg328
g1286
sbsS'IwResGroup.h'
p3512
g302
(g1642
g304
Ntp3513
Rp3514
(dp3515
g1646
g1430
sg1647
g1945
sg328
g1436
sbsS'signal_1.h'
p3516
g302
(g1642
g304
Ntp3517
Rp3518
(dp3519
g1646
g1654
sg1647
g1809
sg328
S'c:/marmalade/7.2/s3e/h/std/sys/signal.h'
p3520
sbsS'IwSoundData.cpp'
p3521
g302
(g1642
g304
Ntp3522
Rp3523
(dp3524
g1646
g1096
sg1647
g1700
sg328
g1108
sbsS'jerror.h'
p3525
g302
(g1642
g304
Ntp3526
Rp3527
(dp3528
g1646
g1052
sg1647
g1745
sg328
g1075
sbsS'shm.h'
p3529
g302
(g1642
g304
Ntp3530
Rp3531
(dp3532
g1646
g1654
sg1647
g1809
sg328
S'c:/marmalade/7.2/s3e/h/std/sys/shm.h'
p3533
sbsS'IwManagedList.h'
p3534
g302
(g1642
g304
Ntp3535
Rp3536
(dp3537
g1646
g1518
sg1647
g1683
sg328
g1529
sbsS'prctl.h'
p3538
g302
(g1642
g304
Ntp3539
Rp3540
(dp3541
g1646
g1654
sg1647
g1809
sg328
S'c:/marmalade/7.2/s3e/h/std/sys/prctl.h'
p3542
sbsS's3eCamera.h'
p3543
g302
(g1642
g304
Ntp3544
Rp3545
(dp3546
g1646
g1654
sg1647
g1670
sg328
S'c:/marmalade/7.2/s3e/h/s3eCamera.h'
p3547
sbsS'utility'
p3548
g302
(g1642
g304
Ntp3549
Rp3550
(dp3551
g1646
g1654
sg1647
g1655
sg328
S'c:/marmalade/7.2/s3e/h/std/c++/utility'
p3552
sbsS's3ewebview.mkf'
p3553
g302
(g1642
g304
Ntp3554
Rp3555
(dp3556
g1646
g1159
sg1647
g3091
sg328
g1157
sbsS'IwGeomLegacy.h'
p3557
g302
(g1642
g304
Ntp3558
Rp3559
(dp3560
g1646
g1362
sg1647
g1715
sg328
g1420
sbsS'IwTPage.h'
p3561
g302
(g1642
g304
Ntp3562
Rp3563
(dp3564
g1646
g1454
sg1647
g1795
sg328
g1452
sbsS'IwResSerialise.h'
p3565
g302
(g1642
g304
Ntp3566
Rp3567
(dp3568
g1646
g1430
sg1647
g1945
sg328
g1446
sbsS's3eCrypto.h'
p3569
g302
(g1642
g304
Ntp3570
Rp3571
(dp3572
g1646
g1654
sg1647
g1670
sg328
S'c:/marmalade/7.2/s3e/h/s3eCrypto.h'
p3573
sbsS's3eKeyboard.h'
p3574
g302
(g1642
g304
Ntp3575
Rp3576
(dp3577
g1646
g1654
sg1647
g1670
sg328
S'c:/marmalade/7.2/s3e/h/s3eKeyboard.h'
p3578
sbsS'fcntl.h'
p3579
g302
(g1642
g304
Ntp3580
Rp3581
(dp3582
g1646
g1654
sg1647
g1676
sg328
S'c:/marmalade/7.2/s3e/h/std/fcntl.h'
p3583
sbsS'Iw2DSceneGraphCore.h'
p3584
g302
(g1642
g304
Ntp3585
Rp3586
(dp3587
g1646
g1511
sg1647
g2818
sg328
g1509
sbsS'memory.h'
p3588
g302
(g1642
g304
Ntp3589
Rp3590
(dp3591
g1646
g1654
sg1647
g1676
sg328
S'c:/marmalade/7.2/s3e/h/std/memory.h'
p3592
sbsS'egl.h'
p3593
g302
(g1642
g304
Ntp3594
Rp3595
(dp3596
g1646
g1654
sg1647
g2499
sg328
S'c:/marmalade/7.2/s3e/h/EGL/egl.h'
p3597
sbsS'IwGeomIntersect.h'
p3598
g302
(g1642
g304
Ntp3599
Rp3600
(dp3601
g1646
g1362
sg1647
g1715
sg328
g1412
sbsS'IwTextParserITX.h'
p3602
g302
(g1642
g304
Ntp3603
Rp3604
(dp3605
g1646
g1518
sg1647
g1683
sg328
g1541
sbsS'sceneManager.h'
p3606
g302
(g1642
g304
Ntp3607
Rp3608
(dp3609
g1646
g1195
sg1647
g1689
sg328
g1254
sbsS'sceneManager.cpp'
p3610
g302
(g1642
g304
Ntp3611
Rp3612
(dp3613
g1646
g1195
sg1647
g1689
sg328
g1242
sbsS'Iw2DSceneGraph.cpp'
p3614
g302
(g1642
g304
Ntp3615
Rp3616
(dp3617
g1646
g1304
sg1647
g1995
sg328
g1302
sbsS'ostream.h'
p3618
g302
(g1642
g304
Ntp3619
Rp3620
(dp3621
g1646
g1654
sg1647
g1655
sg328
S'c:/marmalade/7.2/s3e/h/std/c++/ostream.h'
p3622
sbsS'stl_user_config.h'
p3623
g302
(g1642
g304
Ntp3624
Rp3625
(dp3626
g1646
g1654
sg1647
g1655
sg328
S'c:/marmalade/7.2/s3e/h/std/c++/stl_user_config.h'
p3627
sbsS'satellite.h'
p3628
g302
(g1642
g304
Ntp3629
Rp3630
(dp3631
g1646
g1195
sg1647
g1914
sg328
g1202
sbsS'IwProfileMenu.h'
p3632
g302
(g1642
g304
Ntp3633
Rp3634
(dp3635
g1646
g1518
sg1647
g1683
sg328
g1533
sbsS'MarmaladeVersion.h'
p3636
g302
(g1642
g304
Ntp3637
Rp3638
(dp3639
g1646
g1654
sg1647
g1670
sg328
S'c:/marmalade/7.2/s3e/h/MarmaladeVersion.h'
p3640
sbsS'IwResHandlerWAV.h'
p3641
g302
(g1642
g304
Ntp3642
Rp3643
(dp3644
g1646
g1096
sg1647
g1700
sg328
g1136
sbsS'options.h'
p3645
g302
(g1642
g304
Ntp3646
Rp3647
(dp3648
g1646
g1195
sg1647
g1710
sg328
g1282
sbsS'ios.h'
p3649
g302
(g1642
g304
Ntp3650
Rp3651
(dp3652
g1646
g1654
sg1647
g1655
sg328
S'c:/marmalade/7.2/s3e/h/std/c++/ios.h'
p3653
sbsS'store.cpp'
p3654
g302
(g1642
g304
Ntp3655
Rp3656
(dp3657
g1646
g1195
sg1647
g1710
sg328
g1290
sbsS'IwImageHelper.h'
p3658
g302
(g1642
g304
Ntp3659
Rp3660
(dp3661
g1646
g1518
sg1647
g1683
sg328
g1606
sbsS'zlib.h'
p3662
g302
(g1642
g304
Ntp3663
Rp3664
(dp3665
g1646
g1623
sg1647
g2387
sg328
g1624
sbsS'hash_set'
p3666
g302
(g1642
g304
Ntp3667
Rp3668
(dp3669
g1646
g1654
sg1647
g1655
sg328
S'c:/marmalade/7.2/s3e/h/std/c++/hash_set'
p3670
sbsS'IwGeomFQuat.h'
p3671
g302
(g1642
g304
Ntp3672
Rp3673
(dp3674
g1646
g1362
sg1647
g1715
sg328
g1397
sbsS'jmorecfg.h'
p3675
g302
(g1642
g304
Ntp3676
Rp3677
(dp3678
g1646
g1052
sg1647
g1745
sg328
g1073
sbsS'eglplatform.h'
p3679
g302
(g1642
g304
Ntp3680
Rp3681
(dp3682
g1646
g1654
sg1647
g2499
sg328
S'c:/marmalade/7.2/s3e/h/EGL/eglplatform.h'
p3683
sbsS'cmath'
p3684
g302
(g1642
g304
Ntp3685
Rp3686
(dp3687
g1646
g1654
sg1647
g1655
sg328
S'c:/marmalade/7.2/s3e/h/std/c++/cmath'
p3688
sbsS'math_gcc.h'
p3689
g302
(g1642
g304
Ntp3690
Rp3691
(dp3692
g1646
g1654
sg1647
g1676
sg328
S'c:/marmalade/7.2/s3e/h/std/math_gcc.h'
p3693
sbsS's3eMemory.h'
p3694
g302
(g1642
g304
Ntp3695
Rp3696
(dp3697
g1646
g1654
sg1647
g1670
sg328
S'c:/marmalade/7.2/s3e/h/s3eMemory.h'
p3698
sbsS'IwGeomSVec3.h'
p3699
g302
(g1642
g304
Ntp3700
Rp3701
(dp3702
g1646
g1362
sg1647
g1715
sg328
g1389
sbsS's3eFile.h'
p3703
g302
(g1642
g304
Ntp3704
Rp3705
(dp3706
g1646
g1654
sg1647
g1670
sg328
S'c:/marmalade/7.2/s3e/h/s3eFile.h'
p3707
sbsS'IwGxTypes.h'
p3708
g302
(g1642
g304
Ntp3709
Rp3710
(dp3711
g1646
g1454
sg1647
g1795
sg328
g1500
sbsS'cerrno'
p3712
g302
(g1642
g304
Ntp3713
Rp3714
(dp3715
g1646
g1654
sg1647
g1655
sg328
S'c:/marmalade/7.2/s3e/h/std/c++/cerrno'
p3716
sbsS'IwSoundManager.cpp'
p3717
g302
(g1642
g304
Ntp3718
Rp3719
(dp3720
g1646
g1096
sg1647
g1700
sg328
g1094
sbsS'main.h'
p3721
g302
(g1642
g304
Ntp3722
Rp3723
(dp3724
g1646
g1195
sg1647
g2016
sg328
g1228
sbsS'soundengine.mkf'
p3725
g302
(g1642
g304
Ntp3726
Rp3727
(dp3728
g1646
g1099
sg1647
g1700
sg328
g1097
sbsS'resource.h'
p3729
g302
(g1642
g304
Ntp3730
Rp3731
(dp3732
g1646
g1654
sg1647
g1809
sg328
S'c:/marmalade/7.2/s3e/h/std/sys/resource.h'
p3733
sbsS'clocale'
p3734
g302
(g1642
g304
Ntp3735
Rp3736
(dp3737
g1646
g1654
sg1647
g1655
sg328
S'c:/marmalade/7.2/s3e/h/std/c++/clocale'
p3738
sbsS'csetjmp'
p3739
g302
(g1642
g304
Ntp3740
Rp3741
(dp3742
g1646
g1654
sg1647
g1655
sg328
S'c:/marmalade/7.2/s3e/h/std/c++/csetjmp'
p3743
sbsS'netdb.h'
p3744
g302
(g1642
g304
Ntp3745
Rp3746
(dp3747
g1646
g1654
sg1647
g1676
sg328
S'c:/marmalade/7.2/s3e/h/std/netdb.h'
p3748
sbsS's3eAndroidJNI.h'
p3749
g302
(g1642
g304
Ntp3750
Rp3751
(dp3752
g1646
g1654
sg1647
g1888
sg328
S'c:/marmalade/7.2/s3e/h/ext/s3eAndroidJNI.h'
p3753
sbsS'stdexcept'
p3754
g302
(g1642
g304
Ntp3755
Rp3756
(dp3757
g1646
g1654
sg1647
g1655
sg328
S'c:/marmalade/7.2/s3e/h/std/c++/stdexcept'
p3758
sbsS'math.h'
p3759
g302
(g1642
g304
Ntp3760
Rp3761
(dp3762
g1646
g1654
sg1647
g1676
sg328
S'c:/marmalade/7.2/s3e/h/std/math.h'
p3763
sbsS'stdbool.h'
p3764
g302
(g1642
g304
Ntp3765
Rp3766
(dp3767
g1646
g1654
sg1647
g1676
sg328
S'c:/marmalade/7.2/s3e/h/std/stdbool.h'
p3768
sbsS'uio.h'
p3769
g302
(g1642
g304
Ntp3770
Rp3771
(dp3772
g1646
g1654
sg1647
g1809
sg328
S'c:/marmalade/7.2/s3e/h/std/sys/uio.h'
p3773
sbsS'IwUncopyable.h'
p3774
g302
(g1642
g304
Ntp3775
Rp3776
(dp3777
g1646
g1518
sg1647
g1683
sg328
g1563
sbsS's3efacebook.mkf'
p3778
g302
(g1642
g304
Ntp3779
Rp3780
(dp3781
g1646
g1174
sg1647
(lp3782
g3024
ag1160
asg328
g1172
sbssS'juice_build_type'
p3783
g4
sS'tests'
p3784
(lp3785
sS'project_name'
p3786
g310
sS'root_file'
p3787
g119
sS'current_root'
p3788
S'c:/Users/Vinicius/Desktop/Yes or No/Stars'
p3789
sS'dependencies'
p3790
(lp3791
sS'include_paths'
p3792
(lp3793
S'c:/marmalade/7.2/extensions/s3ewebview/h'
p3794
aS'c:/marmalade/7.2/modules/iwutil/h'
p3795
aS'c:/marmalade/7.2/modules/third_party/libjpeg/h'
p3796
aS'c:/marmalade/7.2/modules/third_party/zlib/h'
p3797
aS'c:/marmalade/7.2/modules/third_party/libpng/h'
p3798
aS'c:/marmalade/7.2/extensions/s3efacebook/h'
p3799
aS'c:/marmalade/7.2/modules/iw2d/h'
p3800
aS'c:/marmalade/7.2/modules/iwgx/h'
p3801
aS'c:/marmalade/7.2/modules/iwgl/h'
p3802
aS'c:/marmalade/7.2/modules/iwgeom/h'
p3803
aS'c:/marmalade/7.2/modules/iwresmanager/h'
p3804
aS'c:/marmalade/7.2/modules/iwgxfont/h'
p3805
aS'c:/marmalade/7.2/modules/third_party/tiniconv/source'
p3806
aS'c:/marmalade/7.2/modules/iw2dscenegraph/h'
p3807
aS'c:/marmalade/7.2/modules/iw2dscenegraphcore/h'
p3808
aS'c:/marmalade/7.2/modules/iwtween/h'
p3809
aS'c:/users/vinicius/desktop/yes or no/stars/modules/soundengine/h'
p3810
aS'c:/users/vinicius/desktop/yes or no/stars/modules/soundengine/source'
p3811
aS'c:/marmalade/7.2/extensions/s3eflurry/h'
p3812
aS'c:/marmalade/7.2/s3e/h'
p3813
aS'c:/marmalade/7.2/s3e/h/ext'
p3814
aS'c:/marmalade/7.2/s3e/h/std'
p3815
aS'c:/marmalade/7.2/s3e/h/std/c++'
p3816
aS'c:/marmalade/7.2/s3e/h/ext_legacy'
p3817
aS'c:/marmalade/7.2/s3e/h/legacy'
p3818
asS'weak_frameworks'
p3819
(lp3820
sS'extprojects'
p3821
(dp3822
sg605
(dp3823
g599
(lp3824
(S'c:/Users/Vinicius/Desktop/Yes or No/Stars/data/audio'
p3825
S'audio'
p3826
I0
tp3827
a(S'c:/Users/Vinicius/Desktop/Yes or No/Stars/data/textures'
p3828
S'textures'
p3829
I0
tp3830
a(S'c:/Users/Vinicius/Desktop/Yes or No/Stars/data-ram/data-gles1,c:/Users/Vinicius/Desktop/Yes or No/Stars/data'
p3831
S'.'
p3832
I0
tp3833
a(S'c:/marmalade/7.2/extensions/s3ewebview/s3eWebView.js'
p3834
S's3eWebView.js'
p3835
I0
tp3836
a(S'c:/marmalade/7.2/extensions/s3efacebook/source/iphone/facebook-ios-sdk/FacebookSDK.framework/Versions/A/Resources/FacebookSDKResources.bundle/FBDialog/images/fbicon.png'
p3837
S'FacebookSDKResources.bundle/FBDialog/images/fbicon.png'
p3838
I0
tp3839
a(S'c:/marmalade/7.2/extensions/s3efacebook/source/iphone/facebook-ios-sdk/FacebookSDK.framework/Versions/A/Resources/FacebookSDKResources.bundle/FBDialog/images/close.png'
p3840
S'FacebookSDKResources.bundle/FBDialog/images/close.png'
p3841
I0
tp3842
a(S'c:/marmalade/7.2/extensions/s3efacebook/source/iphone/facebook-ios-sdk/FacebookSDK.framework/Versions/A/Resources/FacebookSDKResources.bundle/FBDialog/images/close@2x.png'
p3843
S'FacebookSDKResources.bundle/FBDialog/images/close@2x.png'
p3844
I0
tp3845
a(S'c:/marmalade/7.2/extensions/s3efacebook/facebook-winclient-sdk-master/Source/Facebook.Client-WindowsStore/FacebookDialogPage.xaml'
p3846
S'FacebookDialogPage.xaml'
p3847
I0
tp3848
asS'WebView32Assets'
p3849
(lp3850
(S'c:/marmalade/7.2/extensions/s3ewebview/lib/win32/locales'
p3851
S'locales'
p3852
I0
tp3853
a(S'c:/marmalade/7.2/extensions/s3ewebview/lib/win32/avcodec-53.dll'
p3854
S'avcodec-53.dll'
p3855
I0
tp3856
a(S'c:/marmalade/7.2/extensions/s3ewebview/lib/win32/avformat-53.dll'
p3857
S'avformat-53.dll'
p3858
I0
tp3859
a(S'c:/marmalade/7.2/extensions/s3ewebview/lib/win32/avutil-51.dll'
p3860
S'avutil-51.dll'
p3861
I0
tp3862
a(S'c:/marmalade/7.2/extensions/s3ewebview/lib/win32/chrome.pak'
p3863
S'chrome.pak'
p3864
I0
tp3865
a(S'c:/marmalade/7.2/extensions/s3ewebview/lib/win32/d3dcompiler_43.dll'
p3866
S'd3dcompiler_43.dll'
p3867
I0
tp3868
a(S'c:/marmalade/7.2/extensions/s3ewebview/lib/win32/d3dx9_43.dll'
p3869
S'd3dx9_43.dll'
p3870
I0
tp3871
a(S'c:/marmalade/7.2/extensions/s3ewebview/lib/win32/icudt.dll'
p3872
S'icudt.dll'
p3873
I0
tp3874
a(S'c:/marmalade/7.2/extensions/s3ewebview/lib/win32/libcef.dll'
p3875
S'libcef.dll'
p3876
I0
tp3877
a(S'c:/marmalade/7.2/extensions/s3ewebview/lib/win32/libEGL.dll'
p3878
S'libEGL.dll'
p3879
I0
tp3880
a(S'c:/marmalade/7.2/extensions/s3ewebview/lib/win32/libGLESv2.dll'
p3881
S'libGLESv2.dll'
p3882
I0
tp3883
assS'macro_types'
p3884
(dp3885
g528
I0
sg530
I0
sg531
I0
sg532
I0
sg534
I1
sg535
I0
sg536
I0
sg537
I0
sg538
I0
sg539
I0
sg540
I0
sg541
I0
sg543
I0
sg544
I0
sg545
I0
sg546
I0
sg547
I0
sg549
I0
sg550
I0
sg551
I0
sg552
I0
sg553
I0
sg554
I0
sg555
I0
sg556
I0
sg557
I1
sg558
I0
sg559
I0
sg560
I0
sg561
I0
sg562
I0
sg563
I0
sg564
I0
sg565
I01
sg566
I1
sg567
I0
sg568
I0
sg569
I0
sg570
I0
sg571
I0
sg572
I0
sg573
I0
sg574
I0
ssS'commands'
p3886
(lp3887
sg607
(g1028
S'VC12X'
p3888
S'X86ARM'
p3889
tp3890
sS'build_libs'
p3891
(dp3892
sg609
g0
sS'frameworks'
p3893
(lp3894
sS'environ'
p3895
(dp3896
sS'target_name_debug'
p3897
g310
sS'builders'
p3898
(dp3899
g599
(dp3900
S'.S'
p3901
(dp3902
S'rvct'
p3903
(lp3904
S'.obj'
p3905
aS'echo ARM Assembling(RVCT) ${SOURCE}...'
p3906
aS'c:/marmalade/7.2/s3e\\rvct\\bin\\armasm -o ${TARGET} ${SOURCE}'
p3907
asS'gcc'
p3908
(lp3909
g3905
aS'echo ARM Assembling(GCC) ${SOURCE}...'
p3910
aS'c:/marmalade/7.2/s3e\\gcc\\bin\\arm-none-eabi-gcc -c -o ${TARGET} ${SOURCE}'
p3911
asS'ppu'
p3912
(lp3913
S'.a'
p3914
aS'echo PPU Assembling(SNC) ${SOURCE}...'
p3915
aS'c:/marmalade/7.2/s3e\\rvct\\bin\\armasm -o ${TARGET} ${SOURCE}'
p3916
assS'.s'
p3917
g3902
sS'.vp'
p3918
(lp3919
NaS'"C:/Marmalade/7.2/s3e/python/python.exe" "c:/marmalade/7.2/modules/iwgx/tools/compile_shaders.py" ${SOURCE}'
p3920
asssS'extproject_names'
p3921
(lp3922
sbtp3923
.