((dp0
S'arm_dbg_args'
p1
S'-via:"c:\\Users\\Vinicius\\Desktop\\Yes or No\\Stars\\build_stars_vc12x\\Stars_vc12x_arm_debug.via" -qemu'
p2
sS'game-icf'
p3
S''
p4
sS'dist'
p5
NsS'csproj'
p6
g4
sS'module_path_append'
p7
NsS'global_path'
p8
S'c:\\users\\vinicius\\desktop\\yes or no'
p9
sS'system_path'
p10
S'c:\\marmalade\\7.2\\s3e\\makefile_builder'
p11
sS'android_x86_dbg_args'
p12
S'../../tools/DeployTool/DeployTool.exe --dir "c:\\Users\\Vinicius\\Desktop\\Yes or No\\Stars\\build_stars_vc12x"'
p13
sS'use_prebuilt'
p14
NsS'arm_rel_rtsm_args'
p15
S'-via:"c:\\Users\\Vinicius\\Desktop\\Yes or No\\Stars\\build_stars_vc12x\\Stars_vc12x_arm_release.via" -qemu'
p16
sS'amd64'
p17
NsS'line-width'
p18
I80
sS'gcc_dbg_args'
p19
S'-via:"c:\\Users\\Vinicius\\Desktop\\Yes or No\\Stars\\build_stars_vc12x\\Stars_vc12x_gcc_debug.via" -qemu'
p20
sS'android-x86'
p21
NsS'x86_dbg_exe'
p22
S'c:/marmalade/7.2/s3e\\win32\\s3e_simulator_debug.exe'
p23
sS'disable-runtime-checks'
p24
NsS'release'
p25
NsS'no-make'
p26
NsS'optimise-size'
p27
NsS'output-name-debug'
p28
g4
sS'arm-fpu'
p29
S'vfp'
p30
sS'proj_name'
p31
S'Stars_vc12x'
p32
sS'rvct-version'
p33
S'none'
p34
sS'compiler'
p35
g4
sS'execute'
p36
I01
sS'compile-static'
p37
NsS'msvc-project'
p38
NsS'buildenv'
p39
S'VC12X'
p40
sS'quick'
p41
NsS'module_path'
p42
(lp43
S'c:/Users/Vinicius/Desktop/Yes or No/Stars/modules'
p44
asS'use-release-std-libs'
p45
NsS'using_perforce'
p46
I00
sS'tizen-x86'
p47
NsS'mips-s3e'
p48
NsS'ios-no-pic'
p49
NsS'shared-arm-lib'
p50
NsS'arm-cpu'
p51
g4
sS'compile-thumb'
p52
NsS'no-ide'
p53
I01
sS'msvc-version'
p54
S'6.0'
p55
sS'arm'
p56
NsS'builddir'
p57
g4
sS'compile-debug-as-release'
p58
I0
sS'brief'
p59
NsS'dll'
p60
NsS'buildenv-toolset'
p61
g4
sS'version'
p62
NsS'ccache'
p63
I0
sS'offline'
p64
NsS'ios-version'
p65
g4
sS'hub_data'
p66
g4
sS'fake_vc_call'
p67
NsS'jobs'
p68
I0
sS'linkflags'
p69
NsS'tizen-x86-toolsroot'
p70
S'c:/marmalade/7.2/s3e\\..\\tools\\gcc\\x86\\tizen_windows'
p71
sS'debug'
p72
I01
sS'xcode-build-order'
p73
g4
sS'gcc_rel_rtsm_args'
p74
S'-via:"c:\\Users\\Vinicius\\Desktop\\Yes or No\\Stars\\build_stars_vc12x\\Stars_vc12x_gcc_release.via" -qemu'
p75
sS'done_defaults'
p76
I1
sS'path'
p77
NsS's3e-data-dir'
p78
S'c:/Users/Vinicius/Desktop/Yes or No/Stars\\data'
p79
sS'enable-exceptions'
p80
NsS'osx-dll'
p81
NsS'extension'
p82
g4
sS'no-vc6'
p83
NsS'non-interactive'
p84
NsS'win32-console'
p85
NsS'dist-format'
p86
g4
sS's3e-force-arch'
p87
NsS'dump_defines'
p88
NsS'verbose'
p89
I0
sS'gcc-version'
p90
g4
sS'x86_dbg_args'
p91
S'-via:"c:\\Users\\Vinicius\\Desktop\\Yes or No\\Stars\\build_stars_vc12x\\Stars_vc12x_debug.via"'
p92
sS'tizen_x86_dbg_args'
p93
g13
sS'arm-debugger'
p94
g4
sS'use_temp_extension'
p95
NsS'log'
p96
NsS'no-strip'
p97
NsS'rebuild'
p98
NsS'win32-simulator-dll'
p99
NsS'strict'
p100
NsS'mips_dbg_args'
p101
g13
sS'enable-global-path'
p102
NsS'cflags'
p103
NsS'dist-dir'
p104
g4
sS'jflags'
p105
NsS'csprojSDKRefs'
p106
g4
sS'tizen_x86_rel_exe'
p107
S'c:\\marmalade\\7.2\\s3e\\makefile_builder\\tool_launcher.exe'
p108
sS'test-assets'
p109
g4
sS'distcc'
p110
NsS'external-compiler'
p111
NsS'no-distcc'
p112
NsS'preinclude'
p113
NsS'using_sdk'
p114
I01
sS'nologo'
p115
NsS'warn-level'
p116
I2
sS'mips_dbg_exe'
p117
g108
sS'mkb_in'
p118
S'c:/Users/Vinicius/Desktop/Yes or No/Stars/Stars.mkb'
p119
sS'tizen_x86_dbg_exe'
p120
g108
sS'arm_dbg_exe'
p121
S'c:/marmalade/7.2/s3e\\bin\\armdebug.exe'
p122
sS'csprojDLLRef'
p123
NsS'tizen_x86_rel_args'
p124
g13
sS'android_x86_dbg_exe'
p125
g108
sS'test-config'
p126
g4
sS'list-targets'
p127
NsS'arm_rel_exe'
p128
g108
sS'arm_rel_args'
p129
g13
sS'makedeps'
p130
NsS'android_x86_rel_exe'
p131
g108
sS'default-buildenv'
p132
S'VC12X'
p133
sS'x86_rel_exe'
p134
g23
sS'preprocess-java'
p135
NsS'mips_rel_args'
p136
g13
sS'defines'
p137
NsS'lib'
p138
NsS'global_argv'
p139
(lp140
S'C:\\Marmalade\\7.2\\s3e\\makefile_builder\\mkb.py'
p141
aS'C:/Users/Vinicius/Desktop/Yes or No/Stars/Stars.mkb'
p142
aS'--buildenv=VC12X'
p143
aS'--debug'
p144
aS'--x86'
p145
aS'--no-ide'
p146
aS'--execute'
p147
asS'make'
p148
NsS'optimise-speed'
p149
NsS'internal'
p150
NsS'enable-stdinc'
p151
NsS'deploy-only'
p152
NsS'x86'
p153
I01
sS'deploy'
p154
g4
sS'x86_run_exe'
p155
S'c:/marmalade/7.2/s3e\\win32\\s3e_console.exe'
p156
sS'x86_rel_args'
p157
S'-via:"c:\\Users\\Vinicius\\Desktop\\Yes or No\\Stars\\build_stars_vc12x\\Stars_vc12x_release.via"'
p158
sS'gcc_rel_args'
p159
g13
sS'mips'
p160
NsS'xcode-build-settings'
p161
g4
sS'incredibuild'
p162
NsS'strict-compile'
p163
NsS'use-auto-subdirs'
p164
NsS'mips_rel_exe'
p165
g108
sS'android_x86_rel_args'
p166
g13
sS'app-icf'
p167
g4
sS'deployargs'
p168
NsS'iosnativedebug'
p169
NsS'mkf_in'
p170
(lp171
S'c:\\marmalade\\7.2\\extensions\\s3ewebview\\s3ewebview.mkf'
p172
aS'c:\\marmalade\\7.2\\modules\\iwutil\\iwutil.mkf'
p173
aS'c:\\marmalade\\7.2\\modules\\third_party\\libjpeg\\libjpeg.mkf'
p174
aS'c:\\marmalade\\7.2\\modules\\third_party\\libpng\\libpng.mkf'
p175
aS'c:\\marmalade\\7.2\\modules\\third_party\\zlib\\zlib.mkf'
p176
aS'c:\\marmalade\\7.2\\extensions\\s3efacebook\\s3efacebook.mkf'
p177
aS'c:\\marmalade\\7.2\\modules\\iw2d\\iw2d.mkf'
p178
aS'c:\\marmalade\\7.2\\modules\\iwgx\\iwgx.mkf'
p179
aS'c:\\marmalade\\7.2\\modules\\iwgl\\iwgl.mkf'
p180
aS'c:\\marmalade\\7.2\\modules\\iwgeom\\iwgeom.mkf'
p181
aS'c:\\marmalade\\7.2\\modules\\iwresmanager\\iwresmanager.mkf'
p182
aS'c:\\marmalade\\7.2\\modules\\iwgxfont\\iwgxfont.mkf'
p183
aS'c:\\marmalade\\7.2\\modules\\third_party\\tiniconv\\tiniconv.mkf'
p184
aS'c:\\marmalade\\7.2\\modules\\iw2dscenegraph\\iw2dscenegraph.mkf'
p185
aS'c:\\marmalade\\7.2\\modules\\iw2dscenegraphcore\\iw2dscenegraphcore.mkf'
p186
aS'c:\\marmalade\\7.2\\modules\\iwtween\\iwtween.mkf'
p187
aS'c:\\users\\vinicius\\desktop\\yes or no\\stars\\modules\\soundengine\\soundengine.mkf'
p188
aS'c:\\marmalade\\7.2\\extensions\\s3eflurry\\s3eflurry.mkf'
p189
asS'strict-mkb'
p190
NsS'executeargs'
p191
NsS'clean'
p192
NsS'no-asm'
p193
NsS'output-name'
p194
g4
sS'no-modules'
p195
NsS'find_define'
p196
g4
s(dp197
S'c:\\marmalade\\7.2\\s3e\\makefile_builder\\templates\\ws8_sln.pyc'
p198
F1396656910.0
sS'c:\\marmalade\\7.2\\s3e\\makefile_builder\\plugins\\java.pyc'
p199
F1396656908.0
sS'c:\\marmalade\\7.2\\s3e\\makefile_builder\\plugins\\S3EEmitter.pyc'
p200
F1396656908.0
sS'c:\\marmalade\\7.2\\s3e\\makefile_builder\\templates\\win32_vcxproj_filters.pyc'
p201
F1396656910.0
sS'c:\\marmalade\\7.2\\s3e\\makefile_builder\\plugins\\xcode4_schememanagement.py'
p202
F1396655700.0
sS'c:\\marmalade\\7.2\\s3e\\makefile_builder\\plugins\\linux_scons.pyc'
p203
F1396656910.0
sS'c:\\marmalade\\7.2\\s3e\\makefile_builder\\templates\\wp8_sln.pyc'
p204
F1396656910.0
sS'c:\\marmalade\\7.2\\s3e\\makefile_builder\\templates\\ws8_ext_sln.pyc'
p205
F1396656910.0
sS'c:\\marmalade\\7.2\\s3e\\makefile_builder\\templates\\MainWindow.xib'
p206
F1396655700.0
sS'c:\\marmalade\\7.2\\s3e\\makefile_builder\\templates\\ws81_ext_sln.pyc'
p207
F1396656910.0
sS'c:\\marmalade\\7.2\\s3e\\makefile_builder\\plugins\\Win8Emitter.pyc'
p208
F1396656910.0
sS'c:\\marmalade\\7.2\\s3e\\makefile_builder\\templates\\win8_ext_csproj.pyc'
p209
F1396656910.0
sS'c:\\marmalade\\7.2\\s3e\\makefile_builder\\templates\\rvct_linker_script'
p210
F1396655702.0
sS'c:\\marmalade\\7.2\\s3e\\makefile_builder\\templates\\win8_sln.pyc'
p211
F1396656910.0
sS'c:\\marmalade\\7.2\\s3e\\makefile_builder\\templates\\ws8_ext_csproj.pyc'
p212
F1396656910.0
sS'c:\\marmalade\\7.2\\s3e\\makefile_builder\\plugins\\s3e_make.pyc'
p213
F1396656908.0
sS'c:\\marmalade\\7.2\\s3e\\makefile_builder\\templates\\wp8_csproj_user.pyc'
p214
F1396656910.0
sS'c:\\marmalade\\7.2\\s3e\\makefile_builder\\plugins\\s3e_scons.pyc'
p215
F1396656908.0
sS'c:\\marmalade\\7.2\\s3e\\makefile_builder\\plugins\\s3e_qmake.py'
p216
F1396655700.0
sS'c:\\marmalade\\7.2\\s3e\\makefile_builder\\docs\\deprecated.options.txt'
p217
F1396655698.0
sS'c:\\marmalade\\7.2\\s3e\\makefile_builder\\plugins\\ws8_ws8.pyc'
p218
F1396656910.0
sS'c:\\marmalade\\7.2\\s3e\\makefile_builder\\templates\\ws81_sln.pyc'
p219
F1396656910.0
sS'c:\\marmalade\\7.2\\s3e\\makefile_builder\\templates\\ws81_ext_csproj.pyc'
p220
F1396656910.0
sS'c:\\marmalade\\7.2\\s3e\\makefile_builder\\templates\\wp8_vcxproj.pyc'
p221
F1396656910.0
sS'c:\\marmalade\\7.2\\s3e\\makefile_builder\\templates\\vc6_opt.pyc'
p222
F1396656910.0
sS'c:\\marmalade\\7.2\\s3e\\makefile_builder\\plugins\\deploy.pyc'
p223
F1396656908.0
sS'c:\\marmalade\\7.2\\s3e\\makefile_builder\\templates\\scons.pyc'
p224
F1396656910.0
sS'c:\\marmalade\\7.2\\s3e\\makefile_builder\\templates\\win32_vcproj.pyc'
p225
F1396656910.0
sS'c:\\marmalade\\7.2\\s3e\\makefile_builder\\templates\\win8_csproj.pyc'
p226
F1396656910.0
sS'c:\\marmalade\\7.2\\s3e\\makefile_builder\\extensions\\make_dist.py'
p227
F1396655698.0
sS'c:\\marmalade\\7.2\\s3e\\makefile_builder\\templates\\gdb_start.txt'
p228
F1396655702.0
sS'c:\\marmalade\\7.2\\s3e\\makefile_builder\\templates\\vc8_user.pyc'
p229
F1396656910.0
sS'c:\\marmalade\\7.2\\s3e\\makefile_builder\\plugins\\s3e_win8.pyc'
p230
F1396656910.0
sS'c:\\marmalade\\7.2\\s3e\\makefile_builder\\templates\\win32_sln.pyc'
p231
F1396656910.0
sS'c:\\marmalade\\7.2\\s3e\\makefile_builder\\docs\\options.txt'
p232
F1396655698.0
sS'c:\\marmalade\\7.2\\s3e\\makefile_builder\\mkb.py'
p233
F1396655698.0
sS'c:\\marmalade\\7.2\\s3e\\makefile_builder\\templates\\Info.plist'
p234
F1396655700.0
sS'c:\\marmalade\\7.2\\s3e\\makefile_builder\\docs\\parse_options.pyc'
p235
F1396656912.0
sS'c:\\marmalade\\7.2\\s3e\\makefile_builder\\templates\\ws8_csproj.pyc'
p236
F1396656910.0
sS'c:\\marmalade\\7.2\\s3e\\makefile_builder\\templates\\ws81_csproj.pyc'
p237
F1396656910.0
sS'c:\\marmalade\\7.2\\s3e\\makefile_builder\\plugins\\osx_xcode.pyc'
p238
F1396656910.0
sS'c:\\marmalade\\7.2\\s3e\\makefile_builder\\plugins\\s3e_xcode.pyc'
p239
F1397674110.1375155
sS'c:\\marmalade\\7.2\\s3e\\makefile_builder\\plugins\\xcode4_schememanagement.pyc'
p240
F1397674109.1068296
sS'c:\\marmalade\\7.2\\s3e\\makefile_builder\\templates\\xcode4.xcscheme'
p241
F1396655704.0
sS'c:\\marmalade\\7.2\\s3e\\makefile_builder\\plugins\\Emitter.pyc'
p242
F1396656908.0
sS'c:\\marmalade\\7.2\\s3e\\makefile_builder\\templates\\mips_linker_script'
p243
F1396655702.0
sS'c:\\marmalade\\7.2\\s3e\\makefile_builder\\templates\\ws8_vcxproj.pyc'
p244
F1396656910.0
sS'c:\\marmalade\\7.2\\s3e\\makefile_builder\\plugins\\win32_vc6.pyc'
p245
F1396656910.0
sS'c:\\marmalade\\7.2\\s3e\\makefile_builder\\mkb_parser.pyc'
p246
F1396656908.0
sS'c:\\marmalade\\7.2\\s3e\\makefile_builder\\templates\\ws81_csproj_user.pyc'
p247
F1396656910.0
sS'c:\\marmalade\\7.2\\s3e\\makefile_builder\\templates\\linker_script'
p248
F1396655702.0
sS'c:\\marmalade\\7.2\\s3e\\makefile_builder\\docs\\deprecated.defines.txt'
p249
F1396655698.0
sS'c:\\marmalade\\7.2\\s3e\\makefile_builder\\templates\\template.suo'
p250
F1396655702.0
sS'c:\\marmalade\\7.2\\s3e\\makefile_builder\\templates\\make.py'
p251
F1396655702.0
sS'c:\\marmalade\\7.2\\s3e\\makefile_builder\\extensions'
p252
F1397673792.7230873
sS'c:\\marmalade\\7.2\\s3e\\makefile_builder\\templates\\win32_dsp.pyc'
p253
F1396656910.0
sS'c:\\marmalade\\7.2\\s3e\\makefile_builder\\templates\\wp8_ext_csproj.pyc'
p254
F1396656910.0
sS'c:\\marmalade\\7.2\\s3e\\makefile_builder\\plugins\\MakeEmitter.pyc'
p255
F1396656908.0
sS'c:\\marmalade\\7.2\\s3e\\makefile_builder\\plugins\\XcodeEmitter.pyc'
p256
F1397674109.0167696
sS'c:\\marmalade\\7.2\\s3e\\makefile_builder\\templates\\win32_dsw.pyc'
p257
F1396656910.0
sS'c:\\marmalade\\7.2\\s3e\\makefile_builder\\docs\\mkb.defines.txt'
p258
F1396655698.0
sS'c:\\marmalade\\7.2\\s3e\\makefile_builder\\docs\\deployment_options.txt'
p259
F1396655698.0
sS'c:\\marmalade\\7.2\\s3e\\makefile_builder\\plugins\\s3e_qmake.pyc'
p260
F1397674109.7792768
sS'c:\\marmalade\\7.2\\s3e\\makefile_builder\\plugins\\ws81_ws81.pyc'
p261
F1396656910.0
sS'c:\\marmalade\\7.2\\s3e\\makefile_builder\\templates\\win32_vcxproj.pyc'
p262
F1396656910.0
sS'c:\\marmalade\\7.2\\s3e\\makefile_builder\\docs'
p263
F1397673793.1573761
sS'c:\\marmalade\\7.2\\s3e\\makefile_builder\\plugins\\XcodeEmitter.py'
p264
F1396655698.0
sS'c:\\marmalade\\7.2\\s3e\\makefile_builder\\templates\\template.opt'
p265
F1396655702.0
sS'c:\\marmalade\\7.2\\s3e\\makefile_builder\\tool_launcher.exe'
p266
F1396656088.0
sS'c:\\marmalade\\7.2\\s3e\\makefile_builder\\templates\\xcode.py'
p267
F1396655702.0
sS'c:\\marmalade\\7.2\\s3e\\makefile_builder\\plugins\\VisualStudioEmitter.pyc'
p268
F1396656908.0
sS'c:\\marmalade\\7.2\\s3e\\makefile_builder\\plugins\\osx_scons.pyc'
p269
F1396656910.0
sS'c:\\marmalade\\7.2\\s3e\\makefile_builder\\templates'
p270
F1397673792.65204
sS'c:\\marmalade\\7.2\\s3e\\makefile_builder\\templates\\ws81_vcxproj.pyc'
p271
F1396656910.0
sS'c:\\marmalade\\7.2\\s3e\\makefile_builder\\templates\\win8_vcxproj.pyc'
p272
F1396656910.0
sS'c:\\marmalade\\7.2\\s3e\\makefile_builder\\plugins\\s3e_ws8.pyc'
p273
F1396656910.0
sS'c:\\marmalade\\7.2\\s3e\\makefile_builder\\templates\\wp8_csproj.pyc'
p274
F1396656910.0
sS'c:\\marmalade\\7.2\\s3e\\makefile_builder\\templates\\vc7_suo.pyc'
p275
F1396656910.0
sS'c:\\marmalade\\7.2\\s3e\\makefile_builder\\plugins\\SConsEmitter.pyc'
p276
F1396656908.0
sS'c:\\marmalade\\7.2\\s3e\\makefile_builder\\mkb_option.pyc'
p277
F1396656908.0
sS'c:\\marmalade\\7.2\\s3e\\makefile_builder\\templates\\ws8_csproj_user.pyc'
p278
F1396656910.0
sS'c:\\marmalade\\7.2\\s3e\\makefile_builder\\mkb_main.pyc'
p279
F1396656908.0
sS'c:\\marmalade\\7.2\\s3e\\makefile_builder\\plugins'
p280
F1397674110.1315114
sS'c:\\marmalade\\7.2\\s3e\\makefile_builder\\plugins\\s3e_web.pyc'
p281
F1396656908.0
sS'c:\\marmalade\\7.2\\s3e\\makefile_builder\\plugins\\s3e_ws81.pyc'
p282
F1396656910.0
sS'c:\\marmalade\\7.2\\s3e\\makefile_builder\\mkb_globals.pyc'
p283
F1396656908.0
sS'c:\\marmalade\\7.2\\s3e\\makefile_builder\\plugins\\iphone.pyc'
p284
F1396656910.0
sS'c:\\marmalade\\7.2\\s3e\\makefile_builder\\mkb_launcher.exe'
p285
F1396656088.0
sS'c:\\marmalade\\7.2\\s3e\\makefile_builder\\plugins\\vc7_utils.pyc'
p286
F1396656908.0
sS'c:\\marmalade\\7.2\\s3e\\makefile_builder\\plugins\\s3e_wp8.pyc'
p287
F1396656910.0
sS'c:\\marmalade\\7.2\\s3e\\makefile_builder\\plugins\\vc6_utils.pyc'
p288
F1396656908.0
sS'c:\\marmalade\\7.2\\s3e\\makefile_builder\\deployment.pyc'
p289
F1396656908.0
sS'c:\\marmalade\\7.2\\s3e\\makefile_builder\\plugins\\s3e_vc6.pyc'
p290
F1396656908.0
sS'c:\\marmalade\\7.2\\s3e\\makefile_builder\\plugins\\null.pyc'
p291
F1396656908.0
sS'c:\\marmalade\\7.2\\s3e\\makefile_builder\\templates\\qmake.py'
p292
F1396655702.0
sS'c:\\marmalade\\7.2\\s3e\\makefile_builder\\templates\\xcode4_DeployTool.xcscheme'
p293
F1396655704.0
sS'c:\\marmalade\\7.2\\s3e\\makefile_builder\\templates\\win8_csproj_user.pyc'
p294
F1396656910.0
sS'c:\\marmalade\\7.2\\s3e\\makefile_builder\\plugins\\win8_utils.pyc'
p295
F1396656908.0
sS'c:\\marmalade\\7.2\\s3e\\makefile_builder\\mkb_util.pyc'
p296
F1396656908.0
sS'c:\\marmalade\\7.2\\s3e\\makefile_builder\\plugins\\wp8_wp8.pyc'
p297
F1396656910.0
sS'c:\\marmalade\\7.2\\s3e\\makefile_builder\\plugins\\s3e_xcode.py'
p298
F1396655700.0
sS'c:\\marmalade\\7.2\\s3e\\makefile_builder\\templates\\vc10_user.pyc'
p299
F1396656910.0
sS'c:\\marmalade\\7.2\\s3e\\makefile_builder\\templates\\qmake_user.py'
p300
F1396655702.0
sS'c:\\marmalade\\7.2\\s3e\\makefile_builder\\templates\\xcode_pbxuser.py'
p301
F1396655704.0
sccopy_reg
_reconstructor
p302
(cmkb_main
MkbFile
p303
c__builtin__
object
p304
Ntp305
Rp306
(dp307
g5
(lp308
sS'target_name'
p309
S'Stars'
p310
sS'current_file'
p311
g119
sS'package_path'
p312
(lp313
sS'post_build'
p314
(lp315
(lp316
S'c:/marmalade/7.2/s3e/tools'
p317
aS'C:\\Marmalade\\7.2\\s3e\\python\\python.exe .\\process_map.py "$(TargetPath)"'
p318
aa(S'c:\\marmalade\\7.2\\s3e\\bin'
p319
S'"s3e_plink" -l "$(TargetPath)" '
p320
g153
tp321
asS'librarys'
p322
(lp323
g302
(cmkb_main
Library
p324
g304
Ntp325
Rp326
(dp327
S'name'
p328
S'vc6_compat.lib'
p329
sS'expand_name'
p330
I00
sS'include_spec_rvct_objs'
p331
(lp332
sS'include_all_objs'
p333
I00
sS'share_arm'
p334
I00
sS'arch'
p335
S'x86'
p336
sS'nodebug'
p337
I00
sg35
Nsbag302
(g324
g304
Ntp338
Rp339
(dp340
g328
S'iwutil'
p341
sg330
I01
sg331
(lp342
sg333
Nsg334
Nsg335
Nsg337
I00
sg35
Nsbag302
(g324
g304
Ntp343
Rp344
(dp345
g328
S'jpeg'
p346
sg330
I01
sg331
g342
sg333
Nsg334
Nsg335
Nsg337
I00
sg35
Nsbag302
(g324
g304
Ntp347
Rp348
(dp349
g328
S'z'
p350
sg330
I01
sg331
g342
sg333
Nsg334
Nsg335
Nsg337
I00
sg35
Nsbag302
(g324
g304
Ntp351
Rp352
(dp353
g328
S'png'
p354
sg330
I01
sg331
g342
sg333
Nsg334
Nsg335
Nsg337
I00
sg35
Nsbag302
(g324
g304
Ntp355
Rp356
(dp357
g328
S'iw2d'
p358
sg330
I01
sg331
g342
sg333
Nsg334
Nsg335
Nsg337
I00
sg35
Nsbag302
(g324
g304
Ntp359
Rp360
(dp361
g328
S'ATI_Compress_MT_VC7.lib'
p362
sg330
I00
sg331
g342
sg333
Nsg334
Nsg335
S'x86'
p363
sg337
I00
sg35
Nsbag302
(g324
g304
Ntp364
Rp365
(dp366
g328
S'iwgx'
p367
sg330
I01
sg331
g342
sg333
Nsg334
Nsg335
Nsg337
I00
sg35
Nsbag302
(g324
g304
Ntp368
Rp369
(dp370
g328
S'iwgl'
p371
sg330
I01
sg331
g342
sg333
Nsg334
Nsg335
Nsg337
I00
sg35
Nsbag302
(g324
g304
Ntp372
Rp373
(dp374
g328
S'iwgeom'
p375
sg330
I01
sg331
g342
sg333
Nsg334
Nsg335
Nsg337
I00
sg35
Nsbag302
(g324
g304
Ntp376
Rp377
(dp378
g328
S'iwresmanager'
p379
sg330
I01
sg331
g342
sg333
Nsg334
Nsg335
Nsg337
I00
sg35
Nsbag302
(g324
g304
Ntp380
Rp381
(dp382
g328
S'iwgxfont'
p383
sg330
I01
sg331
g342
sg333
Nsg334
Nsg335
Nsg337
I00
sg35
Nsbag302
(g324
g304
Ntp384
Rp385
(dp386
g328
S'tiniconv'
p387
sg330
I01
sg331
g342
sg333
Nsg334
Nsg335
Nsg337
I00
sg35
Nsbag302
(g324
g304
Ntp388
Rp389
(dp390
g328
S's3e_cpp'
p391
sg330
I01
sg331
g332
sg333
I00
sg334
I00
sg335
Nsg337
I00
sg35
Nsbag302
(g324
g304
Ntp392
Rp393
(dp394
g328
S's3e'
p395
sg330
I01
sg331
(lp396
S'iwcrt.o'
p397
asg333
I00
sg334
I00
sg335
Nsg337
I00
sg35
Nsbag302
(g324
g304
Ntp398
Rp399
(dp400
g328
S's3e_api'
p401
sg330
I01
sg331
g332
sg333
I00
sg334
I00
sg335
S'x86'
p402
sg337
I01
sg35
Nsbag302
(g324
g304
Ntp403
Rp404
(dp405
g328
S's3e_api'
p406
sg330
I01
sg331
g332
sg333
I00
sg334
I00
sg335
S'!x86'
p407
sg337
I01
sg35
Nsbag302
(g324
g304
Ntp408
Rp409
(dp410
g328
S'stdc++'
p411
sg330
I00
sg331
g332
sg333
I00
sg334
I00
sg335
S'mips'
p412
sg337
I00
sg35
Nsbag302
(g324
g304
Ntp413
Rp414
(dp415
g328
S'c'
p416
sg330
I00
sg331
g332
sg333
I00
sg334
I00
sg335
S'mips'
p417
sg337
I00
sg35
Nsbag302
(g324
g304
Ntp418
Rp419
(dp420
g328
S'm'
p421
sg330
I00
sg331
g332
sg333
I00
sg334
I00
sg335
S'mips'
p422
sg337
I00
sg35
Nsbag302
(g324
g304
Ntp423
Rp424
(dp425
g328
S'gcc'
p426
sg330
I00
sg331
g332
sg333
I00
sg334
I00
sg335
S'mips'
p427
sg337
I00
sg35
Nsbag302
(g324
g304
Ntp428
Rp429
(dp430
g328
S'stdc++'
p431
sg330
I00
sg331
g332
sg333
I00
sg334
I00
sg335
S'gcc_x86_tizen'
p432
sg337
I00
sg35
Nsbag302
(g324
g304
Ntp433
Rp434
(dp435
g328
g416
sg330
I00
sg331
g332
sg333
I00
sg334
I00
sg335
S'gcc_x86_tizen'
p436
sg337
I00
sg35
Nsbag302
(g324
g304
Ntp437
Rp438
(dp439
g328
g421
sg330
I00
sg331
g332
sg333
I00
sg334
I00
sg335
S'gcc_x86_tizen'
p440
sg337
I00
sg35
Nsbag302
(g324
g304
Ntp441
Rp442
(dp443
g328
S'gcc'
p444
sg330
I00
sg331
g332
sg333
I00
sg334
I00
sg335
S'gcc_x86_tizen'
p445
sg337
I00
sg35
Nsbag302
(g324
g304
Ntp446
Rp447
(dp448
g328
S'gcc_eh'
p449
sg330
I00
sg331
g332
sg333
I00
sg334
I00
sg335
S'gcc_x86_tizen'
p450
sg337
I00
sg35
Nsbag302
(g324
g304
Ntp451
Rp452
(dp453
g328
S'stdc++'
p454
sg330
I00
sg331
g332
sg333
I00
sg334
I00
sg335
S'gcc_x86_android'
p455
sg337
I00
sg35
Nsbag302
(g324
g304
Ntp456
Rp457
(dp458
g328
g416
sg330
I00
sg331
g332
sg333
I00
sg334
I00
sg335
S'gcc_x86_android'
p459
sg337
I00
sg35
Nsbag302
(g324
g304
Ntp460
Rp461
(dp462
g328
g421
sg330
I00
sg331
g332
sg333
I00
sg334
I00
sg335
S'gcc_x86_android'
p463
sg337
I00
sg35
Nsbag302
(g324
g304
Ntp464
Rp465
(dp466
g328
S'gcc'
p467
sg330
I00
sg331
g332
sg333
I00
sg334
I00
sg335
S'gcc_x86_android'
p468
sg337
I00
sg35
NsbasS'library_paths'
p469
(lp470
g302
(cmkb_main
LibraryPath
p471
g304
Ntp472
Rp473
(dp474
S'expand_path'
p475
I01
sS'add_cpu_variant'
p476
I00
sg328
S'c:/marmalade/7.2/modules/iwutil'
p477
sbag302
(g471
g304
Ntp478
Rp479
(dp480
g475
I01
sg476
I00
sg328
S'c:/marmalade/7.2/modules/third_party/libjpeg'
p481
sbag302
(g471
g304
Ntp482
Rp483
(dp484
g475
I01
sg476
I00
sg328
S'c:/marmalade/7.2/modules/third_party/zlib'
p485
sbag302
(g471
g304
Ntp486
Rp487
(dp488
g475
I01
sg476
I00
sg328
S'c:/marmalade/7.2/modules/third_party/libpng'
p489
sbag302
(g471
g304
Ntp490
Rp491
(dp492
g475
I01
sg476
I00
sg328
S'c:/marmalade/7.2/modules/iw2d'
p493
sbag302
(g471
g304
Ntp494
Rp495
(dp496
g475
I00
sg476
I00
sg328
S'c:/marmalade/7.2/modules/iwgx/atitools'
p497
sbag302
(g471
g304
Ntp498
Rp499
(dp500
g475
I01
sg476
I00
sg328
S'c:/marmalade/7.2/modules/iwgx'
p501
sbag302
(g471
g304
Ntp502
Rp503
(dp504
g475
I01
sg476
I00
sg328
S'c:/marmalade/7.2/modules/iwgl'
p505
sbag302
(g471
g304
Ntp506
Rp507
(dp508
g475
I01
sg476
I00
sg328
S'c:/marmalade/7.2/modules/iwgeom'
p509
sbag302
(g471
g304
Ntp510
Rp511
(dp512
g475
I01
sg476
I00
sg328
S'c:/marmalade/7.2/modules/iwresmanager'
p513
sbag302
(g471
g304
Ntp514
Rp515
(dp516
g475
I01
sg476
I00
sg328
S'c:/marmalade/7.2/modules/iwgxfont'
p517
sbag302
(g471
g304
Ntp518
Rp519
(dp520
g475
I01
sg476
I00
sg328
S'c:/marmalade/7.2/modules/third_party/tiniconv'
p521
sbag302
(g471
g304
Ntp522
Rp523
(dp524
g475
I01
sg476
I00
sg328
S'c:/marmalade/7.2/s3e'
p525
sbasS'macros'
p526
(dp527
S'IW_TRACE_CHANNEL_WEBVIEW_VERBOSE'
p528
S'2'
p529
sS'IW_MKF_S3EFACEBOOK'
p530
NsS'I3D_PLATFORM_S3E'
p531
NsS'IW_TRACE_CHANNEL_FLURRY'
p532
S'1'
p533
sS'IW_USE_CALLSTACK'
p534
NsS'__S3E__'
p535
NsS'IW_TRACE_CHANNEL_WEBVIEW'
p536
g533
sS'IW_MKF_LIBJPEG'
p537
NsS'I3D_OS_S3E'
p538
NsS'IW_ASSERTION_CHANNEL_FLURRY'
p539
g533
sS'IW_MKF_TINICONV'
p540
NsS'IW_APP_VERSION'
p541
S'"1.0"'
p542
sS'IW_MKF_IWRESMANAGER'
p543
NsS'IW_MKF_IWUTIL'
p544
NsS'IW_PLATFORM_S3E'
p545
NsS'IW_ASSERTION_CHANNEL_2D'
p546
g533
sS'IW_APP_NAME'
p547
S'"Stars"'
p548
sS'IW_MKF_IWGXFONT'
p549
NsS'IW_MKF_IWTWEEN'
p550
NsS'IW_MKF_S3EFLURRY'
p551
NsS'IW_MKF_ZLIB'
p552
NsS'IW_MKF_IWGX'
p553
NsS'IW_MKF_IW2DSCENEGRAPH'
p554
NsS'IW_MKF_SOUNDENGINE'
p555
NsS'IW_ASSERTION_CHANNEL_WEBVIEW'
p556
g533
sS'IW_USE_ASSERTIONS'
p557
NsS'_CRT_SECURE_NO_DEPRECATE'
p558
NsS'IW_MKF_IWGL'
p559
NsS'IW_MKF_LIBPNG'
p560
NsS'IW_MKF_S3EWEBVIEW'
p561
NsS'IW_TRACE_CHANNEL_IW_2DSCENEGRAPH'
p562
g533
sS'IW_ASSERTION_CHANNEL_FACEBOOK'
p563
g533
sS'IW_TRACE_CHANNEL_FACEBOOK_VERBOSE'
p564
g529
sS'IW_DEBUG'
p565
NsS'IW_USE_TRACING'
p566
NsS'IW_ASSERTION_CHANNEL_IW_2DSCENEGRAPH'
p567
g533
sS'IW_SDK'
p568
NsS'S3E_INCLUDE_LEGACY'
p569
NsS'IW_MKF_IW2DSCENEGRAPHCORE'
p570
NsS'IW_TRACE_CHANNEL_FACEBOOK'
p571
g533
sS'IW_TRACE_CHANNEL_FLURRY_VERBOSE'
p572
g529
sS'IW_MKF_IW2D'
p573
NsS'IW_MKF_IWGEOM'
p574
NssS'done_warnings'
p575
(dp576
sS'subprojects'
p577
(dp578
g183
S'iwgxfont'
p579
sg177
S's3eFacebook'
p580
sg172
S's3eWebView'
p581
sg173
S'iwutil'
p582
sg179
S'iwgx'
p583
sg186
S'../iw2dscenegraphcore'
p584
sg174
S'libjpeg'
p585
sg175
S'libpng'
p586
sg180
S'iwgl'
p587
sg187
S'iwtween'
p588
sg185
S'iw2dscenegraph'
p589
sg178
S'iw2d'
p590
sg181
S'iwgeom'
p591
sg184
S'tiniconv'
p592
sg176
S'zlib'
p593
sg188
S'SoundEngine'
p594
sg182
S'iwresmanager'
p595
sg189
S's3eFlurry'
p596
ssS'deployments'
p597
(dp598
S'Default'
p599
g302
(cdeployment
Deployment
p600
g304
Ntp601
Rp602
(dp603
S'got_version'
p604
I0
sS'assets'
p605
g599
sS'mkb'
p606
g306
sS'target'
p607
Nsg335
(lp608
sS'options'
p609
(dp610
S'iphone-link-lib'
p611
(lp612
S's3eWebView'
p613
aS's3eFacebook'
p614
aS'FlurryAnalytics'
p615
aS's3eFlurry'
p616
asS'game-icf'
p617
NsS'winmobile-icon32'
p618
NsS'ws8-logo-image150x150'
p619
NsS'ws81-product-version'
p620
NsS'osx-ext-dll'
p621
(lp622
S'c:/marmalade/7.2/extensions/s3ewebview/lib/osx/libs3eWebView.dylib'
p623
aS'c:/marmalade/7.2/extensions/s3eflurry/lib/osx/libs3eFlurry.dylib'
p624
asS'iphone-provisioning-profile'
p625
NsS'ws8-splash-screen-image620x300'
p626
NsS'ws8-ext-capabilities'
p627
(lp628
sS'android-icon-hdpi'
p629
NsS'brew-icon-large'
p630
NsS'iphone-splash-full-orient'
p631
NsS'wp8-tile-fliptemplate-supports-large'
p632
NsS'iphone-show-status-bar'
p633
NsS'roku-requires-mkv'
p634
NsS'long-caption'
p635
NsS'android-pkgname'
p636
NsS'blackberry-permissions-read-device-identifying-information'
p637
NsS'ws81-certificate-end-date'
p638
NsS'psp-dlgcontentid'
p639
NsS'target-folder'
p640
NsS'tizen-dist1-CA-path'
p641
NsS'symbian-icon2-format'
p642
NsS'iphone-region'
p643
NsS'uiq3-icon3-mask'
p644
NsS'brew-encoding'
p645
NsS'android-x86'
p646
NsS'nds-initialcode'
p647
NsS'iphone-persistent-wifi'
p648
NsS'psp-snd0'
p649
NsS'osx-signing-identity-inst'
p650
NsS'winmobile-install-folder'
p651
NsS'android-external-res'
p652
(lp653
S'c:/marmalade/7.2/extensions/s3efacebook/facebook-android-sdk/facebook/res'
p654
asS'ws8-product-version'
p655
NsS'brew-priviledges'
p656
NsS'symbian-icon2-mask-black'
p657
NsS'iphone-icon-ipad'
p658
NsS'roku-hidden'
p659
NsS'psp-titlename'
p660
NsS'symbian-icon1-mask'
p661
NsS'psp-parentallevel'
p662
NsS'splashscreen-use-all'
p663
NsS'wp8-author'
p664
NsS'symbian-disable-ecompxl'
p665
NsS'splashscreen-auto-onblack'
p666
NsS'win32-ext-dll'
p667
(lp668
S'c:/marmalade/7.2/extensions/s3ewebview/lib/win32/s3eWebView.dll'
p669
aS'c:/marmalade/7.2/extensions/s3eflurry/lib/win32/s3eFlurry.dll'
p670
asS'iphone-development-key'
p671
NsS'winmobile-icon48'
p672
NsS'android-unsigned'
p673
NsS'osx-appstore-category'
p674
NsS'version-revision'
p675
NsS'roku-icon-focus-sd'
p676
NsS'android-keystore'
p677
NsS'winmobile-png90'
p678
NsS'iphone-icon-ipad-high-res'
p679
NsS'iphone-disable-ipad'
p680
NsS'wp8-product-id'
p681
NsS'wp8-ext-capabilities'
p682
(lp683
sS'iphone-ipad-only'
p684
NsS'symbian-icon1-mask-black'
p685
NsS'iphone-bundle-localisations'
p686
NsS'winmobile-png60'
p687
NsS'blackberry-permissions-access-shared'
p688
NsS'blackberry-author'
p689
NsS'android-icon-xxxhdpi'
p690
NsS'olddeploytoolstyle'
p691
NsS'android_icon_gallery'
p692
NsS'winmobile-cab-compress'
p693
NsS'ws81-ext-managed-dll'
p694
(lp695
sS'win32-icon'
p696
NsS'symbian-key'
p697
NsS'app-icf'
p698
NsS'blackberry-storepass'
p699
NsS'wp8-tile-fliptemplate-back-title'
p700
NsS'brew-compress-loader'
p701
NsS'win32-pref-windowposy'
p702
NsS'win32-pref-windowposx'
p703
NsS'roku-requires-audiometadata'
p704
NsS'wp8-exclude-low-mem'
p705
NsS'wp8-tile-fliptemplate-title'
p706
NsS'iphone-icon-ipad-search-high-res'
p707
NsS'iphone-link-libdir'
p708
(lp709
S'c:/marmalade/7.2/extensions/s3ewebview/lib/iphone'
p710
aS'c:/marmalade/7.2/extensions/s3efacebook/lib/iphone'
p711
aS'c:/marmalade/7.2/extensions/s3eflurry/lib/iphone'
p712
asS'blackberry-permissions-read-geolocation'
p713
NsS'winmobile-nouninstall'
p714
NsS'tizen-signed'
p715
NsS'android-extra-application-manifest'
p716
(lp717
S'c:/marmalade/7.2/extensions/s3efacebook/source/android/extra_app_manifest.xml'
p718
asS'ws8-ext-native-dll'
p719
(lp720
sS'symbian-icon2-mask'
p721
NsS'iphone-backgroundmode-audio'
p722
NsS'webos-memory'
p723
NsS'android-keypass'
p724
NsS'name'
p725
NsS'uiq3-icon2-format'
p726
NsS'roku-splash-screen-sd'
p727
NsS'auto-derbh'
p728
NsS'roku-icon-side-sd'
p729
NsS'symbian-maxheapsize'
p730
NsS'nds-publicsavedatasize'
p731
NsS'splashscreen'
p732
NsS'brew-mif'
p733
NsS'iphone-icon-settings-high-res'
p734
NsS'android-manifest'
p735
NsS'ws81-splash-screen-image620x300'
p736
NsS's3e-compression'
p737
NsS'tizen-author-password'
p738
NsS'wp8-tile-fliptemplate-back-content'
p739
NsS'symbian-icon1'
p740
NsS'symbian-icon2'
p741
NsS'android-extra-styles-file'
p742
NsS'nds-bannertitle-jp'
p743
NsS'osx-sign-for-store'
p744
NsS'symbian7-uid'
p745
NsS'wp8-tile-fliptemplate-large-back-content'
p746
NsS'nds-bannertitle-cn'
p747
NsS'iphone-distribution-key'
p748
NsS'android-icon-gallery'
p749
NsS'blackberry-keystore'
p750
NsS'iphone-nosign'
p751
NsS'caption'
p752
NsS'android-extra-manifest'
p753
(lp754
sS'android-icon-xxhdpi'
p755
NsS'version-minor'
p756
NsS'iphone-link-libdirs'
p757
(lp758
sS'iphone-icon-large'
p759
NsS'symbian-keypwd'
p760
NsS'symbian8-uid'
p761
NsS'symbian-cert-key'
p762
NsS'winmobile-ampd-part-number'
p763
NsS'arch'
p764
NsS'nds-romheadertemplate'
p765
NsS'webos-icon'
p766
NsS'psp-dlgprotectdocument'
p767
NsS'android-icon-mdpi'
p768
NsS'nds-icon'
p769
NsS'ws8-custom-manifest-fill'
p770
NsS'iphone-development-cert'
p771
NsS'blackberry-phone-icon'
p772
NsS'iphone-enable-4inch-retina'
p773
NsS'ws8-custom-manifest'
p774
NsS'version-major'
p775
NsS'wp8-genre-isgame'
p776
NsS'uiq3-uid'
p777
NsS'iphone-splash-retina-generate'
p778
NsS'tizen-hw-acceleration'
p779
NsS'iphone_bundle_localisations'
p780
NsS'tizen-dist1-key'
p781
NsS'wp8-custom-manifest'
p782
NsS'nds-bannertitle-ge'
p783
NsS'iphone-sign-for-distribution'
p784
NsS'wp8-tile-fliptemplate-medium-back-image'
p785
NsS'wp8-publisher-id'
p786
NsS'icon'
p787
NsS'wp8-exclude-wxga'
p788
NsS'uiq3-icon2-mask'
p789
NsS'iphone-splashscreen-portrait'
p790
NsS'iphone-icon-high-res'
p791
NsS'ws81-distribution-pfx-password'
p792
NsS'playbook-author'
p793
NsS'android-icon-xhdpi'
p794
NsS'linux-ext-lib'
p795
(lp796
sS'blackberry-permissions-access-internet'
p797
NsS'wp8-exclude-720p'
p798
NsS'lgtv-use-drm'
p799
NsS'symbian-platsecflags'
p800
NsS'ws8-description'
p801
NsS'blackberry-playbook-icon'
p802
NsS'copyright'
p803
NsS'version'
p804
NsS'ws81-logo-image150x150'
p805
NsS'osx-signing-identity-app'
p806
NsS'tizen-project-url'
p807
NsS'symbian-icon-svg'
p808
NsS'android-aliasname'
p809
NsS'psp-dlgmanual'
p810
NsS'brew-uid'
p811
NsS'symbian-locationsupport'
p812
NsS'ws8-ext-managed-dll'
p813
(lp814
sS'nds-bannertitle-it'
p815
NsS'ws8-ext-sdk-manifest-part'
p816
(lp817
sS'uiq3-icon1-mask'
p818
NsS'winmobile-icon16'
p819
NsS'ws8-product-name'
p820
NsS'blackberry-cskpass'
p821
NsS'winmobile-start-menu-folder'
p822
NsS'brew-clsid'
p823
NsS'roku-requires-bluetooth'
p824
NsS'ws8-ext-device-capabilities'
p825
(lp826
sS'blackberry-permissions-use-camera'
p827
NsS'iphone-prerendered-icon'
p828
NsS'iphone-appid'
p829
S'com.yesornogames.countingstarts'
p830
sS'ws8-identity-name'
p831
NsS'tizen-dist2-CA-path'
p832
NsS'winmobile-icon64'
p833
NsS'blackberry-permissions-post-notification'
p834
NsS'winmobile-setup-dll'
p835
NsS'android-external-jars'
p836
(lp837
S'c:/marmalade/7.2/extensions/s3ewebview/lib/android/s3eWebView.jar'
p838
aS'c:/marmalade/7.2/extensions/s3efacebook/lib/android/s3eFacebook.jar'
p839
aS'c:/marmalade/7.2/extensions/s3efacebook/facebook-android-sdk/libs/android-support-v4.jar'
p840
aS'c:/marmalade/7.2/extensions/s3efacebook/lib/android/annotations-4.1.1.4.jar'
p841
aS'c:/marmalade/7.2/extensions/s3eflurry/lib/android/s3eFlurry.jar'
p842
aS'c:/marmalade/7.2/extensions/s3eflurry/lib/android/FlurryAgent.jar'
p843
asS'symbian9-uid'
p844
NsS'iphone-icon-ipad-ios7'
p845
NsS'winmobile-trace-file'
p846
NsS'roku-splash-color'
p847
NsS'psp-appversion'
p848
NsS'ws8-publisher-id'
p849
NsS'android-supports-gl-texture'
p850
(lp851
sS'winmobile-png45'
p852
NsS'android-storepass'
p853
NsS'roku-icon-focus-hd'
p854
NsS'android-custom-activity'
p855
NsS'psp-discversion'
p856
NsS'psp-copyright'
p857
NsS'embed-icf'
p858
NsS'tizen-manifest'
p859
NsS'osx-icon'
p860
NsS'webos-appinfo'
p861
NsS'psp-dlghealthwarning'
p862
NsS'webos-appid'
p863
NsS'roku-icon-side-hd'
p864
NsS'iphone-icon-ipad-search-high-res-ios7'
p865
NsS'ws81-ext-sdk-manifest-part'
p866
(lp867
sS'loader_name_prefix'
p868
NsS'nds-titlename'
p869
NsS'ws81-logo-image50x50'
p870
NsS'osx-entitlements-plist'
p871
NsS'psp-dlgicon0'
p872
NsS'ws81-ext-device-capabilities'
p873
(lp874
sS'psp-discid'
p875
NsS'tizen-dist2-password'
p876
NsS'ws8-ext-sdk-ref'
p877
(lp878
sS'iphone-extra-string'
p879
(lp880
sS'version-string'
p881
NsS'iphone-icon-high-res-ios7'
p882
NsS'blackberry-permissions-record-audio'
p883
NsS'ws8-certificate-end-date'
p884
NsS'tizen-so'
p885
(lp886
sS'wp8-tile-fliptemplate-small-image'
p887
NsS'pkguid-as-uid'
p888
NsS'iphone-signing-identity'
p889
NsS'roku-persist-quota'
p890
NsS'nds-bannertitle-fr'
p891
NsS'ws8-distribution-pfx'
p892
NsS'ws8-publisher-display-name'
p893
NsS'brew-icon-small'
p894
NsS'psp-dlgpic2'
p895
NsS'psp-dlgpic0'
p896
NsS'psp-pic0'
p897
NsS'psp-pic1'
p898
NsS'psp-icon0'
p899
NsS'psp-icon1'
p900
NsS'ws81-identity-name'
p901
NsS'winmobile-icon'
p902
NsS'iphone-no-splash'
p903
NsS'iphone-splash'
p904
NsS'iphone-app-fonts'
p905
NsS'wp8-ext-native-dll'
p906
(lp907
S'c:/marmalade/7.2/extensions/s3ewebview/lib/wp8/s3eWebViewExtension.dll'
p908
aS'c:/marmalade/7.2/extensions/s3efacebook/lib/wp8/s3eFacebookExtension.dll'
p909
aS'c:/marmalade/7.2/extensions/s3eflurry/lib/wp8/s3eFlurryExtension.dll'
p910
asS'ws81-distribution-cer'
p911
NsS'uiq3-icon2'
p912
NsS'uiq3-icon3'
p913
NsS'uiq3-icon1'
p914
NsS'uiq3-icon1-format'
p915
NsS'ws8-logo-image50x50'
p916
NsS'iphone-icon-ipad-search'
p917
NsS'symbian-run-on-install'
p918
NsS'ws81-publisher-display-name'
p919
NsS'ws81-custom-manifest-fill'
p920
NsS'symbian-soundrecordsupport'
p921
NsS'nds-bannertitle-sp'
p922
NsS'psp-producer'
p923
NsS'iphone-apple-wwdr-cert'
p924
NsS'android-icon-nonstandard'
p925
NsS'win32-pref-processtitle'
p926
NsS'nds-bannertitle-hn'
p927
NsS'tizen-dist2-key'
p928
NsS'brew-depends'
p929
NsS'ws81-custom-manifest'
p930
NsS'iphone-icon-ipad-search-ios7'
p931
NsS'brew-icon-medium'
p932
NsS'iphone-bundle-url-name'
p933
S'com.yesornogames.countingstarts'
p934
sS'wp8-tile-fliptemplate-large-front-image'
p935
NsS'tizen-dist2-CA-root-path'
p936
NsS'ws81-description'
p937
NsS'uiq3-icon3-format'
p938
NsS'ws81-logo-image30x30'
p939
NsS'iphone-signing-host'
p940
NsS'tizen-icon'
p941
NsS'osx-info-plist'
p942
NsS'symbian-icon1-format'
p943
NsS'ws81-distribution-pfx'
p944
NsS'blackberry-authorid'
p945
NsS'ws81-publisher-id'
p946
NsS'ws81-ext-sdk-ref'
p947
(lp948
sS'wp8-description'
p949
NsS'iphone-link-opts'
p950
(lp951
S'-F$MARMALADE_ROOT/extensions/s3eFacebook/source/iphone/facebook-ios-sdk -framework FacebookSDK -weak_framework AdSupport -weak_framework Accounts -weak_framework Social -lsqlite3'
p952
aS'-framework SystemConfiguration -framework Security'
p953
asS'roku-splash-min-time'
p954
NsS'wp8-tile-fliptemplate-medium-front-image'
p955
NsS'provider'
p956
NsS'playbook-keystore'
p957
NsS'tizen-appid'
p958
NsS'tizen-author-key'
p959
NsS'symbian-osexecsupport'
p960
NsS'android-install-location'
p961
NsS'nds-privatesavedatasize'
p962
NsS'playbook-storepass'
p963
NsS'android-icon-ldpi'
p964
NsS'manufacturer'
p965
NsS'itunes-artwork'
p966
NsS'iphone-extra-sections'
p967
NsS'ws81-product-name'
p968
NsS'ws81-ext-native-dll'
p969
(lp970
sS'iphone-info-plist'
p971
NsS'ws8-distribution-pfx-password'
p972
NsS'ws8-logo-image30x30'
p973
NsS'wp8-ext-managed-dll'
p974
(lp975
S'c:/marmalade/7.2/extensions/s3ewebview/lib/wp8/s3eWebViewManaged.dll'
p976
aS'c:/marmalade/7.2/extensions/s3efacebook/lib/wp8/s3eFacebookManaged.dll'
p977
aS'c:/marmalade/7.2/extensions/s3efacebook/facebook_wp8_lib/Facebook.Client.dll'
p978
aS'c:/marmalade/7.2/extensions/s3efacebook/facebook_wp8_lib/Facebook.dll'
p979
aS'c:/marmalade/7.2/extensions/s3eflurry/lib/wp8/FlurryWP8SDK.dll'
p980
aS'c:/marmalade/7.2/extensions/s3eflurry/lib/wp8/s3eFlurryManaged.dll'
p981
asS'iphone-splashscreen-landscape'
p982
NsS'nds-makercode'
p983
NsS'priv-sign-key'
p984
NsS'networking'
p985
NsS'android-icon'
p986
NsS'iphone-icon-settings'
p987
NsS'iphone-distribution-cert'
p988
NsS'android_extra_strings'
p989
NsS'nds-bannertitle-en'
p990
NsS'playbook-cskpass'
p991
NsS'android-so'
p992
(lp993
S'c:/marmalade/7.2/extensions/s3ewebview/lib/android/libs3eWebView.so'
p994
aS'c:/marmalade/7.2/extensions/s3efacebook/lib/android/libs3eFacebook.so'
p995
aS'c:/marmalade/7.2/extensions/s3eflurry/lib/android/libs3eFlurry.so'
p996
asS'wp8-higher-mem'
p997
NsS'roku-splash-screen-hd'
p998
NsS'iphone-bundle-url-schemes'
p999
S'fd<FACEBOOK_APP_ID>'
p1000
sS'roku-screensaver-private'
p1001
NsS'osx-extra-res'
p1002
(lp1003
sS'playbook-icon'
p1004
NsS'uid'
p1005
NsS'playbook-authorid'
p1006
NsS'win32-pref-windowtitle'
p1007
NsS'tizen-dist1-password'
p1008
NsS'roku-screensaver-title'
p1009
NsS'osx-minimum-osx-version'
p1010
NsS'symbian-cert'
p1011
NsS'iphone-icon'
p1012
NsS'ws81-ext-capabilities'
p1013
(lp1014
sS'ws8-distribution-cer'
p1015
NsS'playbook-access-shared'
p1016
NsS'iphone-icon-ipad-high-res-ios7'
p1017
NsS'iphone-link-libs'
p1018
(lp1019
sS'wp8-exclude-wvga'
p1020
NsS'assets'
p1021
NsS'wp8-tile-fliptemplate-large-back-image'
p1022
NsS'wp8-custom-manifest-fill'
p1023
NsS'pub-sign-key'
p1024
NsS'android-extra-strings'
p1025
NsS'tizen-author-CA-path'
p1026
Nssg328
g599
sbssS'platform'
p1027
S'S3E'
p1028
sg62
S'1.0'
p1029
sS'arcade_platform'
p1030
g4
sS'extensions'
p1031
(dp1032
sS'source_groups_tree'
p1033
(dp1034
S'(libpng)'
p1035
(dp1036
S'h'
p1037
(dp1038
S'c:/marmalade/7.2/modules/third_party/libpng/h/png.h'
p1039
(lp1040
I1
a(dp1041
asS'c:/marmalade/7.2/modules/third_party/libpng/h/pngconf.h'
p1042
(lp1043
I1
ag1041
assS'c:/marmalade/7.2/modules/third_party/libpng/libpng.mkf'
p1044
(lp1045
I1
a(dp1046
assS'(libjpeg)'
p1047
(dp1048
g1037
(dp1049
S'c:/marmalade/7.2/modules/third_party/libjpeg/h/jinclude.h'
p1050
(lp1051
I1
a(dp1052
asS'c:/marmalade/7.2/modules/third_party/libjpeg/h/jconfig.h'
p1053
(lp1054
I1
ag1052
asS'c:/marmalade/7.2/modules/third_party/libjpeg/h/cdjpeg.h'
p1055
(lp1056
I1
ag1052
asS'c:/marmalade/7.2/modules/third_party/libjpeg/h/jpegint.h'
p1057
(lp1058
I1
ag1052
asS'c:/marmalade/7.2/modules/third_party/libjpeg/h/transupp.h'
p1059
(lp1060
I1
ag1052
asS'c:/marmalade/7.2/modules/third_party/libjpeg/h/jpeglib.h'
p1061
(lp1062
I1
ag1052
asS'c:/marmalade/7.2/modules/third_party/libjpeg/h/jversion.h'
p1063
(lp1064
I1
ag1052
asS'c:/marmalade/7.2/modules/third_party/libjpeg/h/jdct.h'
p1065
(lp1066
I1
ag1052
asS'c:/marmalade/7.2/modules/third_party/libjpeg/h/jdhuff.h'
p1067
(lp1068
I1
ag1052
asS'c:/marmalade/7.2/modules/third_party/libjpeg/h/jmemsys.h'
p1069
(lp1070
I1
ag1052
asS'c:/marmalade/7.2/modules/third_party/libjpeg/h/jmorecfg.h'
p1071
(lp1072
I1
ag1052
asS'c:/marmalade/7.2/modules/third_party/libjpeg/h/jerror.h'
p1073
(lp1074
I1
ag1052
asS'c:/marmalade/7.2/modules/third_party/libjpeg/h/jchuff.h'
p1075
(lp1076
I1
ag1052
asS'c:/marmalade/7.2/modules/third_party/libjpeg/h/cderror.h'
p1077
(lp1078
I1
ag1052
assS'c:/marmalade/7.2/modules/third_party/libjpeg/libjpeg.mkf'
p1079
(lp1080
I1
a(dp1081
assS'(tiniconv)'
p1082
(dp1083
S'c:/marmalade/7.2/modules/third_party/tiniconv/source/tiniconv.h'
p1084
(lp1085
I1
a(dp1086
asS'c:/marmalade/7.2/modules/third_party/tiniconv/source/tiniconv_int.h'
p1087
(lp1088
I1
ag1086
asS'c:/marmalade/7.2/modules/third_party/tiniconv/tiniconv.mkf'
p1089
(lp1090
I1
a(dp1091
assS'(SoundEngine)'
p1092
(dp1093
S'c:/users/vinicius/desktop/yes or no/stars/modules/soundengine/source/IwSoundManager.cpp'
p1094
(lp1095
I1
a(dp1096
asS'c:/users/vinicius/desktop/yes or no/stars/modules/soundengine/soundengine.mkf'
p1097
(lp1098
I1
a(dp1099
asS'c:/users/vinicius/desktop/yes or no/stars/modules/soundengine/source/IwSoundInst.cpp'
p1100
(lp1101
I1
ag1096
asS'c:/users/vinicius/desktop/yes or no/stars/modules/soundengine/source/IwSoundADPCM.cpp'
p1102
(lp1103
I1
ag1096
asS'c:/users/vinicius/desktop/yes or no/stars/modules/soundengine/h/IwSoundManager.h'
p1104
(lp1105
I1
ag1096
asS'c:/users/vinicius/desktop/yes or no/stars/modules/soundengine/source/IwSoundParams.cpp'
p1106
(lp1107
I1
ag1096
asS'c:/users/vinicius/desktop/yes or no/stars/modules/soundengine/source/IwSoundData.cpp'
p1108
(lp1109
I1
ag1096
asS'Docs'
p1110
(dp1111
S'c:/users/vinicius/desktop/yes or no/stars/modules/soundengine/docs/iwsound.config.txt'
p1112
(lp1113
I1
ag1096
assS'c:/users/vinicius/desktop/yes or no/stars/modules/soundengine/source/IwResHandlerWAV.cpp'
p1114
(lp1115
I1
ag1096
asS'c:/users/vinicius/desktop/yes or no/stars/modules/soundengine/h/IwSoundInst.h'
p1116
(lp1117
I1
ag1096
asS'c:/users/vinicius/desktop/yes or no/stars/modules/soundengine/h/IwSoundADPCM.h'
p1118
(lp1119
I1
ag1096
asS'c:/users/vinicius/desktop/yes or no/stars/modules/soundengine/source/IwSoundWAV.cpp'
p1120
(lp1121
I1
ag1096
asS'c:/users/vinicius/desktop/yes or no/stars/modules/soundengine/source/IwSoundGroup.cpp'
p1122
(lp1123
I1
ag1096
asS'c:/users/vinicius/desktop/yes or no/stars/modules/soundengine/h/IwSound.h'
p1124
(lp1125
I1
ag1096
asS'c:/users/vinicius/desktop/yes or no/stars/modules/soundengine/h/IwSoundWAV.h'
p1126
(lp1127
I1
ag1096
asS'c:/users/vinicius/desktop/yes or no/stars/modules/soundengine/source/IwSoundPCM.cpp'
p1128
(lp1129
I1
ag1096
asS'c:/users/vinicius/desktop/yes or no/stars/modules/soundengine/h/IwSoundSpec.h'
p1130
(lp1131
I1
ag1096
asS'c:/users/vinicius/desktop/yes or no/stars/modules/soundengine/h/IwSoundPCM.h'
p1132
(lp1133
I1
ag1096
asS'c:/users/vinicius/desktop/yes or no/stars/modules/soundengine/h/IwSoundGroup.h'
p1134
(lp1135
I1
ag1096
asS'c:/users/vinicius/desktop/yes or no/stars/modules/soundengine/h/IwResHandlerWAV.h'
p1136
(lp1137
I1
ag1096
asS'c:/users/vinicius/desktop/yes or no/stars/modules/soundengine/h/IwSoundParams.h'
p1138
(lp1139
I1
ag1096
asS'c:/users/vinicius/desktop/yes or no/stars/modules/soundengine/h/IwSoundData.h'
p1140
(lp1141
I1
ag1096
asS'c:/users/vinicius/desktop/yes or no/stars/modules/soundengine/source/IwSoundSpec.cpp'
p1142
(lp1143
I1
ag1096
assS'Extensions'
p1144
(dp1145
S's3eWebView'
p1146
(dp1147
S'interface'
p1148
(dp1149
S'c:/marmalade/7.2/extensions/s3ewebview/interface/s3eWebView.defines.txt'
p1150
(lp1151
I1
a(dp1152
asS'c:/marmalade/7.2/extensions/s3ewebview/interface/s3eWebView_interface.cpp'
p1153
(lp1154
I1
ag1152
assS'c:/marmalade/7.2/extensions/s3ewebview/h/s3eWebView.h'
p1155
(lp1156
I1
ag1152
asS'c:/marmalade/7.2/extensions/s3ewebview/s3ewebview.mkf'
p1157
(lp1158
I1
a(dp1159
assS's3eFacebook'
p1160
(dp1161
S'interface'
p1162
(dp1163
S'c:/marmalade/7.2/extensions/s3efacebook/interface/s3eFacebook_interface.cpp'
p1164
(lp1165
I1
a(dp1166
asS'c:/marmalade/7.2/extensions/s3efacebook/interface/s3eFacebook.defines.txt'
p1167
(lp1168
I1
ag1166
assg1037
(dp1169
S'c:/marmalade/7.2/extensions/s3efacebook/h/s3eFacebook.h'
p1170
(lp1171
I1
ag1166
assS'c:/marmalade/7.2/extensions/s3efacebook/s3efacebook.mkf'
p1172
(lp1173
I1
a(dp1174
assS's3eFlurry'
p1175
(dp1176
S'interface'
p1177
(dp1178
S'c:/marmalade/7.2/extensions/s3eflurry/interface/s3eFlurry_interface.cpp'
p1179
(lp1180
I1
a(dp1181
asS'c:/marmalade/7.2/extensions/s3eflurry/interface/s3eFlurry.defines.txt'
p1182
(lp1183
I1
ag1181
assS'c:/marmalade/7.2/extensions/s3eflurry/h/s3eFlurry.h'
p1184
(lp1185
I1
ag1181
asS'c:/marmalade/7.2/extensions/s3eflurry/s3eflurry.mkf'
p1186
(lp1187
I1
a(dp1188
asssS'stars'
p1189
(dp1190
S'entities'
p1191
(dp1192
S'c:/Users/Vinicius/Desktop/Yes or No/Stars/source/gameObject.cpp'
p1193
(lp1194
I1
a(dp1195
asS'c:/Users/Vinicius/Desktop/Yes or No/Stars/source/gameObject.h'
p1196
(lp1197
I1
ag1195
asS'c:/Users/Vinicius/Desktop/Yes or No/Stars/source/vortex.cpp'
p1198
(lp1199
I1
ag1195
asS'c:/Users/Vinicius/Desktop/Yes or No/Stars/source/player.cpp'
p1200
(lp1201
I1
ag1195
asS'c:/Users/Vinicius/Desktop/Yes or No/Stars/source/player.h'
p1202
(lp1203
I1
ag1195
asS'c:/Users/Vinicius/Desktop/Yes or No/Stars/source/vortex.h'
p1204
(lp1205
I1
ag1195
assS'utils'
p1206
(dp1207
S'c:/Users/Vinicius/Desktop/Yes or No/Stars/source/easyArray.h'
p1208
(lp1209
I1
ag1195
assS'main'
p1210
(dp1211
S'c:/Users/Vinicius/Desktop/Yes or No/Stars/source/main.h'
p1212
(lp1213
I1
ag1195
asS'c:/Users/Vinicius/Desktop/Yes or No/Stars/source/main.cpp'
p1214
(lp1215
I1
ag1195
asS'c:/Users/Vinicius/Desktop/Yes or No/Stars/source/include.h'
p1216
(lp1217
I1
ag1195
assS'managers'
p1218
(dp1219
S'c:/Users/Vinicius/Desktop/Yes or No/Stars/source/timerManager.cpp'
p1220
(lp1221
I1
ag1195
asS'c:/Users/Vinicius/Desktop/Yes or No/Stars/source/spriteManager.cpp'
p1222
(lp1223
I1
ag1195
asS'c:/Users/Vinicius/Desktop/Yes or No/Stars/source/inputManager.h'
p1224
(lp1225
I1
ag1195
asS'c:/Users/Vinicius/Desktop/Yes or No/Stars/source/sceneManager.cpp'
p1226
(lp1227
I1
ag1195
asS'c:/Users/Vinicius/Desktop/Yes or No/Stars/source/resourceManager.h'
p1228
(lp1229
I1
ag1195
asS'c:/Users/Vinicius/Desktop/Yes or No/Stars/source/savedataManager.h'
p1230
(lp1231
I1
ag1195
asS'c:/Users/Vinicius/Desktop/Yes or No/Stars/source/spriteManager.h'
p1232
(lp1233
I1
ag1195
asS'c:/Users/Vinicius/Desktop/Yes or No/Stars/source/parallaxManager.cpp'
p1234
(lp1235
I1
ag1195
asS'c:/Users/Vinicius/Desktop/Yes or No/Stars/source/timerManager.h'
p1236
(lp1237
I1
ag1195
asS'c:/Users/Vinicius/Desktop/Yes or No/Stars/source/sceneManager.h'
p1238
(lp1239
I1
ag1195
asS'c:/Users/Vinicius/Desktop/Yes or No/Stars/source/savedataManager.cpp'
p1240
(lp1241
I1
ag1195
asS'c:/Users/Vinicius/Desktop/Yes or No/Stars/source/audioManager.h'
p1242
(lp1243
I1
ag1195
asS'c:/Users/Vinicius/Desktop/Yes or No/Stars/source/inputManager.cpp'
p1244
(lp1245
I1
ag1195
asS'c:/Users/Vinicius/Desktop/Yes or No/Stars/source/audioManager.cpp'
p1246
(lp1247
I1
ag1195
asS'c:/Users/Vinicius/Desktop/Yes or No/Stars/source/parallaxManager.h'
p1248
(lp1249
I1
ag1195
asS'c:/Users/Vinicius/Desktop/Yes or No/Stars/source/resourceManager.cpp'
p1250
(lp1251
I1
ag1195
assS'scenes'
p1252
(dp1253
S'c:/Users/Vinicius/Desktop/Yes or No/Stars/source/items.cpp'
p1254
(lp1255
I1
ag1195
asS'c:/Users/Vinicius/Desktop/Yes or No/Stars/source/customize.h'
p1256
(lp1257
I1
ag1195
asS'c:/Users/Vinicius/Desktop/Yes or No/Stars/source/customize.cpp'
p1258
(lp1259
I1
ag1195
asS'c:/Users/Vinicius/Desktop/Yes or No/Stars/source/mainMenu.h'
p1260
(lp1261
I1
ag1195
asS'c:/Users/Vinicius/Desktop/Yes or No/Stars/source/getStars.h'
p1262
(lp1263
I1
ag1195
asS'c:/Users/Vinicius/Desktop/Yes or No/Stars/source/store.h'
p1264
(lp1265
I1
ag1195
asS'c:/Users/Vinicius/Desktop/Yes or No/Stars/source/options.h'
p1266
(lp1267
I1
ag1195
asS'c:/Users/Vinicius/Desktop/Yes or No/Stars/source/getStars.cpp'
p1268
(lp1269
I1
ag1195
asS'c:/Users/Vinicius/Desktop/Yes or No/Stars/source/mainMenu.cpp'
p1270
(lp1271
I1
ag1195
asS'c:/Users/Vinicius/Desktop/Yes or No/Stars/source/items.h'
p1272
(lp1273
I1
ag1195
asS'c:/Users/Vinicius/Desktop/Yes or No/Stars/source/store.cpp'
p1274
(lp1275
I1
ag1195
asS'c:/Users/Vinicius/Desktop/Yes or No/Stars/source/options.cpp'
p1276
(lp1277
I1
ag1195
asS'c:/Users/Vinicius/Desktop/Yes or No/Stars/source/game.h'
p1278
(lp1279
I1
ag1195
asS'c:/Users/Vinicius/Desktop/Yes or No/Stars/source/game.cpp'
p1280
(lp1281
I1
ag1195
asssS"'Marmalade Studio'"
p1282
(dp1283
S'iw2dscenegraph'
p1284
(dp1285
S'c:/marmalade/7.2/modules/iw2dscenegraph/source/Iw2DSceneGraph.cpp'
p1286
(lp1287
I1
a(dp1288
asS'c:/marmalade/7.2/modules/iw2dscenegraph/iw2dscenegraph.mkf'
p1289
(lp1290
I1
a(dp1291
asS'c:/marmalade/7.2/modules/iw2dscenegraph/h/Iw2DSceneGraph.h'
p1292
(lp1293
I1
ag1288
asS'c:/marmalade/7.2/modules/iw2dscenegraph/docs/iw2dscenegraph.defines.txt'
p1294
(lp1295
I1
ag1288
assS'iwgl'
p1296
(dp1297
S'c:/marmalade/7.2/modules/iwgl/h/IwGL.h'
p1298
(lp1299
I1
a(dp1300
asS'c:/marmalade/7.2/modules/iwgl/iwgl.mkf'
p1301
(lp1302
I1
a(dp1303
asS'c:/marmalade/7.2/modules/iwgl/h/IwGLExt.h'
p1304
(lp1305
I1
ag1300
asS'c:/marmalade/7.2/modules/iwgl/docs/iwgl.config.txt'
p1306
(lp1307
I1
ag1300
assS'iw2d'
p1308
(dp1309
S'c:/marmalade/7.2/modules/iw2d/docs/iw2d_public.defines.txt'
p1310
(lp1311
I1
a(dp1312
asS'c:/marmalade/7.2/modules/iw2d/h/Iw2D.h'
p1313
(lp1314
I1
ag1312
asS'c:/marmalade/7.2/modules/iw2d/docs/iw2d.config.txt'
p1315
(lp1316
I1
ag1312
asS'c:/marmalade/7.2/modules/iw2d/iw2d.mkf'
p1317
(lp1318
I1
a(dp1319
assS'iwgxfont'
p1320
(dp1321
S'c:/marmalade/7.2/modules/iwgxfont/h/IwGxFont.h'
p1322
(lp1323
I1
a(dp1324
asS'c:/marmalade/7.2/modules/iwgxfont/h/IwGxFontPreparedData.h'
p1325
(lp1326
I1
ag1324
asS'c:/marmalade/7.2/modules/iwgxfont/h/IwGxFontContainer.h'
p1327
(lp1328
I1
ag1324
asS'c:/marmalade/7.2/modules/iwgxfont/docs/iwgxfont_public.defines.txt'
p1329
(lp1330
I1
ag1324
asS'c:/marmalade/7.2/modules/iwgxfont/h/IwGxFontGlyph.h'
p1331
(lp1332
I1
ag1324
asS'c:/marmalade/7.2/modules/iwgxfont/h/IwGxFontState.h'
p1333
(lp1334
I1
ag1324
asS'c:/marmalade/7.2/modules/iwgxfont/h/IwGxFontTypes.h'
p1335
(lp1336
I1
ag1324
asS'c:/marmalade/7.2/modules/iwgxfont/iwgxfont.mkf'
p1337
(lp1338
I1
a(dp1339
asS'c:/marmalade/7.2/modules/iwgxfont/docs/iwgxfont.config.txt'
p1340
(lp1341
I1
ag1324
assS'iwgeom'
p1342
(dp1343
S'c:/marmalade/7.2/modules/iwgeom/docs/iwgeom.config.txt'
p1344
(lp1345
I1
a(dp1346
asS'c:/marmalade/7.2/modules/iwgeom/h/IwGeomFPlane.h'
p1347
(lp1348
I1
ag1346
asS'c:/marmalade/7.2/modules/iwgeom/h/IwGeomPlane.h'
p1349
(lp1350
I1
ag1346
asS'c:/marmalade/7.2/modules/iwgeom/h/IwGeomMat.h'
p1351
(lp1352
I1
ag1346
asS'c:/marmalade/7.2/modules/iwgeom/h/IwGeomMat2D.h'
p1353
(lp1354
I1
ag1346
asS'c:/marmalade/7.2/modules/iwgeom/h/IwGeomMenu.h'
p1355
(lp1356
I1
ag1346
asS'c:/marmalade/7.2/modules/iwgeom/h/IwGeomSqrt.h'
p1357
(lp1358
I1
ag1346
asS'c:/marmalade/7.2/modules/iwgeom/h/IwGeomFMat2D.h'
p1359
(lp1360
I1
ag1346
asS'c:/marmalade/7.2/modules/iwgeom/h/IwGeomCore.h'
p1361
(lp1362
I1
ag1346
asS'c:/marmalade/7.2/modules/iwgeom/h/IwGeomFVec3.h'
p1363
(lp1364
I1
ag1346
asS'c:/marmalade/7.2/modules/iwgeom/h/IwGeomFVec2.h'
p1365
(lp1366
I1
ag1346
asS'c:/marmalade/7.2/modules/iwgeom/h/IwGeom.h'
p1367
(lp1368
I1
ag1346
asS'c:/marmalade/7.2/modules/iwgeom/h/IwGeomSVec2.h'
p1369
(lp1370
I1
ag1346
asS'c:/marmalade/7.2/modules/iwgeom/h/IwGeomFVec4.h'
p1371
(lp1372
I1
ag1346
asS'c:/marmalade/7.2/modules/iwgeom/h/IwGeomSVec3.h'
p1373
(lp1374
I1
ag1346
asS'c:/marmalade/7.2/modules/iwgeom/h/IwGeomBBox.h'
p1375
(lp1376
I1
ag1346
asS'c:/marmalade/7.2/modules/iwgeom/h/IwGeomVec2.h'
p1377
(lp1378
I1
ag1346
asS'c:/marmalade/7.2/modules/iwgeom/h/IwGeomFMat.h'
p1379
(lp1380
I1
ag1346
asS'c:/marmalade/7.2/modules/iwgeom/h/IwGeomFQuat.h'
p1381
(lp1382
I1
ag1346
asS'c:/marmalade/7.2/modules/iwgeom/h/IwGeomVec3.h'
p1383
(lp1384
I1
ag1346
asS'c:/marmalade/7.2/modules/iwgeom/h/IwGeomSVec4.h'
p1385
(lp1386
I1
ag1346
asS'c:/marmalade/7.2/modules/iwgeom/h/IwGeomVec.h'
p1387
(lp1388
I1
ag1346
asS'c:/marmalade/7.2/modules/iwgeom/h/IwGeomFIntersect.h'
p1389
(lp1390
I1
ag1346
asS'c:/marmalade/7.2/modules/iwgeom/iwgeom.mkf'
p1391
(lp1392
I1
a(dp1393
asS'c:/marmalade/7.2/modules/iwgeom/h/IwGeomFSphere.h'
p1394
(lp1395
I1
ag1346
asS'c:/marmalade/7.2/modules/iwgeom/h/IwGeomIntersect.h'
p1396
(lp1397
I1
ag1346
asS'c:/marmalade/7.2/modules/iwgeom/h/IwGeomSQuat.h'
p1398
(lp1399
I1
ag1346
asS'c:/marmalade/7.2/modules/iwgeom/h/IwGeomQuat.h'
p1400
(lp1401
I1
ag1346
asS'c:/marmalade/7.2/modules/iwgeom/h/IwGeomSphere.h'
p1402
(lp1403
I1
ag1346
asS'c:/marmalade/7.2/modules/iwgeom/h/IwGeomLegacy.h'
p1404
(lp1405
I1
ag1346
asS'c:/marmalade/7.2/modules/iwgeom/h/IwGeomVec4.h'
p1406
(lp1407
I1
ag1346
asS'c:/marmalade/7.2/modules/iwgeom/h/IwGeomFBBox.h'
p1408
(lp1409
I1
ag1346
assS'iwresmanager'
p1410
(dp1411
S'c:/marmalade/7.2/modules/iwresmanager/h/IwResHandlerGROUP.h'
p1412
(lp1413
I1
a(dp1414
asS'c:/marmalade/7.2/modules/iwresmanager/h/IwResHandler.h'
p1415
(lp1416
I1
ag1414
asS'c:/marmalade/7.2/modules/iwresmanager/iwresmanager.mkf'
p1417
(lp1418
I1
a(dp1419
asS'c:/marmalade/7.2/modules/iwresmanager/h/IwResGroup.h'
p1420
(lp1421
I1
ag1414
asS'c:/marmalade/7.2/modules/iwresmanager/h/IwResHandlerImage.h'
p1422
(lp1423
I1
ag1414
asS'c:/marmalade/7.2/modules/iwresmanager/docs/iwresmanager.config.txt'
p1424
(lp1425
I1
ag1414
asS'c:/marmalade/7.2/modules/iwresmanager/h/IwResManagerClass.h'
p1426
(lp1427
I1
ag1414
asS'c:/marmalade/7.2/modules/iwresmanager/h/IwResHandlerITX.h'
p1428
(lp1429
I1
ag1414
asS'c:/marmalade/7.2/modules/iwresmanager/h/IwResSerialise.h'
p1430
(lp1431
I1
ag1414
asS'c:/marmalade/7.2/modules/iwresmanager/h/IwResManager.h'
p1432
(lp1433
I1
ag1414
assS'iwgx'
p1434
(dp1435
S'c:/marmalade/7.2/modules/iwgx/h/IwTPage.h'
p1436
(lp1437
I1
a(dp1438
asS'c:/marmalade/7.2/modules/iwgx/h/IwGxStream.h'
p1439
(lp1440
I1
ag1438
asS'c:/marmalade/7.2/modules/iwgx/h/IwGxTransformSW.h'
p1441
(lp1442
I1
ag1438
asS'c:/marmalade/7.2/modules/iwgx/h/IwMaterial.h'
p1443
(lp1444
I1
ag1438
asS'c:/marmalade/7.2/modules/iwgx/h/IwMatAnim.h'
p1445
(lp1446
I1
ag1438
asS'c:/marmalade/7.2/modules/iwgx/docs/iwgx.config.txt'
p1447
(lp1448
I1
ag1438
asS'c:/marmalade/7.2/modules/iwgx/iwgx.mkf'
p1449
(lp1450
I1
a(dp1451
asS'c:/marmalade/7.2/modules/iwgx/h/IwResHandlerMTL.h'
p1452
(lp1453
I1
ag1438
asS'c:/marmalade/7.2/modules/iwgx/h/IwGxPrint.h'
p1454
(lp1455
I1
ag1438
asS'c:/marmalade/7.2/modules/iwgx/h/IwGxSurface.h'
p1456
(lp1457
I1
ag1438
asS'c:/marmalade/7.2/modules/iwgx/docs/iwgx_public.defines.txt'
p1458
(lp1459
I1
ag1438
asS'c:/marmalade/7.2/modules/iwgx/h/IwClip.h'
p1460
(lp1461
I1
ag1438
asS'c:/marmalade/7.2/modules/iwgx/h/IwGx.h'
p1462
(lp1463
I1
ag1438
asS'c:/marmalade/7.2/modules/iwgx/h/IwGxDebug.h'
p1464
(lp1465
I1
ag1438
asS'c:/marmalade/7.2/modules/iwgx/h/IwDebugPrim.h'
p1466
(lp1467
I1
ag1438
asS'c:/marmalade/7.2/modules/iwgx/h/IwGxMetrics.h'
p1468
(lp1469
I1
ag1438
asS'c:/marmalade/7.2/modules/iwgx/h/IwGxError.h'
p1470
(lp1471
I1
ag1438
asS'c:/marmalade/7.2/modules/iwgx/h/IwClip.inl'
p1472
(lp1473
I1
ag1438
asS'c:/marmalade/7.2/modules/iwgx/h/IwGxFuncTable.h'
p1474
(lp1475
I1
ag1438
asS'c:/marmalade/7.2/modules/iwgx/h/IwTexture.h'
p1476
(lp1477
I1
ag1438
asS'c:/marmalade/7.2/modules/iwgx/h/IwFColour.h'
p1478
(lp1479
I1
ag1438
asS'c:/marmalade/7.2/modules/iwgx/h/IwColour.h'
p1480
(lp1481
I1
ag1438
asS'c:/marmalade/7.2/modules/iwgx/h/IwGxShaderTechnique.h'
p1482
(lp1483
I1
ag1438
asS'c:/marmalade/7.2/modules/iwgx/h/IwGxTypes.h'
p1484
(lp1485
I1
ag1438
asS'c:/marmalade/7.2/modules/iwgx/h/IwGxState.h'
p1486
(lp1487
I1
ag1438
assS'iw2dscenegraphcore'
p1488
(dp1489
S'c:/marmalade/7.2/modules/iw2dscenegraphcore/iw2dscenegraphcore.mkf'
p1490
(lp1491
I1
a(dp1492
asS'c:/marmalade/7.2/modules/iw2dscenegraphcore/h/Iw2DSceneGraphCore.h'
p1493
(lp1494
I1
a(dp1495
asS'c:/marmalade/7.2/modules/iw2dscenegraphcore/source/Iw2DSceneGraphCore.cpp'
p1496
(lp1497
I1
ag1495
assS'iwutil'
p1498
(dp1499
S'c:/marmalade/7.2/modules/iwutil/h/IwCore.h'
p1500
(lp1501
I1
a(dp1502
asS'c:/marmalade/7.2/modules/iwutil/h/IwArray.h'
p1503
(lp1504
I1
ag1502
asS'c:/marmalade/7.2/modules/iwutil/h/IwResource.h'
p1505
(lp1506
I1
ag1502
asS'c:/marmalade/7.2/modules/iwutil/h/IwFibre.h'
p1507
(lp1508
I1
ag1502
asS'c:/marmalade/7.2/modules/iwutil/h/IwBuffer.h'
p1509
(lp1510
I1
ag1502
asS'c:/marmalade/7.2/modules/iwutil/h/IwRandom.h'
p1511
(lp1512
I1
ag1502
asS'c:/marmalade/7.2/modules/iwutil/h/IwManagedList.h'
p1513
(lp1514
I1
ag1502
asS'c:/marmalade/7.2/modules/iwutil/h/IwList.h'
p1515
(lp1516
I1
ag1502
asS'c:/marmalade/7.2/modules/iwutil/h/IwProfileMenu.h'
p1517
(lp1518
I1
ag1502
asS'c:/marmalade/7.2/modules/iwutil/h/IwMemory.h'
p1519
(lp1520
I1
ag1502
asS'c:/marmalade/7.2/modules/iwutil/h/IwMath.h'
p1521
(lp1522
I1
ag1502
asS'c:/marmalade/7.2/modules/iwutil/h/IwDivTable.h'
p1523
(lp1524
I1
ag1502
asS'c:/marmalade/7.2/modules/iwutil/h/IwTextParserITX.h'
p1525
(lp1526
I1
ag1502
asS'c:/marmalade/7.2/modules/iwutil/h/IwMenu.h'
p1527
(lp1528
I1
ag1502
asS'c:/marmalade/7.2/modules/iwutil/h/IwChar.h'
p1529
(lp1530
I1
ag1502
asS'c:/marmalade/7.2/modules/iwutil/h/IwEvent.h'
p1531
(lp1532
I1
ag1502
asS'c:/marmalade/7.2/modules/iwutil/h/IwTextParser.h'
p1533
(lp1534
I1
ag1502
asS'c:/marmalade/7.2/modules/iwutil/h/IwOptimiseSize.h'
p1535
(lp1536
I1
ag1502
asS'c:/marmalade/7.2/modules/iwutil/h/IwSingleton.h'
p1537
(lp1538
I1
ag1502
asS'c:/marmalade/7.2/modules/iwutil/h/IwAllocator.h'
p1539
(lp1540
I1
ag1502
asS'c:/marmalade/7.2/modules/iwutil/h/IwFile.h'
p1541
(lp1542
I1
ag1502
asS'c:/marmalade/7.2/modules/iwutil/h/IwString.h'
p1543
(lp1544
I1
ag1502
asS'c:/marmalade/7.2/modules/iwutil/h/IwVariableBitField.h'
p1545
(lp1546
I1
ag1502
asS'c:/marmalade/7.2/modules/iwutil/h/IwUncopyable.h'
p1547
(lp1548
I1
ag1502
asS'c:/marmalade/7.2/modules/iwutil/h/IwImage.h'
p1549
(lp1550
I1
ag1502
asS'c:/marmalade/7.2/modules/iwutil/h/IwTypes.h'
p1551
(lp1552
I1
ag1502
asS'c:/marmalade/7.2/modules/iwutil/h/IwManaged.h'
p1553
(lp1554
I1
ag1502
asS'c:/marmalade/7.2/modules/iwutil/h/IwRuntime.h'
p1555
(lp1556
I1
ag1502
asS'c:/marmalade/7.2/modules/iwutil/h/IwMemManagerDL.h'
p1557
(lp1558
I1
ag1502
asS'c:/marmalade/7.2/modules/iwutil/h/IwOptimiseThumb.h'
p1559
(lp1560
I1
ag1502
asS'c:/marmalade/7.2/modules/iwutil/h/IwUtil.h'
p1561
(lp1562
I1
ag1502
asS'c:/marmalade/7.2/modules/iwutil/docs/iwutil.config.txt'
p1563
(lp1564
I1
ag1502
asS'c:/marmalade/7.2/modules/iwutil/h/IwClassFactory.h'
p1565
(lp1566
I1
ag1502
asS'c:/marmalade/7.2/modules/iwutil/h/IwUtilInitTerm.h'
p1567
(lp1568
I1
ag1502
asS'c:/marmalade/7.2/modules/iwutil/h/IwAutoFile.h'
p1569
(lp1570
I1
ag1502
asS'c:/marmalade/7.2/modules/iwutil/h/IwUTF8.h'
p1571
(lp1572
I1
ag1502
asS'c:/marmalade/7.2/modules/iwutil/h/IwSerialise.h'
p1573
(lp1574
I1
ag1502
asS'c:/marmalade/7.2/modules/iwutil/h/IwPath.h'
p1575
(lp1576
I1
ag1502
asS'c:/marmalade/7.2/modules/iwutil/h/IwMemBucketHelpers.h'
p1577
(lp1578
I1
ag1502
asS'c:/marmalade/7.2/modules/iwutil/h/IwCopyingPtr.h'
p1579
(lp1580
I1
ag1502
asS'c:/marmalade/7.2/modules/iwutil/h/IwOptimiseARM.h'
p1581
(lp1582
I1
ag1502
asS'c:/marmalade/7.2/modules/iwutil/h/IwMemBucket.h'
p1583
(lp1584
I1
ag1502
asS'c:/marmalade/7.2/modules/iwutil/iwutil.mkf'
p1585
(lp1586
I1
a(dp1587
asS'c:/marmalade/7.2/modules/iwutil/h/IwKeymap.h'
p1588
(lp1589
I1
ag1502
asS'c:/marmalade/7.2/modules/iwutil/h/IwImageHelper.h'
p1590
(lp1591
I1
ag1502
asS'c:/marmalade/7.2/modules/iwutil/h/IwOptimiseSpeed.h'
p1592
(lp1593
I1
ag1502
asS'c:/marmalade/7.2/modules/iwutil/h/IwTextParseable.h'
p1594
(lp1595
I1
ag1502
asS'c:/marmalade/7.2/modules/iwutil/h/IwDebug.h'
p1596
(lp1597
I1
ag1502
asS'c:/marmalade/7.2/modules/iwutil/h/IwDivide.h'
p1598
(lp1599
I1
ag1502
asS'c:/marmalade/7.2/modules/iwutil/h/IwHashString.h'
p1600
(lp1601
I1
ag1502
asssS'(zlib)'
p1602
(dp1603
g1037
(dp1604
S'c:/marmalade/7.2/modules/third_party/zlib/h/zconf.h'
p1605
(lp1606
I1
a(dp1607
asS'c:/marmalade/7.2/modules/third_party/zlib/h/zlib.h'
p1608
(lp1609
I1
ag1607
assS'c:/marmalade/7.2/modules/third_party/zlib/zlib.mkf'
p1610
(lp1611
I1
a(dp1612
assS'(iwtween)'
p1613
(dp1614
S'c:/marmalade/7.2/modules/iwtween/iwtween.mkf'
p1615
(lp1616
I1
a(dp1617
asS'c:/marmalade/7.2/modules/iwtween/source/IwTween.cpp'
p1618
(lp1619
I1
a(dp1620
asS'c:/marmalade/7.2/modules/iwtween/h/IwTween.h'
p1621
(lp1622
I1
ag1620
asssS'files'
p1623
(dp1624
S'IwGxFontPreparedData.h'
p1625
g302
(cmkb_main
File
p1626
g304
Ntp1627
Rp1628
(dp1629
S'flags'
p1630
g1324
sS'group'
p1631
(lp1632
S"'Marmalade Studio'"
p1633
ag1320
asg328
g1325
sbsS'iterator'
p1634
g302
(g1626
g304
Ntp1635
Rp1636
(dp1637
g1630
(dp1638
sg1631
(lp1639
S"'Marmalade System (S3E)'"
p1640
aS'stdc headers'
p1641
aS'c++'
p1642
asg328
S'c:/marmalade/7.2/s3e/h/std/c++/iterator'
p1643
sbsS'IwGL.h'
p1644
g302
(g1626
g304
Ntp1645
Rp1646
(dp1647
g1630
g1300
sg1631
(lp1648
S"'Marmalade Studio'"
p1649
ag1296
asg328
g1298
sbsS's3e.h'
p1650
g302
(g1626
g304
Ntp1651
Rp1652
(dp1653
g1630
g1638
sg1631
(lp1654
g1640
asg328
S'c:/marmalade/7.2/s3e/h/s3e.h'
p1655
sbsS'errno.h'
p1656
g302
(g1626
g304
Ntp1657
Rp1658
(dp1659
g1630
g1638
sg1631
(lp1660
g1640
aS'stdc headers'
p1661
asg328
S'c:/marmalade/7.2/s3e/h/std/errno.h'
p1662
sbsS'IwSingleton.h'
p1663
g302
(g1626
g304
Ntp1664
Rp1665
(dp1666
g1630
g1502
sg1631
(lp1667
S"'Marmalade Studio'"
p1668
ag1498
asg328
g1537
sbsS'spriteManager.cpp'
p1669
g302
(g1626
g304
Ntp1670
Rp1671
(dp1672
g1630
g1195
sg1631
(lp1673
S'stars'
p1674
ag1218
asg328
g1222
sbsS'dlfcn.h'
p1675
g302
(g1626
g304
Ntp1676
Rp1677
(dp1678
g1630
g1638
sg1631
g1660
sg328
S'c:/marmalade/7.2/s3e/h/std/dlfcn.h'
p1679
sbsS'IwSoundWAV.cpp'
p1680
g302
(g1626
g304
Ntp1681
Rp1682
(dp1683
g1630
g1096
sg1631
(lp1684
g1092
asg328
g1120
sbsS'sched.h'
p1685
g302
(g1626
g304
Ntp1686
Rp1687
(dp1688
g1630
g1638
sg1631
g1660
sg328
S'c:/marmalade/7.2/s3e/h/std/sched.h'
p1689
sbsS'customize.cpp'
p1690
g302
(g1626
g304
Ntp1691
Rp1692
(dp1693
g1630
g1195
sg1631
(lp1694
g1189
ag1252
asg328
g1258
sbsS'IwGeomFMat2D.h'
p1695
g302
(g1626
g304
Ntp1696
Rp1697
(dp1698
g1630
g1346
sg1631
(lp1699
S"'Marmalade Studio'"
p1700
ag1342
asg328
g1359
sbsS'cassert'
p1701
g302
(g1626
g304
Ntp1702
Rp1703
(dp1704
g1630
g1638
sg1631
g1639
sg328
S'c:/marmalade/7.2/s3e/h/std/c++/cassert'
p1705
sbsS'grp.h'
p1706
g302
(g1626
g304
Ntp1707
Rp1708
(dp1709
g1630
g1638
sg1631
g1660
sg328
S'c:/marmalade/7.2/s3e/h/std/grp.h'
p1710
sbsS'list'
p1711
g302
(g1626
g304
Ntp1712
Rp1713
(dp1714
g1630
g1638
sg1631
g1639
sg328
S'c:/marmalade/7.2/s3e/h/std/c++/list'
p1715
sbsS'IwSoundSpec.cpp'
p1716
g302
(g1626
g304
Ntp1717
Rp1718
(dp1719
g1630
g1096
sg1631
g1684
sg328
g1142
sbsS'istream'
p1720
g302
(g1626
g304
Ntp1721
Rp1722
(dp1723
g1630
g1638
sg1631
g1639
sg328
S'c:/marmalade/7.2/s3e/h/std/c++/istream'
p1724
sbsS'jpeglib.h'
p1725
g302
(g1626
g304
Ntp1726
Rp1727
(dp1728
g1630
g1052
sg1631
(lp1729
g1047
ag1037
asg328
g1061
sbsS'iw2d_public.defines.txt'
p1730
g302
(g1626
g304
Ntp1731
Rp1732
(dp1733
g1630
g1312
sg1631
(lp1734
S"'Marmalade Studio'"
p1735
ag1308
asg328
g1310
sbsS'iostream.h'
p1736
g302
(g1626
g304
Ntp1737
Rp1738
(dp1739
g1630
g1638
sg1631
g1639
sg328
S'c:/marmalade/7.2/s3e/h/std/c++/iostream.h'
p1740
sbsS'IwSoundADPCM.h'
p1741
g302
(g1626
g304
Ntp1742
Rp1743
(dp1744
g1630
g1096
sg1631
g1684
sg328
g1118
sbsS'string'
p1745
g302
(g1626
g304
Ntp1746
Rp1747
(dp1748
g1630
g1638
sg1631
g1639
sg328
S'c:/marmalade/7.2/s3e/h/std/c++/string'
p1749
sbsS'IwMemory.h'
p1750
g302
(g1626
g304
Ntp1751
Rp1752
(dp1753
g1630
g1502
sg1631
g1667
sg328
g1519
sbsS'IwGeomPlane.h'
p1754
g302
(g1626
g304
Ntp1755
Rp1756
(dp1757
g1630
g1346
sg1631
g1699
sg328
g1349
sbsS'items.h'
p1758
g302
(g1626
g304
Ntp1759
Rp1760
(dp1761
g1630
g1195
sg1631
g1694
sg328
g1272
sbsS'iw2d.config.txt'
p1762
g302
(g1626
g304
Ntp1763
Rp1764
(dp1765
g1630
g1312
sg1631
g1734
sg328
g1315
sbsS'iomanip'
p1766
g302
(g1626
g304
Ntp1767
Rp1768
(dp1769
g1630
g1638
sg1631
g1639
sg328
S'c:/marmalade/7.2/s3e/h/std/c++/iomanip'
p1770
sbsS'iwgeom.mkf'
p1771
g302
(g1626
g304
Ntp1772
Rp1773
(dp1774
g1630
g1393
sg1631
g1699
sg328
g1391
sbsS'IwGxError.h'
p1775
g302
(g1626
g304
Ntp1776
Rp1777
(dp1778
g1630
g1438
sg1631
(lp1779
S"'Marmalade Studio'"
p1780
ag1434
asg328
g1470
sbsS'IwGeom.h'
p1781
g302
(g1626
g304
Ntp1782
Rp1783
(dp1784
g1630
g1346
sg1631
g1699
sg328
g1367
sbsS'IwGeomVec4.h'
p1785
g302
(g1626
g304
Ntp1786
Rp1787
(dp1788
g1630
g1346
sg1631
g1699
sg328
g1406
sbsS'dir.h'
p1789
g302
(g1626
g304
Ntp1790
Rp1791
(dp1792
g1630
g1638
sg1631
(lp1793
g1640
aS'stdc headers'
p1794
aS'sys'
p1795
asg328
S'c:/marmalade/7.2/s3e/h/std/sys/dir.h'
p1796
sbsS'locale.h'
p1797
g302
(g1626
g304
Ntp1798
Rp1799
(dp1800
g1630
g1638
sg1631
g1660
sg328
S'c:/marmalade/7.2/s3e/h/std/locale.h'
p1801
sbsS'vector'
p1802
g302
(g1626
g304
Ntp1803
Rp1804
(dp1805
g1630
g1638
sg1631
g1639
sg328
S'c:/marmalade/7.2/s3e/h/std/c++/vector'
p1806
sbsS'IwManaged.h'
p1807
g302
(g1626
g304
Ntp1808
Rp1809
(dp1810
g1630
g1502
sg1631
g1667
sg328
g1553
sbsS's3eCompass.h'
p1811
g302
(g1626
g304
Ntp1812
Rp1813
(dp1814
g1630
g1638
sg1631
g1654
sg328
S'c:/marmalade/7.2/s3e/h/s3eCompass.h'
p1815
sbsS'cderror.h'
p1816
g302
(g1626
g304
Ntp1817
Rp1818
(dp1819
g1630
g1052
sg1631
g1729
sg328
g1077
sbsS'climits'
p1820
g302
(g1626
g304
Ntp1821
Rp1822
(dp1823
g1630
g1638
sg1631
g1639
sg328
S'c:/marmalade/7.2/s3e/h/std/c++/climits'
p1824
sbsS'easyArray.h'
p1825
g302
(g1626
g304
Ntp1826
Rp1827
(dp1828
g1630
g1195
sg1631
(lp1829
S'stars'
p1830
ag1206
asg328
g1208
sbsS's3eVibra.h'
p1831
g302
(g1626
g304
Ntp1832
Rp1833
(dp1834
g1630
g1638
sg1631
g1654
sg328
S'c:/marmalade/7.2/s3e/h/s3eVibra.h'
p1835
sbsS'jversion.h'
p1836
g302
(g1626
g304
Ntp1837
Rp1838
(dp1839
g1630
g1052
sg1631
g1729
sg328
g1063
sbsS'fnmatch.h'
p1840
g302
(g1626
g304
Ntp1841
Rp1842
(dp1843
g1630
g1638
sg1631
g1660
sg328
S'c:/marmalade/7.2/s3e/h/std/fnmatch.h'
p1844
sbsS'IwGxState.h'
p1845
g302
(g1626
g304
Ntp1846
Rp1847
(dp1848
g1630
g1438
sg1631
g1779
sg328
g1486
sbsS's3eAudio.h'
p1849
g302
(g1626
g304
Ntp1850
Rp1851
(dp1852
g1630
g1638
sg1631
g1654
sg328
S'c:/marmalade/7.2/s3e/h/s3eAudio.h'
p1853
sbsS'store.h'
p1854
g302
(g1626
g304
Ntp1855
Rp1856
(dp1857
g1630
g1195
sg1631
g1694
sg328
g1264
sbsS's3eSurface.h'
p1858
g302
(g1626
g304
Ntp1859
Rp1860
(dp1861
g1630
g1638
sg1631
g1654
sg328
S'c:/marmalade/7.2/s3e/h/s3eSurface.h'
p1862
sbsS'new'
p1863
g302
(g1626
g304
Ntp1864
Rp1865
(dp1866
g1630
g1638
sg1631
g1639
sg328
S'c:/marmalade/7.2/s3e/h/std/c++/new'
p1867
sbsS's3eWindow.h'
p1868
g302
(g1626
g304
Ntp1869
Rp1870
(dp1871
g1630
g1638
sg1631
(lp1872
g1640
aS'Extensions'
p1873
asg328
S'c:/marmalade/7.2/s3e/h/ext/s3eWindow.h'
p1874
sbsS'IwBuffer.h'
p1875
g302
(g1626
g304
Ntp1876
Rp1877
(dp1878
g1630
g1502
sg1631
g1667
sg328
g1509
sbsS's3eflurry.mkf'
p1879
g302
(g1626
g304
Ntp1880
Rp1881
(dp1882
g1630
g1188
sg1631
(lp1883
g1144
ag1175
asg328
g1186
sbsS'stdio_streambuf'
p1884
g302
(g1626
g304
Ntp1885
Rp1886
(dp1887
g1630
g1638
sg1631
g1639
sg328
S'c:/marmalade/7.2/s3e/h/std/c++/stdio_streambuf'
p1888
sbsS's3eOSExec.h'
p1889
g302
(g1626
g304
Ntp1890
Rp1891
(dp1892
g1630
g1638
sg1631
g1872
sg328
S'c:/marmalade/7.2/s3e/h/ext/s3eOSExec.h'
p1893
sbsS'IwGxTransformSW.h'
p1894
g302
(g1626
g304
Ntp1895
Rp1896
(dp1897
g1630
g1438
sg1631
g1779
sg328
g1441
sbsS'unistd.h'
p1898
g302
(g1626
g304
Ntp1899
Rp1900
(dp1901
g1630
g1638
sg1631
g1660
sg328
S'c:/marmalade/7.2/s3e/h/std/unistd.h'
p1902
sbsS'spriteManager.h'
p1903
g302
(g1626
g304
Ntp1904
Rp1905
(dp1906
g1630
g1195
sg1631
g1673
sg328
g1232
sbsS'iwgxfont.config.txt'
p1907
g302
(g1626
g304
Ntp1908
Rp1909
(dp1910
g1630
g1324
sg1631
g1632
sg328
g1340
sbsS'gl2platform.h'
p1911
g302
(g1626
g304
Ntp1912
Rp1913
(dp1914
g1630
g1638
sg1631
(lp1915
g1640
aS'GL'
p1916
aS'GLES 2.0'
p1917
asg328
S'c:/marmalade/7.2/s3e/h/GLES2/gl2platform.h'
p1918
sbsS'IwResManagerClass.h'
p1919
g302
(g1626
g304
Ntp1920
Rp1921
(dp1922
g1630
g1414
sg1631
(lp1923
g1282
ag1410
asg328
g1426
sbsS'queue'
p1924
g302
(g1626
g304
Ntp1925
Rp1926
(dp1927
g1630
g1638
sg1631
g1639
sg328
S'c:/marmalade/7.2/s3e/h/std/c++/queue'
p1928
sbsS'time_1.h'
p1929
g302
(g1626
g304
Ntp1930
Rp1931
(dp1932
g1630
g1638
sg1631
g1793
sg328
S'c:/marmalade/7.2/s3e/h/std/sys/time.h'
p1933
sbsS'IwSoundPCM.h'
p1934
g302
(g1626
g304
Ntp1935
Rp1936
(dp1937
g1630
g1096
sg1631
g1684
sg328
g1132
sbsS'Iw2D.h'
p1938
g302
(g1626
g304
Ntp1939
Rp1940
(dp1941
g1630
g1312
sg1631
g1734
sg328
g1313
sbsS'IwGeomVec2.h'
p1942
g302
(g1626
g304
Ntp1943
Rp1944
(dp1945
g1630
g1346
sg1631
g1699
sg328
g1377
sbsS'sendfile.h'
p1946
g302
(g1626
g304
Ntp1947
Rp1948
(dp1949
g1630
g1638
sg1631
g1793
sg328
S'c:/marmalade/7.2/s3e/h/std/sys/sendfile.h'
p1950
sbsS'malloc.h'
p1951
g302
(g1626
g304
Ntp1952
Rp1953
(dp1954
g1630
g1638
sg1631
g1660
sg328
S'c:/marmalade/7.2/s3e/h/std/malloc.h'
p1955
sbsS'timerManager.h'
p1956
g302
(g1626
g304
Ntp1957
Rp1958
(dp1959
g1630
g1195
sg1631
g1673
sg328
g1236
sbsS'stdarg.h'
p1960
g302
(g1626
g304
Ntp1961
Rp1962
(dp1963
g1630
g1638
sg1631
g1660
sg328
S'c:/marmalade/7.2/s3e/h/std/stdarg.h'
p1964
sbsS'IwGeomCore.h'
p1965
g302
(g1626
g304
Ntp1966
Rp1967
(dp1968
g1630
g1346
sg1631
g1699
sg328
g1361
sbsS'Iw2DSceneGraph.h'
p1969
g302
(g1626
g304
Ntp1970
Rp1971
(dp1972
g1630
g1288
sg1631
(lp1973
S"'Marmalade Studio'"
p1974
ag1284
asg328
g1292
sbsS'endian.h'
p1975
g302
(g1626
g304
Ntp1976
Rp1977
(dp1978
g1630
g1638
sg1631
g1660
sg328
S'c:/marmalade/7.2/s3e/h/std/endian.h'
p1979
sbsS'glob.h'
p1980
g302
(g1626
g304
Ntp1981
Rp1982
(dp1983
g1630
g1638
sg1631
g1660
sg328
S'c:/marmalade/7.2/s3e/h/std/glob.h'
p1984
sbsS'fstream'
p1985
g302
(g1626
g304
Ntp1986
Rp1987
(dp1988
g1630
g1638
sg1631
g1639
sg328
S'c:/marmalade/7.2/s3e/h/std/c++/fstream'
p1989
sbsS'include.h'
p1990
g302
(g1626
g304
Ntp1991
Rp1992
(dp1993
g1630
g1195
sg1631
(lp1994
S'stars'
p1995
ag1210
asg328
g1216
sbsS'jconfig.h'
p1996
g302
(g1626
g304
Ntp1997
Rp1998
(dp1999
g1630
g1052
sg1631
g1729
sg328
g1053
sbsS'memory'
p2000
g302
(g1626
g304
Ntp2001
Rp2002
(dp2003
g1630
g1638
sg1631
g1639
sg328
S'c:/marmalade/7.2/s3e/h/std/c++/memory'
p2004
sbsS'strstream'
p2005
g302
(g1626
g304
Ntp2006
Rp2007
(dp2008
g1630
g1638
sg1631
g1639
sg328
S'c:/marmalade/7.2/s3e/h/std/c++/strstream'
p2009
sbsS'pthread.h'
p2010
g302
(g1626
g304
Ntp2011
Rp2012
(dp2013
g1630
g1638
sg1631
g1660
sg328
S'c:/marmalade/7.2/s3e/h/std/pthread.h'
p2014
sbsS'egl_1.h'
p2015
g302
(g1626
g304
Ntp2016
Rp2017
(dp2018
g1630
g1638
sg1631
(lp2019
g1640
aS'GL'
p2020
aS'GLES 1.x'
p2021
asg328
S'c:/marmalade/7.2/s3e/h/GLES/egl.h'
p2022
sbsS'IwMemManagerDL.h'
p2023
g302
(g1626
g304
Ntp2024
Rp2025
(dp2026
g1630
g1502
sg1631
g1667
sg328
g1557
sbsS'deque'
p2027
g302
(g1626
g304
Ntp2028
Rp2029
(dp2030
g1630
g1638
sg1631
g1639
sg328
S'c:/marmalade/7.2/s3e/h/std/c++/deque'
p2031
sbsS'IwString.h'
p2032
g302
(g1626
g304
Ntp2033
Rp2034
(dp2035
g1630
g1502
sg1631
g1667
sg328
g1543
sbsS'cwchar'
p2036
g302
(g1626
g304
Ntp2037
Rp2038
(dp2039
g1630
g1638
sg1631
g1639
sg328
S'c:/marmalade/7.2/s3e/h/std/c++/cwchar'
p2040
sbsS'iwutil.mkf'
p2041
g302
(g1626
g304
Ntp2042
Rp2043
(dp2044
g1630
g1587
sg1631
g1667
sg328
g1585
sbsS'csignal'
p2045
g302
(g1626
g304
Ntp2046
Rp2047
(dp2048
g1630
g1638
sg1631
g1639
sg328
S'c:/marmalade/7.2/s3e/h/std/c++/csignal'
p2049
sbsS'float.h'
p2050
g302
(g1626
g304
Ntp2051
Rp2052
(dp2053
g1630
g1638
sg1631
g1660
sg328
S'c:/marmalade/7.2/s3e/h/std/float.h'
p2054
sbsS'pthread_alloc'
p2055
g302
(g1626
g304
Ntp2056
Rp2057
(dp2058
g1630
g1638
sg1631
g1639
sg328
S'c:/marmalade/7.2/s3e/h/std/c++/pthread_alloc'
p2059
sbsS'getopt.h'
p2060
g302
(g1626
g304
Ntp2061
Rp2062
(dp2063
g1630
g1638
sg1631
g1660
sg328
S'c:/marmalade/7.2/s3e/h/std/getopt.h'
p2064
sbsS'IwOptimiseARM.h'
p2065
g302
(g1626
g304
Ntp2066
Rp2067
(dp2068
g1630
g1502
sg1631
g1667
sg328
g1581
sbsS'times.h'
p2069
g302
(g1626
g304
Ntp2070
Rp2071
(dp2072
g1630
g1638
sg1631
g1793
sg328
S'c:/marmalade/7.2/s3e/h/std/sys/times.h'
p2073
sbsS'IwGeomFSphere.h'
p2074
g302
(g1626
g304
Ntp2075
Rp2076
(dp2077
g1630
g1346
sg1631
g1699
sg328
g1394
sbsS'game.h'
p2078
g302
(g1626
g304
Ntp2079
Rp2080
(dp2081
g1630
g1195
sg1631
g1694
sg328
g1278
sbsS'functional'
p2082
g302
(g1626
g304
Ntp2083
Rp2084
(dp2085
g1630
g1638
sg1631
g1639
sg328
S'c:/marmalade/7.2/s3e/h/std/c++/functional'
p2086
sbsS'IwTypes.h'
p2087
g302
(g1626
g304
Ntp2088
Rp2089
(dp2090
g1630
g1502
sg1631
g1667
sg328
g1551
sbsS'IwGxMetrics.h'
p2091
g302
(g1626
g304
Ntp2092
Rp2093
(dp2094
g1630
g1438
sg1631
g1779
sg328
g1468
sbsS's3eCompression.h'
p2095
g302
(g1626
g304
Ntp2096
Rp2097
(dp2098
g1630
g1638
sg1631
g1654
sg328
S'c:/marmalade/7.2/s3e/h/s3eCompression.h'
p2099
sbsS'langinfo.h'
p2100
g302
(g1626
g304
Ntp2101
Rp2102
(dp2103
g1630
g1638
sg1631
g1660
sg328
S'c:/marmalade/7.2/s3e/h/std/langinfo.h'
p2104
sbsS's3edebugHeap.h'
p2105
g302
(g1626
g304
Ntp2106
Rp2107
(dp2108
g1630
g1638
sg1631
g1872
sg328
S'c:/marmalade/7.2/s3e/h/ext/s3edebugHeap.h'
p2109
sbsS'AirplayVersion.h'
p2110
g302
(g1626
g304
Ntp2111
Rp2112
(dp2113
g1630
g1638
sg1631
g1654
sg328
S'c:/marmalade/7.2/s3e/h/AirplayVersion.h'
p2114
sbsS'gl2extimg.h'
p2115
g302
(g1626
g304
Ntp2116
Rp2117
(dp2118
g1630
g1638
sg1631
g1915
sg328
S'c:/marmalade/7.2/s3e/h/GLES2/gl2extimg.h'
p2119
sbsS'app.config.txt'
p2120
g302
(g1626
g304
Ntp2121
Rp2122
(dp2123
g1630
(dp2124
sg1631
g4
sg328
S'c:/Users/Vinicius/Desktop/Yes or No/Stars/data/app.config.txt'
p2125
sbsS'IwGeomSqrt.h'
p2126
g302
(g1626
g304
Ntp2127
Rp2128
(dp2129
g1630
g1346
sg1631
g1699
sg328
g1357
sbsS'tiniconv_int.h'
p2130
g302
(g1626
g304
Ntp2131
Rp2132
(dp2133
g1630
g1086
sg1631
(lp2134
g1082
asg328
g1087
sbsS'syslog.h'
p2135
g302
(g1626
g304
Ntp2136
Rp2137
(dp2138
g1630
g1638
sg1631
g1660
sg328
S'c:/marmalade/7.2/s3e/h/std/syslog.h'
p2139
sbsS'IwGxFontTypes.h'
p2140
g302
(g1626
g304
Ntp2141
Rp2142
(dp2143
g1630
g1324
sg1631
g1632
sg328
g1335
sbsS'IwGeomFIntersect.h'
p2144
g302
(g1626
g304
Ntp2145
Rp2146
(dp2147
g1630
g1346
sg1631
g1699
sg328
g1389
sbsS'hash_map'
p2148
g302
(g1626
g304
Ntp2149
Rp2150
(dp2151
g1630
g1638
sg1631
g1639
sg328
S'c:/marmalade/7.2/s3e/h/std/c++/hash_map'
p2152
sbsS's3e.mkf'
p2153
g302
(g1626
g304
Ntp2154
Rp2155
(dp2156
g1630
(dp2157
sg1631
g1654
sg328
S'c:/marmalade/7.2/s3e/s3e.mkf'
p2158
sbsS's3eOSReadString.h'
p2159
g302
(g1626
g304
Ntp2160
Rp2161
(dp2162
g1630
g1638
sg1631
g1872
sg328
S'c:/marmalade/7.2/s3e/h/ext/s3eOSReadString.h'
p2163
sbsS'vortex.h'
p2164
g302
(g1626
g304
Ntp2165
Rp2166
(dp2167
g1630
g1195
sg1631
(lp2168
S'stars'
p2169
ag1191
asg328
g1204
sbsS'player.cpp'
p2170
g302
(g1626
g304
Ntp2171
Rp2172
(dp2173
g1630
g1195
sg1631
g2168
sg328
g1200
sbsS'IwSound.h'
p2174
g302
(g1626
g304
Ntp2175
Rp2176
(dp2177
g1630
g1096
sg1631
g1684
sg328
g1124
sbsS'map'
p2178
g302
(g1626
g304
Ntp2179
Rp2180
(dp2181
g1630
g1638
sg1631
g1639
sg328
S'c:/marmalade/7.2/s3e/h/std/c++/map'
p2182
sbsS'iwtween.mkf'
p2183
g302
(g1626
g304
Ntp2184
Rp2185
(dp2186
g1630
g1617
sg1631
(lp2187
g1613
asg328
g1615
sbsS'IwOptimiseSpeed.h'
p2188
g302
(g1626
g304
Ntp2189
Rp2190
(dp2191
g1630
g1502
sg1631
g1667
sg328
g1592
sbsS'inputManager.h'
p2192
g302
(g1626
g304
Ntp2193
Rp2194
(dp2195
g1630
g1195
sg1631
g1673
sg328
g1224
sbsS'ostream'
p2196
g302
(g1626
g304
Ntp2197
Rp2198
(dp2199
g1630
g1638
sg1631
g1639
sg328
S'c:/marmalade/7.2/s3e/h/std/c++/ostream'
p2200
sbsS'msl_string.h'
p2201
g302
(g1626
g304
Ntp2202
Rp2203
(dp2204
g1630
g1638
sg1631
g1639
sg328
S'c:/marmalade/7.2/s3e/h/std/c++/msl_string.h'
p2205
sbsS'select.h'
p2206
g302
(g1626
g304
Ntp2207
Rp2208
(dp2209
g1630
g1638
sg1631
g1793
sg328
S'c:/marmalade/7.2/s3e/h/std/sys/select.h'
p2210
sbsS'zlib.mkf'
p2211
g302
(g1626
g304
Ntp2212
Rp2213
(dp2214
g1630
g1612
sg1631
(lp2215
g1602
asg328
g1610
sbsS'signal.h'
p2216
g302
(g1626
g304
Ntp2217
Rp2218
(dp2219
g1630
g1638
sg1631
g1660
sg328
S'c:/marmalade/7.2/s3e/h/std/signal.h'
p2220
sbsS'sigcontext.h'
p2221
g302
(g1626
g304
Ntp2222
Rp2223
(dp2224
g1630
g1638
sg1631
g1660
sg328
S'c:/marmalade/7.2/s3e/h/std/sigcontext.h'
p2225
sbsS'libpng.mkf'
p2226
g302
(g1626
g304
Ntp2227
Rp2228
(dp2229
g1630
g1046
sg1631
(lp2230
g1035
asg328
g1044
sbsS's3eClipboard.h'
p2231
g302
(g1626
g304
Ntp2232
Rp2233
(dp2234
g1630
g1638
sg1631
g1654
sg328
S'c:/marmalade/7.2/s3e/h/s3eClipboard.h'
p2235
sbsS'IwGxFuncTable.h'
p2236
g302
(g1626
g304
Ntp2237
Rp2238
(dp2239
g1630
g1438
sg1631
g1779
sg328
g1474
sbsS'IwResHandlerGROUP.h'
p2240
g302
(g1626
g304
Ntp2241
Rp2242
(dp2243
g1630
g1414
sg1631
g1923
sg328
g1412
sbsS's3eDebug.h'
p2244
g302
(g1626
g304
Ntp2245
Rp2246
(dp2247
g1630
g1638
sg1631
g1654
sg328
S'c:/marmalade/7.2/s3e/h/s3eDebug.h'
p2248
sbsS'socket.h'
p2249
g302
(g1626
g304
Ntp2250
Rp2251
(dp2252
g1630
g1638
sg1631
g1793
sg328
S'c:/marmalade/7.2/s3e/h/std/sys/socket.h'
p2253
sbsS'glext.h'
p2254
g302
(g1626
g304
Ntp2255
Rp2256
(dp2257
g1630
g1638
sg1631
g2019
sg328
S'c:/marmalade/7.2/s3e/h/GLES/glext.h'
p2258
sbsS'typeinfo.h'
p2259
g302
(g1626
g304
Ntp2260
Rp2261
(dp2262
g1630
g1638
sg1631
g1639
sg328
S'c:/marmalade/7.2/s3e/h/std/c++/typeinfo.h'
p2263
sbsS'typeinfo'
p2264
g302
(g1626
g304
Ntp2265
Rp2266
(dp2267
g1630
g1638
sg1631
g1639
sg328
S'c:/marmalade/7.2/s3e/h/std/c++/typeinfo'
p2268
sbsS'iwsound.config.txt'
p2269
g302
(g1626
g304
Ntp2270
Rp2271
(dp2272
g1630
g1096
sg1631
(lp2273
g1092
ag1110
asg328
g1112
sbsS'fstream.h'
p2274
g302
(g1626
g304
Ntp2275
Rp2276
(dp2277
g1630
g1638
sg1631
g1639
sg328
S'c:/marmalade/7.2/s3e/h/std/c++/fstream.h'
p2278
sbsS'IwGeomMat.h'
p2279
g302
(g1626
g304
Ntp2280
Rp2281
(dp2282
g1630
g1346
sg1631
g1699
sg328
g1351
sbsS's3ePointer.h'
p2283
g302
(g1626
g304
Ntp2284
Rp2285
(dp2286
g1630
g1638
sg1631
g1654
sg328
S'c:/marmalade/7.2/s3e/h/s3ePointer.h'
p2287
sbsS'getStars.cpp'
p2288
g302
(g1626
g304
Ntp2289
Rp2290
(dp2291
g1630
g1195
sg1631
g1694
sg328
g1268
sbsS'options.cpp'
p2292
g302
(g1626
g304
Ntp2293
Rp2294
(dp2295
g1630
g1195
sg1631
g1694
sg328
g1276
sbsS's3eGL.h'
p2296
g302
(g1626
g304
Ntp2297
Rp2298
(dp2299
g1630
g1638
sg1631
g1654
sg328
S'c:/marmalade/7.2/s3e/h/s3eGL.h'
p2300
sbsS'IwGeomFVec2.h'
p2301
g302
(g1626
g304
Ntp2302
Rp2303
(dp2304
g1630
g1346
sg1631
g1699
sg328
g1365
sbsS'IwGeomSVec4.h'
p2305
g302
(g1626
g304
Ntp2306
Rp2307
(dp2308
g1630
g1346
sg1631
g1699
sg328
g1385
sbsS'poll.h'
p2309
g302
(g1626
g304
Ntp2310
Rp2311
(dp2312
g1630
g1638
sg1631
g1660
sg328
S'c:/marmalade/7.2/s3e/h/std/poll.h'
p2313
sbsS'IwMatAnim.h'
p2314
g302
(g1626
g304
Ntp2315
Rp2316
(dp2317
g1630
g1438
sg1631
g1779
sg328
g1445
sbsS'IwGeomFVec4.h'
p2318
g302
(g1626
g304
Ntp2319
Rp2320
(dp2321
g1630
g1346
sg1631
g1699
sg328
g1371
sbsS'IwGx.h'
p2322
g302
(g1626
g304
Ntp2323
Rp2324
(dp2325
g1630
g1438
sg1631
g1779
sg328
g1462
sbsS'valarray'
p2326
g302
(g1626
g304
Ntp2327
Rp2328
(dp2329
g1630
g1638
sg1631
g1639
sg328
S'c:/marmalade/7.2/s3e/h/std/c++/valarray'
p2330
sbsS'iosfwd'
p2331
g302
(g1626
g304
Ntp2332
Rp2333
(dp2334
g1630
g1638
sg1631
g1639
sg328
S'c:/marmalade/7.2/s3e/h/std/c++/iosfwd'
p2335
sbsS'gl2.h'
p2336
g302
(g1626
g304
Ntp2337
Rp2338
(dp2339
g1630
g1638
sg1631
g1915
sg328
S'c:/marmalade/7.2/s3e/h/GLES2/gl2.h'
p2340
sbsS'jpegint.h'
p2341
g302
(g1626
g304
Ntp2342
Rp2343
(dp2344
g1630
g1052
sg1631
g1729
sg328
g1057
sbsS'stdiostream.h'
p2345
g302
(g1626
g304
Ntp2346
Rp2347
(dp2348
g1630
g1638
sg1631
g1639
sg328
S'c:/marmalade/7.2/s3e/h/std/c++/stdiostream.h'
p2349
sbsS'mem.h'
p2350
g302
(g1626
g304
Ntp2351
Rp2352
(dp2353
g1630
g1638
sg1631
g1639
sg328
S'c:/marmalade/7.2/s3e/h/std/c++/mem.h'
p2354
sbsS'main.cpp'
p2355
g302
(g1626
g304
Ntp2356
Rp2357
(dp2358
g1630
g1195
sg1631
g1994
sg328
g1214
sbsS'zconf.h'
p2359
g302
(g1626
g304
Ntp2360
Rp2361
(dp2362
g1630
g1607
sg1631
(lp2363
g1602
ag1037
asg328
g1605
sbsS's3e.config.txt'
p2364
g302
(g1626
g304
Ntp2365
Rp2366
(dp2367
g1630
g1638
sg1631
g1654
sg328
S'c:/marmalade/7.2/s3e/s3e.config.txt'
p2368
sbsS'numeric'
p2369
g302
(g1626
g304
Ntp2370
Rp2371
(dp2372
g1630
g1638
sg1631
g1639
sg328
S'c:/marmalade/7.2/s3e/h/std/c++/numeric'
p2373
sbsS'utime.h'
p2374
g302
(g1626
g304
Ntp2375
Rp2376
(dp2377
g1630
g1638
sg1631
g1660
sg328
S'c:/marmalade/7.2/s3e/h/std/utime.h'
p2378
sbsS'jdhuff.h'
p2379
g302
(g1626
g304
Ntp2380
Rp2381
(dp2382
g1630
g1052
sg1631
g1729
sg328
g1067
sbsS'IwResHandlerWAV.cpp'
p2383
g302
(g1626
g304
Ntp2384
Rp2385
(dp2386
g1630
g1096
sg1631
g1684
sg328
g1114
sbsS'IwGxStream.h'
p2387
g302
(g1626
g304
Ntp2388
Rp2389
(dp2390
g1630
g1438
sg1631
g1779
sg328
g1439
sbsS'resourceManager.h'
p2391
g302
(g1626
g304
Ntp2392
Rp2393
(dp2394
g1630
g1195
sg1631
g1673
sg328
g1228
sbsS'IwImage.h'
p2395
g302
(g1626
g304
Ntp2396
Rp2397
(dp2398
g1630
g1502
sg1631
g1667
sg328
g1549
sbsS's3eImagePicker.h'
p2399
g302
(g1626
g304
Ntp2400
Rp2401
(dp2402
g1630
g1638
sg1631
g1872
sg328
S'c:/marmalade/7.2/s3e/h/ext/s3eImagePicker.h'
p2403
sbsS's3eWebView.defines.txt'
p2404
g302
(g1626
g304
Ntp2405
Rp2406
(dp2407
g1630
g1152
sg1631
(lp2408
S'Extensions'
p2409
ag1146
ag1148
asg328
g1150
sbsS'stdlib.h'
p2410
g302
(g1626
g304
Ntp2411
Rp2412
(dp2413
g1630
g1638
sg1631
g1660
sg328
S'c:/marmalade/7.2/s3e/h/std/stdlib.h'
p2414
sbsS'IwCopyingPtr.h'
p2415
g302
(g1626
g304
Ntp2416
Rp2417
(dp2418
g1630
g1502
sg1631
g1667
sg328
g1579
sbsS'iostream'
p2419
g302
(g1626
g304
Ntp2420
Rp2421
(dp2422
g1630
g1638
sg1631
g1639
sg328
S'c:/marmalade/7.2/s3e/h/std/c++/iostream'
p2423
sbsS'png.h'
p2424
g302
(g1626
g304
Ntp2425
Rp2426
(dp2427
g1630
g1041
sg1631
(lp2428
g1035
ag1037
asg328
g1039
sbsS'stddef.h'
p2429
g302
(g1626
g304
Ntp2430
Rp2431
(dp2432
g1630
g1638
sg1631
g1660
sg328
S'c:/marmalade/7.2/s3e/h/std/stddef.h'
p2433
sbsS'setjmp_win32.h'
p2434
g302
(g1626
g304
Ntp2435
Rp2436
(dp2437
g1630
g1638
sg1631
g1660
sg328
S'c:/marmalade/7.2/s3e/h/std/setjmp_win32.h'
p2438
sbsS'IwGxPrint.h'
p2439
g302
(g1626
g304
Ntp2440
Rp2441
(dp2442
g1630
g1438
sg1631
g1779
sg328
g1454
sbsS'iwgx_public.defines.txt'
p2443
g302
(g1626
g304
Ntp2444
Rp2445
(dp2446
g1630
g1438
sg1631
g1779
sg328
g1458
sbsS'streambuf.h'
p2447
g302
(g1626
g304
Ntp2448
Rp2449
(dp2450
g1630
g1638
sg1631
g1639
sg328
S'c:/marmalade/7.2/s3e/h/std/c++/streambuf.h'
p2451
sbsS'IwGeomFPlane.h'
p2452
g302
(g1626
g304
Ntp2453
Rp2454
(dp2455
g1630
g1346
sg1631
g1699
sg328
g1347
sbsS'un.h'
p2456
g302
(g1626
g304
Ntp2457
Rp2458
(dp2459
g1630
g1638
sg1631
g1793
sg328
S'c:/marmalade/7.2/s3e/h/std/sys/un.h'
p2460
sbsS'wchar.h'
p2461
g302
(g1626
g304
Ntp2462
Rp2463
(dp2464
g1630
g1638
sg1631
g1660
sg328
S'c:/marmalade/7.2/s3e/h/std/wchar.h'
p2465
sbsS's3eCameraCapture.h'
p2466
g302
(g1626
g304
Ntp2467
Rp2468
(dp2469
g1630
g1638
sg1631
g1872
sg328
S'c:/marmalade/7.2/s3e/h/ext/s3eCameraCapture.h'
p2470
sbsS'eglext.h'
p2471
g302
(g1626
g304
Ntp2472
Rp2473
(dp2474
g1630
g1638
sg1631
(lp2475
g1640
aS'GL'
p2476
aS'EGL'
p2477
asg328
S'c:/marmalade/7.2/s3e/h/EGL/eglext.h'
p2478
sbsS'IwResHandlerImage.h'
p2479
g302
(g1626
g304
Ntp2480
Rp2481
(dp2482
g1630
g1414
sg1631
g1923
sg328
g1422
sbsS'strstream.h'
p2483
g302
(g1626
g304
Ntp2484
Rp2485
(dp2486
g1630
g1638
sg1631
g1639
sg328
S'c:/marmalade/7.2/s3e/h/std/c++/strstream.h'
p2487
sbsS'tiniconv.h'
p2488
g302
(g1626
g304
Ntp2489
Rp2490
(dp2491
g1630
g1086
sg1631
g2134
sg328
g1084
sbsS'IwGLExt.h'
p2492
g302
(g1626
g304
Ntp2493
Rp2494
(dp2495
g1630
g1300
sg1631
g1648
sg328
g1304
sbsS'app.icf'
p2496
g302
(g1626
g304
Ntp2497
Rp2498
(dp2499
g1630
(dp2500
sg1631
g4
sg328
S'c:/Users/Vinicius/Desktop/Yes or No/Stars/data/app.icf'
p2501
sbsS'IwClassFactory.h'
p2502
g302
(g1626
g304
Ntp2503
Rp2504
(dp2505
g1630
g1502
sg1631
g1667
sg328
g1565
sbsS'file.h'
p2506
g302
(g1626
g304
Ntp2507
Rp2508
(dp2509
g1630
g1638
sg1631
g1793
sg328
S'c:/marmalade/7.2/s3e/h/std/sys/file.h'
p2510
sbsS'cstring'
p2511
g302
(g1626
g304
Ntp2512
Rp2513
(dp2514
g1630
g1638
sg1631
g1639
sg328
S'c:/marmalade/7.2/s3e/h/std/c++/cstring'
p2515
sbsS'IwSoundInst.cpp'
p2516
g302
(g1626
g304
Ntp2517
Rp2518
(dp2519
g1630
g1096
sg1631
g1684
sg328
g1100
sbsS'iwutil.config.txt'
p2520
g302
(g1626
g304
Ntp2521
Rp2522
(dp2523
g1630
g1502
sg1631
g1667
sg328
g1563
sbsS's3eSMS.h'
p2524
g302
(g1626
g304
Ntp2525
Rp2526
(dp2527
g1630
g1638
sg1631
g1872
sg328
S'c:/marmalade/7.2/s3e/h/ext/s3eSMS.h'
p2528
sbsS'limits.h'
p2529
g302
(g1626
g304
Ntp2530
Rp2531
(dp2532
g1630
g1638
sg1631
g1660
sg328
S'c:/marmalade/7.2/s3e/h/std/limits.h'
p2533
sbsS's3eLibrary.h'
p2534
g302
(g1626
g304
Ntp2535
Rp2536
(dp2537
g1630
g1638
sg1631
g1872
sg328
S'c:/marmalade/7.2/s3e/h/ext/s3eLibrary.h'
p2538
sbsS'savedataManager.cpp'
p2539
g302
(g1626
g304
Ntp2540
Rp2541
(dp2542
g1630
g1195
sg1631
g1673
sg328
g1240
sbsS'IwMaterial.h'
p2543
g302
(g1626
g304
Ntp2544
Rp2545
(dp2546
g1630
g1438
sg1631
g1779
sg328
g1443
sbsS's3eFlurry.defines.txt'
p2547
g302
(g1626
g304
Ntp2548
Rp2549
(dp2550
g1630
g1181
sg1631
(lp2551
g1144
ag1175
ag1177
asg328
g1182
sbsS'IwGxSurface.h'
p2552
g302
(g1626
g304
Ntp2553
Rp2554
(dp2555
g1630
g1438
sg1631
g1779
sg328
g1456
sbsS's3eSocket.h'
p2556
g302
(g1626
g304
Ntp2557
Rp2558
(dp2559
g1630
g1638
sg1631
g1654
sg328
S'c:/marmalade/7.2/s3e/h/s3eSocket.h'
p2560
sbsS'IwAutoFile.h'
p2561
g302
(g1626
g304
Ntp2562
Rp2563
(dp2564
g1630
g1502
sg1631
g1667
sg328
g1569
sbsS'ipc.h'
p2565
g302
(g1626
g304
Ntp2566
Rp2567
(dp2568
g1630
g1638
sg1631
g1793
sg328
S'c:/marmalade/7.2/s3e/h/std/sys/ipc.h'
p2569
sbsS'poll_1.h'
p2570
g302
(g1626
g304
Ntp2571
Rp2572
(dp2573
g1630
g1638
sg1631
g1793
sg328
S'c:/marmalade/7.2/s3e/h/std/sys/poll.h'
p2574
sbsS's3eThread.h'
p2575
g302
(g1626
g304
Ntp2576
Rp2577
(dp2578
g1630
g1638
sg1631
g1654
sg328
S'c:/marmalade/7.2/s3e/h/s3eThread.h'
p2579
sbsS'ucontext.h'
p2580
g302
(g1626
g304
Ntp2581
Rp2582
(dp2583
g1630
g1638
sg1631
g1660
sg328
S'c:/marmalade/7.2/s3e/h/std/ucontext.h'
p2584
sbsS'time.h'
p2585
g302
(g1626
g304
Ntp2586
Rp2587
(dp2588
g1630
g1638
sg1631
g1660
sg328
S'c:/marmalade/7.2/s3e/h/std/time.h'
p2589
sbsS'jchuff.h'
p2590
g302
(g1626
g304
Ntp2591
Rp2592
(dp2593
g1630
g1052
sg1631
g1729
sg328
g1075
sbsS'IwSoundPCM.cpp'
p2594
g302
(g1626
g304
Ntp2595
Rp2596
(dp2597
g1630
g1096
sg1631
g1684
sg328
g1128
sbsS's3eSoundRecord.h'
p2598
g302
(g1626
g304
Ntp2599
Rp2600
(dp2601
g1630
g1638
sg1631
g1654
sg328
S'c:/marmalade/7.2/s3e/h/s3eSoundRecord.h'
p2602
sbsS'IwFibre.h'
p2603
g302
(g1626
g304
Ntp2604
Rp2605
(dp2606
g1630
g1502
sg1631
g1667
sg328
g1507
sbsS'IwMemBucket.h'
p2607
g302
(g1626
g304
Ntp2608
Rp2609
(dp2610
g1630
g1502
sg1631
g1667
sg328
g1583
sbsS'strings.h'
p2611
g302
(g1626
g304
Ntp2612
Rp2613
(dp2614
g1630
g1638
sg1631
g1660
sg328
S'c:/marmalade/7.2/s3e/h/std/strings.h'
p2615
sbsS's3eVersion.h'
p2616
g302
(g1626
g304
Ntp2617
Rp2618
(dp2619
g1630
g1638
sg1631
g1654
sg328
S'c:/marmalade/7.2/s3e/h/s3eVersion.h'
p2620
sbsS'IwSoundGroup.h'
p2621
g302
(g1626
g304
Ntp2622
Rp2623
(dp2624
g1630
g1096
sg1631
g1684
sg328
g1134
sbsS'IwSoundWAV.h'
p2625
g302
(g1626
g304
Ntp2626
Rp2627
(dp2628
g1630
g1096
sg1631
g1684
sg328
g1126
sbsS'IwGxFontGlyph.h'
p2629
g302
(g1626
g304
Ntp2630
Rp2631
(dp2632
g1630
g1324
sg1631
g1632
sg328
g1331
sbsS's3eTypes.h'
p2633
g302
(g1626
g304
Ntp2634
Rp2635
(dp2636
g1630
g1638
sg1631
g1654
sg328
S'c:/marmalade/7.2/s3e/h/s3eTypes.h'
p2637
sbsS'IwSoundSpec.h'
p2638
g302
(g1626
g304
Ntp2639
Rp2640
(dp2641
g1630
g1096
sg1631
g1684
sg328
g1130
sbsS'signal_2.h'
p2642
g302
(g1626
g304
Ntp2643
Rp2644
(dp2645
g1630
g1638
sg1631
g1639
sg328
S'c:/marmalade/7.2/s3e/h/std/c++/signal.h'
p2646
sbsS'termios.h'
p2647
g302
(g1626
g304
Ntp2648
Rp2649
(dp2650
g1630
g1638
sg1631
g1660
sg328
S'c:/marmalade/7.2/s3e/h/std/termios.h'
p2651
sbsS'iw2dscenegraph.mkf'
p2652
g302
(g1626
g304
Ntp2653
Rp2654
(dp2655
g1630
g1291
sg1631
g1973
sg328
g1289
sbsS'slist'
p2656
g302
(g1626
g304
Ntp2657
Rp2658
(dp2659
g1630
g1638
sg1631
g1639
sg328
S'c:/marmalade/7.2/s3e/h/std/c++/slist'
p2660
sbsS'cstdlib'
p2661
g302
(g1626
g304
Ntp2662
Rp2663
(dp2664
g1630
g1638
sg1631
g1639
sg328
S'c:/marmalade/7.2/s3e/h/std/c++/cstdlib'
p2665
sbsS's3eLocation.h'
p2666
g302
(g1626
g304
Ntp2667
Rp2668
(dp2669
g1630
g1638
sg1631
g1654
sg328
S'c:/marmalade/7.2/s3e/h/s3eLocation.h'
p2670
sbsS'IwMemBucketHelpers.h'
p2671
g302
(g1626
g304
Ntp2672
Rp2673
(dp2674
g1630
g1502
sg1631
g1667
sg328
g1577
sbsS's3eHash.h'
p2675
g302
(g1626
g304
Ntp2676
Rp2677
(dp2678
g1630
g1638
sg1631
g1654
sg328
S'c:/marmalade/7.2/s3e/h/s3eHash.h'
p2679
sbsS'IwSoundGroup.cpp'
p2680
g302
(g1626
g304
Ntp2681
Rp2682
(dp2683
g1630
g1096
sg1631
g1684
sg328
g1122
sbsS'IwGeomFMat.h'
p2684
g302
(g1626
g304
Ntp2685
Rp2686
(dp2687
g1630
g1346
sg1631
g1699
sg328
g1379
sbsS'type_traits.h'
p2688
g302
(g1626
g304
Ntp2689
Rp2690
(dp2691
g1630
g1638
sg1631
g1639
sg328
S'c:/marmalade/7.2/s3e/h/std/c++/type_traits.h'
p2692
sbsS'IwMenu.h'
p2693
g302
(g1626
g304
Ntp2694
Rp2695
(dp2696
g1630
g1502
sg1631
g1667
sg328
g1527
sbsS'IwResHandlerITX.h'
p2697
g302
(g1626
g304
Ntp2698
Rp2699
(dp2700
g1630
g1414
sg1631
g1923
sg328
g1428
sbsS'IwSoundData.h'
p2701
g302
(g1626
g304
Ntp2702
Rp2703
(dp2704
g1630
g1096
sg1631
g1684
sg328
g1140
sbsS'IwArray.h'
p2705
g302
(g1626
g304
Ntp2706
Rp2707
(dp2708
g1630
g1502
sg1631
g1667
sg328
g1503
sbsS'IwUTF8.h'
p2709
g302
(g1626
g304
Ntp2710
Rp2711
(dp2712
g1630
g1502
sg1631
g1667
sg328
g1571
sbsS'math_rvct.h'
p2713
g302
(g1626
g304
Ntp2714
Rp2715
(dp2716
g1630
g1638
sg1631
g1660
sg328
S'c:/marmalade/7.2/s3e/h/std/math_rvct.h'
p2717
sbsS'IwUtil.h'
p2718
g302
(g1626
g304
Ntp2719
Rp2720
(dp2721
g1630
g1502
sg1631
g1667
sg328
g1561
sbsS'IwGeomVec3.h'
p2722
g302
(g1626
g304
Ntp2723
Rp2724
(dp2725
g1630
g1346
sg1631
g1699
sg328
g1383
sbsS'wctype.h'
p2726
g302
(g1626
g304
Ntp2727
Rp2728
(dp2729
g1630
g1638
sg1631
g1660
sg328
S'c:/marmalade/7.2/s3e/h/std/wctype.h'
p2730
sbsS'mainMenu.h'
p2731
g302
(g1626
g304
Ntp2732
Rp2733
(dp2734
g1630
g1195
sg1631
g1694
sg328
g1260
sbsS'cstddef'
p2735
g302
(g1626
g304
Ntp2736
Rp2737
(dp2738
g1630
g1638
sg1631
g1639
sg328
S'c:/marmalade/7.2/s3e/h/std/c++/cstddef'
p2739
sbsS'assert.h'
p2740
g302
(g1626
g304
Ntp2741
Rp2742
(dp2743
g1630
g1638
sg1631
g1660
sg328
S'c:/marmalade/7.2/s3e/h/std/assert.h'
p2744
sbsS'mman.h'
p2745
g302
(g1626
g304
Ntp2746
Rp2747
(dp2748
g1630
g1638
sg1631
g1793
sg328
S'c:/marmalade/7.2/s3e/h/std/sys/mman.h'
p2749
sbsS'IwRandom.h'
p2750
g302
(g1626
g304
Ntp2751
Rp2752
(dp2753
g1630
g1502
sg1631
g1667
sg328
g1511
sbsS'libgen.h'
p2754
g302
(g1626
g304
Ntp2755
Rp2756
(dp2757
g1630
g1638
sg1631
g1660
sg328
S'c:/marmalade/7.2/s3e/h/std/libgen.h'
p2758
sbsS'utsname.h'
p2759
g302
(g1626
g304
Ntp2760
Rp2761
(dp2762
g1630
g1638
sg1631
g1793
sg328
S'c:/marmalade/7.2/s3e/h/std/sys/utsname.h'
p2763
sbsS'gameObject.h'
p2764
g302
(g1626
g304
Ntp2765
Rp2766
(dp2767
g1630
g1195
sg1631
g2168
sg328
g1196
sbsS'wait.h'
p2768
g302
(g1626
g304
Ntp2769
Rp2770
(dp2771
g1630
g1638
sg1631
g1793
sg328
S'c:/marmalade/7.2/s3e/h/std/sys/wait.h'
p2772
sbsS'param.h'
p2773
g302
(g1626
g304
Ntp2774
Rp2775
(dp2776
g1630
g1638
sg1631
g1793
sg328
S'c:/marmalade/7.2/s3e/h/std/sys/param.h'
p2777
sbsS'IwDivide.h'
p2778
g302
(g1626
g304
Ntp2779
Rp2780
(dp2781
g1630
g1502
sg1631
g1667
sg328
g1598
sbsS'Iw2DSceneGraphCore.cpp'
p2782
g302
(g1626
g304
Ntp2783
Rp2784
(dp2785
g1630
g1495
sg1631
(lp2786
S"'Marmalade Studio'"
p2787
ag1488
asg328
g1496
sbsS'IwResManager.h'
p2788
g302
(g1626
g304
Ntp2789
Rp2790
(dp2791
g1630
g1414
sg1631
g1923
sg328
g1432
sbsS'IwSoundManager.h'
p2792
g302
(g1626
g304
Ntp2793
Rp2794
(dp2795
g1630
g1096
sg1631
g1684
sg328
g1104
sbsS'cwctype'
p2796
g302
(g1626
g304
Ntp2797
Rp2798
(dp2799
g1630
g1638
sg1631
g1639
sg328
S'c:/marmalade/7.2/s3e/h/std/c++/cwctype'
p2800
sbsS'set'
p2801
g302
(g1626
g304
Ntp2802
Rp2803
(dp2804
g1630
g1638
sg1631
g1639
sg328
S'c:/marmalade/7.2/s3e/h/std/c++/set'
p2805
sbsS'IwGeomSQuat.h'
p2806
g302
(g1626
g304
Ntp2807
Rp2808
(dp2809
g1630
g1346
sg1631
g1699
sg328
g1398
sbsS'locale'
p2810
g302
(g1626
g304
Ntp2811
Rp2812
(dp2813
g1630
g1638
sg1631
g1639
sg328
S'c:/marmalade/7.2/s3e/h/std/c++/locale'
p2814
sbsS'cstdio'
p2815
g302
(g1626
g304
Ntp2816
Rp2817
(dp2818
g1630
g1638
sg1631
g1639
sg328
S'c:/marmalade/7.2/s3e/h/std/c++/cstdio'
p2819
sbsS'cdjpeg.h'
p2820
g302
(g1626
g304
Ntp2821
Rp2822
(dp2823
g1630
g1052
sg1631
g1729
sg328
g1055
sbsS'IwList.h'
p2824
g302
(g1626
g304
Ntp2825
Rp2826
(dp2827
g1630
g1502
sg1631
g1667
sg328
g1515
sbsS's3eWebView_interface.cpp'
p2828
g302
(g1626
g304
Ntp2829
Rp2830
(dp2831
g1630
g1152
sg1631
g2408
sg328
g1153
sbsS'inttypes.h'
p2832
g302
(g1626
g304
Ntp2833
Rp2834
(dp2835
g1630
g1638
sg1631
g1660
sg328
S'c:/marmalade/7.2/s3e/h/std/inttypes.h'
p2836
sbsS'dirent.h'
p2837
g302
(g1626
g304
Ntp2838
Rp2839
(dp2840
g1630
g1638
sg1631
g1660
sg328
S'c:/marmalade/7.2/s3e/h/std/dirent.h'
p2841
sbsS'IwFColour.h'
p2842
g302
(g1626
g304
Ntp2843
Rp2844
(dp2845
g1630
g1438
sg1631
g1779
sg328
g1478
sbsS'transupp.h'
p2846
g302
(g1626
g304
Ntp2847
Rp2848
(dp2849
g1630
g1052
sg1631
g1729
sg328
g1059
sbsS'IwMath.h'
p2850
g302
(g1626
g304
Ntp2851
Rp2852
(dp2853
g1630
g1502
sg1631
g1667
sg328
g1521
sbsS'IwGeomQuat.h'
p2854
g302
(g1626
g304
Ntp2855
Rp2856
(dp2857
g1630
g1346
sg1631
g1699
sg328
g1400
sbsS'glplatform.h'
p2858
g302
(g1626
g304
Ntp2859
Rp2860
(dp2861
g1630
g1638
sg1631
g2019
sg328
S'c:/marmalade/7.2/s3e/h/GLES/glplatform.h'
p2862
sbsS'iwgl.config.txt'
p2863
g302
(g1626
g304
Ntp2864
Rp2865
(dp2866
g1630
g1300
sg1631
g1648
sg328
g1306
sbsS'bitset'
p2867
g302
(g1626
g304
Ntp2868
Rp2869
(dp2870
g1630
g1638
sg1631
g1639
sg328
S'c:/marmalade/7.2/s3e/h/std/c++/bitset'
p2871
sbsS'alloca.h'
p2872
g302
(g1626
g304
Ntp2873
Rp2874
(dp2875
g1630
g1638
sg1631
g1660
sg328
S'c:/marmalade/7.2/s3e/h/std/alloca.h'
p2876
sbsS'IwResHandler.h'
p2877
g302
(g1626
g304
Ntp2878
Rp2879
(dp2880
g1630
g1414
sg1631
g1923
sg328
g1415
sbsS'IwResHandlerMTL.h'
p2881
g302
(g1626
g304
Ntp2882
Rp2883
(dp2884
g1630
g1438
sg1631
g1779
sg328
g1452
sbsS'IwRuntime.h'
p2885
g302
(g1626
g304
Ntp2886
Rp2887
(dp2888
g1630
g1502
sg1631
g1667
sg328
g1555
sbsS's3eFlurry.h'
p2889
g302
(g1626
g304
Ntp2890
Rp2891
(dp2892
g1630
g1181
sg1631
g1883
sg328
g1184
sbsS'limits'
p2893
g302
(g1626
g304
Ntp2894
Rp2895
(dp2896
g1630
g1638
sg1631
g1639
sg328
S'c:/marmalade/7.2/s3e/h/std/c++/limits'
p2897
sbsS'IwGeomBBox.h'
p2898
g302
(g1626
g304
Ntp2899
Rp2900
(dp2901
g1630
g1346
sg1631
g1699
sg328
g1375
sbsS'audioManager.h'
p2902
g302
(g1626
g304
Ntp2903
Rp2904
(dp2905
g1630
g1195
sg1631
g1673
sg328
g1242
sbsS's3eContacts.h'
p2906
g302
(g1626
g304
Ntp2907
Rp2908
(dp2909
g1630
g1638
sg1631
g1654
sg328
S'c:/marmalade/7.2/s3e/h/s3eContacts.h'
p2910
sbsS's3eLicense.h'
p2911
g302
(g1626
g304
Ntp2912
Rp2913
(dp2914
g1630
g1638
sg1631
g1654
sg328
S'c:/marmalade/7.2/s3e/h/s3eLicense.h'
p2915
sbsS'iwgx.config.txt'
p2916
g302
(g1626
g304
Ntp2917
Rp2918
(dp2919
g1630
g1438
sg1631
g1779
sg328
g1447
sbsS'IwTextParser.h'
p2920
g302
(g1626
g304
Ntp2921
Rp2922
(dp2923
g1630
g1502
sg1631
g1667
sg328
g1533
sbsS's3eTimer.h'
p2924
g302
(g1626
g304
Ntp2925
Rp2926
(dp2927
g1630
g1638
sg1631
g1654
sg328
S'c:/marmalade/7.2/s3e/h/s3eTimer.h'
p2928
sbsS'IwGeomVec.h'
p2929
g302
(g1626
g304
Ntp2930
Rp2931
(dp2932
g1630
g1346
sg1631
g1699
sg328
g1387
sbsS'IwSerialise.h'
p2933
g302
(g1626
g304
Ntp2934
Rp2935
(dp2936
g1630
g1502
sg1631
g1667
sg328
g1573
sbsS'cstdarg'
p2937
g302
(g1626
g304
Ntp2938
Rp2939
(dp2940
g1630
g1638
sg1631
g1639
sg328
S'c:/marmalade/7.2/s3e/h/std/c++/cstdarg'
p2941
sbsS'gl2ext.h'
p2942
g302
(g1626
g304
Ntp2943
Rp2944
(dp2945
g1630
g1638
sg1631
g1915
sg328
S'c:/marmalade/7.2/s3e/h/GLES2/gl2ext.h'
p2946
sbsS'IwChar.h'
p2947
g302
(g1626
g304
Ntp2948
Rp2949
(dp2950
g1630
g1502
sg1631
g1667
sg328
g1529
sbsS's3eSound.h'
p2951
g302
(g1626
g304
Ntp2952
Rp2953
(dp2954
g1630
g1638
sg1631
g1654
sg328
S'c:/marmalade/7.2/s3e/h/s3eSound.h'
p2955
sbsS'gameObject.cpp'
p2956
g302
(g1626
g304
Ntp2957
Rp2958
(dp2959
g1630
g1195
sg1631
g2168
sg328
g1193
sbsS's3eIOSBackgroundAudio.h'
p2960
g302
(g1626
g304
Ntp2961
Rp2962
(dp2963
g1630
g1638
sg1631
g1872
sg328
S'c:/marmalade/7.2/s3e/h/ext/s3eIOSBackgroundAudio.h'
p2964
sbsS'exception.h'
p2965
g302
(g1626
g304
Ntp2966
Rp2967
(dp2968
g1630
g1638
sg1631
g1639
sg328
S'c:/marmalade/7.2/s3e/h/std/c++/exception.h'
p2969
sbsS'iwgeom.config.txt'
p2970
g302
(g1626
g304
Ntp2971
Rp2972
(dp2973
g1630
g1346
sg1631
g1699
sg328
g1344
sbsS'iwgx.mkf'
p2974
g302
(g1626
g304
Ntp2975
Rp2976
(dp2977
g1630
g1451
sg1631
g1779
sg328
g1449
sbsS'gl.h'
p2978
g302
(g1626
g304
Ntp2979
Rp2980
(dp2981
g1630
g1638
sg1631
g2019
sg328
S'c:/marmalade/7.2/s3e/h/GLES/gl.h'
p2982
sbsS'savedataManager.h'
p2983
g302
(g1626
g304
Ntp2984
Rp2985
(dp2986
g1630
g1195
sg1631
g1673
sg328
g1230
sbsS's3eFacebook.defines.txt'
p2987
g302
(g1626
g304
Ntp2988
Rp2989
(dp2990
g1630
g1166
sg1631
(lp2991
S'Extensions'
p2992
ag1160
ag1162
asg328
g1167
sbsS'iwgl.mkf'
p2993
g302
(g1626
g304
Ntp2994
Rp2995
(dp2996
g1630
g1303
sg1631
g1648
sg328
g1301
sbsS'audioManager.cpp'
p2997
g302
(g1626
g304
Ntp2998
Rp2999
(dp3000
g1630
g1195
sg1631
g1673
sg328
g1246
sbsS'IwColour.h'
p3001
g302
(g1626
g304
Ntp3002
Rp3003
(dp3004
g1630
g1438
sg1631
g1779
sg328
g1480
sbsS'types.h'
p3005
g302
(g1626
g304
Ntp3006
Rp3007
(dp3008
g1630
g1638
sg1631
g1793
sg328
S'c:/marmalade/7.2/s3e/h/std/sys/types.h'
p3009
sbsS'ifaddrs.h'
p3010
g302
(g1626
g304
Ntp3011
Rp3012
(dp3013
g1630
g1638
sg1631
g1660
sg328
S'c:/marmalade/7.2/s3e/h/std/ifaddrs.h'
p3014
sbsS'inputManager.cpp'
p3015
g302
(g1626
g304
Ntp3016
Rp3017
(dp3018
g1630
g1195
sg1631
g1673
sg328
g1244
sbsS'IwTween.cpp'
p3019
g302
(g1626
g304
Ntp3020
Rp3021
(dp3022
g1630
g1620
sg1631
g2187
sg328
g1618
sbsS'exception'
p3023
g302
(g1626
g304
Ntp3024
Rp3025
(dp3026
g1630
g1638
sg1631
g1639
sg328
S'c:/marmalade/7.2/s3e/h/std/c++/exception'
p3027
sbsS's3eFacebook_interface.cpp'
p3028
g302
(g1626
g304
Ntp3029
Rp3030
(dp3031
g1630
g1166
sg1631
g2991
sg328
g1164
sbsS'rlocks.h'
p3032
g302
(g1626
g304
Ntp3033
Rp3034
(dp3035
g1630
g1638
sg1631
g1639
sg328
S'c:/marmalade/7.2/s3e/h/std/c++/rlocks.h'
p3036
sbsS'ioctl.h'
p3037
g302
(g1626
g304
Ntp3038
Rp3039
(dp3040
g1630
g1638
sg1631
g1793
sg328
S'c:/marmalade/7.2/s3e/h/std/sys/ioctl.h'
p3041
sbsS'rope'
p3042
g302
(g1626
g304
Ntp3043
Rp3044
(dp3045
g1630
g1638
sg1631
g1639
sg328
S'c:/marmalade/7.2/s3e/h/std/c++/rope'
p3046
sbsS'jinclude.h'
p3047
g302
(g1626
g304
Ntp3048
Rp3049
(dp3050
g1630
g1052
sg1631
g1729
sg328
g1050
sbsS's3eFlurry_interface.cpp'
p3051
g302
(g1626
g304
Ntp3052
Rp3053
(dp3054
g1630
g1181
sg1631
g2551
sg328
g1179
sbsS's3eWebView.h'
p3055
g302
(g1626
g304
Ntp3056
Rp3057
(dp3058
g1630
g1152
sg1631
(lp3059
g2409
ag1146
asg328
g1155
sbsS'IwEvent.h'
p3060
g302
(g1626
g304
Ntp3061
Rp3062
(dp3063
g1630
g1502
sg1631
g1667
sg328
g1531
sbsS'IwOptimiseSize.h'
p3064
g302
(g1626
g304
Ntp3065
Rp3066
(dp3067
g1630
g1502
sg1631
g1667
sg328
g1535
sbsS'iwgxfont_public.defines.txt'
p3068
g302
(g1626
g304
Ntp3069
Rp3070
(dp3071
g1630
g1324
sg1631
g1632
sg328
g1329
sbsS'iconv.h'
p3072
g302
(g1626
g304
Ntp3073
Rp3074
(dp3075
g1630
g1638
sg1631
g1660
sg328
S'c:/marmalade/7.2/s3e/h/std/iconv.h'
p3076
sbsS's3eDevice.h'
p3077
g302
(g1626
g304
Ntp3078
Rp3079
(dp3080
g1630
g1638
sg1631
g1654
sg328
S'c:/marmalade/7.2/s3e/h/s3eDevice.h'
p3081
sbsS'IwGeomSphere.h'
p3082
g302
(g1626
g304
Ntp3083
Rp3084
(dp3085
g1630
g1346
sg1631
g1699
sg328
g1402
sbsS'tiniconv.mkf'
p3086
g302
(g1626
g304
Ntp3087
Rp3088
(dp3089
g1630
g1091
sg1631
g2134
sg328
g1089
sbsS'iw2dscenegraph.defines.txt'
p3090
g302
(g1626
g304
Ntp3091
Rp3092
(dp3093
g1630
g1288
sg1631
g1973
sg328
g1294
sbsS'jdct.h'
p3094
g302
(g1626
g304
Ntp3095
Rp3096
(dp3097
g1630
g1052
sg1631
g1729
sg328
g1065
sbsS'cctype'
p3098
g302
(g1626
g304
Ntp3099
Rp3100
(dp3101
g1630
g1638
sg1631
g1639
sg328
S'c:/marmalade/7.2/s3e/h/std/c++/cctype'
p3102
sbsS'IwSoundADPCM.cpp'
p3103
g302
(g1626
g304
Ntp3104
Rp3105
(dp3106
g1630
g1096
sg1631
g1684
sg328
g1102
sbsS's3eConfig.h'
p3107
g302
(g1626
g304
Ntp3108
Rp3109
(dp3110
g1630
g1638
sg1631
g1654
sg328
S'c:/marmalade/7.2/s3e/h/s3eConfig.h'
p3111
sbsS'IwHashString.h'
p3112
g302
(g1626
g304
Ntp3113
Rp3114
(dp3115
g1630
g1502
sg1631
g1667
sg328
g1600
sbsS'stat.h'
p3116
g302
(g1626
g304
Ntp3117
Rp3118
(dp3119
g1630
g1638
sg1631
g1793
sg328
S'c:/marmalade/7.2/s3e/h/std/sys/stat.h'
p3120
sbsS'byteswap.h'
p3121
g302
(g1626
g304
Ntp3122
Rp3123
(dp3124
g1630
g1638
sg1631
g1660
sg328
S'c:/marmalade/7.2/s3e/h/std/byteswap.h'
p3125
sbsS'iwresmanager.mkf'
p3126
g302
(g1626
g304
Ntp3127
Rp3128
(dp3129
g1630
g1419
sg1631
g1923
sg328
g1417
sbsS'IwUtilInitTerm.h'
p3130
g302
(g1626
g304
Ntp3131
Rp3132
(dp3133
g1630
g1502
sg1631
g1667
sg328
g1567
sbsS'pthread_1.h'
p3134
g302
(g1626
g304
Ntp3135
Rp3136
(dp3137
g1630
g1638
sg1631
g1639
sg328
S'c:/marmalade/7.2/s3e/h/std/c++/pthread.h'
p3138
sbsS'iw2d.mkf'
p3139
g302
(g1626
g304
Ntp3140
Rp3141
(dp3142
g1630
g1319
sg1631
g1734
sg328
g1317
sbsS'complex'
p3143
g302
(g1626
g304
Ntp3144
Rp3145
(dp3146
g1630
g1638
sg1631
g1639
sg328
S'c:/marmalade/7.2/s3e/h/std/c++/complex'
p3147
sbsS'game.cpp'
p3148
g302
(g1626
g304
Ntp3149
Rp3150
(dp3151
g1630
g1195
sg1631
g1694
sg328
g1280
sbsS'algorithm'
p3152
g302
(g1626
g304
Ntp3153
Rp3154
(dp3155
g1630
g1638
sg1631
g1639
sg328
S'c:/marmalade/7.2/s3e/h/std/c++/algorithm'
p3156
sbsS's3e.icf'
p3157
g302
(g1626
g304
Ntp3158
Rp3159
(dp3160
g1630
g1638
sg1631
g1654
sg328
S'c:/marmalade/7.2/s3e/s3e.icf'
p3161
sbsS'sem.h'
p3162
g302
(g1626
g304
Ntp3163
Rp3164
(dp3165
g1630
g1638
sg1631
g1793
sg328
S'c:/marmalade/7.2/s3e/h/std/sys/sem.h'
p3166
sbsS'IwGxFontState.h'
p3167
g302
(g1626
g304
Ntp3168
Rp3169
(dp3170
g1630
g1324
sg1631
g1632
sg328
g1333
sbsS'stdio.h'
p3171
g302
(g1626
g304
Ntp3172
Rp3173
(dp3174
g1630
g1638
sg1631
g1660
sg328
S'c:/marmalade/7.2/s3e/h/std/stdio.h'
p3175
sbsS's3eFacebook.h'
p3176
g302
(g1626
g304
Ntp3177
Rp3178
(dp3179
g1630
g1166
sg1631
(lp3180
g2992
ag1160
ag1037
asg328
g1170
sbsS'jmemsys.h'
p3181
g302
(g1626
g304
Ntp3182
Rp3183
(dp3184
g1630
g1052
sg1631
g1729
sg328
g1069
sbsS'ios'
p3185
g302
(g1626
g304
Ntp3186
Rp3187
(dp3188
g1630
g1638
sg1631
g1639
sg328
S'c:/marmalade/7.2/s3e/h/std/c++/ios'
p3189
sbsS'IwTween.h'
p3190
g302
(g1626
g304
Ntp3191
Rp3192
(dp3193
g1630
g1620
sg1631
g2187
sg328
g1621
sbsS'stack'
p3194
g302
(g1626
g304
Ntp3195
Rp3196
(dp3197
g1630
g1638
sg1631
g1639
sg328
S'c:/marmalade/7.2/s3e/h/std/c++/stack'
p3198
sbsS'IwSoundParams.h'
p3199
g302
(g1626
g304
Ntp3200
Rp3201
(dp3202
g1630
g1096
sg1631
g1684
sg328
g1138
sbsS'new.h'
p3203
g302
(g1626
g304
Ntp3204
Rp3205
(dp3206
g1630
g1638
sg1631
g1639
sg328
S'c:/marmalade/7.2/s3e/h/std/c++/new.h'
p3207
sbsS's3eEMail.h'
p3208
g302
(g1626
g304
Ntp3209
Rp3210
(dp3211
g1630
g1638
sg1631
g1872
sg328
S'c:/marmalade/7.2/s3e/h/ext/s3eEMail.h'
p3212
sbsS's3eVideo.h'
p3213
g302
(g1626
g304
Ntp3214
Rp3215
(dp3216
g1630
g1638
sg1631
g1654
sg328
S'c:/marmalade/7.2/s3e/h/s3eVideo.h'
p3217
sbsS'pngconf.h'
p3218
g302
(g1626
g304
Ntp3219
Rp3220
(dp3221
g1630
g1041
sg1631
g2428
sg328
g1042
sbsS'pwd.h'
p3222
g302
(g1626
g304
Ntp3223
Rp3224
(dp3225
g1630
g1638
sg1631
g1660
sg328
S'c:/marmalade/7.2/s3e/h/std/pwd.h'
p3226
sbsS'IwOptimiseThumb.h'
p3227
g302
(g1626
g304
Ntp3228
Rp3229
(dp3230
g1630
g1502
sg1631
g1667
sg328
g1559
sbsS'IwClip.h'
p3231
g302
(g1626
g304
Ntp3232
Rp3233
(dp3234
g1630
g1438
sg1631
g1779
sg328
g1460
sbsS'IwSoundInst.h'
p3235
g302
(g1626
g304
Ntp3236
Rp3237
(dp3238
g1630
g1096
sg1631
g1684
sg328
g1116
sbsS'iwresmanager.config.txt'
p3239
g302
(g1626
g304
Ntp3240
Rp3241
(dp3242
g1630
g1414
sg1631
g1923
sg328
g1424
sbsS'IwGxShaderTechnique.h'
p3243
g302
(g1626
g304
Ntp3244
Rp3245
(dp3246
g1630
g1438
sg1631
g1779
sg328
g1482
sbsS'getStars.h'
p3247
g302
(g1626
g304
Ntp3248
Rp3249
(dp3250
g1630
g1195
sg1631
g1694
sg328
g1262
sbsS'IwCore.h'
p3251
g302
(g1626
g304
Ntp3252
Rp3253
(dp3254
g1630
g1502
sg1631
g1667
sg328
g1500
sbsS'cfloat'
p3255
g302
(g1626
g304
Ntp3256
Rp3257
(dp3258
g1630
g1638
sg1631
g1639
sg328
S'c:/marmalade/7.2/s3e/h/std/c++/cfloat'
p3259
sbsS'IwGeomMat2D.h'
p3260
g302
(g1626
g304
Ntp3261
Rp3262
(dp3263
g1630
g1346
sg1631
g1699
sg328
g1353
sbsS'IwAllocator.h'
p3264
g302
(g1626
g304
Ntp3265
Rp3266
(dp3267
g1630
g1502
sg1631
g1667
sg328
g1539
sbsS'timerManager.cpp'
p3268
g302
(g1626
g304
Ntp3269
Rp3270
(dp3271
g1630
g1195
sg1631
g1673
sg328
g1220
sbsS'customize.h'
p3272
g302
(g1626
g304
Ntp3273
Rp3274
(dp3275
g1630
g1195
sg1631
g1694
sg328
g1256
sbsS'IwPath.h'
p3276
g302
(g1626
g304
Ntp3277
Rp3278
(dp3279
g1630
g1502
sg1631
g1667
sg328
g1575
sbsS'iwgxfont.mkf'
p3280
g302
(g1626
g304
Ntp3281
Rp3282
(dp3283
g1630
g1339
sg1631
g1632
sg328
g1337
sbsS'IwTexture.h'
p3284
g302
(g1626
g304
Ntp3285
Rp3286
(dp3287
g1630
g1438
sg1631
g1779
sg328
g1476
sbsS'vortex.cpp'
p3288
g302
(g1626
g304
Ntp3289
Rp3290
(dp3291
g1630
g1195
sg1631
g2168
sg328
g1198
sbsS's3eAccelerometer.h'
p3292
g302
(g1626
g304
Ntp3293
Rp3294
(dp3295
g1630
g1638
sg1631
g1654
sg328
S'c:/marmalade/7.2/s3e/h/s3eAccelerometer.h'
p3296
sbsS'setjmp.h'
p3297
g302
(g1626
g304
Ntp3298
Rp3299
(dp3300
g1630
g1638
sg1631
g1660
sg328
S'c:/marmalade/7.2/s3e/h/std/setjmp.h'
p3301
sbsS'items.cpp'
p3302
g302
(g1626
g304
Ntp3303
Rp3304
(dp3305
g1630
g1195
sg1631
g1694
sg328
g1254
sbsS'IwSoundParams.cpp'
p3306
g302
(g1626
g304
Ntp3307
Rp3308
(dp3309
g1630
g1096
sg1631
g1684
sg328
g1106
sbsS'IwFile.h'
p3310
g302
(g1626
g304
Ntp3311
Rp3312
(dp3313
g1630
g1502
sg1631
g1667
sg328
g1541
sbsS'IwTextParseable.h'
p3314
g302
(g1626
g304
Ntp3315
Rp3316
(dp3317
g1630
g1502
sg1631
g1667
sg328
g1594
sbsS'istream.h'
p3318
g302
(g1626
g304
Ntp3319
Rp3320
(dp3321
g1630
g1638
sg1631
g1639
sg328
S'c:/marmalade/7.2/s3e/h/std/c++/istream.h'
p3322
sbsS'stdint.h'
p3323
g302
(g1626
g304
Ntp3324
Rp3325
(dp3326
g1630
g1638
sg1631
g1660
sg328
S'c:/marmalade/7.2/s3e/h/std/stdint.h'
p3327
sbsS'semaphore.h'
p3328
g302
(g1626
g304
Ntp3329
Rp3330
(dp3331
g1630
g1638
sg1631
g1660
sg328
S'c:/marmalade/7.2/s3e/h/std/semaphore.h'
p3332
sbsS'ctime'
p3333
g302
(g1626
g304
Ntp3334
Rp3335
(dp3336
g1630
g1638
sg1631
g1639
sg328
S'c:/marmalade/7.2/s3e/h/std/c++/ctime'
p3337
sbsS'sstream'
p3338
g302
(g1626
g304
Ntp3339
Rp3340
(dp3341
g1630
g1638
sg1631
g1639
sg328
S'c:/marmalade/7.2/s3e/h/std/c++/sstream'
p3342
sbsS'IwGeomFBBox.h'
p3343
g302
(g1626
g304
Ntp3344
Rp3345
(dp3346
g1630
g1346
sg1631
g1699
sg328
g1408
sbsS'IwDebugPrim.h'
p3347
g302
(g1626
g304
Ntp3348
Rp3349
(dp3350
g1630
g1438
sg1631
g1779
sg328
g1466
sbsS'parallaxManager.cpp'
p3351
g302
(g1626
g304
Ntp3352
Rp3353
(dp3354
g1630
g1195
sg1631
g1673
sg328
g1234
sbsS'parallaxManager.h'
p3355
g302
(g1626
g304
Ntp3356
Rp3357
(dp3358
g1630
g1195
sg1631
g1673
sg328
g1248
sbsS'IwGxFontContainer.h'
p3359
g302
(g1626
g304
Ntp3360
Rp3361
(dp3362
g1630
g1324
sg1631
g1632
sg328
g1327
sbsS'player.h'
p3363
g302
(g1626
g304
Ntp3364
Rp3365
(dp3366
g1630
g1195
sg1631
g2168
sg328
g1202
sbsS'iw2dscenegraphcore.mkf'
p3367
g302
(g1626
g304
Ntp3368
Rp3369
(dp3370
g1630
g1492
sg1631
g2786
sg328
g1490
sbsS'resourceManager.cpp'
p3371
g302
(g1626
g304
Ntp3372
Rp3373
(dp3374
g1630
g1195
sg1631
g1673
sg328
g1250
sbsS's3eExt.h'
p3375
g302
(g1626
g304
Ntp3376
Rp3377
(dp3378
g1630
g1638
sg1631
g1654
sg328
S'c:/marmalade/7.2/s3e/h/s3eExt.h'
p3379
sbsS'IwGeomFVec3.h'
p3380
g302
(g1626
g304
Ntp3381
Rp3382
(dp3383
g1630
g1346
sg1631
g1699
sg328
g1363
sbsS'IwClip.inl'
p3384
g302
(g1626
g304
Ntp3385
Rp3386
(dp3387
g1630
g1438
sg1631
g1779
sg328
g1472
sbsS'streambuf'
p3388
g302
(g1626
g304
Ntp3389
Rp3390
(dp3391
g1630
g1638
sg1631
g1639
sg328
S'c:/marmalade/7.2/s3e/h/std/c++/streambuf'
p3392
sbsS's3eMetrics.h'
p3393
g302
(g1626
g304
Ntp3394
Rp3395
(dp3396
g1630
g1638
sg1631
g1872
sg328
S'c:/marmalade/7.2/s3e/h/ext/s3eMetrics.h'
p3397
sbsS'IwGxFont.h'
p3398
g302
(g1626
g304
Ntp3399
Rp3400
(dp3401
g1630
g1324
sg1631
g1632
sg328
g1322
sbsS's3eSecureStorage.h'
p3402
g302
(g1626
g304
Ntp3403
Rp3404
(dp3405
g1630
g1638
sg1631
g1654
sg328
S'c:/marmalade/7.2/s3e/h/s3eSecureStorage.h'
p3406
sbsS'string.h'
p3407
g302
(g1626
g304
Ntp3408
Rp3409
(dp3410
g1630
g1638
sg1631
g1660
sg328
S'c:/marmalade/7.2/s3e/h/std/string.h'
p3411
sbsS'IwResource.h'
p3412
g302
(g1626
g304
Ntp3413
Rp3414
(dp3415
g1630
g1502
sg1631
g1667
sg328
g1505
sbsS'IwGeomSVec2.h'
p3416
g302
(g1626
g304
Ntp3417
Rp3418
(dp3419
g1630
g1346
sg1631
g1699
sg328
g1369
sbsS'libjpeg.mkf'
p3420
g302
(g1626
g304
Ntp3421
Rp3422
(dp3423
g1630
g1081
sg1631
(lp3424
g1047
asg328
g1079
sbsS'IwGxDebug.h'
p3425
g302
(g1626
g304
Ntp3426
Rp3427
(dp3428
g1630
g1438
sg1631
g1779
sg328
g1464
sbsS'pthread_types.h'
p3429
g302
(g1626
g304
Ntp3430
Rp3431
(dp3432
g1630
g1638
sg1631
g1660
sg328
S'c:/marmalade/7.2/s3e/h/std/pthread_types.h'
p3433
sbsS'iomanip.h'
p3434
g302
(g1626
g304
Ntp3435
Rp3436
(dp3437
g1630
g1638
sg1631
g1639
sg328
S'c:/marmalade/7.2/s3e/h/std/c++/iomanip.h'
p3438
sbsS'IwKeymap.h'
p3439
g302
(g1626
g304
Ntp3440
Rp3441
(dp3442
g1630
g1502
sg1631
g1667
sg328
g1588
sbsS'IwDebug.h'
p3443
g302
(g1626
g304
Ntp3444
Rp3445
(dp3446
g1630
g1502
sg1631
g1667
sg328
g1596
sbsS'IwVariableBitField.h'
p3447
g302
(g1626
g304
Ntp3448
Rp3449
(dp3450
g1630
g1502
sg1631
g1667
sg328
g1545
sbsS'IwGeomMenu.h'
p3451
g302
(g1626
g304
Ntp3452
Rp3453
(dp3454
g1630
g1346
sg1631
g1699
sg328
g1355
sbsS'IwDivTable.h'
p3455
g302
(g1626
g304
Ntp3456
Rp3457
(dp3458
g1630
g1502
sg1631
g1667
sg328
g1523
sbsS'ctype.h'
p3459
g302
(g1626
g304
Ntp3460
Rp3461
(dp3462
g1630
g1638
sg1631
g1660
sg328
S'c:/marmalade/7.2/s3e/h/std/ctype.h'
p3463
sbsS'mainMenu.cpp'
p3464
g302
(g1626
g304
Ntp3465
Rp3466
(dp3467
g1630
g1195
sg1631
g1694
sg328
g1270
sbsS'IwResGroup.h'
p3468
g302
(g1626
g304
Ntp3469
Rp3470
(dp3471
g1630
g1414
sg1631
g1923
sg328
g1420
sbsS'signal_1.h'
p3472
g302
(g1626
g304
Ntp3473
Rp3474
(dp3475
g1630
g1638
sg1631
g1793
sg328
S'c:/marmalade/7.2/s3e/h/std/sys/signal.h'
p3476
sbsS'IwSoundData.cpp'
p3477
g302
(g1626
g304
Ntp3478
Rp3479
(dp3480
g1630
g1096
sg1631
g1684
sg328
g1108
sbsS'jerror.h'
p3481
g302
(g1626
g304
Ntp3482
Rp3483
(dp3484
g1630
g1052
sg1631
g1729
sg328
g1073
sbsS'shm.h'
p3485
g302
(g1626
g304
Ntp3486
Rp3487
(dp3488
g1630
g1638
sg1631
g1793
sg328
S'c:/marmalade/7.2/s3e/h/std/sys/shm.h'
p3489
sbsS'IwManagedList.h'
p3490
g302
(g1626
g304
Ntp3491
Rp3492
(dp3493
g1630
g1502
sg1631
g1667
sg328
g1513
sbsS'prctl.h'
p3494
g302
(g1626
g304
Ntp3495
Rp3496
(dp3497
g1630
g1638
sg1631
g1793
sg328
S'c:/marmalade/7.2/s3e/h/std/sys/prctl.h'
p3498
sbsS's3eCamera.h'
p3499
g302
(g1626
g304
Ntp3500
Rp3501
(dp3502
g1630
g1638
sg1631
g1654
sg328
S'c:/marmalade/7.2/s3e/h/s3eCamera.h'
p3503
sbsS'utility'
p3504
g302
(g1626
g304
Ntp3505
Rp3506
(dp3507
g1630
g1638
sg1631
g1639
sg328
S'c:/marmalade/7.2/s3e/h/std/c++/utility'
p3508
sbsS's3ewebview.mkf'
p3509
g302
(g1626
g304
Ntp3510
Rp3511
(dp3512
g1630
g1159
sg1631
g3059
sg328
g1157
sbsS'IwGeomLegacy.h'
p3513
g302
(g1626
g304
Ntp3514
Rp3515
(dp3516
g1630
g1346
sg1631
g1699
sg328
g1404
sbsS'IwTPage.h'
p3517
g302
(g1626
g304
Ntp3518
Rp3519
(dp3520
g1630
g1438
sg1631
g1779
sg328
g1436
sbsS'IwResSerialise.h'
p3521
g302
(g1626
g304
Ntp3522
Rp3523
(dp3524
g1630
g1414
sg1631
g1923
sg328
g1430
sbsS's3eCrypto.h'
p3525
g302
(g1626
g304
Ntp3526
Rp3527
(dp3528
g1630
g1638
sg1631
g1654
sg328
S'c:/marmalade/7.2/s3e/h/s3eCrypto.h'
p3529
sbsS's3eKeyboard.h'
p3530
g302
(g1626
g304
Ntp3531
Rp3532
(dp3533
g1630
g1638
sg1631
g1654
sg328
S'c:/marmalade/7.2/s3e/h/s3eKeyboard.h'
p3534
sbsS'fcntl.h'
p3535
g302
(g1626
g304
Ntp3536
Rp3537
(dp3538
g1630
g1638
sg1631
g1660
sg328
S'c:/marmalade/7.2/s3e/h/std/fcntl.h'
p3539
sbsS'Iw2DSceneGraphCore.h'
p3540
g302
(g1626
g304
Ntp3541
Rp3542
(dp3543
g1630
g1495
sg1631
g2786
sg328
g1493
sbsS'memory.h'
p3544
g302
(g1626
g304
Ntp3545
Rp3546
(dp3547
g1630
g1638
sg1631
g1660
sg328
S'c:/marmalade/7.2/s3e/h/std/memory.h'
p3548
sbsS'egl.h'
p3549
g302
(g1626
g304
Ntp3550
Rp3551
(dp3552
g1630
g1638
sg1631
g2475
sg328
S'c:/marmalade/7.2/s3e/h/EGL/egl.h'
p3553
sbsS'IwGeomIntersect.h'
p3554
g302
(g1626
g304
Ntp3555
Rp3556
(dp3557
g1630
g1346
sg1631
g1699
sg328
g1396
sbsS'IwTextParserITX.h'
p3558
g302
(g1626
g304
Ntp3559
Rp3560
(dp3561
g1630
g1502
sg1631
g1667
sg328
g1525
sbsS'sceneManager.h'
p3562
g302
(g1626
g304
Ntp3563
Rp3564
(dp3565
g1630
g1195
sg1631
g1673
sg328
g1238
sbsS'sceneManager.cpp'
p3566
g302
(g1626
g304
Ntp3567
Rp3568
(dp3569
g1630
g1195
sg1631
g1673
sg328
g1226
sbsS'Iw2DSceneGraph.cpp'
p3570
g302
(g1626
g304
Ntp3571
Rp3572
(dp3573
g1630
g1288
sg1631
g1973
sg328
g1286
sbsS'ostream.h'
p3574
g302
(g1626
g304
Ntp3575
Rp3576
(dp3577
g1630
g1638
sg1631
g1639
sg328
S'c:/marmalade/7.2/s3e/h/std/c++/ostream.h'
p3578
sbsS'stl_user_config.h'
p3579
g302
(g1626
g304
Ntp3580
Rp3581
(dp3582
g1630
g1638
sg1631
g1639
sg328
S'c:/marmalade/7.2/s3e/h/std/c++/stl_user_config.h'
p3583
sbsS'IwProfileMenu.h'
p3584
g302
(g1626
g304
Ntp3585
Rp3586
(dp3587
g1630
g1502
sg1631
g1667
sg328
g1517
sbsS'MarmaladeVersion.h'
p3588
g302
(g1626
g304
Ntp3589
Rp3590
(dp3591
g1630
g1638
sg1631
g1654
sg328
S'c:/marmalade/7.2/s3e/h/MarmaladeVersion.h'
p3592
sbsS'IwResHandlerWAV.h'
p3593
g302
(g1626
g304
Ntp3594
Rp3595
(dp3596
g1630
g1096
sg1631
g1684
sg328
g1136
sbsS'options.h'
p3597
g302
(g1626
g304
Ntp3598
Rp3599
(dp3600
g1630
g1195
sg1631
g1694
sg328
g1266
sbsS'ios.h'
p3601
g302
(g1626
g304
Ntp3602
Rp3603
(dp3604
g1630
g1638
sg1631
g1639
sg328
S'c:/marmalade/7.2/s3e/h/std/c++/ios.h'
p3605
sbsS'store.cpp'
p3606
g302
(g1626
g304
Ntp3607
Rp3608
(dp3609
g1630
g1195
sg1631
g1694
sg328
g1274
sbsS'IwImageHelper.h'
p3610
g302
(g1626
g304
Ntp3611
Rp3612
(dp3613
g1630
g1502
sg1631
g1667
sg328
g1590
sbsS'zlib.h'
p3614
g302
(g1626
g304
Ntp3615
Rp3616
(dp3617
g1630
g1607
sg1631
g2363
sg328
g1608
sbsS'hash_set'
p3618
g302
(g1626
g304
Ntp3619
Rp3620
(dp3621
g1630
g1638
sg1631
g1639
sg328
S'c:/marmalade/7.2/s3e/h/std/c++/hash_set'
p3622
sbsS'IwGeomFQuat.h'
p3623
g302
(g1626
g304
Ntp3624
Rp3625
(dp3626
g1630
g1346
sg1631
g1699
sg328
g1381
sbsS'jmorecfg.h'
p3627
g302
(g1626
g304
Ntp3628
Rp3629
(dp3630
g1630
g1052
sg1631
g1729
sg328
g1071
sbsS'eglplatform.h'
p3631
g302
(g1626
g304
Ntp3632
Rp3633
(dp3634
g1630
g1638
sg1631
g2475
sg328
S'c:/marmalade/7.2/s3e/h/EGL/eglplatform.h'
p3635
sbsS'cmath'
p3636
g302
(g1626
g304
Ntp3637
Rp3638
(dp3639
g1630
g1638
sg1631
g1639
sg328
S'c:/marmalade/7.2/s3e/h/std/c++/cmath'
p3640
sbsS'math_gcc.h'
p3641
g302
(g1626
g304
Ntp3642
Rp3643
(dp3644
g1630
g1638
sg1631
g1660
sg328
S'c:/marmalade/7.2/s3e/h/std/math_gcc.h'
p3645
sbsS's3eMemory.h'
p3646
g302
(g1626
g304
Ntp3647
Rp3648
(dp3649
g1630
g1638
sg1631
g1654
sg328
S'c:/marmalade/7.2/s3e/h/s3eMemory.h'
p3650
sbsS'IwGeomSVec3.h'
p3651
g302
(g1626
g304
Ntp3652
Rp3653
(dp3654
g1630
g1346
sg1631
g1699
sg328
g1373
sbsS's3eFile.h'
p3655
g302
(g1626
g304
Ntp3656
Rp3657
(dp3658
g1630
g1638
sg1631
g1654
sg328
S'c:/marmalade/7.2/s3e/h/s3eFile.h'
p3659
sbsS'IwGxTypes.h'
p3660
g302
(g1626
g304
Ntp3661
Rp3662
(dp3663
g1630
g1438
sg1631
g1779
sg328
g1484
sbsS'cerrno'
p3664
g302
(g1626
g304
Ntp3665
Rp3666
(dp3667
g1630
g1638
sg1631
g1639
sg328
S'c:/marmalade/7.2/s3e/h/std/c++/cerrno'
p3668
sbsS'IwSoundManager.cpp'
p3669
g302
(g1626
g304
Ntp3670
Rp3671
(dp3672
g1630
g1096
sg1631
g1684
sg328
g1094
sbsS'main.h'
p3673
g302
(g1626
g304
Ntp3674
Rp3675
(dp3676
g1630
g1195
sg1631
g1994
sg328
g1212
sbsS'soundengine.mkf'
p3677
g302
(g1626
g304
Ntp3678
Rp3679
(dp3680
g1630
g1099
sg1631
g1684
sg328
g1097
sbsS'resource.h'
p3681
g302
(g1626
g304
Ntp3682
Rp3683
(dp3684
g1630
g1638
sg1631
g1793
sg328
S'c:/marmalade/7.2/s3e/h/std/sys/resource.h'
p3685
sbsS'clocale'
p3686
g302
(g1626
g304
Ntp3687
Rp3688
(dp3689
g1630
g1638
sg1631
g1639
sg328
S'c:/marmalade/7.2/s3e/h/std/c++/clocale'
p3690
sbsS'csetjmp'
p3691
g302
(g1626
g304
Ntp3692
Rp3693
(dp3694
g1630
g1638
sg1631
g1639
sg328
S'c:/marmalade/7.2/s3e/h/std/c++/csetjmp'
p3695
sbsS'netdb.h'
p3696
g302
(g1626
g304
Ntp3697
Rp3698
(dp3699
g1630
g1638
sg1631
g1660
sg328
S'c:/marmalade/7.2/s3e/h/std/netdb.h'
p3700
sbsS's3eAndroidJNI.h'
p3701
g302
(g1626
g304
Ntp3702
Rp3703
(dp3704
g1630
g1638
sg1631
g1872
sg328
S'c:/marmalade/7.2/s3e/h/ext/s3eAndroidJNI.h'
p3705
sbsS'stdexcept'
p3706
g302
(g1626
g304
Ntp3707
Rp3708
(dp3709
g1630
g1638
sg1631
g1639
sg328
S'c:/marmalade/7.2/s3e/h/std/c++/stdexcept'
p3710
sbsS'math.h'
p3711
g302
(g1626
g304
Ntp3712
Rp3713
(dp3714
g1630
g1638
sg1631
g1660
sg328
S'c:/marmalade/7.2/s3e/h/std/math.h'
p3715
sbsS'stdbool.h'
p3716
g302
(g1626
g304
Ntp3717
Rp3718
(dp3719
g1630
g1638
sg1631
g1660
sg328
S'c:/marmalade/7.2/s3e/h/std/stdbool.h'
p3720
sbsS'uio.h'
p3721
g302
(g1626
g304
Ntp3722
Rp3723
(dp3724
g1630
g1638
sg1631
g1793
sg328
S'c:/marmalade/7.2/s3e/h/std/sys/uio.h'
p3725
sbsS'IwUncopyable.h'
p3726
g302
(g1626
g304
Ntp3727
Rp3728
(dp3729
g1630
g1502
sg1631
g1667
sg328
g1547
sbsS's3efacebook.mkf'
p3730
g302
(g1626
g304
Ntp3731
Rp3732
(dp3733
g1630
g1174
sg1631
(lp3734
g2992
ag1160
asg328
g1172
sbssS'juice_build_type'
p3735
g4
sS'tests'
p3736
(lp3737
sS'project_name'
p3738
g310
sS'root_file'
p3739
g119
sS'current_root'
p3740
S'c:/Users/Vinicius/Desktop/Yes or No/Stars'
p3741
sS'dependencies'
p3742
(lp3743
sS'include_paths'
p3744
(lp3745
S'c:/marmalade/7.2/extensions/s3ewebview/h'
p3746
aS'c:/marmalade/7.2/modules/iwutil/h'
p3747
aS'c:/marmalade/7.2/modules/third_party/libjpeg/h'
p3748
aS'c:/marmalade/7.2/modules/third_party/zlib/h'
p3749
aS'c:/marmalade/7.2/modules/third_party/libpng/h'
p3750
aS'c:/marmalade/7.2/extensions/s3efacebook/h'
p3751
aS'c:/marmalade/7.2/modules/iw2d/h'
p3752
aS'c:/marmalade/7.2/modules/iwgx/h'
p3753
aS'c:/marmalade/7.2/modules/iwgl/h'
p3754
aS'c:/marmalade/7.2/modules/iwgeom/h'
p3755
aS'c:/marmalade/7.2/modules/iwresmanager/h'
p3756
aS'c:/marmalade/7.2/modules/iwgxfont/h'
p3757
aS'c:/marmalade/7.2/modules/third_party/tiniconv/source'
p3758
aS'c:/marmalade/7.2/modules/iw2dscenegraph/h'
p3759
aS'c:/marmalade/7.2/modules/iw2dscenegraphcore/h'
p3760
aS'c:/marmalade/7.2/modules/iwtween/h'
p3761
aS'c:/users/vinicius/desktop/yes or no/stars/modules/soundengine/h'
p3762
aS'c:/users/vinicius/desktop/yes or no/stars/modules/soundengine/source'
p3763
aS'c:/marmalade/7.2/extensions/s3eflurry/h'
p3764
aS'c:/marmalade/7.2/s3e/h'
p3765
aS'c:/marmalade/7.2/s3e/h/ext'
p3766
aS'c:/marmalade/7.2/s3e/h/std'
p3767
aS'c:/marmalade/7.2/s3e/h/std/c++'
p3768
aS'c:/marmalade/7.2/s3e/h/ext_legacy'
p3769
aS'c:/marmalade/7.2/s3e/h/legacy'
p3770
asS'weak_frameworks'
p3771
(lp3772
sS'extprojects'
p3773
(dp3774
sg605
(dp3775
g599
(lp3776
(S'c:/Users/Vinicius/Desktop/Yes or No/Stars/data/audio'
p3777
S'audio'
p3778
I0
tp3779
a(S'c:/Users/Vinicius/Desktop/Yes or No/Stars/data/textures'
p3780
S'textures'
p3781
I0
tp3782
a(S'c:/Users/Vinicius/Desktop/Yes or No/Stars/data-ram/data-gles1,c:/Users/Vinicius/Desktop/Yes or No/Stars/data'
p3783
S'.'
p3784
I0
tp3785
a(S'c:/marmalade/7.2/extensions/s3ewebview/s3eWebView.js'
p3786
S's3eWebView.js'
p3787
I0
tp3788
a(S'c:/marmalade/7.2/extensions/s3efacebook/source/iphone/facebook-ios-sdk/FacebookSDK.framework/Versions/A/Resources/FacebookSDKResources.bundle/FBDialog/images/fbicon.png'
p3789
S'FacebookSDKResources.bundle/FBDialog/images/fbicon.png'
p3790
I0
tp3791
a(S'c:/marmalade/7.2/extensions/s3efacebook/source/iphone/facebook-ios-sdk/FacebookSDK.framework/Versions/A/Resources/FacebookSDKResources.bundle/FBDialog/images/close.png'
p3792
S'FacebookSDKResources.bundle/FBDialog/images/close.png'
p3793
I0
tp3794
a(S'c:/marmalade/7.2/extensions/s3efacebook/source/iphone/facebook-ios-sdk/FacebookSDK.framework/Versions/A/Resources/FacebookSDKResources.bundle/FBDialog/images/close@2x.png'
p3795
S'FacebookSDKResources.bundle/FBDialog/images/close@2x.png'
p3796
I0
tp3797
a(S'c:/marmalade/7.2/extensions/s3efacebook/facebook-winclient-sdk-master/Source/Facebook.Client-WindowsStore/FacebookDialogPage.xaml'
p3798
S'FacebookDialogPage.xaml'
p3799
I0
tp3800
asS'WebView32Assets'
p3801
(lp3802
(S'c:/marmalade/7.2/extensions/s3ewebview/lib/win32/locales'
p3803
S'locales'
p3804
I0
tp3805
a(S'c:/marmalade/7.2/extensions/s3ewebview/lib/win32/avcodec-53.dll'
p3806
S'avcodec-53.dll'
p3807
I0
tp3808
a(S'c:/marmalade/7.2/extensions/s3ewebview/lib/win32/avformat-53.dll'
p3809
S'avformat-53.dll'
p3810
I0
tp3811
a(S'c:/marmalade/7.2/extensions/s3ewebview/lib/win32/avutil-51.dll'
p3812
S'avutil-51.dll'
p3813
I0
tp3814
a(S'c:/marmalade/7.2/extensions/s3ewebview/lib/win32/chrome.pak'
p3815
S'chrome.pak'
p3816
I0
tp3817
a(S'c:/marmalade/7.2/extensions/s3ewebview/lib/win32/d3dcompiler_43.dll'
p3818
S'd3dcompiler_43.dll'
p3819
I0
tp3820
a(S'c:/marmalade/7.2/extensions/s3ewebview/lib/win32/d3dx9_43.dll'
p3821
S'd3dx9_43.dll'
p3822
I0
tp3823
a(S'c:/marmalade/7.2/extensions/s3ewebview/lib/win32/icudt.dll'
p3824
S'icudt.dll'
p3825
I0
tp3826
a(S'c:/marmalade/7.2/extensions/s3ewebview/lib/win32/libcef.dll'
p3827
S'libcef.dll'
p3828
I0
tp3829
a(S'c:/marmalade/7.2/extensions/s3ewebview/lib/win32/libEGL.dll'
p3830
S'libEGL.dll'
p3831
I0
tp3832
a(S'c:/marmalade/7.2/extensions/s3ewebview/lib/win32/libGLESv2.dll'
p3833
S'libGLESv2.dll'
p3834
I0
tp3835
assS'macro_types'
p3836
(dp3837
g528
I0
sg530
I0
sg531
I0
sg532
I0
sg534
I1
sg535
I0
sg536
I0
sg537
I0
sg538
I0
sg539
I0
sg540
I0
sg541
I0
sg543
I0
sg544
I0
sg545
I0
sg546
I0
sg547
I0
sg549
I0
sg550
I0
sg551
I0
sg552
I0
sg553
I0
sg554
I0
sg555
I0
sg556
I0
sg557
I1
sg558
I0
sg559
I0
sg560
I0
sg561
I0
sg562
I0
sg563
I0
sg564
I0
sg565
I01
sg566
I1
sg567
I0
sg568
I0
sg569
I0
sg570
I0
sg571
I0
sg572
I0
sg573
I0
sg574
I0
ssS'commands'
p3838
(lp3839
sg607
(g1028
S'VC12X'
p3840
S'X86ARM'
p3841
tp3842
sS'build_libs'
p3843
(dp3844
sg609
g0
sS'frameworks'
p3845
(lp3846
sS'environ'
p3847
(dp3848
sS'target_name_debug'
p3849
g310
sS'builders'
p3850
(dp3851
g599
(dp3852
S'.S'
p3853
(dp3854
S'rvct'
p3855
(lp3856
S'.obj'
p3857
aS'echo ARM Assembling(RVCT) ${SOURCE}...'
p3858
aS'c:/marmalade/7.2/s3e\\rvct\\bin\\armasm -o ${TARGET} ${SOURCE}'
p3859
asS'gcc'
p3860
(lp3861
g3857
aS'echo ARM Assembling(GCC) ${SOURCE}...'
p3862
aS'c:/marmalade/7.2/s3e\\gcc\\bin\\arm-none-eabi-gcc -c -o ${TARGET} ${SOURCE}'
p3863
asS'ppu'
p3864
(lp3865
S'.a'
p3866
aS'echo PPU Assembling(SNC) ${SOURCE}...'
p3867
aS'c:/marmalade/7.2/s3e\\rvct\\bin\\armasm -o ${TARGET} ${SOURCE}'
p3868
assS'.s'
p3869
g3854
sS'.vp'
p3870
(lp3871
NaS'"C:/Marmalade/7.2/s3e/python/python.exe" "c:/marmalade/7.2/modules/iwgx/tools/compile_shaders.py" ${SOURCE}'
p3872
asssS'extproject_names'
p3873
(lp3874
sbtp3875
.