((dp0
S'arm_dbg_args'
p1
S'-via:"c:\\Users\\Vinicius\\Desktop\\Yes or No\\Hoppe\\build_hoppe_vc12x\\Hoppe_vc12x_arm_debug.via" -qemu'
p2
sS'game-icf'
p3
S''
p4
sS'dist'
p5
NsS'csproj'
p6
g4
sS'module_path_append'
p7
NsS'global_path'
p8
S'c:\\users\\vinicius\\desktop\\yes or no'
p9
sS'system_path'
p10
S'c:\\marmalade\\7.2\\s3e\\makefile_builder'
p11
sS'android_x86_dbg_args'
p12
S'../../tools/DeployTool/DeployTool.exe --dir "c:\\Users\\Vinicius\\Desktop\\Yes or No\\Hoppe\\build_hoppe_vc12x"'
p13
sS'use_prebuilt'
p14
NsS'arm_rel_rtsm_args'
p15
S'-via:"c:\\Users\\Vinicius\\Desktop\\Yes or No\\Hoppe\\build_hoppe_vc12x\\Hoppe_vc12x_arm_release.via" -qemu'
p16
sS'amd64'
p17
NsS'line-width'
p18
I80
sS'gcc_dbg_args'
p19
S'-via:"c:\\Users\\Vinicius\\Desktop\\Yes or No\\Hoppe\\build_hoppe_vc12x\\Hoppe_vc12x_gcc_debug.via" -qemu'
p20
sS'android-x86'
p21
NsS'x86_dbg_exe'
p22
S'c:/marmalade/7.2/s3e\\win32\\s3e_simulator_debug.exe'
p23
sS'disable-runtime-checks'
p24
NsS'release'
p25
NsS'no-make'
p26
NsS'optimise-size'
p27
NsS'output-name-debug'
p28
g4
sS'arm-fpu'
p29
S'vfp'
p30
sS'proj_name'
p31
S'Hoppe_vc12x'
p32
sS'rvct-version'
p33
S'none'
p34
sS'compiler'
p35
g4
sS'execute'
p36
NsS'compile-static'
p37
NsS'msvc-project'
p38
NsS'buildenv'
p39
S'VC12X'
p40
sS'quick'
p41
NsS'module_path'
p42
(lp43
S'c:/Users/Vinicius/Desktop/Yes or No/Hoppe/modules'
p44
asS'use-release-std-libs'
p45
NsS'using_perforce'
p46
I00
sS'tizen-x86'
p47
NsS'mips-s3e'
p48
NsS'ios-no-pic'
p49
NsS'shared-arm-lib'
p50
NsS'arm-cpu'
p51
g4
sS'compile-thumb'
p52
NsS'no-ide'
p53
NsS'msvc-version'
p54
S'6.0'
p55
sS'arm'
p56
NsS'builddir'
p57
g4
sS'compile-debug-as-release'
p58
I0
sS'brief'
p59
NsS'dll'
p60
NsS'buildenv-toolset'
p61
g4
sS'version'
p62
NsS'ccache'
p63
I0
sS'offline'
p64
NsS'ios-version'
p65
g4
sS'hub_data'
p66
g4
sS'fake_vc_call'
p67
I01
sS'jobs'
p68
I0
sS'linkflags'
p69
NsS'tizen-x86-toolsroot'
p70
S'c:/marmalade/7.2/s3e\\..\\tools\\gcc\\x86\\tizen_windows'
p71
sS'debug'
p72
NsS'xcode-build-order'
p73
g4
sS'gcc_rel_rtsm_args'
p74
S'-via:"c:\\Users\\Vinicius\\Desktop\\Yes or No\\Hoppe\\build_hoppe_vc12x\\Hoppe_vc12x_gcc_release.via" -qemu'
p75
sS'done_defaults'
p76
I1
sS'path'
p77
NsS's3e-data-dir'
p78
S'c:/Users/Vinicius/Desktop/Yes or No/Hoppe\\data'
p79
sS'enable-exceptions'
p80
NsS'osx-dll'
p81
NsS'extension'
p82
g4
sS'no-vc6'
p83
NsS'non-interactive'
p84
NsS'win32-console'
p85
NsS'dist-format'
p86
g4
sS's3e-force-arch'
p87
NsS'dump_defines'
p88
NsS'verbose'
p89
I0
sS'gcc-version'
p90
g4
sS'x86_dbg_args'
p91
S'-via:"c:\\Users\\Vinicius\\Desktop\\Yes or No\\Hoppe\\build_hoppe_vc12x\\Hoppe_vc12x_debug.via"'
p92
sS'tizen_x86_dbg_args'
p93
g13
sS'arm-debugger'
p94
g4
sS'use_temp_extension'
p95
NsS'log'
p96
NsS'no-strip'
p97
NsS'rebuild'
p98
NsS'win32-simulator-dll'
p99
NsS'strict'
p100
NsS'mips_dbg_args'
p101
g13
sS'enable-global-path'
p102
NsS'cflags'
p103
NsS'dist-dir'
p104
g4
sS'jflags'
p105
NsS'csprojSDKRefs'
p106
g4
sS'tizen_x86_rel_exe'
p107
S'c:\\marmalade\\7.2\\s3e\\makefile_builder\\tool_launcher.exe'
p108
sS'test-assets'
p109
g4
sS'distcc'
p110
NsS'external-compiler'
p111
NsS'no-distcc'
p112
NsS'preinclude'
p113
NsS'using_sdk'
p114
I01
sS'nologo'
p115
NsS'warn-level'
p116
I2
sS'mips_dbg_exe'
p117
g108
sS'mkb_in'
p118
S'c:/Users/Vinicius/Desktop/Yes or No/Hoppe/Hoppe.mkb'
p119
sS'tizen_x86_dbg_exe'
p120
g108
sS'arm_dbg_exe'
p121
S'c:/marmalade/7.2/s3e\\bin\\armdebug.exe'
p122
sS'csprojDLLRef'
p123
NsS'tizen_x86_rel_args'
p124
g13
sS'android_x86_dbg_exe'
p125
g108
sS'test-config'
p126
g4
sS'list-targets'
p127
NsS'arm_rel_exe'
p128
g108
sS'arm_rel_args'
p129
g13
sS'makedeps'
p130
NsS'android_x86_rel_exe'
p131
g108
sS'default-buildenv'
p132
S'VC12X'
p133
sS'x86_rel_exe'
p134
g23
sS'preprocess-java'
p135
NsS'mips_rel_args'
p136
g13
sS'defines'
p137
NsS'lib'
p138
NsS'global_argv'
p139
(lp140
S'C:\\Marmalade\\7.2\\s3e\\makefile_builder\\mkb.py'
p141
aS'C:/Users/Vinicius/Desktop/Yes or No/Hoppe/Hoppe.mkb'
p142
aS'--buildenv=VC12X'
p143
aS'--fake-vc-call'
p144
asS'make'
p145
NsS'optimise-speed'
p146
NsS'internal'
p147
NsS'enable-stdinc'
p148
NsS'deploy-only'
p149
NsS'x86'
p150
NsS'deploy'
p151
g4
sS'x86_run_exe'
p152
S'c:/marmalade/7.2/s3e\\win32\\s3e_console.exe'
p153
sS'x86_rel_args'
p154
S'-via:"c:\\Users\\Vinicius\\Desktop\\Yes or No\\Hoppe\\build_hoppe_vc12x\\Hoppe_vc12x_release.via"'
p155
sS'gcc_rel_args'
p156
g13
sS'mips'
p157
NsS'xcode-build-settings'
p158
g4
sS'incredibuild'
p159
NsS'strict-compile'
p160
NsS'use-auto-subdirs'
p161
NsS'mips_rel_exe'
p162
g108
sS'android_x86_rel_args'
p163
g13
sS'app-icf'
p164
g4
sS'deployargs'
p165
NsS'iosnativedebug'
p166
NsS'mkf_in'
p167
(lp168
S'c:\\marmalade\\7.2\\extensions\\s3ewebview\\s3ewebview.mkf'
p169
aS'c:\\marmalade\\7.2\\modules\\iwutil\\iwutil.mkf'
p170
aS'c:\\marmalade\\7.2\\modules\\third_party\\libjpeg\\libjpeg.mkf'
p171
aS'c:\\marmalade\\7.2\\modules\\third_party\\libpng\\libpng.mkf'
p172
aS'c:\\marmalade\\7.2\\modules\\third_party\\zlib\\zlib.mkf'
p173
aS'c:\\marmalade\\7.2\\extensions\\s3efacebook\\s3efacebook.mkf'
p174
aS'c:\\marmalade\\7.2\\modules\\iw2d\\iw2d.mkf'
p175
aS'c:\\marmalade\\7.2\\modules\\iwgx\\iwgx.mkf'
p176
aS'c:\\marmalade\\7.2\\modules\\iwgl\\iwgl.mkf'
p177
aS'c:\\marmalade\\7.2\\modules\\iwgeom\\iwgeom.mkf'
p178
aS'c:\\marmalade\\7.2\\modules\\iwresmanager\\iwresmanager.mkf'
p179
aS'c:\\marmalade\\7.2\\modules\\iwgxfont\\iwgxfont.mkf'
p180
aS'c:\\marmalade\\7.2\\modules\\third_party\\tiniconv\\tiniconv.mkf'
p181
aS'c:\\marmalade\\7.2\\modules\\iw2dscenegraph\\iw2dscenegraph.mkf'
p182
aS'c:\\marmalade\\7.2\\modules\\iw2dscenegraphcore\\iw2dscenegraphcore.mkf'
p183
aS'c:\\marmalade\\7.2\\modules\\iwtween\\iwtween.mkf'
p184
aS'c:\\users\\vinicius\\desktop\\yes or no\\hoppe\\modules\\soundengine\\soundengine.mkf'
p185
aS'c:\\marmalade\\7.2\\extensions\\s3eflurry\\s3eflurry.mkf'
p186
asS'strict-mkb'
p187
NsS'executeargs'
p188
NsS'clean'
p189
NsS'no-asm'
p190
NsS'output-name'
p191
g4
sS'no-modules'
p192
NsS'find_define'
p193
g4
s(dp194
S'c:\\marmalade\\7.2\\s3e\\makefile_builder\\templates\\ws8_sln.pyc'
p195
F1396656910.0
sS'c:\\marmalade\\7.2\\s3e\\makefile_builder\\plugins\\java.pyc'
p196
F1396656908.0
sS'c:\\marmalade\\7.2\\s3e\\makefile_builder\\plugins\\S3EEmitter.pyc'
p197
F1396656908.0
sS'c:\\marmalade\\7.2\\s3e\\makefile_builder\\templates\\win32_vcxproj_filters.pyc'
p198
F1396656910.0
sS'c:\\marmalade\\7.2\\s3e\\makefile_builder\\plugins\\xcode4_schememanagement.py'
p199
F1396655700.0
sS'c:\\marmalade\\7.2\\s3e\\makefile_builder\\plugins\\linux_scons.pyc'
p200
F1396656910.0
sS'c:\\marmalade\\7.2\\s3e\\makefile_builder\\templates\\wp8_sln.pyc'
p201
F1396656910.0
sS'c:\\marmalade\\7.2\\s3e\\makefile_builder\\templates\\ws8_ext_sln.pyc'
p202
F1396656910.0
sS'c:\\marmalade\\7.2\\s3e\\makefile_builder\\templates\\MainWindow.xib'
p203
F1396655700.0
sS'c:\\marmalade\\7.2\\s3e\\makefile_builder\\templates\\ws81_ext_sln.pyc'
p204
F1396656910.0
sS'c:\\marmalade\\7.2\\s3e\\makefile_builder\\plugins\\Win8Emitter.pyc'
p205
F1396656910.0
sS'c:\\marmalade\\7.2\\s3e\\makefile_builder\\templates\\win8_ext_csproj.pyc'
p206
F1396656910.0
sS'c:\\marmalade\\7.2\\s3e\\makefile_builder\\templates\\rvct_linker_script'
p207
F1396655702.0
sS'c:\\marmalade\\7.2\\s3e\\makefile_builder\\templates\\win8_sln.pyc'
p208
F1396656910.0
sS'c:\\marmalade\\7.2\\s3e\\makefile_builder\\templates\\ws8_ext_csproj.pyc'
p209
F1396656910.0
sS'c:\\marmalade\\7.2\\s3e\\makefile_builder\\plugins\\s3e_make.pyc'
p210
F1396656908.0
sS'c:\\marmalade\\7.2\\s3e\\makefile_builder\\templates\\wp8_csproj_user.pyc'
p211
F1396656910.0
sS'c:\\marmalade\\7.2\\s3e\\makefile_builder\\plugins\\s3e_scons.pyc'
p212
F1396656908.0
sS'c:\\marmalade\\7.2\\s3e\\makefile_builder\\plugins\\s3e_qmake.py'
p213
F1396655700.0
sS'c:\\marmalade\\7.2\\s3e\\makefile_builder\\docs\\deprecated.options.txt'
p214
F1396655698.0
sS'c:\\marmalade\\7.2\\s3e\\makefile_builder\\plugins\\ws8_ws8.pyc'
p215
F1396656910.0
sS'c:\\marmalade\\7.2\\s3e\\makefile_builder\\templates\\ws81_sln.pyc'
p216
F1396656910.0
sS'c:\\marmalade\\7.2\\s3e\\makefile_builder\\templates\\ws81_ext_csproj.pyc'
p217
F1396656910.0
sS'c:\\marmalade\\7.2\\s3e\\makefile_builder\\templates\\wp8_vcxproj.pyc'
p218
F1396656910.0
sS'c:\\marmalade\\7.2\\s3e\\makefile_builder\\templates\\vc6_opt.pyc'
p219
F1396656910.0
sS'c:\\marmalade\\7.2\\s3e\\makefile_builder\\plugins\\deploy.pyc'
p220
F1396656908.0
sS'c:\\marmalade\\7.2\\s3e\\makefile_builder\\templates\\scons.pyc'
p221
F1396656910.0
sS'c:\\marmalade\\7.2\\s3e\\makefile_builder\\templates\\win32_vcproj.pyc'
p222
F1396656910.0
sS'c:\\marmalade\\7.2\\s3e\\makefile_builder\\templates\\win8_csproj.pyc'
p223
F1396656910.0
sS'c:\\marmalade\\7.2\\s3e\\makefile_builder\\extensions\\make_dist.py'
p224
F1396655698.0
sS'c:\\marmalade\\7.2\\s3e\\makefile_builder\\templates\\gdb_start.txt'
p225
F1396655702.0
sS'c:\\marmalade\\7.2\\s3e\\makefile_builder\\templates\\vc8_user.pyc'
p226
F1396656910.0
sS'c:\\marmalade\\7.2\\s3e\\makefile_builder\\plugins\\s3e_win8.pyc'
p227
F1396656910.0
sS'c:\\marmalade\\7.2\\s3e\\makefile_builder\\templates\\win32_sln.pyc'
p228
F1396656910.0
sS'c:\\marmalade\\7.2\\s3e\\makefile_builder\\docs\\options.txt'
p229
F1396655698.0
sS'c:\\marmalade\\7.2\\s3e\\makefile_builder\\mkb.py'
p230
F1396655698.0
sS'c:\\marmalade\\7.2\\s3e\\makefile_builder\\templates\\Info.plist'
p231
F1396655700.0
sS'c:\\marmalade\\7.2\\s3e\\makefile_builder\\docs\\parse_options.pyc'
p232
F1396656912.0
sS'c:\\marmalade\\7.2\\s3e\\makefile_builder\\templates\\ws8_csproj.pyc'
p233
F1396656910.0
sS'c:\\marmalade\\7.2\\s3e\\makefile_builder\\templates\\ws81_csproj.pyc'
p234
F1396656910.0
sS'c:\\marmalade\\7.2\\s3e\\makefile_builder\\plugins\\osx_xcode.pyc'
p235
F1396656910.0
sS'c:\\marmalade\\7.2\\s3e\\makefile_builder\\plugins\\s3e_xcode.pyc'
p236
F1397674110.1375155
sS'c:\\marmalade\\7.2\\s3e\\makefile_builder\\plugins\\xcode4_schememanagement.pyc'
p237
F1397674109.1068296
sS'c:\\marmalade\\7.2\\s3e\\makefile_builder\\templates\\xcode4.xcscheme'
p238
F1396655704.0
sS'c:\\marmalade\\7.2\\s3e\\makefile_builder\\plugins\\Emitter.pyc'
p239
F1396656908.0
sS'c:\\marmalade\\7.2\\s3e\\makefile_builder\\templates\\mips_linker_script'
p240
F1396655702.0
sS'c:\\marmalade\\7.2\\s3e\\makefile_builder\\templates\\ws8_vcxproj.pyc'
p241
F1396656910.0
sS'c:\\marmalade\\7.2\\s3e\\makefile_builder\\plugins\\win32_vc6.pyc'
p242
F1396656910.0
sS'c:\\marmalade\\7.2\\s3e\\makefile_builder\\mkb_parser.pyc'
p243
F1396656908.0
sS'c:\\marmalade\\7.2\\s3e\\makefile_builder\\templates\\ws81_csproj_user.pyc'
p244
F1396656910.0
sS'c:\\marmalade\\7.2\\s3e\\makefile_builder\\templates\\linker_script'
p245
F1396655702.0
sS'c:\\marmalade\\7.2\\s3e\\makefile_builder\\docs\\deprecated.defines.txt'
p246
F1396655698.0
sS'c:\\marmalade\\7.2\\s3e\\makefile_builder\\templates\\template.suo'
p247
F1396655702.0
sS'c:\\marmalade\\7.2\\s3e\\makefile_builder\\templates\\make.py'
p248
F1396655702.0
sS'c:\\marmalade\\7.2\\s3e\\makefile_builder\\extensions'
p249
F1397673792.7230873
sS'c:\\marmalade\\7.2\\s3e\\makefile_builder\\templates\\win32_dsp.pyc'
p250
F1396656910.0
sS'c:\\marmalade\\7.2\\s3e\\makefile_builder\\templates\\wp8_ext_csproj.pyc'
p251
F1396656910.0
sS'c:\\marmalade\\7.2\\s3e\\makefile_builder\\plugins\\MakeEmitter.pyc'
p252
F1396656908.0
sS'c:\\marmalade\\7.2\\s3e\\makefile_builder\\plugins\\XcodeEmitter.pyc'
p253
F1397674109.0167696
sS'c:\\marmalade\\7.2\\s3e\\makefile_builder\\templates\\win32_dsw.pyc'
p254
F1396656910.0
sS'c:\\marmalade\\7.2\\s3e\\makefile_builder\\docs\\mkb.defines.txt'
p255
F1396655698.0
sS'c:\\marmalade\\7.2\\s3e\\makefile_builder\\docs\\deployment_options.txt'
p256
F1396655698.0
sS'c:\\marmalade\\7.2\\s3e\\makefile_builder\\plugins\\s3e_qmake.pyc'
p257
F1397674109.7792768
sS'c:\\marmalade\\7.2\\s3e\\makefile_builder\\plugins\\ws81_ws81.pyc'
p258
F1396656910.0
sS'c:\\marmalade\\7.2\\s3e\\makefile_builder\\templates\\win32_vcxproj.pyc'
p259
F1396656910.0
sS'c:\\marmalade\\7.2\\s3e\\makefile_builder\\docs'
p260
F1397673793.1573761
sS'c:\\marmalade\\7.2\\s3e\\makefile_builder\\plugins\\XcodeEmitter.py'
p261
F1396655698.0
sS'c:\\marmalade\\7.2\\s3e\\makefile_builder\\templates\\template.opt'
p262
F1396655702.0
sS'c:\\marmalade\\7.2\\s3e\\makefile_builder\\tool_launcher.exe'
p263
F1396656088.0
sS'c:\\marmalade\\7.2\\s3e\\makefile_builder\\templates\\xcode.py'
p264
F1396655702.0
sS'c:\\marmalade\\7.2\\s3e\\makefile_builder\\plugins\\VisualStudioEmitter.pyc'
p265
F1396656908.0
sS'c:\\marmalade\\7.2\\s3e\\makefile_builder\\plugins\\osx_scons.pyc'
p266
F1396656910.0
sS'c:\\marmalade\\7.2\\s3e\\makefile_builder\\templates'
p267
F1397673792.65204
sS'c:\\marmalade\\7.2\\s3e\\makefile_builder\\templates\\ws81_vcxproj.pyc'
p268
F1396656910.0
sS'c:\\marmalade\\7.2\\s3e\\makefile_builder\\templates\\win8_vcxproj.pyc'
p269
F1396656910.0
sS'c:\\marmalade\\7.2\\s3e\\makefile_builder\\plugins\\s3e_ws8.pyc'
p270
F1396656910.0
sS'c:\\marmalade\\7.2\\s3e\\makefile_builder\\templates\\wp8_csproj.pyc'
p271
F1396656910.0
sS'c:\\marmalade\\7.2\\s3e\\makefile_builder\\templates\\vc7_suo.pyc'
p272
F1396656910.0
sS'c:\\marmalade\\7.2\\s3e\\makefile_builder\\plugins\\SConsEmitter.pyc'
p273
F1396656908.0
sS'c:\\marmalade\\7.2\\s3e\\makefile_builder\\mkb_option.pyc'
p274
F1396656908.0
sS'c:\\marmalade\\7.2\\s3e\\makefile_builder\\templates\\ws8_csproj_user.pyc'
p275
F1396656910.0
sS'c:\\marmalade\\7.2\\s3e\\makefile_builder\\mkb_main.pyc'
p276
F1396656908.0
sS'c:\\marmalade\\7.2\\s3e\\makefile_builder\\plugins'
p277
F1397674110.1315114
sS'c:\\marmalade\\7.2\\s3e\\makefile_builder\\plugins\\s3e_web.pyc'
p278
F1396656908.0
sS'c:\\marmalade\\7.2\\s3e\\makefile_builder\\plugins\\s3e_ws81.pyc'
p279
F1396656910.0
sS'c:\\marmalade\\7.2\\s3e\\makefile_builder\\mkb_globals.pyc'
p280
F1396656908.0
sS'c:\\marmalade\\7.2\\s3e\\makefile_builder\\plugins\\iphone.pyc'
p281
F1396656910.0
sS'c:\\marmalade\\7.2\\s3e\\makefile_builder\\mkb_launcher.exe'
p282
F1396656088.0
sS'c:\\marmalade\\7.2\\s3e\\makefile_builder\\plugins\\vc7_utils.pyc'
p283
F1396656908.0
sS'c:\\marmalade\\7.2\\s3e\\makefile_builder\\plugins\\s3e_wp8.pyc'
p284
F1396656910.0
sS'c:\\marmalade\\7.2\\s3e\\makefile_builder\\plugins\\vc6_utils.pyc'
p285
F1396656908.0
sS'c:\\marmalade\\7.2\\s3e\\makefile_builder\\deployment.pyc'
p286
F1396656908.0
sS'c:\\marmalade\\7.2\\s3e\\makefile_builder\\plugins\\s3e_vc6.pyc'
p287
F1396656908.0
sS'c:\\marmalade\\7.2\\s3e\\makefile_builder\\plugins\\null.pyc'
p288
F1396656908.0
sS'c:\\marmalade\\7.2\\s3e\\makefile_builder\\templates\\qmake.py'
p289
F1396655702.0
sS'c:\\marmalade\\7.2\\s3e\\makefile_builder\\templates\\xcode4_DeployTool.xcscheme'
p290
F1396655704.0
sS'c:\\marmalade\\7.2\\s3e\\makefile_builder\\templates\\win8_csproj_user.pyc'
p291
F1396656910.0
sS'c:\\marmalade\\7.2\\s3e\\makefile_builder\\plugins\\win8_utils.pyc'
p292
F1396656908.0
sS'c:\\marmalade\\7.2\\s3e\\makefile_builder\\mkb_util.pyc'
p293
F1396656908.0
sS'c:\\marmalade\\7.2\\s3e\\makefile_builder\\plugins\\wp8_wp8.pyc'
p294
F1396656910.0
sS'c:\\marmalade\\7.2\\s3e\\makefile_builder\\plugins\\s3e_xcode.py'
p295
F1396655700.0
sS'c:\\marmalade\\7.2\\s3e\\makefile_builder\\templates\\vc10_user.pyc'
p296
F1396656910.0
sS'c:\\marmalade\\7.2\\s3e\\makefile_builder\\templates\\qmake_user.py'
p297
F1396655702.0
sS'c:\\marmalade\\7.2\\s3e\\makefile_builder\\templates\\xcode_pbxuser.py'
p298
F1396655704.0
sccopy_reg
_reconstructor
p299
(cmkb_main
MkbFile
p300
c__builtin__
object
p301
Ntp302
Rp303
(dp304
g5
(lp305
sS'target_name'
p306
S'Hoppe'
p307
sS'current_file'
p308
g119
sS'package_path'
p309
(lp310
sS'post_build'
p311
(lp312
(lp313
S'c:/marmalade/7.2/s3e/tools'
p314
aS'C:\\Marmalade\\7.2\\s3e\\python\\python.exe .\\process_map.py "$(TargetPath)"'
p315
aa(S'c:\\marmalade\\7.2\\s3e\\bin'
p316
S'"s3e_plink" -l "$(TargetPath)" '
p317
g150
tp318
asS'librarys'
p319
(lp320
g299
(cmkb_main
Library
p321
g301
Ntp322
Rp323
(dp324
S'name'
p325
S'vc6_compat.lib'
p326
sS'expand_name'
p327
I00
sS'include_spec_rvct_objs'
p328
(lp329
sS'include_all_objs'
p330
I00
sS'share_arm'
p331
I00
sS'arch'
p332
S'x86'
p333
sS'nodebug'
p334
I00
sg35
Nsbag299
(g321
g301
Ntp335
Rp336
(dp337
g325
S'iwutil'
p338
sg327
I01
sg328
(lp339
sg330
Nsg331
Nsg332
Nsg334
I00
sg35
Nsbag299
(g321
g301
Ntp340
Rp341
(dp342
g325
S'jpeg'
p343
sg327
I01
sg328
g339
sg330
Nsg331
Nsg332
Nsg334
I00
sg35
Nsbag299
(g321
g301
Ntp344
Rp345
(dp346
g325
S'z'
p347
sg327
I01
sg328
g339
sg330
Nsg331
Nsg332
Nsg334
I00
sg35
Nsbag299
(g321
g301
Ntp348
Rp349
(dp350
g325
S'png'
p351
sg327
I01
sg328
g339
sg330
Nsg331
Nsg332
Nsg334
I00
sg35
Nsbag299
(g321
g301
Ntp352
Rp353
(dp354
g325
S'iw2d'
p355
sg327
I01
sg328
g339
sg330
Nsg331
Nsg332
Nsg334
I00
sg35
Nsbag299
(g321
g301
Ntp356
Rp357
(dp358
g325
S'ATI_Compress_MT_VC7.lib'
p359
sg327
I00
sg328
g339
sg330
Nsg331
Nsg332
S'x86'
p360
sg334
I00
sg35
Nsbag299
(g321
g301
Ntp361
Rp362
(dp363
g325
S'iwgx'
p364
sg327
I01
sg328
g339
sg330
Nsg331
Nsg332
Nsg334
I00
sg35
Nsbag299
(g321
g301
Ntp365
Rp366
(dp367
g325
S'iwgl'
p368
sg327
I01
sg328
g339
sg330
Nsg331
Nsg332
Nsg334
I00
sg35
Nsbag299
(g321
g301
Ntp369
Rp370
(dp371
g325
S'iwgeom'
p372
sg327
I01
sg328
g339
sg330
Nsg331
Nsg332
Nsg334
I00
sg35
Nsbag299
(g321
g301
Ntp373
Rp374
(dp375
g325
S'iwresmanager'
p376
sg327
I01
sg328
g339
sg330
Nsg331
Nsg332
Nsg334
I00
sg35
Nsbag299
(g321
g301
Ntp377
Rp378
(dp379
g325
S'iwgxfont'
p380
sg327
I01
sg328
g339
sg330
Nsg331
Nsg332
Nsg334
I00
sg35
Nsbag299
(g321
g301
Ntp381
Rp382
(dp383
g325
S'tiniconv'
p384
sg327
I01
sg328
g339
sg330
Nsg331
Nsg332
Nsg334
I00
sg35
Nsbag299
(g321
g301
Ntp385
Rp386
(dp387
g325
S's3e_cpp'
p388
sg327
I01
sg328
g329
sg330
I00
sg331
I00
sg332
Nsg334
I00
sg35
Nsbag299
(g321
g301
Ntp389
Rp390
(dp391
g325
S's3e'
p392
sg327
I01
sg328
(lp393
S'iwcrt.o'
p394
asg330
I00
sg331
I00
sg332
Nsg334
I00
sg35
Nsbag299
(g321
g301
Ntp395
Rp396
(dp397
g325
S's3e_api'
p398
sg327
I01
sg328
g329
sg330
I00
sg331
I00
sg332
S'x86'
p399
sg334
I01
sg35
Nsbag299
(g321
g301
Ntp400
Rp401
(dp402
g325
S's3e_api'
p403
sg327
I01
sg328
g329
sg330
I00
sg331
I00
sg332
S'!x86'
p404
sg334
I01
sg35
Nsbag299
(g321
g301
Ntp405
Rp406
(dp407
g325
S'stdc++'
p408
sg327
I00
sg328
g329
sg330
I00
sg331
I00
sg332
S'mips'
p409
sg334
I00
sg35
Nsbag299
(g321
g301
Ntp410
Rp411
(dp412
g325
S'c'
p413
sg327
I00
sg328
g329
sg330
I00
sg331
I00
sg332
S'mips'
p414
sg334
I00
sg35
Nsbag299
(g321
g301
Ntp415
Rp416
(dp417
g325
S'm'
p418
sg327
I00
sg328
g329
sg330
I00
sg331
I00
sg332
S'mips'
p419
sg334
I00
sg35
Nsbag299
(g321
g301
Ntp420
Rp421
(dp422
g325
S'gcc'
p423
sg327
I00
sg328
g329
sg330
I00
sg331
I00
sg332
S'mips'
p424
sg334
I00
sg35
Nsbag299
(g321
g301
Ntp425
Rp426
(dp427
g325
S'stdc++'
p428
sg327
I00
sg328
g329
sg330
I00
sg331
I00
sg332
S'gcc_x86_tizen'
p429
sg334
I00
sg35
Nsbag299
(g321
g301
Ntp430
Rp431
(dp432
g325
g413
sg327
I00
sg328
g329
sg330
I00
sg331
I00
sg332
S'gcc_x86_tizen'
p433
sg334
I00
sg35
Nsbag299
(g321
g301
Ntp434
Rp435
(dp436
g325
g418
sg327
I00
sg328
g329
sg330
I00
sg331
I00
sg332
S'gcc_x86_tizen'
p437
sg334
I00
sg35
Nsbag299
(g321
g301
Ntp438
Rp439
(dp440
g325
S'gcc'
p441
sg327
I00
sg328
g329
sg330
I00
sg331
I00
sg332
S'gcc_x86_tizen'
p442
sg334
I00
sg35
Nsbag299
(g321
g301
Ntp443
Rp444
(dp445
g325
S'gcc_eh'
p446
sg327
I00
sg328
g329
sg330
I00
sg331
I00
sg332
S'gcc_x86_tizen'
p447
sg334
I00
sg35
Nsbag299
(g321
g301
Ntp448
Rp449
(dp450
g325
S'stdc++'
p451
sg327
I00
sg328
g329
sg330
I00
sg331
I00
sg332
S'gcc_x86_android'
p452
sg334
I00
sg35
Nsbag299
(g321
g301
Ntp453
Rp454
(dp455
g325
g413
sg327
I00
sg328
g329
sg330
I00
sg331
I00
sg332
S'gcc_x86_android'
p456
sg334
I00
sg35
Nsbag299
(g321
g301
Ntp457
Rp458
(dp459
g325
g418
sg327
I00
sg328
g329
sg330
I00
sg331
I00
sg332
S'gcc_x86_android'
p460
sg334
I00
sg35
Nsbag299
(g321
g301
Ntp461
Rp462
(dp463
g325
S'gcc'
p464
sg327
I00
sg328
g329
sg330
I00
sg331
I00
sg332
S'gcc_x86_android'
p465
sg334
I00
sg35
NsbasS'library_paths'
p466
(lp467
g299
(cmkb_main
LibraryPath
p468
g301
Ntp469
Rp470
(dp471
S'expand_path'
p472
I01
sS'add_cpu_variant'
p473
I00
sg325
S'c:/marmalade/7.2/modules/iwutil'
p474
sbag299
(g468
g301
Ntp475
Rp476
(dp477
g472
I01
sg473
I00
sg325
S'c:/marmalade/7.2/modules/third_party/libjpeg'
p478
sbag299
(g468
g301
Ntp479
Rp480
(dp481
g472
I01
sg473
I00
sg325
S'c:/marmalade/7.2/modules/third_party/zlib'
p482
sbag299
(g468
g301
Ntp483
Rp484
(dp485
g472
I01
sg473
I00
sg325
S'c:/marmalade/7.2/modules/third_party/libpng'
p486
sbag299
(g468
g301
Ntp487
Rp488
(dp489
g472
I01
sg473
I00
sg325
S'c:/marmalade/7.2/modules/iw2d'
p490
sbag299
(g468
g301
Ntp491
Rp492
(dp493
g472
I00
sg473
I00
sg325
S'c:/marmalade/7.2/modules/iwgx/atitools'
p494
sbag299
(g468
g301
Ntp495
Rp496
(dp497
g472
I01
sg473
I00
sg325
S'c:/marmalade/7.2/modules/iwgx'
p498
sbag299
(g468
g301
Ntp499
Rp500
(dp501
g472
I01
sg473
I00
sg325
S'c:/marmalade/7.2/modules/iwgl'
p502
sbag299
(g468
g301
Ntp503
Rp504
(dp505
g472
I01
sg473
I00
sg325
S'c:/marmalade/7.2/modules/iwgeom'
p506
sbag299
(g468
g301
Ntp507
Rp508
(dp509
g472
I01
sg473
I00
sg325
S'c:/marmalade/7.2/modules/iwresmanager'
p510
sbag299
(g468
g301
Ntp511
Rp512
(dp513
g472
I01
sg473
I00
sg325
S'c:/marmalade/7.2/modules/iwgxfont'
p514
sbag299
(g468
g301
Ntp515
Rp516
(dp517
g472
I01
sg473
I00
sg325
S'c:/marmalade/7.2/modules/third_party/tiniconv'
p518
sbag299
(g468
g301
Ntp519
Rp520
(dp521
g472
I01
sg473
I00
sg325
S'c:/marmalade/7.2/s3e'
p522
sbasS'macros'
p523
(dp524
S'IW_TRACE_CHANNEL_WEBVIEW_VERBOSE'
p525
S'2'
p526
sS'IW_MKF_S3EFACEBOOK'
p527
NsS'I3D_PLATFORM_S3E'
p528
NsS'IW_TRACE_CHANNEL_FLURRY'
p529
S'1'
p530
sS'IW_USE_CALLSTACK'
p531
NsS'__S3E__'
p532
NsS'IW_TRACE_CHANNEL_WEBVIEW'
p533
g530
sS'IW_MKF_LIBJPEG'
p534
NsS'I3D_OS_S3E'
p535
NsS'IW_ASSERTION_CHANNEL_FLURRY'
p536
g530
sS'IW_MKF_TINICONV'
p537
NsS'IW_APP_VERSION'
p538
S'"1.0"'
p539
sS'IW_MKF_IWRESMANAGER'
p540
NsS'IW_MKF_IWUTIL'
p541
NsS'IW_PLATFORM_S3E'
p542
NsS'IW_ASSERTION_CHANNEL_2D'
p543
g530
sS'IW_APP_NAME'
p544
S'"Hoppe"'
p545
sS'IW_MKF_IWGXFONT'
p546
NsS'IW_MKF_IWTWEEN'
p547
NsS'IW_MKF_S3EFLURRY'
p548
NsS'IW_MKF_ZLIB'
p549
NsS'IW_MKF_IWGX'
p550
NsS'IW_MKF_IW2DSCENEGRAPH'
p551
NsS'IW_MKF_SOUNDENGINE'
p552
NsS'IW_ASSERTION_CHANNEL_WEBVIEW'
p553
g530
sS'IW_USE_ASSERTIONS'
p554
NsS'_CRT_SECURE_NO_DEPRECATE'
p555
NsS'IW_MKF_IWGL'
p556
NsS'IW_MKF_LIBPNG'
p557
NsS'IW_MKF_S3EWEBVIEW'
p558
NsS'IW_TRACE_CHANNEL_IW_2DSCENEGRAPH'
p559
g530
sS'IW_ASSERTION_CHANNEL_FACEBOOK'
p560
g530
sS'IW_TRACE_CHANNEL_FACEBOOK_VERBOSE'
p561
g526
sS'IW_DEBUG'
p562
NsS'IW_USE_TRACING'
p563
NsS'IW_ASSERTION_CHANNEL_IW_2DSCENEGRAPH'
p564
g530
sS'IW_SDK'
p565
NsS'S3E_INCLUDE_LEGACY'
p566
NsS'IW_MKF_IW2DSCENEGRAPHCORE'
p567
NsS'IW_TRACE_CHANNEL_FACEBOOK'
p568
g530
sS'IW_TRACE_CHANNEL_FLURRY_VERBOSE'
p569
g526
sS'IW_MKF_IW2D'
p570
NsS'IW_MKF_IWGEOM'
p571
NssS'done_warnings'
p572
(dp573
sS'subprojects'
p574
(dp575
g185
S'SoundEngine'
p576
sg180
S'iwgxfont'
p577
sg174
S's3eFacebook'
p578
sg169
S's3eWebView'
p579
sg170
S'iwutil'
p580
sg176
S'iwgx'
p581
sg179
S'iwresmanager'
p582
sg171
S'libjpeg'
p583
sg172
S'libpng'
p584
sg177
S'iwgl'
p585
sg184
S'iwtween'
p586
sg182
S'iw2dscenegraph'
p587
sg175
S'iw2d'
p588
sg178
S'iwgeom'
p589
sg181
S'tiniconv'
p590
sg173
S'zlib'
p591
sg183
S'../iw2dscenegraphcore'
p592
sg186
S's3eFlurry'
p593
ssS'deployments'
p594
(dp595
S'Default'
p596
g299
(cdeployment
Deployment
p597
g301
Ntp598
Rp599
(dp600
S'got_version'
p601
I0
sS'assets'
p602
g596
sS'mkb'
p603
g303
sS'target'
p604
Nsg332
(lp605
sS'options'
p606
(dp607
S'iphone-link-lib'
p608
(lp609
S's3eWebView'
p610
aS's3eFacebook'
p611
aS'FlurryAnalytics'
p612
aS's3eFlurry'
p613
asS'game-icf'
p614
NsS'winmobile-icon32'
p615
NsS'ws8-logo-image150x150'
p616
NsS'ws81-product-version'
p617
NsS'osx-ext-dll'
p618
(lp619
S'c:/marmalade/7.2/extensions/s3ewebview/lib/osx/libs3eWebView.dylib'
p620
aS'c:/marmalade/7.2/extensions/s3eflurry/lib/osx/libs3eFlurry.dylib'
p621
asS'iphone-provisioning-profile'
p622
NsS'ws8-splash-screen-image620x300'
p623
NsS'ws8-ext-capabilities'
p624
(lp625
sS'android-icon-hdpi'
p626
NsS'brew-icon-large'
p627
NsS'iphone-splash-full-orient'
p628
NsS'wp8-tile-fliptemplate-supports-large'
p629
NsS'iphone-show-status-bar'
p630
NsS'roku-requires-mkv'
p631
NsS'long-caption'
p632
NsS'android-pkgname'
p633
NsS'blackberry-permissions-read-device-identifying-information'
p634
NsS'ws81-certificate-end-date'
p635
NsS'psp-dlgcontentid'
p636
NsS'target-folder'
p637
NsS'tizen-dist1-CA-path'
p638
NsS'symbian-icon2-format'
p639
NsS'iphone-region'
p640
NsS'uiq3-icon3-mask'
p641
NsS'brew-encoding'
p642
NsS'android-x86'
p643
NsS'nds-initialcode'
p644
NsS'iphone-persistent-wifi'
p645
NsS'psp-snd0'
p646
NsS'osx-signing-identity-inst'
p647
NsS'winmobile-install-folder'
p648
NsS'android-external-res'
p649
(lp650
S'c:/marmalade/7.2/extensions/s3efacebook/facebook-android-sdk/facebook/res'
p651
asS'ws8-product-version'
p652
NsS'brew-priviledges'
p653
NsS'symbian-icon2-mask-black'
p654
NsS'iphone-icon-ipad'
p655
NsS'roku-hidden'
p656
NsS'psp-titlename'
p657
NsS'symbian-icon1-mask'
p658
NsS'psp-parentallevel'
p659
NsS'splashscreen-use-all'
p660
NsS'wp8-author'
p661
NsS'symbian-disable-ecompxl'
p662
NsS'splashscreen-auto-onblack'
p663
NsS'win32-ext-dll'
p664
(lp665
S'c:/marmalade/7.2/extensions/s3ewebview/lib/win32/s3eWebView.dll'
p666
aS'c:/marmalade/7.2/extensions/s3eflurry/lib/win32/s3eFlurry.dll'
p667
asS'iphone-development-key'
p668
NsS'winmobile-icon48'
p669
NsS'android-unsigned'
p670
NsS'osx-appstore-category'
p671
NsS'version-revision'
p672
NsS'roku-icon-focus-sd'
p673
NsS'android-keystore'
p674
NsS'winmobile-png90'
p675
NsS'iphone-icon-ipad-high-res'
p676
NsS'iphone-disable-ipad'
p677
NsS'wp8-product-id'
p678
NsS'wp8-ext-capabilities'
p679
(lp680
sS'iphone-ipad-only'
p681
NsS'symbian-icon1-mask-black'
p682
NsS'iphone-bundle-localisations'
p683
NsS'winmobile-png60'
p684
NsS'blackberry-permissions-access-shared'
p685
NsS'blackberry-author'
p686
NsS'android-icon-xxxhdpi'
p687
NsS'olddeploytoolstyle'
p688
NsS'android_icon_gallery'
p689
NsS'winmobile-cab-compress'
p690
NsS'ws81-ext-managed-dll'
p691
(lp692
sS'win32-icon'
p693
NsS'symbian-key'
p694
NsS'app-icf'
p695
NsS'blackberry-storepass'
p696
NsS'wp8-tile-fliptemplate-back-title'
p697
NsS'brew-compress-loader'
p698
NsS'win32-pref-windowposy'
p699
NsS'win32-pref-windowposx'
p700
NsS'roku-requires-audiometadata'
p701
NsS'wp8-exclude-low-mem'
p702
NsS'wp8-tile-fliptemplate-title'
p703
NsS'iphone-icon-ipad-search-high-res'
p704
NsS'iphone-link-libdir'
p705
(lp706
S'c:/marmalade/7.2/extensions/s3ewebview/lib/iphone'
p707
aS'c:/marmalade/7.2/extensions/s3efacebook/lib/iphone'
p708
aS'c:/marmalade/7.2/extensions/s3eflurry/lib/iphone'
p709
asS'blackberry-permissions-read-geolocation'
p710
NsS'winmobile-nouninstall'
p711
NsS'tizen-signed'
p712
NsS'android-extra-application-manifest'
p713
(lp714
S'c:/marmalade/7.2/extensions/s3efacebook/source/android/extra_app_manifest.xml'
p715
asS'ws8-ext-native-dll'
p716
(lp717
sS'symbian-icon2-mask'
p718
NsS'iphone-backgroundmode-audio'
p719
NsS'webos-memory'
p720
NsS'android-keypass'
p721
NsS'name'
p722
NsS'uiq3-icon2-format'
p723
NsS'roku-splash-screen-sd'
p724
NsS'auto-derbh'
p725
NsS'roku-icon-side-sd'
p726
NsS'symbian-maxheapsize'
p727
NsS'nds-publicsavedatasize'
p728
NsS'splashscreen'
p729
NsS'brew-mif'
p730
NsS'iphone-icon-settings-high-res'
p731
NsS'android-manifest'
p732
NsS'ws81-splash-screen-image620x300'
p733
NsS's3e-compression'
p734
NsS'tizen-author-password'
p735
NsS'wp8-tile-fliptemplate-back-content'
p736
NsS'symbian-icon1'
p737
NsS'symbian-icon2'
p738
NsS'android-extra-styles-file'
p739
NsS'nds-bannertitle-jp'
p740
NsS'osx-sign-for-store'
p741
NsS'symbian7-uid'
p742
NsS'wp8-tile-fliptemplate-large-back-content'
p743
NsS'nds-bannertitle-cn'
p744
NsS'iphone-distribution-key'
p745
NsS'android-icon-gallery'
p746
NsS'blackberry-keystore'
p747
NsS'iphone-nosign'
p748
NsS'caption'
p749
NsS'android-extra-manifest'
p750
(lp751
sS'android-icon-xxhdpi'
p752
NsS'version-minor'
p753
NsS'iphone-link-libdirs'
p754
(lp755
sS'iphone-icon-large'
p756
NsS'symbian-keypwd'
p757
NsS'symbian8-uid'
p758
NsS'symbian-cert-key'
p759
NsS'winmobile-ampd-part-number'
p760
NsS'arch'
p761
NsS'nds-romheadertemplate'
p762
NsS'webos-icon'
p763
NsS'psp-dlgprotectdocument'
p764
NsS'android-icon-mdpi'
p765
NsS'nds-icon'
p766
NsS'ws8-custom-manifest-fill'
p767
NsS'iphone-development-cert'
p768
NsS'blackberry-phone-icon'
p769
NsS'iphone-enable-4inch-retina'
p770
NsS'ws8-custom-manifest'
p771
NsS'version-major'
p772
NsS'wp8-genre-isgame'
p773
NsS'uiq3-uid'
p774
NsS'iphone-splash-retina-generate'
p775
NsS'tizen-hw-acceleration'
p776
NsS'iphone_bundle_localisations'
p777
NsS'tizen-dist1-key'
p778
NsS'wp8-custom-manifest'
p779
NsS'nds-bannertitle-ge'
p780
NsS'iphone-sign-for-distribution'
p781
NsS'wp8-tile-fliptemplate-medium-back-image'
p782
NsS'wp8-publisher-id'
p783
NsS'icon'
p784
NsS'wp8-exclude-wxga'
p785
NsS'uiq3-icon2-mask'
p786
NsS'iphone-splashscreen-portrait'
p787
NsS'iphone-icon-high-res'
p788
NsS'ws81-distribution-pfx-password'
p789
NsS'playbook-author'
p790
NsS'android-icon-xhdpi'
p791
NsS'linux-ext-lib'
p792
(lp793
sS'blackberry-permissions-access-internet'
p794
NsS'wp8-exclude-720p'
p795
NsS'lgtv-use-drm'
p796
NsS'symbian-platsecflags'
p797
NsS'ws8-description'
p798
NsS'blackberry-playbook-icon'
p799
NsS'copyright'
p800
NsS'version'
p801
NsS'ws81-logo-image150x150'
p802
NsS'osx-signing-identity-app'
p803
NsS'tizen-project-url'
p804
NsS'symbian-icon-svg'
p805
NsS'android-aliasname'
p806
NsS'psp-dlgmanual'
p807
NsS'brew-uid'
p808
NsS'symbian-locationsupport'
p809
NsS'ws8-ext-managed-dll'
p810
(lp811
sS'nds-bannertitle-it'
p812
NsS'ws8-ext-sdk-manifest-part'
p813
(lp814
sS'uiq3-icon1-mask'
p815
NsS'winmobile-icon16'
p816
NsS'ws8-product-name'
p817
NsS'blackberry-cskpass'
p818
NsS'winmobile-start-menu-folder'
p819
NsS'brew-clsid'
p820
NsS'roku-requires-bluetooth'
p821
NsS'ws8-ext-device-capabilities'
p822
(lp823
sS'blackberry-permissions-use-camera'
p824
NsS'iphone-prerendered-icon'
p825
NsS'iphone-appid'
p826
S'com.ideaworks3d.s3eIOSGameCenter'
p827
sS'ws8-identity-name'
p828
NsS'tizen-dist2-CA-path'
p829
NsS'winmobile-icon64'
p830
NsS'blackberry-permissions-post-notification'
p831
NsS'winmobile-setup-dll'
p832
NsS'android-external-jars'
p833
(lp834
S'c:/marmalade/7.2/extensions/s3ewebview/lib/android/s3eWebView.jar'
p835
aS'c:/marmalade/7.2/extensions/s3efacebook/lib/android/s3eFacebook.jar'
p836
aS'c:/marmalade/7.2/extensions/s3efacebook/facebook-android-sdk/libs/android-support-v4.jar'
p837
aS'c:/marmalade/7.2/extensions/s3efacebook/lib/android/annotations-4.1.1.4.jar'
p838
aS'c:/marmalade/7.2/extensions/s3eflurry/lib/android/s3eFlurry.jar'
p839
aS'c:/marmalade/7.2/extensions/s3eflurry/lib/android/FlurryAgent.jar'
p840
asS'symbian9-uid'
p841
NsS'iphone-icon-ipad-ios7'
p842
NsS'winmobile-trace-file'
p843
NsS'roku-splash-color'
p844
NsS'psp-appversion'
p845
NsS'ws8-publisher-id'
p846
NsS'android-supports-gl-texture'
p847
(lp848
sS'winmobile-png45'
p849
NsS'android-storepass'
p850
NsS'roku-icon-focus-hd'
p851
NsS'android-custom-activity'
p852
NsS'psp-discversion'
p853
NsS'psp-copyright'
p854
NsS'embed-icf'
p855
NsS'tizen-manifest'
p856
NsS'osx-icon'
p857
NsS'webos-appinfo'
p858
NsS'psp-dlghealthwarning'
p859
NsS'webos-appid'
p860
NsS'roku-icon-side-hd'
p861
NsS'iphone-icon-ipad-search-high-res-ios7'
p862
NsS'ws81-ext-sdk-manifest-part'
p863
(lp864
sS'loader_name_prefix'
p865
NsS'nds-titlename'
p866
NsS'ws81-logo-image50x50'
p867
NsS'osx-entitlements-plist'
p868
NsS'psp-dlgicon0'
p869
NsS'ws81-ext-device-capabilities'
p870
(lp871
sS'psp-discid'
p872
NsS'tizen-dist2-password'
p873
NsS'ws8-ext-sdk-ref'
p874
(lp875
sS'iphone-extra-string'
p876
(lp877
sS'version-string'
p878
NsS'iphone-icon-high-res-ios7'
p879
NsS'blackberry-permissions-record-audio'
p880
NsS'ws8-certificate-end-date'
p881
NsS'tizen-so'
p882
(lp883
sS'wp8-tile-fliptemplate-small-image'
p884
NsS'pkguid-as-uid'
p885
NsS'iphone-signing-identity'
p886
NsS'roku-persist-quota'
p887
NsS'nds-bannertitle-fr'
p888
NsS'ws8-distribution-pfx'
p889
NsS'ws8-publisher-display-name'
p890
NsS'brew-icon-small'
p891
NsS'psp-dlgpic2'
p892
NsS'psp-dlgpic0'
p893
NsS'psp-pic0'
p894
NsS'psp-pic1'
p895
NsS'psp-icon0'
p896
NsS'psp-icon1'
p897
NsS'ws81-identity-name'
p898
NsS'winmobile-icon'
p899
NsS'iphone-no-splash'
p900
NsS'iphone-splash'
p901
NsS'iphone-app-fonts'
p902
NsS'wp8-ext-native-dll'
p903
(lp904
S'c:/marmalade/7.2/extensions/s3ewebview/lib/wp8/s3eWebViewExtension.dll'
p905
aS'c:/marmalade/7.2/extensions/s3efacebook/lib/wp8/s3eFacebookExtension.dll'
p906
aS'c:/marmalade/7.2/extensions/s3eflurry/lib/wp8/s3eFlurryExtension.dll'
p907
asS'ws81-distribution-cer'
p908
NsS'uiq3-icon2'
p909
NsS'uiq3-icon3'
p910
NsS'uiq3-icon1'
p911
NsS'uiq3-icon1-format'
p912
NsS'ws8-logo-image50x50'
p913
NsS'iphone-icon-ipad-search'
p914
NsS'symbian-run-on-install'
p915
NsS'ws81-publisher-display-name'
p916
NsS'ws81-custom-manifest-fill'
p917
NsS'symbian-soundrecordsupport'
p918
NsS'nds-bannertitle-sp'
p919
NsS'psp-producer'
p920
NsS'iphone-apple-wwdr-cert'
p921
NsS'android-icon-nonstandard'
p922
NsS'win32-pref-processtitle'
p923
NsS'nds-bannertitle-hn'
p924
NsS'tizen-dist2-key'
p925
NsS'brew-depends'
p926
NsS'ws81-custom-manifest'
p927
NsS'iphone-icon-ipad-search-ios7'
p928
NsS'brew-icon-medium'
p929
NsS'iphone-bundle-url-name'
p930
S'ADD_YOUR_OWN_APP_ID'
p931
sS'wp8-tile-fliptemplate-large-front-image'
p932
NsS'tizen-dist2-CA-root-path'
p933
NsS'ws81-description'
p934
NsS'uiq3-icon3-format'
p935
NsS'ws81-logo-image30x30'
p936
NsS'iphone-signing-host'
p937
NsS'tizen-icon'
p938
NsS'osx-info-plist'
p939
NsS'symbian-icon1-format'
p940
NsS'ws81-distribution-pfx'
p941
NsS'blackberry-authorid'
p942
NsS'ws81-publisher-id'
p943
NsS'ws81-ext-sdk-ref'
p944
(lp945
sS'wp8-description'
p946
NsS'iphone-link-opts'
p947
(lp948
S'-F$MARMALADE_ROOT/extensions/s3eFacebook/source/iphone/facebook-ios-sdk -framework FacebookSDK -weak_framework AdSupport -weak_framework Accounts -weak_framework Social -lsqlite3'
p949
aS'-framework SystemConfiguration -framework Security'
p950
asS'roku-splash-min-time'
p951
NsS'wp8-tile-fliptemplate-medium-front-image'
p952
NsS'provider'
p953
NsS'playbook-keystore'
p954
NsS'tizen-appid'
p955
NsS'tizen-author-key'
p956
NsS'symbian-osexecsupport'
p957
NsS'android-install-location'
p958
NsS'nds-privatesavedatasize'
p959
NsS'playbook-storepass'
p960
NsS'android-icon-ldpi'
p961
NsS'manufacturer'
p962
NsS'itunes-artwork'
p963
NsS'iphone-extra-sections'
p964
NsS'ws81-product-name'
p965
NsS'ws81-ext-native-dll'
p966
(lp967
sS'iphone-info-plist'
p968
NsS'ws8-distribution-pfx-password'
p969
NsS'ws8-logo-image30x30'
p970
NsS'wp8-ext-managed-dll'
p971
(lp972
S'c:/marmalade/7.2/extensions/s3ewebview/lib/wp8/s3eWebViewManaged.dll'
p973
aS'c:/marmalade/7.2/extensions/s3efacebook/lib/wp8/s3eFacebookManaged.dll'
p974
aS'c:/marmalade/7.2/extensions/s3efacebook/facebook_wp8_lib/Facebook.Client.dll'
p975
aS'c:/marmalade/7.2/extensions/s3efacebook/facebook_wp8_lib/Facebook.dll'
p976
aS'c:/marmalade/7.2/extensions/s3eflurry/lib/wp8/FlurryWP8SDK.dll'
p977
aS'c:/marmalade/7.2/extensions/s3eflurry/lib/wp8/s3eFlurryManaged.dll'
p978
asS'iphone-splashscreen-landscape'
p979
NsS'nds-makercode'
p980
NsS'priv-sign-key'
p981
NsS'networking'
p982
NsS'android-icon'
p983
NsS'iphone-icon-settings'
p984
NsS'iphone-distribution-cert'
p985
NsS'android_extra_strings'
p986
NsS'nds-bannertitle-en'
p987
NsS'playbook-cskpass'
p988
NsS'android-so'
p989
(lp990
S'c:/marmalade/7.2/extensions/s3ewebview/lib/android/libs3eWebView.so'
p991
aS'c:/marmalade/7.2/extensions/s3efacebook/lib/android/libs3eFacebook.so'
p992
aS'c:/marmalade/7.2/extensions/s3eflurry/lib/android/libs3eFlurry.so'
p993
asS'wp8-higher-mem'
p994
NsS'roku-splash-screen-hd'
p995
NsS'iphone-bundle-url-schemes'
p996
S'fd<FACEBOOK_APP_ID>'
p997
sS'roku-screensaver-private'
p998
NsS'osx-extra-res'
p999
(lp1000
sS'playbook-icon'
p1001
NsS'uid'
p1002
NsS'playbook-authorid'
p1003
NsS'win32-pref-windowtitle'
p1004
NsS'tizen-dist1-password'
p1005
NsS'roku-screensaver-title'
p1006
NsS'osx-minimum-osx-version'
p1007
NsS'symbian-cert'
p1008
NsS'iphone-icon'
p1009
NsS'ws81-ext-capabilities'
p1010
(lp1011
sS'ws8-distribution-cer'
p1012
NsS'playbook-access-shared'
p1013
NsS'iphone-icon-ipad-high-res-ios7'
p1014
NsS'iphone-link-libs'
p1015
(lp1016
sS'wp8-exclude-wvga'
p1017
NsS'assets'
p1018
NsS'wp8-tile-fliptemplate-large-back-image'
p1019
NsS'wp8-custom-manifest-fill'
p1020
NsS'pub-sign-key'
p1021
NsS'android-extra-strings'
p1022
NsS'tizen-author-CA-path'
p1023
Nssg325
g596
sbssS'platform'
p1024
S'S3E'
p1025
sg62
S'1.0'
p1026
sS'arcade_platform'
p1027
g4
sS'extensions'
p1028
(dp1029
sS'source_groups_tree'
p1030
(dp1031
S'(libpng)'
p1032
(dp1033
S'h'
p1034
(dp1035
S'c:/marmalade/7.2/modules/third_party/libpng/h/png.h'
p1036
(lp1037
I1
a(dp1038
asS'c:/marmalade/7.2/modules/third_party/libpng/h/pngconf.h'
p1039
(lp1040
I1
ag1038
assS'c:/marmalade/7.2/modules/third_party/libpng/libpng.mkf'
p1041
(lp1042
I1
a(dp1043
assS'(libjpeg)'
p1044
(dp1045
g1034
(dp1046
S'c:/marmalade/7.2/modules/third_party/libjpeg/h/jinclude.h'
p1047
(lp1048
I1
a(dp1049
asS'c:/marmalade/7.2/modules/third_party/libjpeg/h/jconfig.h'
p1050
(lp1051
I1
ag1049
asS'c:/marmalade/7.2/modules/third_party/libjpeg/h/cdjpeg.h'
p1052
(lp1053
I1
ag1049
asS'c:/marmalade/7.2/modules/third_party/libjpeg/h/jpegint.h'
p1054
(lp1055
I1
ag1049
asS'c:/marmalade/7.2/modules/third_party/libjpeg/h/transupp.h'
p1056
(lp1057
I1
ag1049
asS'c:/marmalade/7.2/modules/third_party/libjpeg/h/jpeglib.h'
p1058
(lp1059
I1
ag1049
asS'c:/marmalade/7.2/modules/third_party/libjpeg/h/jversion.h'
p1060
(lp1061
I1
ag1049
asS'c:/marmalade/7.2/modules/third_party/libjpeg/h/jdct.h'
p1062
(lp1063
I1
ag1049
asS'c:/marmalade/7.2/modules/third_party/libjpeg/h/jdhuff.h'
p1064
(lp1065
I1
ag1049
asS'c:/marmalade/7.2/modules/third_party/libjpeg/h/jmemsys.h'
p1066
(lp1067
I1
ag1049
asS'c:/marmalade/7.2/modules/third_party/libjpeg/h/jmorecfg.h'
p1068
(lp1069
I1
ag1049
asS'c:/marmalade/7.2/modules/third_party/libjpeg/h/jerror.h'
p1070
(lp1071
I1
ag1049
asS'c:/marmalade/7.2/modules/third_party/libjpeg/h/jchuff.h'
p1072
(lp1073
I1
ag1049
asS'c:/marmalade/7.2/modules/third_party/libjpeg/h/cderror.h'
p1074
(lp1075
I1
ag1049
assS'c:/marmalade/7.2/modules/third_party/libjpeg/libjpeg.mkf'
p1076
(lp1077
I1
a(dp1078
assS'(tiniconv)'
p1079
(dp1080
S'c:/marmalade/7.2/modules/third_party/tiniconv/source/tiniconv.h'
p1081
(lp1082
I1
a(dp1083
asS'c:/marmalade/7.2/modules/third_party/tiniconv/source/tiniconv_int.h'
p1084
(lp1085
I1
ag1083
asS'c:/marmalade/7.2/modules/third_party/tiniconv/tiniconv.mkf'
p1086
(lp1087
I1
a(dp1088
assS'(SoundEngine)'
p1089
(dp1090
S'c:/users/vinicius/desktop/yes or no/hoppe/modules/soundengine/source/IwSoundADPCM.cpp'
p1091
(lp1092
I1
a(dp1093
asS'c:/users/vinicius/desktop/yes or no/hoppe/modules/soundengine/h/IwSoundPCM.h'
p1094
(lp1095
I1
ag1093
asS'c:/users/vinicius/desktop/yes or no/hoppe/modules/soundengine/source/IwSoundData.cpp'
p1096
(lp1097
I1
ag1093
asS'c:/users/vinicius/desktop/yes or no/hoppe/modules/soundengine/h/IwSoundADPCM.h'
p1098
(lp1099
I1
ag1093
asS'c:/users/vinicius/desktop/yes or no/hoppe/modules/soundengine/h/IwSoundGroup.h'
p1100
(lp1101
I1
ag1093
asS'c:/users/vinicius/desktop/yes or no/hoppe/modules/soundengine/h/IwSoundWAV.h'
p1102
(lp1103
I1
ag1093
asS'c:/users/vinicius/desktop/yes or no/hoppe/modules/soundengine/source/IwSoundInst.cpp'
p1104
(lp1105
I1
ag1093
asS'Docs'
p1106
(dp1107
S'c:/users/vinicius/desktop/yes or no/hoppe/modules/soundengine/docs/iwsound.config.txt'
p1108
(lp1109
I1
ag1093
assS'c:/users/vinicius/desktop/yes or no/hoppe/modules/soundengine/source/IwResHandlerWAV.cpp'
p1110
(lp1111
I1
ag1093
asS'c:/users/vinicius/desktop/yes or no/hoppe/modules/soundengine/h/IwSoundData.h'
p1112
(lp1113
I1
ag1093
asS'c:/users/vinicius/desktop/yes or no/hoppe/modules/soundengine/source/IwSoundGroup.cpp'
p1114
(lp1115
I1
ag1093
asS'c:/users/vinicius/desktop/yes or no/hoppe/modules/soundengine/source/IwSoundSpec.cpp'
p1116
(lp1117
I1
ag1093
asS'c:/users/vinicius/desktop/yes or no/hoppe/modules/soundengine/source/IwSoundParams.cpp'
p1118
(lp1119
I1
ag1093
asS'c:/users/vinicius/desktop/yes or no/hoppe/modules/soundengine/h/IwResHandlerWAV.h'
p1120
(lp1121
I1
ag1093
asS'c:/users/vinicius/desktop/yes or no/hoppe/modules/soundengine/h/IwSound.h'
p1122
(lp1123
I1
ag1093
asS'c:/users/vinicius/desktop/yes or no/hoppe/modules/soundengine/h/IwSoundSpec.h'
p1124
(lp1125
I1
ag1093
asS'c:/users/vinicius/desktop/yes or no/hoppe/modules/soundengine/source/IwSoundPCM.cpp'
p1126
(lp1127
I1
ag1093
asS'c:/users/vinicius/desktop/yes or no/hoppe/modules/soundengine/source/IwSoundWAV.cpp'
p1128
(lp1129
I1
ag1093
asS'c:/users/vinicius/desktop/yes or no/hoppe/modules/soundengine/h/IwSoundInst.h'
p1130
(lp1131
I1
ag1093
asS'c:/users/vinicius/desktop/yes or no/hoppe/modules/soundengine/source/IwSoundManager.cpp'
p1132
(lp1133
I1
ag1093
asS'c:/users/vinicius/desktop/yes or no/hoppe/modules/soundengine/soundengine.mkf'
p1134
(lp1135
I1
a(dp1136
asS'c:/users/vinicius/desktop/yes or no/hoppe/modules/soundengine/h/IwSoundManager.h'
p1137
(lp1138
I1
ag1093
asS'c:/users/vinicius/desktop/yes or no/hoppe/modules/soundengine/h/IwSoundParams.h'
p1139
(lp1140
I1
ag1093
assS'Extensions'
p1141
(dp1142
S's3eWebView'
p1143
(dp1144
S'interface'
p1145
(dp1146
S'c:/marmalade/7.2/extensions/s3ewebview/interface/s3eWebView.defines.txt'
p1147
(lp1148
I1
a(dp1149
asS'c:/marmalade/7.2/extensions/s3ewebview/interface/s3eWebView_interface.cpp'
p1150
(lp1151
I1
ag1149
assS'c:/marmalade/7.2/extensions/s3ewebview/h/s3eWebView.h'
p1152
(lp1153
I1
ag1149
asS'c:/marmalade/7.2/extensions/s3ewebview/s3ewebview.mkf'
p1154
(lp1155
I1
a(dp1156
assS's3eFacebook'
p1157
(dp1158
S'interface'
p1159
(dp1160
S'c:/marmalade/7.2/extensions/s3efacebook/interface/s3eFacebook_interface.cpp'
p1161
(lp1162
I1
a(dp1163
asS'c:/marmalade/7.2/extensions/s3efacebook/interface/s3eFacebook.defines.txt'
p1164
(lp1165
I1
ag1163
assg1034
(dp1166
S'c:/marmalade/7.2/extensions/s3efacebook/h/s3eFacebook.h'
p1167
(lp1168
I1
ag1163
assS'c:/marmalade/7.2/extensions/s3efacebook/s3efacebook.mkf'
p1169
(lp1170
I1
a(dp1171
assS's3eFlurry'
p1172
(dp1173
S'interface'
p1174
(dp1175
S'c:/marmalade/7.2/extensions/s3eflurry/interface/s3eFlurry_interface.cpp'
p1176
(lp1177
I1
a(dp1178
asS'c:/marmalade/7.2/extensions/s3eflurry/interface/s3eFlurry.defines.txt'
p1179
(lp1180
I1
ag1178
assS'c:/marmalade/7.2/extensions/s3eflurry/h/s3eFlurry.h'
p1181
(lp1182
I1
ag1178
asS'c:/marmalade/7.2/extensions/s3eflurry/s3eflurry.mkf'
p1183
(lp1184
I1
a(dp1185
asssS"'Marmalade Studio'"
p1186
(dp1187
S'iw2dscenegraph'
p1188
(dp1189
S'c:/marmalade/7.2/modules/iw2dscenegraph/source/Iw2DSceneGraph.cpp'
p1190
(lp1191
I1
a(dp1192
asS'c:/marmalade/7.2/modules/iw2dscenegraph/iw2dscenegraph.mkf'
p1193
(lp1194
I1
a(dp1195
asS'c:/marmalade/7.2/modules/iw2dscenegraph/h/Iw2DSceneGraph.h'
p1196
(lp1197
I1
ag1192
asS'c:/marmalade/7.2/modules/iw2dscenegraph/docs/iw2dscenegraph.defines.txt'
p1198
(lp1199
I1
ag1192
assS'iwgl'
p1200
(dp1201
S'c:/marmalade/7.2/modules/iwgl/h/IwGL.h'
p1202
(lp1203
I1
a(dp1204
asS'c:/marmalade/7.2/modules/iwgl/iwgl.mkf'
p1205
(lp1206
I1
a(dp1207
asS'c:/marmalade/7.2/modules/iwgl/h/IwGLExt.h'
p1208
(lp1209
I1
ag1204
asS'c:/marmalade/7.2/modules/iwgl/docs/iwgl.config.txt'
p1210
(lp1211
I1
ag1204
assS'iw2d'
p1212
(dp1213
S'c:/marmalade/7.2/modules/iw2d/docs/iw2d_public.defines.txt'
p1214
(lp1215
I1
a(dp1216
asS'c:/marmalade/7.2/modules/iw2d/h/Iw2D.h'
p1217
(lp1218
I1
ag1216
asS'c:/marmalade/7.2/modules/iw2d/docs/iw2d.config.txt'
p1219
(lp1220
I1
ag1216
asS'c:/marmalade/7.2/modules/iw2d/iw2d.mkf'
p1221
(lp1222
I1
a(dp1223
assS'iwgxfont'
p1224
(dp1225
S'c:/marmalade/7.2/modules/iwgxfont/h/IwGxFont.h'
p1226
(lp1227
I1
a(dp1228
asS'c:/marmalade/7.2/modules/iwgxfont/h/IwGxFontPreparedData.h'
p1229
(lp1230
I1
ag1228
asS'c:/marmalade/7.2/modules/iwgxfont/h/IwGxFontContainer.h'
p1231
(lp1232
I1
ag1228
asS'c:/marmalade/7.2/modules/iwgxfont/docs/iwgxfont_public.defines.txt'
p1233
(lp1234
I1
ag1228
asS'c:/marmalade/7.2/modules/iwgxfont/h/IwGxFontGlyph.h'
p1235
(lp1236
I1
ag1228
asS'c:/marmalade/7.2/modules/iwgxfont/h/IwGxFontState.h'
p1237
(lp1238
I1
ag1228
asS'c:/marmalade/7.2/modules/iwgxfont/h/IwGxFontTypes.h'
p1239
(lp1240
I1
ag1228
asS'c:/marmalade/7.2/modules/iwgxfont/iwgxfont.mkf'
p1241
(lp1242
I1
a(dp1243
asS'c:/marmalade/7.2/modules/iwgxfont/docs/iwgxfont.config.txt'
p1244
(lp1245
I1
ag1228
assS'iwgeom'
p1246
(dp1247
S'c:/marmalade/7.2/modules/iwgeom/h/IwGeomFPlane.h'
p1248
(lp1249
I1
a(dp1250
asS'c:/marmalade/7.2/modules/iwgeom/h/IwGeomPlane.h'
p1251
(lp1252
I1
ag1250
asS'c:/marmalade/7.2/modules/iwgeom/h/IwGeomMat.h'
p1253
(lp1254
I1
ag1250
asS'c:/marmalade/7.2/modules/iwgeom/h/IwGeomMat2D.h'
p1255
(lp1256
I1
ag1250
asS'c:/marmalade/7.2/modules/iwgeom/h/IwGeomMenu.h'
p1257
(lp1258
I1
ag1250
asS'c:/marmalade/7.2/modules/iwgeom/h/IwGeomSqrt.h'
p1259
(lp1260
I1
ag1250
asS'c:/marmalade/7.2/modules/iwgeom/h/IwGeomFMat2D.h'
p1261
(lp1262
I1
ag1250
asS'c:/marmalade/7.2/modules/iwgeom/h/IwGeomCore.h'
p1263
(lp1264
I1
ag1250
asS'c:/marmalade/7.2/modules/iwgeom/h/IwGeomFVec3.h'
p1265
(lp1266
I1
ag1250
asS'c:/marmalade/7.2/modules/iwgeom/h/IwGeomFVec2.h'
p1267
(lp1268
I1
ag1250
asS'c:/marmalade/7.2/modules/iwgeom/h/IwGeom.h'
p1269
(lp1270
I1
ag1250
asS'c:/marmalade/7.2/modules/iwgeom/h/IwGeomSVec2.h'
p1271
(lp1272
I1
ag1250
asS'c:/marmalade/7.2/modules/iwgeom/h/IwGeomFVec4.h'
p1273
(lp1274
I1
ag1250
asS'c:/marmalade/7.2/modules/iwgeom/h/IwGeomSVec3.h'
p1275
(lp1276
I1
ag1250
asS'c:/marmalade/7.2/modules/iwgeom/h/IwGeomBBox.h'
p1277
(lp1278
I1
ag1250
asS'c:/marmalade/7.2/modules/iwgeom/h/IwGeomVec2.h'
p1279
(lp1280
I1
ag1250
asS'c:/marmalade/7.2/modules/iwgeom/h/IwGeomFMat.h'
p1281
(lp1282
I1
ag1250
asS'c:/marmalade/7.2/modules/iwgeom/h/IwGeomFQuat.h'
p1283
(lp1284
I1
ag1250
asS'c:/marmalade/7.2/modules/iwgeom/h/IwGeomVec3.h'
p1285
(lp1286
I1
ag1250
asS'c:/marmalade/7.2/modules/iwgeom/h/IwGeomSVec4.h'
p1287
(lp1288
I1
ag1250
asS'c:/marmalade/7.2/modules/iwgeom/docs/iwgeom.config.txt'
p1289
(lp1290
I1
ag1250
asS'c:/marmalade/7.2/modules/iwgeom/h/IwGeomFIntersect.h'
p1291
(lp1292
I1
ag1250
asS'c:/marmalade/7.2/modules/iwgeom/iwgeom.mkf'
p1293
(lp1294
I1
a(dp1295
asS'c:/marmalade/7.2/modules/iwgeom/h/IwGeomFSphere.h'
p1296
(lp1297
I1
ag1250
asS'c:/marmalade/7.2/modules/iwgeom/h/IwGeomLegacy.h'
p1298
(lp1299
I1
ag1250
asS'c:/marmalade/7.2/modules/iwgeom/h/IwGeomIntersect.h'
p1300
(lp1301
I1
ag1250
asS'c:/marmalade/7.2/modules/iwgeom/h/IwGeomSQuat.h'
p1302
(lp1303
I1
ag1250
asS'c:/marmalade/7.2/modules/iwgeom/h/IwGeomQuat.h'
p1304
(lp1305
I1
ag1250
asS'c:/marmalade/7.2/modules/iwgeom/h/IwGeomSphere.h'
p1306
(lp1307
I1
ag1250
asS'c:/marmalade/7.2/modules/iwgeom/h/IwGeomVec.h'
p1308
(lp1309
I1
ag1250
asS'c:/marmalade/7.2/modules/iwgeom/h/IwGeomVec4.h'
p1310
(lp1311
I1
ag1250
asS'c:/marmalade/7.2/modules/iwgeom/h/IwGeomFBBox.h'
p1312
(lp1313
I1
ag1250
assS'iwresmanager'
p1314
(dp1315
S'c:/marmalade/7.2/modules/iwresmanager/h/IwResHandlerGROUP.h'
p1316
(lp1317
I1
a(dp1318
asS'c:/marmalade/7.2/modules/iwresmanager/h/IwResHandler.h'
p1319
(lp1320
I1
ag1318
asS'c:/marmalade/7.2/modules/iwresmanager/iwresmanager.mkf'
p1321
(lp1322
I1
a(dp1323
asS'c:/marmalade/7.2/modules/iwresmanager/h/IwResGroup.h'
p1324
(lp1325
I1
ag1318
asS'c:/marmalade/7.2/modules/iwresmanager/h/IwResHandlerImage.h'
p1326
(lp1327
I1
ag1318
asS'c:/marmalade/7.2/modules/iwresmanager/docs/iwresmanager.config.txt'
p1328
(lp1329
I1
ag1318
asS'c:/marmalade/7.2/modules/iwresmanager/h/IwResManagerClass.h'
p1330
(lp1331
I1
ag1318
asS'c:/marmalade/7.2/modules/iwresmanager/h/IwResHandlerITX.h'
p1332
(lp1333
I1
ag1318
asS'c:/marmalade/7.2/modules/iwresmanager/h/IwResSerialise.h'
p1334
(lp1335
I1
ag1318
asS'c:/marmalade/7.2/modules/iwresmanager/h/IwResManager.h'
p1336
(lp1337
I1
ag1318
assS'iwgx'
p1338
(dp1339
S'c:/marmalade/7.2/modules/iwgx/h/IwTPage.h'
p1340
(lp1341
I1
a(dp1342
asS'c:/marmalade/7.2/modules/iwgx/h/IwGxStream.h'
p1343
(lp1344
I1
ag1342
asS'c:/marmalade/7.2/modules/iwgx/h/IwGxTransformSW.h'
p1345
(lp1346
I1
ag1342
asS'c:/marmalade/7.2/modules/iwgx/h/IwMaterial.h'
p1347
(lp1348
I1
ag1342
asS'c:/marmalade/7.2/modules/iwgx/h/IwMatAnim.h'
p1349
(lp1350
I1
ag1342
asS'c:/marmalade/7.2/modules/iwgx/docs/iwgx.config.txt'
p1351
(lp1352
I1
ag1342
asS'c:/marmalade/7.2/modules/iwgx/iwgx.mkf'
p1353
(lp1354
I1
a(dp1355
asS'c:/marmalade/7.2/modules/iwgx/h/IwResHandlerMTL.h'
p1356
(lp1357
I1
ag1342
asS'c:/marmalade/7.2/modules/iwgx/h/IwGxPrint.h'
p1358
(lp1359
I1
ag1342
asS'c:/marmalade/7.2/modules/iwgx/h/IwGxSurface.h'
p1360
(lp1361
I1
ag1342
asS'c:/marmalade/7.2/modules/iwgx/docs/iwgx_public.defines.txt'
p1362
(lp1363
I1
ag1342
asS'c:/marmalade/7.2/modules/iwgx/h/IwClip.h'
p1364
(lp1365
I1
ag1342
asS'c:/marmalade/7.2/modules/iwgx/h/IwGx.h'
p1366
(lp1367
I1
ag1342
asS'c:/marmalade/7.2/modules/iwgx/h/IwGxDebug.h'
p1368
(lp1369
I1
ag1342
asS'c:/marmalade/7.2/modules/iwgx/h/IwDebugPrim.h'
p1370
(lp1371
I1
ag1342
asS'c:/marmalade/7.2/modules/iwgx/h/IwGxMetrics.h'
p1372
(lp1373
I1
ag1342
asS'c:/marmalade/7.2/modules/iwgx/h/IwGxError.h'
p1374
(lp1375
I1
ag1342
asS'c:/marmalade/7.2/modules/iwgx/h/IwClip.inl'
p1376
(lp1377
I1
ag1342
asS'c:/marmalade/7.2/modules/iwgx/h/IwGxFuncTable.h'
p1378
(lp1379
I1
ag1342
asS'c:/marmalade/7.2/modules/iwgx/h/IwTexture.h'
p1380
(lp1381
I1
ag1342
asS'c:/marmalade/7.2/modules/iwgx/h/IwFColour.h'
p1382
(lp1383
I1
ag1342
asS'c:/marmalade/7.2/modules/iwgx/h/IwColour.h'
p1384
(lp1385
I1
ag1342
asS'c:/marmalade/7.2/modules/iwgx/h/IwGxShaderTechnique.h'
p1386
(lp1387
I1
ag1342
asS'c:/marmalade/7.2/modules/iwgx/h/IwGxTypes.h'
p1388
(lp1389
I1
ag1342
asS'c:/marmalade/7.2/modules/iwgx/h/IwGxState.h'
p1390
(lp1391
I1
ag1342
assS'iw2dscenegraphcore'
p1392
(dp1393
S'c:/marmalade/7.2/modules/iw2dscenegraphcore/iw2dscenegraphcore.mkf'
p1394
(lp1395
I1
a(dp1396
asS'c:/marmalade/7.2/modules/iw2dscenegraphcore/h/Iw2DSceneGraphCore.h'
p1397
(lp1398
I1
a(dp1399
asS'c:/marmalade/7.2/modules/iw2dscenegraphcore/source/Iw2DSceneGraphCore.cpp'
p1400
(lp1401
I1
ag1399
assS'iwutil'
p1402
(dp1403
S'c:/marmalade/7.2/modules/iwutil/h/IwCore.h'
p1404
(lp1405
I1
a(dp1406
asS'c:/marmalade/7.2/modules/iwutil/h/IwArray.h'
p1407
(lp1408
I1
ag1406
asS'c:/marmalade/7.2/modules/iwutil/h/IwResource.h'
p1409
(lp1410
I1
ag1406
asS'c:/marmalade/7.2/modules/iwutil/h/IwFibre.h'
p1411
(lp1412
I1
ag1406
asS'c:/marmalade/7.2/modules/iwutil/h/IwBuffer.h'
p1413
(lp1414
I1
ag1406
asS'c:/marmalade/7.2/modules/iwutil/h/IwRandom.h'
p1415
(lp1416
I1
ag1406
asS'c:/marmalade/7.2/modules/iwutil/h/IwManagedList.h'
p1417
(lp1418
I1
ag1406
asS'c:/marmalade/7.2/modules/iwutil/h/IwList.h'
p1419
(lp1420
I1
ag1406
asS'c:/marmalade/7.2/modules/iwutil/h/IwProfileMenu.h'
p1421
(lp1422
I1
ag1406
asS'c:/marmalade/7.2/modules/iwutil/h/IwMemory.h'
p1423
(lp1424
I1
ag1406
asS'c:/marmalade/7.2/modules/iwutil/h/IwMath.h'
p1425
(lp1426
I1
ag1406
asS'c:/marmalade/7.2/modules/iwutil/h/IwDivTable.h'
p1427
(lp1428
I1
ag1406
asS'c:/marmalade/7.2/modules/iwutil/h/IwTextParserITX.h'
p1429
(lp1430
I1
ag1406
asS'c:/marmalade/7.2/modules/iwutil/h/IwMenu.h'
p1431
(lp1432
I1
ag1406
asS'c:/marmalade/7.2/modules/iwutil/h/IwChar.h'
p1433
(lp1434
I1
ag1406
asS'c:/marmalade/7.2/modules/iwutil/h/IwEvent.h'
p1435
(lp1436
I1
ag1406
asS'c:/marmalade/7.2/modules/iwutil/h/IwTextParser.h'
p1437
(lp1438
I1
ag1406
asS'c:/marmalade/7.2/modules/iwutil/h/IwOptimiseSize.h'
p1439
(lp1440
I1
ag1406
asS'c:/marmalade/7.2/modules/iwutil/h/IwSingleton.h'
p1441
(lp1442
I1
ag1406
asS'c:/marmalade/7.2/modules/iwutil/h/IwImage.h'
p1443
(lp1444
I1
ag1406
asS'c:/marmalade/7.2/modules/iwutil/h/IwFile.h'
p1445
(lp1446
I1
ag1406
asS'c:/marmalade/7.2/modules/iwutil/h/IwString.h'
p1447
(lp1448
I1
ag1406
asS'c:/marmalade/7.2/modules/iwutil/h/IwVariableBitField.h'
p1449
(lp1450
I1
ag1406
asS'c:/marmalade/7.2/modules/iwutil/h/IwUncopyable.h'
p1451
(lp1452
I1
ag1406
asS'c:/marmalade/7.2/modules/iwutil/h/IwAllocator.h'
p1453
(lp1454
I1
ag1406
asS'c:/marmalade/7.2/modules/iwutil/h/IwTypes.h'
p1455
(lp1456
I1
ag1406
asS'c:/marmalade/7.2/modules/iwutil/h/IwManaged.h'
p1457
(lp1458
I1
ag1406
asS'c:/marmalade/7.2/modules/iwutil/h/IwRuntime.h'
p1459
(lp1460
I1
ag1406
asS'c:/marmalade/7.2/modules/iwutil/h/IwMemManagerDL.h'
p1461
(lp1462
I1
ag1406
asS'c:/marmalade/7.2/modules/iwutil/h/IwOptimiseThumb.h'
p1463
(lp1464
I1
ag1406
asS'c:/marmalade/7.2/modules/iwutil/h/IwUtil.h'
p1465
(lp1466
I1
ag1406
asS'c:/marmalade/7.2/modules/iwutil/docs/iwutil.config.txt'
p1467
(lp1468
I1
ag1406
asS'c:/marmalade/7.2/modules/iwutil/h/IwClassFactory.h'
p1469
(lp1470
I1
ag1406
asS'c:/marmalade/7.2/modules/iwutil/h/IwUtilInitTerm.h'
p1471
(lp1472
I1
ag1406
asS'c:/marmalade/7.2/modules/iwutil/h/IwAutoFile.h'
p1473
(lp1474
I1
ag1406
asS'c:/marmalade/7.2/modules/iwutil/h/IwUTF8.h'
p1475
(lp1476
I1
ag1406
asS'c:/marmalade/7.2/modules/iwutil/h/IwSerialise.h'
p1477
(lp1478
I1
ag1406
asS'c:/marmalade/7.2/modules/iwutil/h/IwPath.h'
p1479
(lp1480
I1
ag1406
asS'c:/marmalade/7.2/modules/iwutil/h/IwMemBucketHelpers.h'
p1481
(lp1482
I1
ag1406
asS'c:/marmalade/7.2/modules/iwutil/h/IwCopyingPtr.h'
p1483
(lp1484
I1
ag1406
asS'c:/marmalade/7.2/modules/iwutil/h/IwOptimiseARM.h'
p1485
(lp1486
I1
ag1406
asS'c:/marmalade/7.2/modules/iwutil/h/IwMemBucket.h'
p1487
(lp1488
I1
ag1406
asS'c:/marmalade/7.2/modules/iwutil/iwutil.mkf'
p1489
(lp1490
I1
a(dp1491
asS'c:/marmalade/7.2/modules/iwutil/h/IwKeymap.h'
p1492
(lp1493
I1
ag1406
asS'c:/marmalade/7.2/modules/iwutil/h/IwImageHelper.h'
p1494
(lp1495
I1
ag1406
asS'c:/marmalade/7.2/modules/iwutil/h/IwOptimiseSpeed.h'
p1496
(lp1497
I1
ag1406
asS'c:/marmalade/7.2/modules/iwutil/h/IwTextParseable.h'
p1498
(lp1499
I1
ag1406
asS'c:/marmalade/7.2/modules/iwutil/h/IwDebug.h'
p1500
(lp1501
I1
ag1406
asS'c:/marmalade/7.2/modules/iwutil/h/IwDivide.h'
p1502
(lp1503
I1
ag1406
asS'c:/marmalade/7.2/modules/iwutil/h/IwHashString.h'
p1504
(lp1505
I1
ag1406
asssS'(zlib)'
p1506
(dp1507
g1034
(dp1508
S'c:/marmalade/7.2/modules/third_party/zlib/h/zconf.h'
p1509
(lp1510
I1
a(dp1511
asS'c:/marmalade/7.2/modules/third_party/zlib/h/zlib.h'
p1512
(lp1513
I1
ag1511
assS'c:/marmalade/7.2/modules/third_party/zlib/zlib.mkf'
p1514
(lp1515
I1
a(dp1516
assS'(iwtween)'
p1517
(dp1518
S'c:/marmalade/7.2/modules/iwtween/iwtween.mkf'
p1519
(lp1520
I1
a(dp1521
asS'c:/marmalade/7.2/modules/iwtween/source/IwTween.cpp'
p1522
(lp1523
I1
a(dp1524
asS'c:/marmalade/7.2/modules/iwtween/h/IwTween.h'
p1525
(lp1526
I1
ag1524
assS'hope'
p1527
(dp1528
S'main'
p1529
(dp1530
S'c:/Users/Vinicius/Desktop/Yes or No/Hoppe/source/main.cpp'
p1531
(lp1532
I1
a(dp1533
asS'c:/Users/Vinicius/Desktop/Yes or No/Hoppe/source/include.h'
p1534
(lp1535
I1
ag1533
asS'c:/Users/Vinicius/Desktop/Yes or No/Hoppe/source/main.h'
p1536
(lp1537
I1
ag1533
assS'managers'
p1538
(dp1539
S'c:/Users/Vinicius/Desktop/Yes or No/Hoppe/source/scene.h'
p1540
(lp1541
I1
ag1533
asS'c:/Users/Vinicius/Desktop/Yes or No/Hoppe/source/timer.h'
p1542
(lp1543
I1
ag1533
asS'c:/Users/Vinicius/Desktop/Yes or No/Hoppe/source/input.cpp'
p1544
(lp1545
I1
ag1533
asS'c:/Users/Vinicius/Desktop/Yes or No/Hoppe/source/resources.h'
p1546
(lp1547
I1
ag1533
asS'c:/Users/Vinicius/Desktop/Yes or No/Hoppe/source/timer.cpp'
p1548
(lp1549
I1
ag1533
asS'c:/Users/Vinicius/Desktop/Yes or No/Hoppe/source/resources.cpp'
p1550
(lp1551
I1
ag1533
asS'c:/Users/Vinicius/Desktop/Yes or No/Hoppe/source/scene.cpp'
p1552
(lp1553
I1
ag1533
asS'c:/Users/Vinicius/Desktop/Yes or No/Hoppe/source/audio.h'
p1554
(lp1555
I1
ag1533
asS'c:/Users/Vinicius/Desktop/Yes or No/Hoppe/source/audio.cpp'
p1556
(lp1557
I1
ag1533
asS'c:/Users/Vinicius/Desktop/Yes or No/Hoppe/source/input.h'
p1558
(lp1559
I1
ag1533
assS'scenes'
p1560
(dp1561
S'c:/Users/Vinicius/Desktop/Yes or No/Hoppe/source/mainMenu.h'
p1562
(lp1563
I1
ag1533
asS'c:/Users/Vinicius/Desktop/Yes or No/Hoppe/source/mainMenu.cpp'
p1564
(lp1565
I1
ag1533
asS'c:/Users/Vinicius/Desktop/Yes or No/Hoppe/source/game.h'
p1566
(lp1567
I1
ag1533
asS'c:/Users/Vinicius/Desktop/Yes or No/Hoppe/source/pauseMenu.h'
p1568
(lp1569
I1
ag1533
asS'c:/Users/Vinicius/Desktop/Yes or No/Hoppe/source/game.cpp'
p1570
(lp1571
I1
ag1533
asS'c:/Users/Vinicius/Desktop/Yes or No/Hoppe/source/pauseMenu.cpp'
p1572
(lp1573
I1
ag1533
assS'resources'
p1574
(dp1575
S'c:/Users/Vinicius/Desktop/Yes or No/Hoppe/source/explosion.h'
p1576
(lp1577
I1
ag1533
asS'c:/Users/Vinicius/Desktop/Yes or No/Hoppe/source/gem.cpp'
p1578
(lp1579
I1
ag1533
asS'c:/Users/Vinicius/Desktop/Yes or No/Hoppe/source/explosion.cpp'
p1580
(lp1581
I1
ag1533
asS'c:/Users/Vinicius/Desktop/Yes or No/Hoppe/source/grid.h'
p1582
(lp1583
I1
ag1533
asS'c:/Users/Vinicius/Desktop/Yes or No/Hoppe/source/grid.cpp'
p1584
(lp1585
I1
ag1533
asS'c:/Users/Vinicius/Desktop/Yes or No/Hoppe/source/gem.h'
p1586
(lp1587
I1
ag1533
assssS'files'
p1588
(dp1589
S'IwGxFontPreparedData.h'
p1590
g299
(cmkb_main
File
p1591
g301
Ntp1592
Rp1593
(dp1594
S'flags'
p1595
g1228
sS'group'
p1596
(lp1597
S"'Marmalade Studio'"
p1598
ag1224
asg325
g1229
sbsS'iterator'
p1599
g299
(g1591
g301
Ntp1600
Rp1601
(dp1602
g1595
(dp1603
sg1596
(lp1604
S"'Marmalade System (S3E)'"
p1605
aS'stdc headers'
p1606
aS'c++'
p1607
asg325
S'c:/marmalade/7.2/s3e/h/std/c++/iterator'
p1608
sbsS'IwGL.h'
p1609
g299
(g1591
g301
Ntp1610
Rp1611
(dp1612
g1595
g1204
sg1596
(lp1613
S"'Marmalade Studio'"
p1614
ag1200
asg325
g1202
sbsS's3e.h'
p1615
g299
(g1591
g301
Ntp1616
Rp1617
(dp1618
g1595
g1603
sg1596
(lp1619
g1605
asg325
S'c:/marmalade/7.2/s3e/h/s3e.h'
p1620
sbsS'errno.h'
p1621
g299
(g1591
g301
Ntp1622
Rp1623
(dp1624
g1595
g1603
sg1596
(lp1625
g1605
aS'stdc headers'
p1626
asg325
S'c:/marmalade/7.2/s3e/h/std/errno.h'
p1627
sbsS'IwSingleton.h'
p1628
g299
(g1591
g301
Ntp1629
Rp1630
(dp1631
g1595
g1406
sg1596
(lp1632
S"'Marmalade Studio'"
p1633
ag1402
asg325
g1441
sbsS'dlfcn.h'
p1634
g299
(g1591
g301
Ntp1635
Rp1636
(dp1637
g1595
g1603
sg1596
g1625
sg325
S'c:/marmalade/7.2/s3e/h/std/dlfcn.h'
p1638
sbsS'IwSoundWAV.cpp'
p1639
g299
(g1591
g301
Ntp1640
Rp1641
(dp1642
g1595
g1093
sg1596
(lp1643
g1089
asg325
g1128
sbsS'sched.h'
p1644
g299
(g1591
g301
Ntp1645
Rp1646
(dp1647
g1595
g1603
sg1596
g1625
sg325
S'c:/marmalade/7.2/s3e/h/std/sched.h'
p1648
sbsS'IwSoundPCM.h'
p1649
g299
(g1591
g301
Ntp1650
Rp1651
(dp1652
g1595
g1093
sg1596
g1643
sg325
g1094
sbsS'IwGeomFMat2D.h'
p1653
g299
(g1591
g301
Ntp1654
Rp1655
(dp1656
g1595
g1250
sg1596
(lp1657
S"'Marmalade Studio'"
p1658
ag1246
asg325
g1261
sbsS'cassert'
p1659
g299
(g1591
g301
Ntp1660
Rp1661
(dp1662
g1595
g1603
sg1596
g1604
sg325
S'c:/marmalade/7.2/s3e/h/std/c++/cassert'
p1663
sbsS'grp.h'
p1664
g299
(g1591
g301
Ntp1665
Rp1666
(dp1667
g1595
g1603
sg1596
g1625
sg325
S'c:/marmalade/7.2/s3e/h/std/grp.h'
p1668
sbsS'list'
p1669
g299
(g1591
g301
Ntp1670
Rp1671
(dp1672
g1595
g1603
sg1596
g1604
sg325
S'c:/marmalade/7.2/s3e/h/std/c++/list'
p1673
sbsS'IwSoundSpec.cpp'
p1674
g299
(g1591
g301
Ntp1675
Rp1676
(dp1677
g1595
g1093
sg1596
g1643
sg325
g1116
sbsS'istream'
p1678
g299
(g1591
g301
Ntp1679
Rp1680
(dp1681
g1595
g1603
sg1596
g1604
sg325
S'c:/marmalade/7.2/s3e/h/std/c++/istream'
p1682
sbsS'jpeglib.h'
p1683
g299
(g1591
g301
Ntp1684
Rp1685
(dp1686
g1595
g1049
sg1596
(lp1687
g1044
ag1034
asg325
g1058
sbsS'iw2d_public.defines.txt'
p1688
g299
(g1591
g301
Ntp1689
Rp1690
(dp1691
g1595
g1216
sg1596
(lp1692
S"'Marmalade Studio'"
p1693
ag1212
asg325
g1214
sbsS'iostream.h'
p1694
g299
(g1591
g301
Ntp1695
Rp1696
(dp1697
g1595
g1603
sg1596
g1604
sg325
S'c:/marmalade/7.2/s3e/h/std/c++/iostream.h'
p1698
sbsS'IwSoundADPCM.h'
p1699
g299
(g1591
g301
Ntp1700
Rp1701
(dp1702
g1595
g1093
sg1596
g1643
sg325
g1098
sbsS'string'
p1703
g299
(g1591
g301
Ntp1704
Rp1705
(dp1706
g1595
g1603
sg1596
g1604
sg325
S'c:/marmalade/7.2/s3e/h/std/c++/string'
p1707
sbsS'IwMemory.h'
p1708
g299
(g1591
g301
Ntp1709
Rp1710
(dp1711
g1595
g1406
sg1596
g1632
sg325
g1423
sbsS'IwGeomPlane.h'
p1712
g299
(g1591
g301
Ntp1713
Rp1714
(dp1715
g1595
g1250
sg1596
g1657
sg325
g1251
sbsS'iw2d.config.txt'
p1716
g299
(g1591
g301
Ntp1717
Rp1718
(dp1719
g1595
g1216
sg1596
g1692
sg325
g1219
sbsS'iomanip'
p1720
g299
(g1591
g301
Ntp1721
Rp1722
(dp1723
g1595
g1603
sg1596
g1604
sg325
S'c:/marmalade/7.2/s3e/h/std/c++/iomanip'
p1724
sbsS'iwgeom.mkf'
p1725
g299
(g1591
g301
Ntp1726
Rp1727
(dp1728
g1595
g1295
sg1596
g1657
sg325
g1293
sbsS'IwGxError.h'
p1729
g299
(g1591
g301
Ntp1730
Rp1731
(dp1732
g1595
g1342
sg1596
(lp1733
S"'Marmalade Studio'"
p1734
ag1338
asg325
g1374
sbsS'IwGeom.h'
p1735
g299
(g1591
g301
Ntp1736
Rp1737
(dp1738
g1595
g1250
sg1596
g1657
sg325
g1269
sbsS'scene.cpp'
p1739
g299
(g1591
g301
Ntp1740
Rp1741
(dp1742
g1595
g1533
sg1596
(lp1743
S'hope'
p1744
ag1538
asg325
g1552
sbsS'IwGeomVec4.h'
p1745
g299
(g1591
g301
Ntp1746
Rp1747
(dp1748
g1595
g1250
sg1596
g1657
sg325
g1310
sbsS'dir.h'
p1749
g299
(g1591
g301
Ntp1750
Rp1751
(dp1752
g1595
g1603
sg1596
(lp1753
g1605
aS'stdc headers'
p1754
aS'sys'
p1755
asg325
S'c:/marmalade/7.2/s3e/h/std/sys/dir.h'
p1756
sbsS'locale.h'
p1757
g299
(g1591
g301
Ntp1758
Rp1759
(dp1760
g1595
g1603
sg1596
g1625
sg325
S'c:/marmalade/7.2/s3e/h/std/locale.h'
p1761
sbsS'vector'
p1762
g299
(g1591
g301
Ntp1763
Rp1764
(dp1765
g1595
g1603
sg1596
g1604
sg325
S'c:/marmalade/7.2/s3e/h/std/c++/vector'
p1766
sbsS'grid.h'
p1767
g299
(g1591
g301
Ntp1768
Rp1769
(dp1770
g1595
g1533
sg1596
(lp1771
g1527
ag1574
asg325
g1582
sbsS'IwManaged.h'
p1772
g299
(g1591
g301
Ntp1773
Rp1774
(dp1775
g1595
g1406
sg1596
g1632
sg325
g1457
sbsS's3eCompass.h'
p1776
g299
(g1591
g301
Ntp1777
Rp1778
(dp1779
g1595
g1603
sg1596
g1619
sg325
S'c:/marmalade/7.2/s3e/h/s3eCompass.h'
p1780
sbsS'cderror.h'
p1781
g299
(g1591
g301
Ntp1782
Rp1783
(dp1784
g1595
g1049
sg1596
g1687
sg325
g1074
sbsS'climits'
p1785
g299
(g1591
g301
Ntp1786
Rp1787
(dp1788
g1595
g1603
sg1596
g1604
sg325
S'c:/marmalade/7.2/s3e/h/std/c++/climits'
p1789
sbsS's3eVibra.h'
p1790
g299
(g1591
g301
Ntp1791
Rp1792
(dp1793
g1595
g1603
sg1596
g1619
sg325
S'c:/marmalade/7.2/s3e/h/s3eVibra.h'
p1794
sbsS'jversion.h'
p1795
g299
(g1591
g301
Ntp1796
Rp1797
(dp1798
g1595
g1049
sg1596
g1687
sg325
g1060
sbsS'fnmatch.h'
p1799
g299
(g1591
g301
Ntp1800
Rp1801
(dp1802
g1595
g1603
sg1596
g1625
sg325
S'c:/marmalade/7.2/s3e/h/std/fnmatch.h'
p1803
sbsS'IwGxState.h'
p1804
g299
(g1591
g301
Ntp1805
Rp1806
(dp1807
g1595
g1342
sg1596
g1733
sg325
g1390
sbsS'rope'
p1808
g299
(g1591
g301
Ntp1809
Rp1810
(dp1811
g1595
g1603
sg1596
g1604
sg325
S'c:/marmalade/7.2/s3e/h/std/c++/rope'
p1812
sbsS's3eAudio.h'
p1813
g299
(g1591
g301
Ntp1814
Rp1815
(dp1816
g1595
g1603
sg1596
g1619
sg325
S'c:/marmalade/7.2/s3e/h/s3eAudio.h'
p1817
sbsS's3eSurface.h'
p1818
g299
(g1591
g301
Ntp1819
Rp1820
(dp1821
g1595
g1603
sg1596
g1619
sg325
S'c:/marmalade/7.2/s3e/h/s3eSurface.h'
p1822
sbsS'new'
p1823
g299
(g1591
g301
Ntp1824
Rp1825
(dp1826
g1595
g1603
sg1596
g1604
sg325
S'c:/marmalade/7.2/s3e/h/std/c++/new'
p1827
sbsS's3eWindow.h'
p1828
g299
(g1591
g301
Ntp1829
Rp1830
(dp1831
g1595
g1603
sg1596
(lp1832
g1605
aS'Extensions'
p1833
asg325
S'c:/marmalade/7.2/s3e/h/ext/s3eWindow.h'
p1834
sbsS'IwBuffer.h'
p1835
g299
(g1591
g301
Ntp1836
Rp1837
(dp1838
g1595
g1406
sg1596
g1632
sg325
g1413
sbsS's3eflurry.mkf'
p1839
g299
(g1591
g301
Ntp1840
Rp1841
(dp1842
g1595
g1185
sg1596
(lp1843
S'Extensions'
p1844
ag1172
asg325
g1183
sbsS'stdio_streambuf'
p1845
g299
(g1591
g301
Ntp1846
Rp1847
(dp1848
g1595
g1603
sg1596
g1604
sg325
S'c:/marmalade/7.2/s3e/h/std/c++/stdio_streambuf'
p1849
sbsS's3eOSExec.h'
p1850
g299
(g1591
g301
Ntp1851
Rp1852
(dp1853
g1595
g1603
sg1596
g1832
sg325
S'c:/marmalade/7.2/s3e/h/ext/s3eOSExec.h'
p1854
sbsS'IwGxTransformSW.h'
p1855
g299
(g1591
g301
Ntp1856
Rp1857
(dp1858
g1595
g1342
sg1596
g1733
sg325
g1345
sbsS'IwGxMetrics.h'
p1859
g299
(g1591
g301
Ntp1860
Rp1861
(dp1862
g1595
g1342
sg1596
g1733
sg325
g1372
sbsS'iwgxfont.config.txt'
p1863
g299
(g1591
g301
Ntp1864
Rp1865
(dp1866
g1595
g1228
sg1596
g1597
sg325
g1244
sbsS'gl2platform.h'
p1867
g299
(g1591
g301
Ntp1868
Rp1869
(dp1870
g1595
g1603
sg1596
(lp1871
g1605
aS'GL'
p1872
aS'GLES 2.0'
p1873
asg325
S'c:/marmalade/7.2/s3e/h/GLES2/gl2platform.h'
p1874
sbsS'IwResManagerClass.h'
p1875
g299
(g1591
g301
Ntp1876
Rp1877
(dp1878
g1595
g1318
sg1596
(lp1879
g1186
ag1314
asg325
g1330
sbsS'queue'
p1880
g299
(g1591
g301
Ntp1881
Rp1882
(dp1883
g1595
g1603
sg1596
g1604
sg325
S'c:/marmalade/7.2/s3e/h/std/c++/queue'
p1884
sbsS'time_1.h'
p1885
g299
(g1591
g301
Ntp1886
Rp1887
(dp1888
g1595
g1603
sg1596
g1753
sg325
S'c:/marmalade/7.2/s3e/h/std/sys/time.h'
p1889
sbsS'Iw2D.h'
p1890
g299
(g1591
g301
Ntp1891
Rp1892
(dp1893
g1595
g1216
sg1596
g1692
sg325
g1217
sbsS'IwGeomVec2.h'
p1894
g299
(g1591
g301
Ntp1895
Rp1896
(dp1897
g1595
g1250
sg1596
g1657
sg325
g1279
sbsS'sendfile.h'
p1898
g299
(g1591
g301
Ntp1899
Rp1900
(dp1901
g1595
g1603
sg1596
g1753
sg325
S'c:/marmalade/7.2/s3e/h/std/sys/sendfile.h'
p1902
sbsS'malloc.h'
p1903
g299
(g1591
g301
Ntp1904
Rp1905
(dp1906
g1595
g1603
sg1596
g1625
sg325
S'c:/marmalade/7.2/s3e/h/std/malloc.h'
p1907
sbsS'stdarg.h'
p1908
g299
(g1591
g301
Ntp1909
Rp1910
(dp1911
g1595
g1603
sg1596
g1625
sg325
S'c:/marmalade/7.2/s3e/h/std/stdarg.h'
p1912
sbsS'IwGeomCore.h'
p1913
g299
(g1591
g301
Ntp1914
Rp1915
(dp1916
g1595
g1250
sg1596
g1657
sg325
g1263
sbsS'Iw2DSceneGraph.h'
p1917
g299
(g1591
g301
Ntp1918
Rp1919
(dp1920
g1595
g1192
sg1596
(lp1921
S"'Marmalade Studio'"
p1922
ag1188
asg325
g1196
sbsS'endian.h'
p1923
g299
(g1591
g301
Ntp1924
Rp1925
(dp1926
g1595
g1603
sg1596
g1625
sg325
S'c:/marmalade/7.2/s3e/h/std/endian.h'
p1927
sbsS'glob.h'
p1928
g299
(g1591
g301
Ntp1929
Rp1930
(dp1931
g1595
g1603
sg1596
g1625
sg325
S'c:/marmalade/7.2/s3e/h/std/glob.h'
p1932
sbsS'fstream'
p1933
g299
(g1591
g301
Ntp1934
Rp1935
(dp1936
g1595
g1603
sg1596
g1604
sg325
S'c:/marmalade/7.2/s3e/h/std/c++/fstream'
p1937
sbsS'include.h'
p1938
g299
(g1591
g301
Ntp1939
Rp1940
(dp1941
g1595
g1533
sg1596
(lp1942
S'hope'
p1943
ag1529
asg325
g1534
sbsS'jconfig.h'
p1944
g299
(g1591
g301
Ntp1945
Rp1946
(dp1947
g1595
g1049
sg1596
g1687
sg325
g1050
sbsS'memory'
p1948
g299
(g1591
g301
Ntp1949
Rp1950
(dp1951
g1595
g1603
sg1596
g1604
sg325
S'c:/marmalade/7.2/s3e/h/std/c++/memory'
p1952
sbsS'egl.h'
p1953
g299
(g1591
g301
Ntp1954
Rp1955
(dp1956
g1595
g1603
sg1596
(lp1957
g1605
aS'GL'
p1958
aS'EGL'
p1959
asg325
S'c:/marmalade/7.2/s3e/h/EGL/egl.h'
p1960
sbsS'egl_1.h'
p1961
g299
(g1591
g301
Ntp1962
Rp1963
(dp1964
g1595
g1603
sg1596
(lp1965
g1605
aS'GL'
p1966
aS'GLES 1.x'
p1967
asg325
S'c:/marmalade/7.2/s3e/h/GLES/egl.h'
p1968
sbsS'IwMemManagerDL.h'
p1969
g299
(g1591
g301
Ntp1970
Rp1971
(dp1972
g1595
g1406
sg1596
g1632
sg325
g1461
sbsS'deque'
p1973
g299
(g1591
g301
Ntp1974
Rp1975
(dp1976
g1595
g1603
sg1596
g1604
sg325
S'c:/marmalade/7.2/s3e/h/std/c++/deque'
p1977
sbsS'IwString.h'
p1978
g299
(g1591
g301
Ntp1979
Rp1980
(dp1981
g1595
g1406
sg1596
g1632
sg325
g1447
sbsS'cwchar'
p1982
g299
(g1591
g301
Ntp1983
Rp1984
(dp1985
g1595
g1603
sg1596
g1604
sg325
S'c:/marmalade/7.2/s3e/h/std/c++/cwchar'
p1986
sbsS'iwutil.mkf'
p1987
g299
(g1591
g301
Ntp1988
Rp1989
(dp1990
g1595
g1491
sg1596
g1632
sg325
g1489
sbsS'csignal'
p1991
g299
(g1591
g301
Ntp1992
Rp1993
(dp1994
g1595
g1603
sg1596
g1604
sg325
S'c:/marmalade/7.2/s3e/h/std/c++/csignal'
p1995
sbsS'pthread_types.h'
p1996
g299
(g1591
g301
Ntp1997
Rp1998
(dp1999
g1595
g1603
sg1596
g1625
sg325
S'c:/marmalade/7.2/s3e/h/std/pthread_types.h'
p2000
sbsS'pthread_alloc'
p2001
g299
(g1591
g301
Ntp2002
Rp2003
(dp2004
g1595
g1603
sg1596
g1604
sg325
S'c:/marmalade/7.2/s3e/h/std/c++/pthread_alloc'
p2005
sbsS'getopt.h'
p2006
g299
(g1591
g301
Ntp2007
Rp2008
(dp2009
g1595
g1603
sg1596
g1625
sg325
S'c:/marmalade/7.2/s3e/h/std/getopt.h'
p2010
sbsS'IwOptimiseARM.h'
p2011
g299
(g1591
g301
Ntp2012
Rp2013
(dp2014
g1595
g1406
sg1596
g1632
sg325
g1485
sbsS'times.h'
p2015
g299
(g1591
g301
Ntp2016
Rp2017
(dp2018
g1595
g1603
sg1596
g1753
sg325
S'c:/marmalade/7.2/s3e/h/std/sys/times.h'
p2019
sbsS'IwGeomFSphere.h'
p2020
g299
(g1591
g301
Ntp2021
Rp2022
(dp2023
g1595
g1250
sg1596
g1657
sg325
g1296
sbsS'game.h'
p2024
g299
(g1591
g301
Ntp2025
Rp2026
(dp2027
g1595
g1533
sg1596
(lp2028
S'hope'
p2029
ag1560
asg325
g1566
sbsS'functional'
p2030
g299
(g1591
g301
Ntp2031
Rp2032
(dp2033
g1595
g1603
sg1596
g1604
sg325
S'c:/marmalade/7.2/s3e/h/std/c++/functional'
p2034
sbsS'explosion.cpp'
p2035
g299
(g1591
g301
Ntp2036
Rp2037
(dp2038
g1595
g1533
sg1596
g1771
sg325
g1580
sbsS'IwTypes.h'
p2039
g299
(g1591
g301
Ntp2040
Rp2041
(dp2042
g1595
g1406
sg1596
g1632
sg325
g1455
sbsS'unistd.h'
p2043
g299
(g1591
g301
Ntp2044
Rp2045
(dp2046
g1595
g1603
sg1596
g1625
sg325
S'c:/marmalade/7.2/s3e/h/std/unistd.h'
p2047
sbsS'audio.cpp'
p2048
g299
(g1591
g301
Ntp2049
Rp2050
(dp2051
g1595
g1533
sg1596
g1743
sg325
g1556
sbsS's3eCompression.h'
p2052
g299
(g1591
g301
Ntp2053
Rp2054
(dp2055
g1595
g1603
sg1596
g1619
sg325
S'c:/marmalade/7.2/s3e/h/s3eCompression.h'
p2056
sbsS'langinfo.h'
p2057
g299
(g1591
g301
Ntp2058
Rp2059
(dp2060
g1595
g1603
sg1596
g1625
sg325
S'c:/marmalade/7.2/s3e/h/std/langinfo.h'
p2061
sbsS's3edebugHeap.h'
p2062
g299
(g1591
g301
Ntp2063
Rp2064
(dp2065
g1595
g1603
sg1596
g1832
sg325
S'c:/marmalade/7.2/s3e/h/ext/s3edebugHeap.h'
p2066
sbsS'AirplayVersion.h'
p2067
g299
(g1591
g301
Ntp2068
Rp2069
(dp2070
g1595
g1603
sg1596
g1619
sg325
S'c:/marmalade/7.2/s3e/h/AirplayVersion.h'
p2071
sbsS'gl2extimg.h'
p2072
g299
(g1591
g301
Ntp2073
Rp2074
(dp2075
g1595
g1603
sg1596
g1871
sg325
S'c:/marmalade/7.2/s3e/h/GLES2/gl2extimg.h'
p2076
sbsS'app.config.txt'
p2077
g299
(g1591
g301
Ntp2078
Rp2079
(dp2080
g1595
(dp2081
sg1596
g4
sg325
S'c:/Users/Vinicius/Desktop/Yes or No/Hoppe/data/app.config.txt'
p2082
sbsS'IwGeomSqrt.h'
p2083
g299
(g1591
g301
Ntp2084
Rp2085
(dp2086
g1595
g1250
sg1596
g1657
sg325
g1259
sbsS'tiniconv_int.h'
p2087
g299
(g1591
g301
Ntp2088
Rp2089
(dp2090
g1595
g1083
sg1596
(lp2091
g1079
asg325
g1084
sbsS'syslog.h'
p2092
g299
(g1591
g301
Ntp2093
Rp2094
(dp2095
g1595
g1603
sg1596
g1625
sg325
S'c:/marmalade/7.2/s3e/h/std/syslog.h'
p2096
sbsS'IwGxFontTypes.h'
p2097
g299
(g1591
g301
Ntp2098
Rp2099
(dp2100
g1595
g1228
sg1596
g1597
sg325
g1239
sbsS'IwGeomFIntersect.h'
p2101
g299
(g1591
g301
Ntp2102
Rp2103
(dp2104
g1595
g1250
sg1596
g1657
sg325
g1291
sbsS'hash_map'
p2105
g299
(g1591
g301
Ntp2106
Rp2107
(dp2108
g1595
g1603
sg1596
g1604
sg325
S'c:/marmalade/7.2/s3e/h/std/c++/hash_map'
p2109
sbsS's3e.mkf'
p2110
g299
(g1591
g301
Ntp2111
Rp2112
(dp2113
g1595
(dp2114
sg1596
g1619
sg325
S'c:/marmalade/7.2/s3e/s3e.mkf'
p2115
sbsS's3eOSReadString.h'
p2116
g299
(g1591
g301
Ntp2117
Rp2118
(dp2119
g1595
g1603
sg1596
g1832
sg325
S'c:/marmalade/7.2/s3e/h/ext/s3eOSReadString.h'
p2120
sbsS'IwSound.h'
p2121
g299
(g1591
g301
Ntp2122
Rp2123
(dp2124
g1595
g1093
sg1596
g1643
sg325
g1122
sbsS'map'
p2125
g299
(g1591
g301
Ntp2126
Rp2127
(dp2128
g1595
g1603
sg1596
g1604
sg325
S'c:/marmalade/7.2/s3e/h/std/c++/map'
p2129
sbsS'iwtween.mkf'
p2130
g299
(g1591
g301
Ntp2131
Rp2132
(dp2133
g1595
g1521
sg1596
(lp2134
g1517
asg325
g1519
sbsS'IwOptimiseSpeed.h'
p2135
g299
(g1591
g301
Ntp2136
Rp2137
(dp2138
g1595
g1406
sg1596
g1632
sg325
g1496
sbsS'ostream'
p2139
g299
(g1591
g301
Ntp2140
Rp2141
(dp2142
g1595
g1603
sg1596
g1604
sg325
S'c:/marmalade/7.2/s3e/h/std/c++/ostream'
p2143
sbsS'msl_string.h'
p2144
g299
(g1591
g301
Ntp2145
Rp2146
(dp2147
g1595
g1603
sg1596
g1604
sg325
S'c:/marmalade/7.2/s3e/h/std/c++/msl_string.h'
p2148
sbsS'select.h'
p2149
g299
(g1591
g301
Ntp2150
Rp2151
(dp2152
g1595
g1603
sg1596
g1753
sg325
S'c:/marmalade/7.2/s3e/h/std/sys/select.h'
p2153
sbsS'zlib.mkf'
p2154
g299
(g1591
g301
Ntp2155
Rp2156
(dp2157
g1595
g1516
sg1596
(lp2158
g1506
asg325
g1514
sbsS'signal.h'
p2159
g299
(g1591
g301
Ntp2160
Rp2161
(dp2162
g1595
g1603
sg1596
g1625
sg325
S'c:/marmalade/7.2/s3e/h/std/signal.h'
p2163
sbsS'sigcontext.h'
p2164
g299
(g1591
g301
Ntp2165
Rp2166
(dp2167
g1595
g1603
sg1596
g1625
sg325
S'c:/marmalade/7.2/s3e/h/std/sigcontext.h'
p2168
sbsS'libpng.mkf'
p2169
g299
(g1591
g301
Ntp2170
Rp2171
(dp2172
g1595
g1043
sg1596
(lp2173
g1032
asg325
g1041
sbsS's3eClipboard.h'
p2174
g299
(g1591
g301
Ntp2175
Rp2176
(dp2177
g1595
g1603
sg1596
g1619
sg325
S'c:/marmalade/7.2/s3e/h/s3eClipboard.h'
p2178
sbsS'IwGxFuncTable.h'
p2179
g299
(g1591
g301
Ntp2180
Rp2181
(dp2182
g1595
g1342
sg1596
g1733
sg325
g1378
sbsS'IwResHandlerGROUP.h'
p2183
g299
(g1591
g301
Ntp2184
Rp2185
(dp2186
g1595
g1318
sg1596
g1879
sg325
g1316
sbsS's3eDebug.h'
p2187
g299
(g1591
g301
Ntp2188
Rp2189
(dp2190
g1595
g1603
sg1596
g1619
sg325
S'c:/marmalade/7.2/s3e/h/s3eDebug.h'
p2191
sbsS'socket.h'
p2192
g299
(g1591
g301
Ntp2193
Rp2194
(dp2195
g1595
g1603
sg1596
g1753
sg325
S'c:/marmalade/7.2/s3e/h/std/sys/socket.h'
p2196
sbsS'glext.h'
p2197
g299
(g1591
g301
Ntp2198
Rp2199
(dp2200
g1595
g1603
sg1596
g1965
sg325
S'c:/marmalade/7.2/s3e/h/GLES/glext.h'
p2201
sbsS'typeinfo.h'
p2202
g299
(g1591
g301
Ntp2203
Rp2204
(dp2205
g1595
g1603
sg1596
g1604
sg325
S'c:/marmalade/7.2/s3e/h/std/c++/typeinfo.h'
p2206
sbsS'typeinfo'
p2207
g299
(g1591
g301
Ntp2208
Rp2209
(dp2210
g1595
g1603
sg1596
g1604
sg325
S'c:/marmalade/7.2/s3e/h/std/c++/typeinfo'
p2211
sbsS'iwsound.config.txt'
p2212
g299
(g1591
g301
Ntp2213
Rp2214
(dp2215
g1595
g1093
sg1596
(lp2216
g1089
ag1106
asg325
g1108
sbsS'fstream.h'
p2217
g299
(g1591
g301
Ntp2218
Rp2219
(dp2220
g1595
g1603
sg1596
g1604
sg325
S'c:/marmalade/7.2/s3e/h/std/c++/fstream.h'
p2221
sbsS'IwGeomMat.h'
p2222
g299
(g1591
g301
Ntp2223
Rp2224
(dp2225
g1595
g1250
sg1596
g1657
sg325
g1253
sbsS's3ePointer.h'
p2226
g299
(g1591
g301
Ntp2227
Rp2228
(dp2229
g1595
g1603
sg1596
g1619
sg325
S'c:/marmalade/7.2/s3e/h/s3ePointer.h'
p2230
sbsS'iw2d.mkf'
p2231
g299
(g1591
g301
Ntp2232
Rp2233
(dp2234
g1595
g1223
sg1596
g1692
sg325
g1221
sbsS's3eGL.h'
p2235
g299
(g1591
g301
Ntp2236
Rp2237
(dp2238
g1595
g1603
sg1596
g1619
sg325
S'c:/marmalade/7.2/s3e/h/s3eGL.h'
p2239
sbsS'grid.cpp'
p2240
g299
(g1591
g301
Ntp2241
Rp2242
(dp2243
g1595
g1533
sg1596
g1771
sg325
g1584
sbsS'IwGeomFVec2.h'
p2244
g299
(g1591
g301
Ntp2245
Rp2246
(dp2247
g1595
g1250
sg1596
g1657
sg325
g1267
sbsS'IwGeomSVec4.h'
p2248
g299
(g1591
g301
Ntp2249
Rp2250
(dp2251
g1595
g1250
sg1596
g1657
sg325
g1287
sbsS'poll.h'
p2252
g299
(g1591
g301
Ntp2253
Rp2254
(dp2255
g1595
g1603
sg1596
g1625
sg325
S'c:/marmalade/7.2/s3e/h/std/poll.h'
p2256
sbsS'IwMatAnim.h'
p2257
g299
(g1591
g301
Ntp2258
Rp2259
(dp2260
g1595
g1342
sg1596
g1733
sg325
g1349
sbsS'IwGeomFVec4.h'
p2261
g299
(g1591
g301
Ntp2262
Rp2263
(dp2264
g1595
g1250
sg1596
g1657
sg325
g1273
sbsS'IwGx.h'
p2265
g299
(g1591
g301
Ntp2266
Rp2267
(dp2268
g1595
g1342
sg1596
g1733
sg325
g1366
sbsS'valarray'
p2269
g299
(g1591
g301
Ntp2270
Rp2271
(dp2272
g1595
g1603
sg1596
g1604
sg325
S'c:/marmalade/7.2/s3e/h/std/c++/valarray'
p2273
sbsS'iosfwd'
p2274
g299
(g1591
g301
Ntp2275
Rp2276
(dp2277
g1595
g1603
sg1596
g1604
sg325
S'c:/marmalade/7.2/s3e/h/std/c++/iosfwd'
p2278
sbsS'gl2.h'
p2279
g299
(g1591
g301
Ntp2280
Rp2281
(dp2282
g1595
g1603
sg1596
g1871
sg325
S'c:/marmalade/7.2/s3e/h/GLES2/gl2.h'
p2283
sbsS'jpegint.h'
p2284
g299
(g1591
g301
Ntp2285
Rp2286
(dp2287
g1595
g1049
sg1596
g1687
sg325
g1054
sbsS'stdiostream.h'
p2288
g299
(g1591
g301
Ntp2289
Rp2290
(dp2291
g1595
g1603
sg1596
g1604
sg325
S'c:/marmalade/7.2/s3e/h/std/c++/stdiostream.h'
p2292
sbsS'mem.h'
p2293
g299
(g1591
g301
Ntp2294
Rp2295
(dp2296
g1595
g1603
sg1596
g1604
sg325
S'c:/marmalade/7.2/s3e/h/std/c++/mem.h'
p2297
sbsS'main.cpp'
p2298
g299
(g1591
g301
Ntp2299
Rp2300
(dp2301
g1595
g1533
sg1596
g1942
sg325
g1531
sbsS'zconf.h'
p2302
g299
(g1591
g301
Ntp2303
Rp2304
(dp2305
g1595
g1511
sg1596
(lp2306
g1506
ag1034
asg325
g1509
sbsS's3e.config.txt'
p2307
g299
(g1591
g301
Ntp2308
Rp2309
(dp2310
g1595
g1603
sg1596
g1619
sg325
S'c:/marmalade/7.2/s3e/s3e.config.txt'
p2311
sbsS'numeric'
p2312
g299
(g1591
g301
Ntp2313
Rp2314
(dp2315
g1595
g1603
sg1596
g1604
sg325
S'c:/marmalade/7.2/s3e/h/std/c++/numeric'
p2316
sbsS'utime.h'
p2317
g299
(g1591
g301
Ntp2318
Rp2319
(dp2320
g1595
g1603
sg1596
g1625
sg325
S'c:/marmalade/7.2/s3e/h/std/utime.h'
p2321
sbsS'jdhuff.h'
p2322
g299
(g1591
g301
Ntp2323
Rp2324
(dp2325
g1595
g1049
sg1596
g1687
sg325
g1064
sbsS'IwResHandlerWAV.cpp'
p2326
g299
(g1591
g301
Ntp2327
Rp2328
(dp2329
g1595
g1093
sg1596
g1643
sg325
g1110
sbsS'IwGxStream.h'
p2330
g299
(g1591
g301
Ntp2331
Rp2332
(dp2333
g1595
g1342
sg1596
g1733
sg325
g1343
sbsS'IwImage.h'
p2334
g299
(g1591
g301
Ntp2335
Rp2336
(dp2337
g1595
g1406
sg1596
g1632
sg325
g1443
sbsS's3eImagePicker.h'
p2338
g299
(g1591
g301
Ntp2339
Rp2340
(dp2341
g1595
g1603
sg1596
g1832
sg325
S'c:/marmalade/7.2/s3e/h/ext/s3eImagePicker.h'
p2342
sbsS's3eWebView.defines.txt'
p2343
g299
(g1591
g301
Ntp2344
Rp2345
(dp2346
g1595
g1149
sg1596
(lp2347
S'Extensions'
p2348
ag1143
ag1145
asg325
g1147
sbsS'explosion.h'
p2349
g299
(g1591
g301
Ntp2350
Rp2351
(dp2352
g1595
g1533
sg1596
g1771
sg325
g1576
sbsS'stdlib.h'
p2353
g299
(g1591
g301
Ntp2354
Rp2355
(dp2356
g1595
g1603
sg1596
g1625
sg325
S'c:/marmalade/7.2/s3e/h/std/stdlib.h'
p2357
sbsS'IwCopyingPtr.h'
p2358
g299
(g1591
g301
Ntp2359
Rp2360
(dp2361
g1595
g1406
sg1596
g1632
sg325
g1483
sbsS'iostream'
p2362
g299
(g1591
g301
Ntp2363
Rp2364
(dp2365
g1595
g1603
sg1596
g1604
sg325
S'c:/marmalade/7.2/s3e/h/std/c++/iostream'
p2366
sbsS'png.h'
p2367
g299
(g1591
g301
Ntp2368
Rp2369
(dp2370
g1595
g1038
sg1596
(lp2371
g1032
ag1034
asg325
g1036
sbsS'stddef.h'
p2372
g299
(g1591
g301
Ntp2373
Rp2374
(dp2375
g1595
g1603
sg1596
g1625
sg325
S'c:/marmalade/7.2/s3e/h/std/stddef.h'
p2376
sbsS'setjmp_win32.h'
p2377
g299
(g1591
g301
Ntp2378
Rp2379
(dp2380
g1595
g1603
sg1596
g1625
sg325
S'c:/marmalade/7.2/s3e/h/std/setjmp_win32.h'
p2381
sbsS'pauseMenu.h'
p2382
g299
(g1591
g301
Ntp2383
Rp2384
(dp2385
g1595
g1533
sg1596
g2028
sg325
g1568
sbsS'IwGxPrint.h'
p2386
g299
(g1591
g301
Ntp2387
Rp2388
(dp2389
g1595
g1342
sg1596
g1733
sg325
g1358
sbsS'iwgx_public.defines.txt'
p2390
g299
(g1591
g301
Ntp2391
Rp2392
(dp2393
g1595
g1342
sg1596
g1733
sg325
g1362
sbsS'streambuf.h'
p2394
g299
(g1591
g301
Ntp2395
Rp2396
(dp2397
g1595
g1603
sg1596
g1604
sg325
S'c:/marmalade/7.2/s3e/h/std/c++/streambuf.h'
p2398
sbsS'resources.cpp'
p2399
g299
(g1591
g301
Ntp2400
Rp2401
(dp2402
g1595
g1533
sg1596
g1743
sg325
g1550
sbsS'IwGeomFPlane.h'
p2403
g299
(g1591
g301
Ntp2404
Rp2405
(dp2406
g1595
g1250
sg1596
g1657
sg325
g1248
sbsS'un.h'
p2407
g299
(g1591
g301
Ntp2408
Rp2409
(dp2410
g1595
g1603
sg1596
g1753
sg325
S'c:/marmalade/7.2/s3e/h/std/sys/un.h'
p2411
sbsS'wchar.h'
p2412
g299
(g1591
g301
Ntp2413
Rp2414
(dp2415
g1595
g1603
sg1596
g1625
sg325
S'c:/marmalade/7.2/s3e/h/std/wchar.h'
p2416
sbsS's3eCameraCapture.h'
p2417
g299
(g1591
g301
Ntp2418
Rp2419
(dp2420
g1595
g1603
sg1596
g1832
sg325
S'c:/marmalade/7.2/s3e/h/ext/s3eCameraCapture.h'
p2421
sbsS'eglext.h'
p2422
g299
(g1591
g301
Ntp2423
Rp2424
(dp2425
g1595
g1603
sg1596
g1957
sg325
S'c:/marmalade/7.2/s3e/h/EGL/eglext.h'
p2426
sbsS'IwResHandlerImage.h'
p2427
g299
(g1591
g301
Ntp2428
Rp2429
(dp2430
g1595
g1318
sg1596
g1879
sg325
g1326
sbsS'strstream.h'
p2431
g299
(g1591
g301
Ntp2432
Rp2433
(dp2434
g1595
g1603
sg1596
g1604
sg325
S'c:/marmalade/7.2/s3e/h/std/c++/strstream.h'
p2435
sbsS'tiniconv.h'
p2436
g299
(g1591
g301
Ntp2437
Rp2438
(dp2439
g1595
g1083
sg1596
g2091
sg325
g1081
sbsS'IwGLExt.h'
p2440
g299
(g1591
g301
Ntp2441
Rp2442
(dp2443
g1595
g1204
sg1596
g1613
sg325
g1208
sbsS'app.icf'
p2444
g299
(g1591
g301
Ntp2445
Rp2446
(dp2447
g1595
(dp2448
sg1596
g4
sg325
S'c:/Users/Vinicius/Desktop/Yes or No/Hoppe/data/app.icf'
p2449
sbsS'IwClassFactory.h'
p2450
g299
(g1591
g301
Ntp2451
Rp2452
(dp2453
g1595
g1406
sg1596
g1632
sg325
g1469
sbsS'file.h'
p2454
g299
(g1591
g301
Ntp2455
Rp2456
(dp2457
g1595
g1603
sg1596
g1753
sg325
S'c:/marmalade/7.2/s3e/h/std/sys/file.h'
p2458
sbsS'cstring'
p2459
g299
(g1591
g301
Ntp2460
Rp2461
(dp2462
g1595
g1603
sg1596
g1604
sg325
S'c:/marmalade/7.2/s3e/h/std/c++/cstring'
p2463
sbsS'IwSoundInst.cpp'
p2464
g299
(g1591
g301
Ntp2465
Rp2466
(dp2467
g1595
g1093
sg1596
g1643
sg325
g1104
sbsS'iwutil.config.txt'
p2468
g299
(g1591
g301
Ntp2469
Rp2470
(dp2471
g1595
g1406
sg1596
g1632
sg325
g1467
sbsS's3eSMS.h'
p2472
g299
(g1591
g301
Ntp2473
Rp2474
(dp2475
g1595
g1603
sg1596
g1832
sg325
S'c:/marmalade/7.2/s3e/h/ext/s3eSMS.h'
p2476
sbsS'limits.h'
p2477
g299
(g1591
g301
Ntp2478
Rp2479
(dp2480
g1595
g1603
sg1596
g1625
sg325
S'c:/marmalade/7.2/s3e/h/std/limits.h'
p2481
sbsS's3eLibrary.h'
p2482
g299
(g1591
g301
Ntp2483
Rp2484
(dp2485
g1595
g1603
sg1596
g1832
sg325
S'c:/marmalade/7.2/s3e/h/ext/s3eLibrary.h'
p2486
sbsS'IwMaterial.h'
p2487
g299
(g1591
g301
Ntp2488
Rp2489
(dp2490
g1595
g1342
sg1596
g1733
sg325
g1347
sbsS's3eFlurry.defines.txt'
p2491
g299
(g1591
g301
Ntp2492
Rp2493
(dp2494
g1595
g1178
sg1596
(lp2495
g1844
ag1172
ag1174
asg325
g1179
sbsS'IwGxSurface.h'
p2496
g299
(g1591
g301
Ntp2497
Rp2498
(dp2499
g1595
g1342
sg1596
g1733
sg325
g1360
sbsS's3eSocket.h'
p2500
g299
(g1591
g301
Ntp2501
Rp2502
(dp2503
g1595
g1603
sg1596
g1619
sg325
S'c:/marmalade/7.2/s3e/h/s3eSocket.h'
p2504
sbsS'IwAutoFile.h'
p2505
g299
(g1591
g301
Ntp2506
Rp2507
(dp2508
g1595
g1406
sg1596
g1632
sg325
g1473
sbsS'ipc.h'
p2509
g299
(g1591
g301
Ntp2510
Rp2511
(dp2512
g1595
g1603
sg1596
g1753
sg325
S'c:/marmalade/7.2/s3e/h/std/sys/ipc.h'
p2513
sbsS'poll_1.h'
p2514
g299
(g1591
g301
Ntp2515
Rp2516
(dp2517
g1595
g1603
sg1596
g1753
sg325
S'c:/marmalade/7.2/s3e/h/std/sys/poll.h'
p2518
sbsS's3eThread.h'
p2519
g299
(g1591
g301
Ntp2520
Rp2521
(dp2522
g1595
g1603
sg1596
g1619
sg325
S'c:/marmalade/7.2/s3e/h/s3eThread.h'
p2523
sbsS'ucontext.h'
p2524
g299
(g1591
g301
Ntp2525
Rp2526
(dp2527
g1595
g1603
sg1596
g1625
sg325
S'c:/marmalade/7.2/s3e/h/std/ucontext.h'
p2528
sbsS'time.h'
p2529
g299
(g1591
g301
Ntp2530
Rp2531
(dp2532
g1595
g1603
sg1596
g1625
sg325
S'c:/marmalade/7.2/s3e/h/std/time.h'
p2533
sbsS'jchuff.h'
p2534
g299
(g1591
g301
Ntp2535
Rp2536
(dp2537
g1595
g1049
sg1596
g1687
sg325
g1072
sbsS'IwSoundPCM.cpp'
p2538
g299
(g1591
g301
Ntp2539
Rp2540
(dp2541
g1595
g1093
sg1596
g1643
sg325
g1126
sbsS's3eSoundRecord.h'
p2542
g299
(g1591
g301
Ntp2543
Rp2544
(dp2545
g1595
g1603
sg1596
g1619
sg325
S'c:/marmalade/7.2/s3e/h/s3eSoundRecord.h'
p2546
sbsS'IwFibre.h'
p2547
g299
(g1591
g301
Ntp2548
Rp2549
(dp2550
g1595
g1406
sg1596
g1632
sg325
g1411
sbsS's3eVersion.h'
p2551
g299
(g1591
g301
Ntp2552
Rp2553
(dp2554
g1595
g1603
sg1596
g1619
sg325
S'c:/marmalade/7.2/s3e/h/s3eVersion.h'
p2555
sbsS'input.cpp'
p2556
g299
(g1591
g301
Ntp2557
Rp2558
(dp2559
g1595
g1533
sg1596
g1743
sg325
g1544
sbsS'IwSoundGroup.h'
p2560
g299
(g1591
g301
Ntp2561
Rp2562
(dp2563
g1595
g1093
sg1596
g1643
sg325
g1100
sbsS'IwSoundWAV.h'
p2564
g299
(g1591
g301
Ntp2565
Rp2566
(dp2567
g1595
g1093
sg1596
g1643
sg325
g1102
sbsS'IwGxFontGlyph.h'
p2568
g299
(g1591
g301
Ntp2569
Rp2570
(dp2571
g1595
g1228
sg1596
g1597
sg325
g1235
sbsS's3eTypes.h'
p2572
g299
(g1591
g301
Ntp2573
Rp2574
(dp2575
g1595
g1603
sg1596
g1619
sg325
S'c:/marmalade/7.2/s3e/h/s3eTypes.h'
p2576
sbsS'IwSoundSpec.h'
p2577
g299
(g1591
g301
Ntp2578
Rp2579
(dp2580
g1595
g1093
sg1596
g1643
sg325
g1124
sbsS'signal_2.h'
p2581
g299
(g1591
g301
Ntp2582
Rp2583
(dp2584
g1595
g1603
sg1596
g1604
sg325
S'c:/marmalade/7.2/s3e/h/std/c++/signal.h'
p2585
sbsS'termios.h'
p2586
g299
(g1591
g301
Ntp2587
Rp2588
(dp2589
g1595
g1603
sg1596
g1625
sg325
S'c:/marmalade/7.2/s3e/h/std/termios.h'
p2590
sbsS'gem.h'
p2591
g299
(g1591
g301
Ntp2592
Rp2593
(dp2594
g1595
g1533
sg1596
g1771
sg325
g1586
sbsS'iw2dscenegraph.mkf'
p2595
g299
(g1591
g301
Ntp2596
Rp2597
(dp2598
g1595
g1195
sg1596
g1921
sg325
g1193
sbsS'scene.h'
p2599
g299
(g1591
g301
Ntp2600
Rp2601
(dp2602
g1595
g1533
sg1596
g1743
sg325
g1540
sbsS'slist'
p2603
g299
(g1591
g301
Ntp2604
Rp2605
(dp2606
g1595
g1603
sg1596
g1604
sg325
S'c:/marmalade/7.2/s3e/h/std/c++/slist'
p2607
sbsS'cstdlib'
p2608
g299
(g1591
g301
Ntp2609
Rp2610
(dp2611
g1595
g1603
sg1596
g1604
sg325
S'c:/marmalade/7.2/s3e/h/std/c++/cstdlib'
p2612
sbsS's3eLocation.h'
p2613
g299
(g1591
g301
Ntp2614
Rp2615
(dp2616
g1595
g1603
sg1596
g1619
sg325
S'c:/marmalade/7.2/s3e/h/s3eLocation.h'
p2617
sbsS'IwMemBucketHelpers.h'
p2618
g299
(g1591
g301
Ntp2619
Rp2620
(dp2621
g1595
g1406
sg1596
g1632
sg325
g1481
sbsS's3eHash.h'
p2622
g299
(g1591
g301
Ntp2623
Rp2624
(dp2625
g1595
g1603
sg1596
g1619
sg325
S'c:/marmalade/7.2/s3e/h/s3eHash.h'
p2626
sbsS'IwSoundGroup.cpp'
p2627
g299
(g1591
g301
Ntp2628
Rp2629
(dp2630
g1595
g1093
sg1596
g1643
sg325
g1114
sbsS'IwGeomFMat.h'
p2631
g299
(g1591
g301
Ntp2632
Rp2633
(dp2634
g1595
g1250
sg1596
g1657
sg325
g1281
sbsS'type_traits.h'
p2635
g299
(g1591
g301
Ntp2636
Rp2637
(dp2638
g1595
g1603
sg1596
g1604
sg325
S'c:/marmalade/7.2/s3e/h/std/c++/type_traits.h'
p2639
sbsS'IwMenu.h'
p2640
g299
(g1591
g301
Ntp2641
Rp2642
(dp2643
g1595
g1406
sg1596
g1632
sg325
g1431
sbsS'IwResHandlerITX.h'
p2644
g299
(g1591
g301
Ntp2645
Rp2646
(dp2647
g1595
g1318
sg1596
g1879
sg325
g1332
sbsS'IwSoundData.h'
p2648
g299
(g1591
g301
Ntp2649
Rp2650
(dp2651
g1595
g1093
sg1596
g1643
sg325
g1112
sbsS'IwArray.h'
p2652
g299
(g1591
g301
Ntp2653
Rp2654
(dp2655
g1595
g1406
sg1596
g1632
sg325
g1407
sbsS'IwUTF8.h'
p2656
g299
(g1591
g301
Ntp2657
Rp2658
(dp2659
g1595
g1406
sg1596
g1632
sg325
g1475
sbsS'math_rvct.h'
p2660
g299
(g1591
g301
Ntp2661
Rp2662
(dp2663
g1595
g1603
sg1596
g1625
sg325
S'c:/marmalade/7.2/s3e/h/std/math_rvct.h'
p2664
sbsS'IwUtil.h'
p2665
g299
(g1591
g301
Ntp2666
Rp2667
(dp2668
g1595
g1406
sg1596
g1632
sg325
g1465
sbsS'IwFColour.h'
p2669
g299
(g1591
g301
Ntp2670
Rp2671
(dp2672
g1595
g1342
sg1596
g1733
sg325
g1382
sbsS'wctype.h'
p2673
g299
(g1591
g301
Ntp2674
Rp2675
(dp2676
g1595
g1603
sg1596
g1625
sg325
S'c:/marmalade/7.2/s3e/h/std/wctype.h'
p2677
sbsS'mainMenu.h'
p2678
g299
(g1591
g301
Ntp2679
Rp2680
(dp2681
g1595
g1533
sg1596
g2028
sg325
g1562
sbsS'cstddef'
p2682
g299
(g1591
g301
Ntp2683
Rp2684
(dp2685
g1595
g1603
sg1596
g1604
sg325
S'c:/marmalade/7.2/s3e/h/std/c++/cstddef'
p2686
sbsS'assert.h'
p2687
g299
(g1591
g301
Ntp2688
Rp2689
(dp2690
g1595
g1603
sg1596
g1625
sg325
S'c:/marmalade/7.2/s3e/h/std/assert.h'
p2691
sbsS'mman.h'
p2692
g299
(g1591
g301
Ntp2693
Rp2694
(dp2695
g1595
g1603
sg1596
g1753
sg325
S'c:/marmalade/7.2/s3e/h/std/sys/mman.h'
p2696
sbsS'IwRandom.h'
p2697
g299
(g1591
g301
Ntp2698
Rp2699
(dp2700
g1595
g1406
sg1596
g1632
sg325
g1415
sbsS'libgen.h'
p2701
g299
(g1591
g301
Ntp2702
Rp2703
(dp2704
g1595
g1603
sg1596
g1625
sg325
S'c:/marmalade/7.2/s3e/h/std/libgen.h'
p2705
sbsS'utsname.h'
p2706
g299
(g1591
g301
Ntp2707
Rp2708
(dp2709
g1595
g1603
sg1596
g1753
sg325
S'c:/marmalade/7.2/s3e/h/std/sys/utsname.h'
p2710
sbsS'wait.h'
p2711
g299
(g1591
g301
Ntp2712
Rp2713
(dp2714
g1595
g1603
sg1596
g1753
sg325
S'c:/marmalade/7.2/s3e/h/std/sys/wait.h'
p2715
sbsS'param.h'
p2716
g299
(g1591
g301
Ntp2717
Rp2718
(dp2719
g1595
g1603
sg1596
g1753
sg325
S'c:/marmalade/7.2/s3e/h/std/sys/param.h'
p2720
sbsS'IwDivide.h'
p2721
g299
(g1591
g301
Ntp2722
Rp2723
(dp2724
g1595
g1406
sg1596
g1632
sg325
g1502
sbsS'Iw2DSceneGraphCore.cpp'
p2725
g299
(g1591
g301
Ntp2726
Rp2727
(dp2728
g1595
g1399
sg1596
(lp2729
S"'Marmalade Studio'"
p2730
ag1392
asg325
g1400
sbsS'IwResManager.h'
p2731
g299
(g1591
g301
Ntp2732
Rp2733
(dp2734
g1595
g1318
sg1596
g1879
sg325
g1336
sbsS'IwSoundManager.h'
p2735
g299
(g1591
g301
Ntp2736
Rp2737
(dp2738
g1595
g1093
sg1596
g1643
sg325
g1137
sbsS'cwctype'
p2739
g299
(g1591
g301
Ntp2740
Rp2741
(dp2742
g1595
g1603
sg1596
g1604
sg325
S'c:/marmalade/7.2/s3e/h/std/c++/cwctype'
p2743
sbsS'set'
p2744
g299
(g1591
g301
Ntp2745
Rp2746
(dp2747
g1595
g1603
sg1596
g1604
sg325
S'c:/marmalade/7.2/s3e/h/std/c++/set'
p2748
sbsS'IwGeomSQuat.h'
p2749
g299
(g1591
g301
Ntp2750
Rp2751
(dp2752
g1595
g1250
sg1596
g1657
sg325
g1302
sbsS'locale'
p2753
g299
(g1591
g301
Ntp2754
Rp2755
(dp2756
g1595
g1603
sg1596
g1604
sg325
S'c:/marmalade/7.2/s3e/h/std/c++/locale'
p2757
sbsS'timer.cpp'
p2758
g299
(g1591
g301
Ntp2759
Rp2760
(dp2761
g1595
g1533
sg1596
g1743
sg325
g1548
sbsS'cstdio'
p2762
g299
(g1591
g301
Ntp2763
Rp2764
(dp2765
g1595
g1603
sg1596
g1604
sg325
S'c:/marmalade/7.2/s3e/h/std/c++/cstdio'
p2766
sbsS'cdjpeg.h'
p2767
g299
(g1591
g301
Ntp2768
Rp2769
(dp2770
g1595
g1049
sg1596
g1687
sg325
g1052
sbsS'audio.h'
p2771
g299
(g1591
g301
Ntp2772
Rp2773
(dp2774
g1595
g1533
sg1596
g1743
sg325
g1554
sbsS'IwList.h'
p2775
g299
(g1591
g301
Ntp2776
Rp2777
(dp2778
g1595
g1406
sg1596
g1632
sg325
g1419
sbsS's3eWebView_interface.cpp'
p2779
g299
(g1591
g301
Ntp2780
Rp2781
(dp2782
g1595
g1149
sg1596
g2347
sg325
g1150
sbsS'pauseMenu.cpp'
p2783
g299
(g1591
g301
Ntp2784
Rp2785
(dp2786
g1595
g1533
sg1596
g2028
sg325
g1572
sbsS'inttypes.h'
p2787
g299
(g1591
g301
Ntp2788
Rp2789
(dp2790
g1595
g1603
sg1596
g1625
sg325
S'c:/marmalade/7.2/s3e/h/std/inttypes.h'
p2791
sbsS'dirent.h'
p2792
g299
(g1591
g301
Ntp2793
Rp2794
(dp2795
g1595
g1603
sg1596
g1625
sg325
S'c:/marmalade/7.2/s3e/h/std/dirent.h'
p2796
sbsS'IwGeomVec3.h'
p2797
g299
(g1591
g301
Ntp2798
Rp2799
(dp2800
g1595
g1250
sg1596
g1657
sg325
g1285
sbsS'transupp.h'
p2801
g299
(g1591
g301
Ntp2802
Rp2803
(dp2804
g1595
g1049
sg1596
g1687
sg325
g1056
sbsS'IwMath.h'
p2805
g299
(g1591
g301
Ntp2806
Rp2807
(dp2808
g1595
g1406
sg1596
g1632
sg325
g1425
sbsS'IwGeomQuat.h'
p2809
g299
(g1591
g301
Ntp2810
Rp2811
(dp2812
g1595
g1250
sg1596
g1657
sg325
g1304
sbsS'glplatform.h'
p2813
g299
(g1591
g301
Ntp2814
Rp2815
(dp2816
g1595
g1603
sg1596
g1965
sg325
S'c:/marmalade/7.2/s3e/h/GLES/glplatform.h'
p2817
sbsS'iwgl.config.txt'
p2818
g299
(g1591
g301
Ntp2819
Rp2820
(dp2821
g1595
g1204
sg1596
g1613
sg325
g1210
sbsS'bitset'
p2822
g299
(g1591
g301
Ntp2823
Rp2824
(dp2825
g1595
g1603
sg1596
g1604
sg325
S'c:/marmalade/7.2/s3e/h/std/c++/bitset'
p2826
sbsS'alloca.h'
p2827
g299
(g1591
g301
Ntp2828
Rp2829
(dp2830
g1595
g1603
sg1596
g1625
sg325
S'c:/marmalade/7.2/s3e/h/std/alloca.h'
p2831
sbsS'IwChar.h'
p2832
g299
(g1591
g301
Ntp2833
Rp2834
(dp2835
g1595
g1406
sg1596
g1632
sg325
g1433
sbsS'IwResHandlerMTL.h'
p2836
g299
(g1591
g301
Ntp2837
Rp2838
(dp2839
g1595
g1342
sg1596
g1733
sg325
g1356
sbsS'IwRuntime.h'
p2840
g299
(g1591
g301
Ntp2841
Rp2842
(dp2843
g1595
g1406
sg1596
g1632
sg325
g1459
sbsS's3eFlurry.h'
p2844
g299
(g1591
g301
Ntp2845
Rp2846
(dp2847
g1595
g1178
sg1596
g1843
sg325
g1181
sbsS'limits'
p2848
g299
(g1591
g301
Ntp2849
Rp2850
(dp2851
g1595
g1603
sg1596
g1604
sg325
S'c:/marmalade/7.2/s3e/h/std/c++/limits'
p2852
sbsS'IwGeomBBox.h'
p2853
g299
(g1591
g301
Ntp2854
Rp2855
(dp2856
g1595
g1250
sg1596
g1657
sg325
g1277
sbsS's3eContacts.h'
p2857
g299
(g1591
g301
Ntp2858
Rp2859
(dp2860
g1595
g1603
sg1596
g1619
sg325
S'c:/marmalade/7.2/s3e/h/s3eContacts.h'
p2861
sbsS's3eLicense.h'
p2862
g299
(g1591
g301
Ntp2863
Rp2864
(dp2865
g1595
g1603
sg1596
g1619
sg325
S'c:/marmalade/7.2/s3e/h/s3eLicense.h'
p2866
sbsS'iwgx.config.txt'
p2867
g299
(g1591
g301
Ntp2868
Rp2869
(dp2870
g1595
g1342
sg1596
g1733
sg325
g1351
sbsS'IwTextParser.h'
p2871
g299
(g1591
g301
Ntp2872
Rp2873
(dp2874
g1595
g1406
sg1596
g1632
sg325
g1437
sbsS's3eTimer.h'
p2875
g299
(g1591
g301
Ntp2876
Rp2877
(dp2878
g1595
g1603
sg1596
g1619
sg325
S'c:/marmalade/7.2/s3e/h/s3eTimer.h'
p2879
sbsS'IwGeomVec.h'
p2880
g299
(g1591
g301
Ntp2881
Rp2882
(dp2883
g1595
g1250
sg1596
g1657
sg325
g1308
sbsS'IwSerialise.h'
p2884
g299
(g1591
g301
Ntp2885
Rp2886
(dp2887
g1595
g1406
sg1596
g1632
sg325
g1477
sbsS'cstdarg'
p2888
g299
(g1591
g301
Ntp2889
Rp2890
(dp2891
g1595
g1603
sg1596
g1604
sg325
S'c:/marmalade/7.2/s3e/h/std/c++/cstdarg'
p2892
sbsS'gl2ext.h'
p2893
g299
(g1591
g301
Ntp2894
Rp2895
(dp2896
g1595
g1603
sg1596
g1871
sg325
S'c:/marmalade/7.2/s3e/h/GLES2/gl2ext.h'
p2897
sbsS'IwResHandler.h'
p2898
g299
(g1591
g301
Ntp2899
Rp2900
(dp2901
g1595
g1318
sg1596
g1879
sg325
g1319
sbsS's3eSound.h'
p2902
g299
(g1591
g301
Ntp2903
Rp2904
(dp2905
g1595
g1603
sg1596
g1619
sg325
S'c:/marmalade/7.2/s3e/h/s3eSound.h'
p2906
sbsS's3eIOSBackgroundAudio.h'
p2907
g299
(g1591
g301
Ntp2908
Rp2909
(dp2910
g1595
g1603
sg1596
g1832
sg325
S'c:/marmalade/7.2/s3e/h/ext/s3eIOSBackgroundAudio.h'
p2911
sbsS'exception.h'
p2912
g299
(g1591
g301
Ntp2913
Rp2914
(dp2915
g1595
g1603
sg1596
g1604
sg325
S'c:/marmalade/7.2/s3e/h/std/c++/exception.h'
p2916
sbsS'iwgeom.config.txt'
p2917
g299
(g1591
g301
Ntp2918
Rp2919
(dp2920
g1595
g1250
sg1596
g1657
sg325
g1289
sbsS'iwgx.mkf'
p2921
g299
(g1591
g301
Ntp2922
Rp2923
(dp2924
g1595
g1355
sg1596
g1733
sg325
g1353
sbsS'gl.h'
p2925
g299
(g1591
g301
Ntp2926
Rp2927
(dp2928
g1595
g1603
sg1596
g1965
sg325
S'c:/marmalade/7.2/s3e/h/GLES/gl.h'
p2929
sbsS'zlib.h'
p2930
g299
(g1591
g301
Ntp2931
Rp2932
(dp2933
g1595
g1511
sg1596
g2306
sg325
g1512
sbsS's3eFacebook.defines.txt'
p2934
g299
(g1591
g301
Ntp2935
Rp2936
(dp2937
g1595
g1163
sg1596
(lp2938
g1141
ag1157
ag1159
asg325
g1164
sbsS'iwgl.mkf'
p2939
g299
(g1591
g301
Ntp2940
Rp2941
(dp2942
g1595
g1207
sg1596
g1613
sg325
g1205
sbsS'IwColour.h'
p2943
g299
(g1591
g301
Ntp2944
Rp2945
(dp2946
g1595
g1342
sg1596
g1733
sg325
g1384
sbsS'types.h'
p2947
g299
(g1591
g301
Ntp2948
Rp2949
(dp2950
g1595
g1603
sg1596
g1753
sg325
S'c:/marmalade/7.2/s3e/h/std/sys/types.h'
p2951
sbsS'ifaddrs.h'
p2952
g299
(g1591
g301
Ntp2953
Rp2954
(dp2955
g1595
g1603
sg1596
g1625
sg325
S'c:/marmalade/7.2/s3e/h/std/ifaddrs.h'
p2956
sbsS'strstream'
p2957
g299
(g1591
g301
Ntp2958
Rp2959
(dp2960
g1595
g1603
sg1596
g1604
sg325
S'c:/marmalade/7.2/s3e/h/std/c++/strstream'
p2961
sbsS'IwTween.cpp'
p2962
g299
(g1591
g301
Ntp2963
Rp2964
(dp2965
g1595
g1524
sg1596
g2134
sg325
g1522
sbsS'exception'
p2966
g299
(g1591
g301
Ntp2967
Rp2968
(dp2969
g1595
g1603
sg1596
g1604
sg325
S'c:/marmalade/7.2/s3e/h/std/c++/exception'
p2970
sbsS's3eFacebook_interface.cpp'
p2971
g299
(g1591
g301
Ntp2972
Rp2973
(dp2974
g1595
g1163
sg1596
g2938
sg325
g1161
sbsS'rlocks.h'
p2975
g299
(g1591
g301
Ntp2976
Rp2977
(dp2978
g1595
g1603
sg1596
g1604
sg325
S'c:/marmalade/7.2/s3e/h/std/c++/rlocks.h'
p2979
sbsS'ioctl.h'
p2980
g299
(g1591
g301
Ntp2981
Rp2982
(dp2983
g1595
g1603
sg1596
g1753
sg325
S'c:/marmalade/7.2/s3e/h/std/sys/ioctl.h'
p2984
sbsS'sem.h'
p2985
g299
(g1591
g301
Ntp2986
Rp2987
(dp2988
g1595
g1603
sg1596
g1753
sg325
S'c:/marmalade/7.2/s3e/h/std/sys/sem.h'
p2989
sbsS'jinclude.h'
p2990
g299
(g1591
g301
Ntp2991
Rp2992
(dp2993
g1595
g1049
sg1596
g1687
sg325
g1047
sbsS's3eFlurry_interface.cpp'
p2994
g299
(g1591
g301
Ntp2995
Rp2996
(dp2997
g1595
g1178
sg1596
g2495
sg325
g1176
sbsS's3eWebView.h'
p2998
g299
(g1591
g301
Ntp2999
Rp3000
(dp3001
g1595
g1149
sg1596
(lp3002
g2348
ag1143
asg325
g1152
sbsS'IwEvent.h'
p3003
g299
(g1591
g301
Ntp3004
Rp3005
(dp3006
g1595
g1406
sg1596
g1632
sg325
g1435
sbsS'IwOptimiseSize.h'
p3007
g299
(g1591
g301
Ntp3008
Rp3009
(dp3010
g1595
g1406
sg1596
g1632
sg325
g1439
sbsS'iwgxfont_public.defines.txt'
p3011
g299
(g1591
g301
Ntp3012
Rp3013
(dp3014
g1595
g1228
sg1596
g1597
sg325
g1233
sbsS'iconv.h'
p3015
g299
(g1591
g301
Ntp3016
Rp3017
(dp3018
g1595
g1603
sg1596
g1625
sg325
S'c:/marmalade/7.2/s3e/h/std/iconv.h'
p3019
sbsS's3eDevice.h'
p3020
g299
(g1591
g301
Ntp3021
Rp3022
(dp3023
g1595
g1603
sg1596
g1619
sg325
S'c:/marmalade/7.2/s3e/h/s3eDevice.h'
p3024
sbsS'IwGeomSphere.h'
p3025
g299
(g1591
g301
Ntp3026
Rp3027
(dp3028
g1595
g1250
sg1596
g1657
sg325
g1306
sbsS'tiniconv.mkf'
p3029
g299
(g1591
g301
Ntp3030
Rp3031
(dp3032
g1595
g1088
sg1596
g2091
sg325
g1086
sbsS'iw2dscenegraph.defines.txt'
p3033
g299
(g1591
g301
Ntp3034
Rp3035
(dp3036
g1595
g1192
sg1596
g1921
sg325
g1198
sbsS'jdct.h'
p3037
g299
(g1591
g301
Ntp3038
Rp3039
(dp3040
g1595
g1049
sg1596
g1687
sg325
g1062
sbsS'cctype'
p3041
g299
(g1591
g301
Ntp3042
Rp3043
(dp3044
g1595
g1603
sg1596
g1604
sg325
S'c:/marmalade/7.2/s3e/h/std/c++/cctype'
p3045
sbsS'IwSoundADPCM.cpp'
p3046
g299
(g1591
g301
Ntp3047
Rp3048
(dp3049
g1595
g1093
sg1596
g1643
sg325
g1091
sbsS's3eConfig.h'
p3050
g299
(g1591
g301
Ntp3051
Rp3052
(dp3053
g1595
g1603
sg1596
g1619
sg325
S'c:/marmalade/7.2/s3e/h/s3eConfig.h'
p3054
sbsS'IwHashString.h'
p3055
g299
(g1591
g301
Ntp3056
Rp3057
(dp3058
g1595
g1406
sg1596
g1632
sg325
g1504
sbsS'stat.h'
p3059
g299
(g1591
g301
Ntp3060
Rp3061
(dp3062
g1595
g1603
sg1596
g1753
sg325
S'c:/marmalade/7.2/s3e/h/std/sys/stat.h'
p3063
sbsS'byteswap.h'
p3064
g299
(g1591
g301
Ntp3065
Rp3066
(dp3067
g1595
g1603
sg1596
g1625
sg325
S'c:/marmalade/7.2/s3e/h/std/byteswap.h'
p3068
sbsS'iwresmanager.mkf'
p3069
g299
(g1591
g301
Ntp3070
Rp3071
(dp3072
g1595
g1323
sg1596
g1879
sg325
g1321
sbsS'IwUtilInitTerm.h'
p3073
g299
(g1591
g301
Ntp3074
Rp3075
(dp3076
g1595
g1406
sg1596
g1632
sg325
g1471
sbsS'pthread_1.h'
p3077
g299
(g1591
g301
Ntp3078
Rp3079
(dp3080
g1595
g1603
sg1596
g1604
sg325
S'c:/marmalade/7.2/s3e/h/std/c++/pthread.h'
p3081
sbsS'IwMemBucket.h'
p3082
g299
(g1591
g301
Ntp3083
Rp3084
(dp3085
g1595
g1406
sg1596
g1632
sg325
g1487
sbsS'complex'
p3086
g299
(g1591
g301
Ntp3087
Rp3088
(dp3089
g1595
g1603
sg1596
g1604
sg325
S'c:/marmalade/7.2/s3e/h/std/c++/complex'
p3090
sbsS'game.cpp'
p3091
g299
(g1591
g301
Ntp3092
Rp3093
(dp3094
g1595
g1533
sg1596
g2028
sg325
g1570
sbsS'algorithm'
p3095
g299
(g1591
g301
Ntp3096
Rp3097
(dp3098
g1595
g1603
sg1596
g1604
sg325
S'c:/marmalade/7.2/s3e/h/std/c++/algorithm'
p3099
sbsS's3e.icf'
p3100
g299
(g1591
g301
Ntp3101
Rp3102
(dp3103
g1595
g1603
sg1596
g1619
sg325
S'c:/marmalade/7.2/s3e/s3e.icf'
p3104
sbsS'IwVariableBitField.h'
p3105
g299
(g1591
g301
Ntp3106
Rp3107
(dp3108
g1595
g1406
sg1596
g1632
sg325
g1449
sbsS'resources.h'
p3109
g299
(g1591
g301
Ntp3110
Rp3111
(dp3112
g1595
g1533
sg1596
g1743
sg325
g1546
sbsS'IwGxFontState.h'
p3113
g299
(g1591
g301
Ntp3114
Rp3115
(dp3116
g1595
g1228
sg1596
g1597
sg325
g1237
sbsS'stdio.h'
p3117
g299
(g1591
g301
Ntp3118
Rp3119
(dp3120
g1595
g1603
sg1596
g1625
sg325
S'c:/marmalade/7.2/s3e/h/std/stdio.h'
p3121
sbsS'jmemsys.h'
p3122
g299
(g1591
g301
Ntp3123
Rp3124
(dp3125
g1595
g1049
sg1596
g1687
sg325
g1066
sbsS'ios'
p3126
g299
(g1591
g301
Ntp3127
Rp3128
(dp3129
g1595
g1603
sg1596
g1604
sg325
S'c:/marmalade/7.2/s3e/h/std/c++/ios'
p3130
sbsS'IwTween.h'
p3131
g299
(g1591
g301
Ntp3132
Rp3133
(dp3134
g1595
g1524
sg1596
g2134
sg325
g1525
sbsS'stack'
p3135
g299
(g1591
g301
Ntp3136
Rp3137
(dp3138
g1595
g1603
sg1596
g1604
sg325
S'c:/marmalade/7.2/s3e/h/std/c++/stack'
p3139
sbsS'IwSoundParams.h'
p3140
g299
(g1591
g301
Ntp3141
Rp3142
(dp3143
g1595
g1093
sg1596
g1643
sg325
g1139
sbsS'new.h'
p3144
g299
(g1591
g301
Ntp3145
Rp3146
(dp3147
g1595
g1603
sg1596
g1604
sg325
S'c:/marmalade/7.2/s3e/h/std/c++/new.h'
p3148
sbsS's3eEMail.h'
p3149
g299
(g1591
g301
Ntp3150
Rp3151
(dp3152
g1595
g1603
sg1596
g1832
sg325
S'c:/marmalade/7.2/s3e/h/ext/s3eEMail.h'
p3153
sbsS's3eVideo.h'
p3154
g299
(g1591
g301
Ntp3155
Rp3156
(dp3157
g1595
g1603
sg1596
g1619
sg325
S'c:/marmalade/7.2/s3e/h/s3eVideo.h'
p3158
sbsS'pngconf.h'
p3159
g299
(g1591
g301
Ntp3160
Rp3161
(dp3162
g1595
g1038
sg1596
g2371
sg325
g1039
sbsS'pwd.h'
p3163
g299
(g1591
g301
Ntp3164
Rp3165
(dp3166
g1595
g1603
sg1596
g1625
sg325
S'c:/marmalade/7.2/s3e/h/std/pwd.h'
p3167
sbsS'IwClip.h'
p3168
g299
(g1591
g301
Ntp3169
Rp3170
(dp3171
g1595
g1342
sg1596
g1733
sg325
g1364
sbsS'IwSoundInst.h'
p3172
g299
(g1591
g301
Ntp3173
Rp3174
(dp3175
g1595
g1093
sg1596
g1643
sg325
g1130
sbsS'iwresmanager.config.txt'
p3176
g299
(g1591
g301
Ntp3177
Rp3178
(dp3179
g1595
g1318
sg1596
g1879
sg325
g1328
sbsS'IwGxShaderTechnique.h'
p3180
g299
(g1591
g301
Ntp3181
Rp3182
(dp3183
g1595
g1342
sg1596
g1733
sg325
g1386
sbsS'IwCore.h'
p3184
g299
(g1591
g301
Ntp3185
Rp3186
(dp3187
g1595
g1406
sg1596
g1632
sg325
g1404
sbsS'cfloat'
p3188
g299
(g1591
g301
Ntp3189
Rp3190
(dp3191
g1595
g1603
sg1596
g1604
sg325
S'c:/marmalade/7.2/s3e/h/std/c++/cfloat'
p3192
sbsS'IwGeomMat2D.h'
p3193
g299
(g1591
g301
Ntp3194
Rp3195
(dp3196
g1595
g1250
sg1596
g1657
sg325
g1255
sbsS'IwAllocator.h'
p3197
g299
(g1591
g301
Ntp3198
Rp3199
(dp3200
g1595
g1406
sg1596
g1632
sg325
g1453
sbsS'IwPath.h'
p3201
g299
(g1591
g301
Ntp3202
Rp3203
(dp3204
g1595
g1406
sg1596
g1632
sg325
g1479
sbsS'iwgxfont.mkf'
p3205
g299
(g1591
g301
Ntp3206
Rp3207
(dp3208
g1595
g1243
sg1596
g1597
sg325
g1241
sbsS'IwTexture.h'
p3209
g299
(g1591
g301
Ntp3210
Rp3211
(dp3212
g1595
g1342
sg1596
g1733
sg325
g1380
sbsS's3eAccelerometer.h'
p3213
g299
(g1591
g301
Ntp3214
Rp3215
(dp3216
g1595
g1603
sg1596
g1619
sg325
S'c:/marmalade/7.2/s3e/h/s3eAccelerometer.h'
p3217
sbsS'setjmp.h'
p3218
g299
(g1591
g301
Ntp3219
Rp3220
(dp3221
g1595
g1603
sg1596
g1625
sg325
S'c:/marmalade/7.2/s3e/h/std/setjmp.h'
p3222
sbsS's3eFacebook.h'
p3223
g299
(g1591
g301
Ntp3224
Rp3225
(dp3226
g1595
g1163
sg1596
(lp3227
g1141
ag1157
ag1034
asg325
g1167
sbsS'IwSoundParams.cpp'
p3228
g299
(g1591
g301
Ntp3229
Rp3230
(dp3231
g1595
g1093
sg1596
g1643
sg325
g1118
sbsS'IwFile.h'
p3232
g299
(g1591
g301
Ntp3233
Rp3234
(dp3235
g1595
g1406
sg1596
g1632
sg325
g1445
sbsS'IwTextParseable.h'
p3236
g299
(g1591
g301
Ntp3237
Rp3238
(dp3239
g1595
g1406
sg1596
g1632
sg325
g1498
sbsS'istream.h'
p3240
g299
(g1591
g301
Ntp3241
Rp3242
(dp3243
g1595
g1603
sg1596
g1604
sg325
S'c:/marmalade/7.2/s3e/h/std/c++/istream.h'
p3244
sbsS'gem.cpp'
p3245
g299
(g1591
g301
Ntp3246
Rp3247
(dp3248
g1595
g1533
sg1596
g1771
sg325
g1578
sbsS'stdint.h'
p3249
g299
(g1591
g301
Ntp3250
Rp3251
(dp3252
g1595
g1603
sg1596
g1625
sg325
S'c:/marmalade/7.2/s3e/h/std/stdint.h'
p3253
sbsS'semaphore.h'
p3254
g299
(g1591
g301
Ntp3255
Rp3256
(dp3257
g1595
g1603
sg1596
g1625
sg325
S'c:/marmalade/7.2/s3e/h/std/semaphore.h'
p3258
sbsS'ctime'
p3259
g299
(g1591
g301
Ntp3260
Rp3261
(dp3262
g1595
g1603
sg1596
g1604
sg325
S'c:/marmalade/7.2/s3e/h/std/c++/ctime'
p3263
sbsS'sstream'
p3264
g299
(g1591
g301
Ntp3265
Rp3266
(dp3267
g1595
g1603
sg1596
g1604
sg325
S'c:/marmalade/7.2/s3e/h/std/c++/sstream'
p3268
sbsS'IwGeomFBBox.h'
p3269
g299
(g1591
g301
Ntp3270
Rp3271
(dp3272
g1595
g1250
sg1596
g1657
sg325
g1312
sbsS'IwDebugPrim.h'
p3273
g299
(g1591
g301
Ntp3274
Rp3275
(dp3276
g1595
g1342
sg1596
g1733
sg325
g1370
sbsS'IwGxFontContainer.h'
p3277
g299
(g1591
g301
Ntp3278
Rp3279
(dp3280
g1595
g1228
sg1596
g1597
sg325
g1231
sbsS'IwGeomSVec3.h'
p3281
g299
(g1591
g301
Ntp3282
Rp3283
(dp3284
g1595
g1250
sg1596
g1657
sg325
g1275
sbsS'timer.h'
p3285
g299
(g1591
g301
Ntp3286
Rp3287
(dp3288
g1595
g1533
sg1596
g1743
sg325
g1542
sbsS'iw2dscenegraphcore.mkf'
p3289
g299
(g1591
g301
Ntp3290
Rp3291
(dp3292
g1595
g1396
sg1596
g2729
sg325
g1394
sbsS's3eExt.h'
p3293
g299
(g1591
g301
Ntp3294
Rp3295
(dp3296
g1595
g1603
sg1596
g1619
sg325
S'c:/marmalade/7.2/s3e/h/s3eExt.h'
p3297
sbsS'IwGeomFVec3.h'
p3298
g299
(g1591
g301
Ntp3299
Rp3300
(dp3301
g1595
g1250
sg1596
g1657
sg325
g1265
sbsS'streambuf'
p3302
g299
(g1591
g301
Ntp3303
Rp3304
(dp3305
g1595
g1603
sg1596
g1604
sg325
S'c:/marmalade/7.2/s3e/h/std/c++/streambuf'
p3306
sbsS's3eMetrics.h'
p3307
g299
(g1591
g301
Ntp3308
Rp3309
(dp3310
g1595
g1603
sg1596
g1832
sg325
S'c:/marmalade/7.2/s3e/h/ext/s3eMetrics.h'
p3311
sbsS'IwGxFont.h'
p3312
g299
(g1591
g301
Ntp3313
Rp3314
(dp3315
g1595
g1228
sg1596
g1597
sg325
g1226
sbsS's3eSecureStorage.h'
p3316
g299
(g1591
g301
Ntp3317
Rp3318
(dp3319
g1595
g1603
sg1596
g1619
sg325
S'c:/marmalade/7.2/s3e/h/s3eSecureStorage.h'
p3320
sbsS'string.h'
p3321
g299
(g1591
g301
Ntp3322
Rp3323
(dp3324
g1595
g1603
sg1596
g1625
sg325
S'c:/marmalade/7.2/s3e/h/std/string.h'
p3325
sbsS'IwResource.h'
p3326
g299
(g1591
g301
Ntp3327
Rp3328
(dp3329
g1595
g1406
sg1596
g1632
sg325
g1409
sbsS'IwGeomSVec2.h'
p3330
g299
(g1591
g301
Ntp3331
Rp3332
(dp3333
g1595
g1250
sg1596
g1657
sg325
g1271
sbsS'libjpeg.mkf'
p3334
g299
(g1591
g301
Ntp3335
Rp3336
(dp3337
g1595
g1078
sg1596
(lp3338
g1044
asg325
g1076
sbsS'IwGxDebug.h'
p3339
g299
(g1591
g301
Ntp3340
Rp3341
(dp3342
g1595
g1342
sg1596
g1733
sg325
g1368
sbsS'float.h'
p3343
g299
(g1591
g301
Ntp3344
Rp3345
(dp3346
g1595
g1603
sg1596
g1625
sg325
S'c:/marmalade/7.2/s3e/h/std/float.h'
p3347
sbsS'iomanip.h'
p3348
g299
(g1591
g301
Ntp3349
Rp3350
(dp3351
g1595
g1603
sg1596
g1604
sg325
S'c:/marmalade/7.2/s3e/h/std/c++/iomanip.h'
p3352
sbsS'IwKeymap.h'
p3353
g299
(g1591
g301
Ntp3354
Rp3355
(dp3356
g1595
g1406
sg1596
g1632
sg325
g1492
sbsS'IwDebug.h'
p3357
g299
(g1591
g301
Ntp3358
Rp3359
(dp3360
g1595
g1406
sg1596
g1632
sg325
g1500
sbsS'IwOptimiseThumb.h'
p3361
g299
(g1591
g301
Ntp3362
Rp3363
(dp3364
g1595
g1406
sg1596
g1632
sg325
g1463
sbsS'IwGeomMenu.h'
p3365
g299
(g1591
g301
Ntp3366
Rp3367
(dp3368
g1595
g1250
sg1596
g1657
sg325
g1257
sbsS'IwDivTable.h'
p3369
g299
(g1591
g301
Ntp3370
Rp3371
(dp3372
g1595
g1406
sg1596
g1632
sg325
g1427
sbsS'ctype.h'
p3373
g299
(g1591
g301
Ntp3374
Rp3375
(dp3376
g1595
g1603
sg1596
g1625
sg325
S'c:/marmalade/7.2/s3e/h/std/ctype.h'
p3377
sbsS'mainMenu.cpp'
p3378
g299
(g1591
g301
Ntp3379
Rp3380
(dp3381
g1595
g1533
sg1596
g2028
sg325
g1564
sbsS'IwResGroup.h'
p3382
g299
(g1591
g301
Ntp3383
Rp3384
(dp3385
g1595
g1318
sg1596
g1879
sg325
g1324
sbsS'signal_1.h'
p3386
g299
(g1591
g301
Ntp3387
Rp3388
(dp3389
g1595
g1603
sg1596
g1753
sg325
S'c:/marmalade/7.2/s3e/h/std/sys/signal.h'
p3390
sbsS'IwSoundData.cpp'
p3391
g299
(g1591
g301
Ntp3392
Rp3393
(dp3394
g1595
g1093
sg1596
g1643
sg325
g1096
sbsS'jerror.h'
p3395
g299
(g1591
g301
Ntp3396
Rp3397
(dp3398
g1595
g1049
sg1596
g1687
sg325
g1070
sbsS'shm.h'
p3399
g299
(g1591
g301
Ntp3400
Rp3401
(dp3402
g1595
g1603
sg1596
g1753
sg325
S'c:/marmalade/7.2/s3e/h/std/sys/shm.h'
p3403
sbsS'IwManagedList.h'
p3404
g299
(g1591
g301
Ntp3405
Rp3406
(dp3407
g1595
g1406
sg1596
g1632
sg325
g1417
sbsS'prctl.h'
p3408
g299
(g1591
g301
Ntp3409
Rp3410
(dp3411
g1595
g1603
sg1596
g1753
sg325
S'c:/marmalade/7.2/s3e/h/std/sys/prctl.h'
p3412
sbsS's3eCamera.h'
p3413
g299
(g1591
g301
Ntp3414
Rp3415
(dp3416
g1595
g1603
sg1596
g1619
sg325
S'c:/marmalade/7.2/s3e/h/s3eCamera.h'
p3417
sbsS'utility'
p3418
g299
(g1591
g301
Ntp3419
Rp3420
(dp3421
g1595
g1603
sg1596
g1604
sg325
S'c:/marmalade/7.2/s3e/h/std/c++/utility'
p3422
sbsS'input.h'
p3423
g299
(g1591
g301
Ntp3424
Rp3425
(dp3426
g1595
g1533
sg1596
g1743
sg325
g1558
sbsS's3ewebview.mkf'
p3427
g299
(g1591
g301
Ntp3428
Rp3429
(dp3430
g1595
g1156
sg1596
g3002
sg325
g1154
sbsS'IwGeomLegacy.h'
p3431
g299
(g1591
g301
Ntp3432
Rp3433
(dp3434
g1595
g1250
sg1596
g1657
sg325
g1298
sbsS'IwTPage.h'
p3435
g299
(g1591
g301
Ntp3436
Rp3437
(dp3438
g1595
g1342
sg1596
g1733
sg325
g1340
sbsS'IwResSerialise.h'
p3439
g299
(g1591
g301
Ntp3440
Rp3441
(dp3442
g1595
g1318
sg1596
g1879
sg325
g1334
sbsS's3eCrypto.h'
p3443
g299
(g1591
g301
Ntp3444
Rp3445
(dp3446
g1595
g1603
sg1596
g1619
sg325
S'c:/marmalade/7.2/s3e/h/s3eCrypto.h'
p3447
sbsS's3eKeyboard.h'
p3448
g299
(g1591
g301
Ntp3449
Rp3450
(dp3451
g1595
g1603
sg1596
g1619
sg325
S'c:/marmalade/7.2/s3e/h/s3eKeyboard.h'
p3452
sbsS'fcntl.h'
p3453
g299
(g1591
g301
Ntp3454
Rp3455
(dp3456
g1595
g1603
sg1596
g1625
sg325
S'c:/marmalade/7.2/s3e/h/std/fcntl.h'
p3457
sbsS'Iw2DSceneGraphCore.h'
p3458
g299
(g1591
g301
Ntp3459
Rp3460
(dp3461
g1595
g1399
sg1596
g2729
sg325
g1397
sbsS'memory.h'
p3462
g299
(g1591
g301
Ntp3463
Rp3464
(dp3465
g1595
g1603
sg1596
g1625
sg325
S'c:/marmalade/7.2/s3e/h/std/memory.h'
p3466
sbsS'pthread.h'
p3467
g299
(g1591
g301
Ntp3468
Rp3469
(dp3470
g1595
g1603
sg1596
g1625
sg325
S'c:/marmalade/7.2/s3e/h/std/pthread.h'
p3471
sbsS'IwGeomIntersect.h'
p3472
g299
(g1591
g301
Ntp3473
Rp3474
(dp3475
g1595
g1250
sg1596
g1657
sg325
g1300
sbsS'IwTextParserITX.h'
p3476
g299
(g1591
g301
Ntp3477
Rp3478
(dp3479
g1595
g1406
sg1596
g1632
sg325
g1429
sbsS'IwClip.inl'
p3480
g299
(g1591
g301
Ntp3481
Rp3482
(dp3483
g1595
g1342
sg1596
g1733
sg325
g1376
sbsS'Iw2DSceneGraph.cpp'
p3484
g299
(g1591
g301
Ntp3485
Rp3486
(dp3487
g1595
g1192
sg1596
g1921
sg325
g1190
sbsS'ostream.h'
p3488
g299
(g1591
g301
Ntp3489
Rp3490
(dp3491
g1595
g1603
sg1596
g1604
sg325
S'c:/marmalade/7.2/s3e/h/std/c++/ostream.h'
p3492
sbsS'stl_user_config.h'
p3493
g299
(g1591
g301
Ntp3494
Rp3495
(dp3496
g1595
g1603
sg1596
g1604
sg325
S'c:/marmalade/7.2/s3e/h/std/c++/stl_user_config.h'
p3497
sbsS'IwProfileMenu.h'
p3498
g299
(g1591
g301
Ntp3499
Rp3500
(dp3501
g1595
g1406
sg1596
g1632
sg325
g1421
sbsS'MarmaladeVersion.h'
p3502
g299
(g1591
g301
Ntp3503
Rp3504
(dp3505
g1595
g1603
sg1596
g1619
sg325
S'c:/marmalade/7.2/s3e/h/MarmaladeVersion.h'
p3506
sbsS'IwResHandlerWAV.h'
p3507
g299
(g1591
g301
Ntp3508
Rp3509
(dp3510
g1595
g1093
sg1596
g1643
sg325
g1120
sbsS'ios.h'
p3511
g299
(g1591
g301
Ntp3512
Rp3513
(dp3514
g1595
g1603
sg1596
g1604
sg325
S'c:/marmalade/7.2/s3e/h/std/c++/ios.h'
p3515
sbsS'IwImageHelper.h'
p3516
g299
(g1591
g301
Ntp3517
Rp3518
(dp3519
g1595
g1406
sg1596
g1632
sg325
g1494
sbsS'hash_set'
p3520
g299
(g1591
g301
Ntp3521
Rp3522
(dp3523
g1595
g1603
sg1596
g1604
sg325
S'c:/marmalade/7.2/s3e/h/std/c++/hash_set'
p3524
sbsS'IwGeomFQuat.h'
p3525
g299
(g1591
g301
Ntp3526
Rp3527
(dp3528
g1595
g1250
sg1596
g1657
sg325
g1283
sbsS'jmorecfg.h'
p3529
g299
(g1591
g301
Ntp3530
Rp3531
(dp3532
g1595
g1049
sg1596
g1687
sg325
g1068
sbsS'eglplatform.h'
p3533
g299
(g1591
g301
Ntp3534
Rp3535
(dp3536
g1595
g1603
sg1596
g1957
sg325
S'c:/marmalade/7.2/s3e/h/EGL/eglplatform.h'
p3537
sbsS'cmath'
p3538
g299
(g1591
g301
Ntp3539
Rp3540
(dp3541
g1595
g1603
sg1596
g1604
sg325
S'c:/marmalade/7.2/s3e/h/std/c++/cmath'
p3542
sbsS'math_gcc.h'
p3543
g299
(g1591
g301
Ntp3544
Rp3545
(dp3546
g1595
g1603
sg1596
g1625
sg325
S'c:/marmalade/7.2/s3e/h/std/math_gcc.h'
p3547
sbsS's3eMemory.h'
p3548
g299
(g1591
g301
Ntp3549
Rp3550
(dp3551
g1595
g1603
sg1596
g1619
sg325
S'c:/marmalade/7.2/s3e/h/s3eMemory.h'
p3552
sbsS'strings.h'
p3553
g299
(g1591
g301
Ntp3554
Rp3555
(dp3556
g1595
g1603
sg1596
g1625
sg325
S'c:/marmalade/7.2/s3e/h/std/strings.h'
p3557
sbsS's3eFile.h'
p3558
g299
(g1591
g301
Ntp3559
Rp3560
(dp3561
g1595
g1603
sg1596
g1619
sg325
S'c:/marmalade/7.2/s3e/h/s3eFile.h'
p3562
sbsS'IwGxTypes.h'
p3563
g299
(g1591
g301
Ntp3564
Rp3565
(dp3566
g1595
g1342
sg1596
g1733
sg325
g1388
sbsS'cerrno'
p3567
g299
(g1591
g301
Ntp3568
Rp3569
(dp3570
g1595
g1603
sg1596
g1604
sg325
S'c:/marmalade/7.2/s3e/h/std/c++/cerrno'
p3571
sbsS'IwSoundManager.cpp'
p3572
g299
(g1591
g301
Ntp3573
Rp3574
(dp3575
g1595
g1093
sg1596
g1643
sg325
g1132
sbsS'main.h'
p3576
g299
(g1591
g301
Ntp3577
Rp3578
(dp3579
g1595
g1533
sg1596
g1942
sg325
g1536
sbsS'soundengine.mkf'
p3580
g299
(g1591
g301
Ntp3581
Rp3582
(dp3583
g1595
g1136
sg1596
g1643
sg325
g1134
sbsS'resource.h'
p3584
g299
(g1591
g301
Ntp3585
Rp3586
(dp3587
g1595
g1603
sg1596
g1753
sg325
S'c:/marmalade/7.2/s3e/h/std/sys/resource.h'
p3588
sbsS'clocale'
p3589
g299
(g1591
g301
Ntp3590
Rp3591
(dp3592
g1595
g1603
sg1596
g1604
sg325
S'c:/marmalade/7.2/s3e/h/std/c++/clocale'
p3593
sbsS'csetjmp'
p3594
g299
(g1591
g301
Ntp3595
Rp3596
(dp3597
g1595
g1603
sg1596
g1604
sg325
S'c:/marmalade/7.2/s3e/h/std/c++/csetjmp'
p3598
sbsS'netdb.h'
p3599
g299
(g1591
g301
Ntp3600
Rp3601
(dp3602
g1595
g1603
sg1596
g1625
sg325
S'c:/marmalade/7.2/s3e/h/std/netdb.h'
p3603
sbsS's3eAndroidJNI.h'
p3604
g299
(g1591
g301
Ntp3605
Rp3606
(dp3607
g1595
g1603
sg1596
g1832
sg325
S'c:/marmalade/7.2/s3e/h/ext/s3eAndroidJNI.h'
p3608
sbsS'stdexcept'
p3609
g299
(g1591
g301
Ntp3610
Rp3611
(dp3612
g1595
g1603
sg1596
g1604
sg325
S'c:/marmalade/7.2/s3e/h/std/c++/stdexcept'
p3613
sbsS'math.h'
p3614
g299
(g1591
g301
Ntp3615
Rp3616
(dp3617
g1595
g1603
sg1596
g1625
sg325
S'c:/marmalade/7.2/s3e/h/std/math.h'
p3618
sbsS'stdbool.h'
p3619
g299
(g1591
g301
Ntp3620
Rp3621
(dp3622
g1595
g1603
sg1596
g1625
sg325
S'c:/marmalade/7.2/s3e/h/std/stdbool.h'
p3623
sbsS'uio.h'
p3624
g299
(g1591
g301
Ntp3625
Rp3626
(dp3627
g1595
g1603
sg1596
g1753
sg325
S'c:/marmalade/7.2/s3e/h/std/sys/uio.h'
p3628
sbsS'IwUncopyable.h'
p3629
g299
(g1591
g301
Ntp3630
Rp3631
(dp3632
g1595
g1406
sg1596
g1632
sg325
g1451
sbsS's3efacebook.mkf'
p3633
g299
(g1591
g301
Ntp3634
Rp3635
(dp3636
g1595
g1171
sg1596
(lp3637
g1141
ag1157
asg325
g1169
sbssS'juice_build_type'
p3638
g4
sS'tests'
p3639
(lp3640
sS'project_name'
p3641
g307
sS'root_file'
p3642
g119
sS'current_root'
p3643
S'c:/Users/Vinicius/Desktop/Yes or No/Hoppe'
p3644
sS'dependencies'
p3645
(lp3646
sS'include_paths'
p3647
(lp3648
S'c:/marmalade/7.2/extensions/s3ewebview/h'
p3649
aS'c:/marmalade/7.2/modules/iwutil/h'
p3650
aS'c:/marmalade/7.2/modules/third_party/libjpeg/h'
p3651
aS'c:/marmalade/7.2/modules/third_party/zlib/h'
p3652
aS'c:/marmalade/7.2/modules/third_party/libpng/h'
p3653
aS'c:/marmalade/7.2/extensions/s3efacebook/h'
p3654
aS'c:/marmalade/7.2/modules/iw2d/h'
p3655
aS'c:/marmalade/7.2/modules/iwgx/h'
p3656
aS'c:/marmalade/7.2/modules/iwgl/h'
p3657
aS'c:/marmalade/7.2/modules/iwgeom/h'
p3658
aS'c:/marmalade/7.2/modules/iwresmanager/h'
p3659
aS'c:/marmalade/7.2/modules/iwgxfont/h'
p3660
aS'c:/marmalade/7.2/modules/third_party/tiniconv/source'
p3661
aS'c:/marmalade/7.2/modules/iw2dscenegraph/h'
p3662
aS'c:/marmalade/7.2/modules/iw2dscenegraphcore/h'
p3663
aS'c:/marmalade/7.2/modules/iwtween/h'
p3664
aS'c:/users/vinicius/desktop/yes or no/hoppe/modules/soundengine/h'
p3665
aS'c:/users/vinicius/desktop/yes or no/hoppe/modules/soundengine/source'
p3666
aS'c:/marmalade/7.2/extensions/s3eflurry/h'
p3667
aS'c:/marmalade/7.2/s3e/h'
p3668
aS'c:/marmalade/7.2/s3e/h/ext'
p3669
aS'c:/marmalade/7.2/s3e/h/std'
p3670
aS'c:/marmalade/7.2/s3e/h/std/c++'
p3671
aS'c:/marmalade/7.2/s3e/h/ext_legacy'
p3672
aS'c:/marmalade/7.2/s3e/h/legacy'
p3673
asS'weak_frameworks'
p3674
(lp3675
sS'extprojects'
p3676
(dp3677
sg602
(dp3678
g596
(lp3679
(S'c:/Users/Vinicius/Desktop/Yes or No/Hoppe/data/audio'
p3680
S'audio'
p3681
I0
tp3682
a(S'c:/Users/Vinicius/Desktop/Yes or No/Hoppe/data/textures'
p3683
S'textures'
p3684
I0
tp3685
a(S'c:/Users/Vinicius/Desktop/Yes or No/Hoppe/data-ram/data-gles1,c:/Users/Vinicius/Desktop/Yes or No/Hoppe/data'
p3686
S'.'
p3687
I0
tp3688
a(S'c:/marmalade/7.2/extensions/s3ewebview/s3eWebView.js'
p3689
S's3eWebView.js'
p3690
I0
tp3691
a(S'c:/marmalade/7.2/extensions/s3efacebook/source/iphone/facebook-ios-sdk/FacebookSDK.framework/Versions/A/Resources/FacebookSDKResources.bundle/FBDialog/images/fbicon.png'
p3692
S'FacebookSDKResources.bundle/FBDialog/images/fbicon.png'
p3693
I0
tp3694
a(S'c:/marmalade/7.2/extensions/s3efacebook/source/iphone/facebook-ios-sdk/FacebookSDK.framework/Versions/A/Resources/FacebookSDKResources.bundle/FBDialog/images/close.png'
p3695
S'FacebookSDKResources.bundle/FBDialog/images/close.png'
p3696
I0
tp3697
a(S'c:/marmalade/7.2/extensions/s3efacebook/source/iphone/facebook-ios-sdk/FacebookSDK.framework/Versions/A/Resources/FacebookSDKResources.bundle/FBDialog/images/close@2x.png'
p3698
S'FacebookSDKResources.bundle/FBDialog/images/close@2x.png'
p3699
I0
tp3700
a(S'c:/marmalade/7.2/extensions/s3efacebook/facebook-winclient-sdk-master/Source/Facebook.Client-WindowsStore/FacebookDialogPage.xaml'
p3701
S'FacebookDialogPage.xaml'
p3702
I0
tp3703
asS'WebView32Assets'
p3704
(lp3705
(S'c:/marmalade/7.2/extensions/s3ewebview/lib/win32/locales'
p3706
S'locales'
p3707
I0
tp3708
a(S'c:/marmalade/7.2/extensions/s3ewebview/lib/win32/avcodec-53.dll'
p3709
S'avcodec-53.dll'
p3710
I0
tp3711
a(S'c:/marmalade/7.2/extensions/s3ewebview/lib/win32/avformat-53.dll'
p3712
S'avformat-53.dll'
p3713
I0
tp3714
a(S'c:/marmalade/7.2/extensions/s3ewebview/lib/win32/avutil-51.dll'
p3715
S'avutil-51.dll'
p3716
I0
tp3717
a(S'c:/marmalade/7.2/extensions/s3ewebview/lib/win32/chrome.pak'
p3718
S'chrome.pak'
p3719
I0
tp3720
a(S'c:/marmalade/7.2/extensions/s3ewebview/lib/win32/d3dcompiler_43.dll'
p3721
S'd3dcompiler_43.dll'
p3722
I0
tp3723
a(S'c:/marmalade/7.2/extensions/s3ewebview/lib/win32/d3dx9_43.dll'
p3724
S'd3dx9_43.dll'
p3725
I0
tp3726
a(S'c:/marmalade/7.2/extensions/s3ewebview/lib/win32/icudt.dll'
p3727
S'icudt.dll'
p3728
I0
tp3729
a(S'c:/marmalade/7.2/extensions/s3ewebview/lib/win32/libcef.dll'
p3730
S'libcef.dll'
p3731
I0
tp3732
a(S'c:/marmalade/7.2/extensions/s3ewebview/lib/win32/libEGL.dll'
p3733
S'libEGL.dll'
p3734
I0
tp3735
a(S'c:/marmalade/7.2/extensions/s3ewebview/lib/win32/libGLESv2.dll'
p3736
S'libGLESv2.dll'
p3737
I0
tp3738
assS'macro_types'
p3739
(dp3740
g525
I0
sg527
I0
sg528
I0
sg529
I0
sg531
I1
sg532
I0
sg533
I0
sg534
I0
sg535
I0
sg536
I0
sg537
I0
sg538
I0
sg540
I0
sg541
I0
sg542
I0
sg543
I0
sg544
I0
sg546
I0
sg547
I0
sg548
I0
sg549
I0
sg550
I0
sg551
I0
sg552
I0
sg553
I0
sg554
I1
sg555
I0
sg556
I0
sg557
I0
sg558
I0
sg559
I0
sg560
I0
sg561
I0
sg562
I01
sg563
I1
sg564
I0
sg565
I0
sg566
I0
sg567
I0
sg568
I0
sg569
I0
sg570
I0
sg571
I0
ssS'commands'
p3741
(lp3742
sg604
(g1025
S'VC12X'
p3743
S'X86ARM'
p3744
tp3745
sS'build_libs'
p3746
(dp3747
sg606
g0
sS'frameworks'
p3748
(lp3749
sS'environ'
p3750
(dp3751
sS'target_name_debug'
p3752
g307
sS'builders'
p3753
(dp3754
g596
(dp3755
S'.S'
p3756
(dp3757
S'rvct'
p3758
(lp3759
S'.obj'
p3760
aS'echo ARM Assembling(RVCT) ${SOURCE}...'
p3761
aS'c:/marmalade/7.2/s3e\\rvct\\bin\\armasm -o ${TARGET} ${SOURCE}'
p3762
asS'gcc'
p3763
(lp3764
g3760
aS'echo ARM Assembling(GCC) ${SOURCE}...'
p3765
aS'c:/marmalade/7.2/s3e\\gcc\\bin\\arm-none-eabi-gcc -c -o ${TARGET} ${SOURCE}'
p3766
asS'ppu'
p3767
(lp3768
S'.a'
p3769
aS'echo PPU Assembling(SNC) ${SOURCE}...'
p3770
aS'c:/marmalade/7.2/s3e\\rvct\\bin\\armasm -o ${TARGET} ${SOURCE}'
p3771
assS'.s'
p3772
g3757
sS'.vp'
p3773
(lp3774
NaS'"C:/Marmalade/7.2/s3e/python/python.exe" "c:/marmalade/7.2/modules/iwgx/tools/compile_shaders.py" ${SOURCE}'
p3775
asssS'extproject_names'
p3776
(lp3777
sbtp3778
.