((dp0
S'arm_dbg_args'
p1
S'-via:"c:\\Users\\Vinicius\\Desktop\\Yes or No\\Hoppe\\build_hoppe_vc12x\\Hoppe_vc12x_arm_debug.via" -qemu'
p2
sS'game-icf'
p3
S''
p4
sS'dist'
p5
NsS'csproj'
p6
g4
sS'module_path_append'
p7
NsS'global_path'
p8
S'c:\\users\\vinicius\\desktop\\yes or no'
p9
sS'system_path'
p10
S'c:\\marmalade\\7.2\\s3e\\makefile_builder'
p11
sS'android_x86_dbg_args'
p12
S'../../tools/DeployTool/DeployTool.exe --dir "c:\\Users\\Vinicius\\Desktop\\Yes or No\\Hoppe\\build_hoppe_vc12x"'
p13
sS'use_prebuilt'
p14
NsS'arm_rel_rtsm_args'
p15
S'-via:"c:\\Users\\Vinicius\\Desktop\\Yes or No\\Hoppe\\build_hoppe_vc12x\\Hoppe_vc12x_arm_release.via" -qemu'
p16
sS'amd64'
p17
NsS'line-width'
p18
I80
sS'gcc_dbg_args'
p19
S'-via:"c:\\Users\\Vinicius\\Desktop\\Yes or No\\Hoppe\\build_hoppe_vc12x\\Hoppe_vc12x_gcc_debug.via" -qemu'
p20
sS'android-x86'
p21
NsS'x86_dbg_exe'
p22
S'c:/marmalade/7.2/s3e\\win32\\s3e_simulator_debug.exe'
p23
sS'disable-runtime-checks'
p24
NsS'release'
p25
NsS'no-make'
p26
NsS'optimise-size'
p27
NsS'output-name-debug'
p28
g4
sS'arm-fpu'
p29
S'vfp'
p30
sS'proj_name'
p31
S'Hoppe_vc12x'
p32
sS'rvct-version'
p33
S'none'
p34
sS'compiler'
p35
g4
sS'execute'
p36
I01
sS'compile-static'
p37
NsS'msvc-project'
p38
NsS'buildenv'
p39
S'VC12X'
p40
sS'quick'
p41
NsS'module_path'
p42
(lp43
S'c:/Users/Vinicius/Desktop/Yes or No/Hoppe/modules'
p44
asS'use-release-std-libs'
p45
NsS'using_perforce'
p46
I00
sS'tizen-x86'
p47
NsS'mips-s3e'
p48
NsS'ios-no-pic'
p49
NsS'shared-arm-lib'
p50
NsS'arm-cpu'
p51
g4
sS'compile-thumb'
p52
NsS'no-ide'
p53
I01
sS'msvc-version'
p54
S'6.0'
p55
sS'arm'
p56
NsS'builddir'
p57
g4
sS'compile-debug-as-release'
p58
I0
sS'brief'
p59
NsS'dll'
p60
NsS'buildenv-toolset'
p61
g4
sS'version'
p62
NsS'ccache'
p63
I0
sS'offline'
p64
NsS'ios-version'
p65
g4
sS'hub_data'
p66
g4
sS'fake_vc_call'
p67
NsS'jobs'
p68
I0
sS'linkflags'
p69
NsS'tizen-x86-toolsroot'
p70
S'c:/marmalade/7.2/s3e\\..\\tools\\gcc\\x86\\tizen_windows'
p71
sS'debug'
p72
I01
sS'xcode-build-order'
p73
g4
sS'gcc_rel_rtsm_args'
p74
S'-via:"c:\\Users\\Vinicius\\Desktop\\Yes or No\\Hoppe\\build_hoppe_vc12x\\Hoppe_vc12x_gcc_release.via" -qemu'
p75
sS'done_defaults'
p76
I1
sS'path'
p77
NsS's3e-data-dir'
p78
S'c:/Users/Vinicius/Desktop/Yes or No/Hoppe\\data'
p79
sS'enable-exceptions'
p80
NsS'osx-dll'
p81
NsS'extension'
p82
g4
sS'no-vc6'
p83
NsS'non-interactive'
p84
NsS'win32-console'
p85
NsS'dist-format'
p86
g4
sS's3e-force-arch'
p87
NsS'dump_defines'
p88
NsS'verbose'
p89
I0
sS'gcc-version'
p90
g4
sS'x86_dbg_args'
p91
S'-via:"c:\\Users\\Vinicius\\Desktop\\Yes or No\\Hoppe\\build_hoppe_vc12x\\Hoppe_vc12x_debug.via"'
p92
sS'tizen_x86_dbg_args'
p93
g13
sS'arm-debugger'
p94
g4
sS'use_temp_extension'
p95
NsS'log'
p96
NsS'no-strip'
p97
NsS'rebuild'
p98
NsS'win32-simulator-dll'
p99
NsS'strict'
p100
NsS'mips_dbg_args'
p101
g13
sS'enable-global-path'
p102
NsS'cflags'
p103
NsS'dist-dir'
p104
g4
sS'jflags'
p105
NsS'csprojSDKRefs'
p106
g4
sS'tizen_x86_rel_exe'
p107
S'c:\\marmalade\\7.2\\s3e\\makefile_builder\\tool_launcher.exe'
p108
sS'test-assets'
p109
g4
sS'distcc'
p110
NsS'external-compiler'
p111
NsS'no-distcc'
p112
NsS'preinclude'
p113
NsS'using_sdk'
p114
I01
sS'nologo'
p115
NsS'warn-level'
p116
I2
sS'mips_dbg_exe'
p117
g108
sS'mkb_in'
p118
S'c:/Users/Vinicius/Desktop/Yes or No/Hoppe/Hoppe.mkb'
p119
sS'tizen_x86_dbg_exe'
p120
g108
sS'arm_dbg_exe'
p121
S'c:/marmalade/7.2/s3e\\bin\\armdebug.exe'
p122
sS'csprojDLLRef'
p123
NsS'tizen_x86_rel_args'
p124
g13
sS'android_x86_dbg_exe'
p125
g108
sS'test-config'
p126
g4
sS'list-targets'
p127
NsS'arm_rel_exe'
p128
g108
sS'arm_rel_args'
p129
g13
sS'makedeps'
p130
NsS'android_x86_rel_exe'
p131
g108
sS'default-buildenv'
p132
S'VC12X'
p133
sS'x86_rel_exe'
p134
g23
sS'preprocess-java'
p135
NsS'mips_rel_args'
p136
g13
sS'defines'
p137
NsS'lib'
p138
NsS'global_argv'
p139
(lp140
S'C:\\Marmalade\\7.2\\s3e\\makefile_builder\\mkb.py'
p141
aS'C:/Users/Vinicius/Desktop/Yes or No/Hoppe/Hoppe.mkb'
p142
aS'--buildenv=VC12X'
p143
aS'--debug'
p144
aS'--x86'
p145
aS'--no-ide'
p146
aS'--execute'
p147
asS'make'
p148
NsS'optimise-speed'
p149
NsS'internal'
p150
NsS'enable-stdinc'
p151
NsS'deploy-only'
p152
NsS'x86'
p153
I01
sS'deploy'
p154
g4
sS'x86_run_exe'
p155
S'c:/marmalade/7.2/s3e\\win32\\s3e_console.exe'
p156
sS'x86_rel_args'
p157
S'-via:"c:\\Users\\Vinicius\\Desktop\\Yes or No\\Hoppe\\build_hoppe_vc12x\\Hoppe_vc12x_release.via"'
p158
sS'gcc_rel_args'
p159
g13
sS'mips'
p160
NsS'xcode-build-settings'
p161
g4
sS'incredibuild'
p162
NsS'strict-compile'
p163
NsS'use-auto-subdirs'
p164
NsS'mips_rel_exe'
p165
g108
sS'android_x86_rel_args'
p166
g13
sS'app-icf'
p167
g4
sS'deployargs'
p168
NsS'iosnativedebug'
p169
NsS'mkf_in'
p170
(lp171
S'c:\\marmalade\\7.2\\extensions\\s3ewebview\\s3ewebview.mkf'
p172
aS'c:\\marmalade\\7.2\\modules\\iwutil\\iwutil.mkf'
p173
aS'c:\\marmalade\\7.2\\modules\\third_party\\libjpeg\\libjpeg.mkf'
p174
aS'c:\\marmalade\\7.2\\modules\\third_party\\libpng\\libpng.mkf'
p175
aS'c:\\marmalade\\7.2\\modules\\third_party\\zlib\\zlib.mkf'
p176
aS'c:\\marmalade\\7.2\\extensions\\s3efacebook\\s3efacebook.mkf'
p177
aS'c:\\marmalade\\7.2\\modules\\iw2d\\iw2d.mkf'
p178
aS'c:\\marmalade\\7.2\\modules\\iwgx\\iwgx.mkf'
p179
aS'c:\\marmalade\\7.2\\modules\\iwgl\\iwgl.mkf'
p180
aS'c:\\marmalade\\7.2\\modules\\iwgeom\\iwgeom.mkf'
p181
aS'c:\\marmalade\\7.2\\modules\\iwresmanager\\iwresmanager.mkf'
p182
aS'c:\\marmalade\\7.2\\modules\\iwgxfont\\iwgxfont.mkf'
p183
aS'c:\\marmalade\\7.2\\modules\\third_party\\tiniconv\\tiniconv.mkf'
p184
aS'c:\\marmalade\\7.2\\modules\\iw2dscenegraph\\iw2dscenegraph.mkf'
p185
aS'c:\\marmalade\\7.2\\modules\\iw2dscenegraphcore\\iw2dscenegraphcore.mkf'
p186
aS'c:\\marmalade\\7.2\\modules\\iwtween\\iwtween.mkf'
p187
aS'c:\\users\\vinicius\\desktop\\yes or no\\hoppe\\modules\\soundengine\\soundengine.mkf'
p188
aS'c:\\marmalade\\7.2\\extensions\\s3eflurry\\s3eflurry.mkf'
p189
asS'strict-mkb'
p190
NsS'executeargs'
p191
NsS'clean'
p192
NsS'no-asm'
p193
NsS'output-name'
p194
g4
sS'no-modules'
p195
NsS'find_define'
p196
g4
s(dp197
S'c:\\marmalade\\7.2\\s3e\\makefile_builder\\templates\\ws8_sln.pyc'
p198
F1396656910.0
sS'c:\\marmalade\\7.2\\s3e\\makefile_builder\\plugins\\java.pyc'
p199
F1396656908.0
sS'c:\\marmalade\\7.2\\s3e\\makefile_builder\\plugins\\S3EEmitter.pyc'
p200
F1396656908.0
sS'c:\\marmalade\\7.2\\s3e\\makefile_builder\\templates\\win32_vcxproj_filters.pyc'
p201
F1396656910.0
sS'c:\\marmalade\\7.2\\s3e\\makefile_builder\\plugins\\xcode4_schememanagement.py'
p202
F1396655700.0
sS'c:\\marmalade\\7.2\\s3e\\makefile_builder\\plugins\\linux_scons.pyc'
p203
F1396656910.0
sS'c:\\marmalade\\7.2\\s3e\\makefile_builder\\templates\\wp8_sln.pyc'
p204
F1396656910.0
sS'c:\\marmalade\\7.2\\s3e\\makefile_builder\\templates\\ws8_ext_sln.pyc'
p205
F1396656910.0
sS'c:\\marmalade\\7.2\\s3e\\makefile_builder\\templates\\MainWindow.xib'
p206
F1396655700.0
sS'c:\\marmalade\\7.2\\s3e\\makefile_builder\\templates\\ws81_ext_sln.pyc'
p207
F1396656910.0
sS'c:\\marmalade\\7.2\\s3e\\makefile_builder\\plugins\\Win8Emitter.pyc'
p208
F1396656910.0
sS'c:\\marmalade\\7.2\\s3e\\makefile_builder\\templates\\win8_ext_csproj.pyc'
p209
F1396656910.0
sS'c:\\marmalade\\7.2\\s3e\\makefile_builder\\templates\\rvct_linker_script'
p210
F1396655702.0
sS'c:\\marmalade\\7.2\\s3e\\makefile_builder\\templates\\win8_sln.pyc'
p211
F1396656910.0
sS'c:\\marmalade\\7.2\\s3e\\makefile_builder\\templates\\ws8_ext_csproj.pyc'
p212
F1396656910.0
sS'c:\\marmalade\\7.2\\s3e\\makefile_builder\\plugins\\s3e_make.pyc'
p213
F1396656908.0
sS'c:\\marmalade\\7.2\\s3e\\makefile_builder\\templates\\wp8_csproj_user.pyc'
p214
F1396656910.0
sS'c:\\marmalade\\7.2\\s3e\\makefile_builder\\plugins\\s3e_scons.pyc'
p215
F1396656908.0
sS'c:\\marmalade\\7.2\\s3e\\makefile_builder\\plugins\\s3e_qmake.py'
p216
F1396655700.0
sS'c:\\marmalade\\7.2\\s3e\\makefile_builder\\docs\\deprecated.options.txt'
p217
F1396655698.0
sS'c:\\marmalade\\7.2\\s3e\\makefile_builder\\plugins\\ws8_ws8.pyc'
p218
F1396656910.0
sS'c:\\marmalade\\7.2\\s3e\\makefile_builder\\templates\\ws81_sln.pyc'
p219
F1396656910.0
sS'c:\\marmalade\\7.2\\s3e\\makefile_builder\\templates\\ws81_ext_csproj.pyc'
p220
F1396656910.0
sS'c:\\marmalade\\7.2\\s3e\\makefile_builder\\templates\\wp8_vcxproj.pyc'
p221
F1396656910.0
sS'c:\\marmalade\\7.2\\s3e\\makefile_builder\\templates\\vc6_opt.pyc'
p222
F1396656910.0
sS'c:\\marmalade\\7.2\\s3e\\makefile_builder\\plugins\\deploy.pyc'
p223
F1396656908.0
sS'c:\\marmalade\\7.2\\s3e\\makefile_builder\\templates\\scons.pyc'
p224
F1396656910.0
sS'c:\\marmalade\\7.2\\s3e\\makefile_builder\\templates\\win32_vcproj.pyc'
p225
F1396656910.0
sS'c:\\marmalade\\7.2\\s3e\\makefile_builder\\templates\\win8_csproj.pyc'
p226
F1396656910.0
sS'c:\\marmalade\\7.2\\s3e\\makefile_builder\\extensions\\make_dist.py'
p227
F1396655698.0
sS'c:\\marmalade\\7.2\\s3e\\makefile_builder\\templates\\gdb_start.txt'
p228
F1396655702.0
sS'c:\\marmalade\\7.2\\s3e\\makefile_builder\\templates\\vc8_user.pyc'
p229
F1396656910.0
sS'c:\\marmalade\\7.2\\s3e\\makefile_builder\\plugins\\s3e_win8.pyc'
p230
F1396656910.0
sS'c:\\marmalade\\7.2\\s3e\\makefile_builder\\templates\\win32_sln.pyc'
p231
F1396656910.0
sS'c:\\marmalade\\7.2\\s3e\\makefile_builder\\docs\\options.txt'
p232
F1396655698.0
sS'c:\\marmalade\\7.2\\s3e\\makefile_builder\\mkb.py'
p233
F1396655698.0
sS'c:\\marmalade\\7.2\\s3e\\makefile_builder\\templates\\Info.plist'
p234
F1396655700.0
sS'c:\\marmalade\\7.2\\s3e\\makefile_builder\\docs\\parse_options.pyc'
p235
F1396656912.0
sS'c:\\marmalade\\7.2\\s3e\\makefile_builder\\templates\\ws8_csproj.pyc'
p236
F1396656910.0
sS'c:\\marmalade\\7.2\\s3e\\makefile_builder\\templates\\ws81_csproj.pyc'
p237
F1396656910.0
sS'c:\\marmalade\\7.2\\s3e\\makefile_builder\\plugins\\osx_xcode.pyc'
p238
F1396656910.0
sS'c:\\marmalade\\7.2\\s3e\\makefile_builder\\plugins\\s3e_xcode.pyc'
p239
F1397674110.1375155
sS'c:\\marmalade\\7.2\\s3e\\makefile_builder\\plugins\\xcode4_schememanagement.pyc'
p240
F1397674109.1068296
sS'c:\\marmalade\\7.2\\s3e\\makefile_builder\\templates\\xcode4.xcscheme'
p241
F1396655704.0
sS'c:\\marmalade\\7.2\\s3e\\makefile_builder\\plugins\\Emitter.pyc'
p242
F1396656908.0
sS'c:\\marmalade\\7.2\\s3e\\makefile_builder\\templates\\mips_linker_script'
p243
F1396655702.0
sS'c:\\marmalade\\7.2\\s3e\\makefile_builder\\templates\\ws8_vcxproj.pyc'
p244
F1396656910.0
sS'c:\\marmalade\\7.2\\s3e\\makefile_builder\\plugins\\win32_vc6.pyc'
p245
F1396656910.0
sS'c:\\marmalade\\7.2\\s3e\\makefile_builder\\mkb_parser.pyc'
p246
F1396656908.0
sS'c:\\marmalade\\7.2\\s3e\\makefile_builder\\templates\\ws81_csproj_user.pyc'
p247
F1396656910.0
sS'c:\\marmalade\\7.2\\s3e\\makefile_builder\\templates\\linker_script'
p248
F1396655702.0
sS'c:\\marmalade\\7.2\\s3e\\makefile_builder\\docs\\deprecated.defines.txt'
p249
F1396655698.0
sS'c:\\marmalade\\7.2\\s3e\\makefile_builder\\templates\\template.suo'
p250
F1396655702.0
sS'c:\\marmalade\\7.2\\s3e\\makefile_builder\\templates\\make.py'
p251
F1396655702.0
sS'c:\\marmalade\\7.2\\s3e\\makefile_builder\\extensions'
p252
F1397673792.7230873
sS'c:\\marmalade\\7.2\\s3e\\makefile_builder\\templates\\win32_dsp.pyc'
p253
F1396656910.0
sS'c:\\marmalade\\7.2\\s3e\\makefile_builder\\templates\\wp8_ext_csproj.pyc'
p254
F1396656910.0
sS'c:\\marmalade\\7.2\\s3e\\makefile_builder\\plugins\\MakeEmitter.pyc'
p255
F1396656908.0
sS'c:\\marmalade\\7.2\\s3e\\makefile_builder\\plugins\\XcodeEmitter.pyc'
p256
F1397674109.0167696
sS'c:\\marmalade\\7.2\\s3e\\makefile_builder\\templates\\win32_dsw.pyc'
p257
F1396656910.0
sS'c:\\marmalade\\7.2\\s3e\\makefile_builder\\docs\\mkb.defines.txt'
p258
F1396655698.0
sS'c:\\marmalade\\7.2\\s3e\\makefile_builder\\docs\\deployment_options.txt'
p259
F1396655698.0
sS'c:\\marmalade\\7.2\\s3e\\makefile_builder\\plugins\\s3e_qmake.pyc'
p260
F1397674109.7792768
sS'c:\\marmalade\\7.2\\s3e\\makefile_builder\\plugins\\ws81_ws81.pyc'
p261
F1396656910.0
sS'c:\\marmalade\\7.2\\s3e\\makefile_builder\\templates\\win32_vcxproj.pyc'
p262
F1396656910.0
sS'c:\\marmalade\\7.2\\s3e\\makefile_builder\\docs'
p263
F1397673793.1573761
sS'c:\\marmalade\\7.2\\s3e\\makefile_builder\\plugins\\XcodeEmitter.py'
p264
F1396655698.0
sS'c:\\marmalade\\7.2\\s3e\\makefile_builder\\templates\\template.opt'
p265
F1396655702.0
sS'c:\\marmalade\\7.2\\s3e\\makefile_builder\\tool_launcher.exe'
p266
F1396656088.0
sS'c:\\marmalade\\7.2\\s3e\\makefile_builder\\templates\\xcode.py'
p267
F1396655702.0
sS'c:\\marmalade\\7.2\\s3e\\makefile_builder\\plugins\\VisualStudioEmitter.pyc'
p268
F1396656908.0
sS'c:\\marmalade\\7.2\\s3e\\makefile_builder\\plugins\\osx_scons.pyc'
p269
F1396656910.0
sS'c:\\marmalade\\7.2\\s3e\\makefile_builder\\templates'
p270
F1397673792.65204
sS'c:\\marmalade\\7.2\\s3e\\makefile_builder\\templates\\ws81_vcxproj.pyc'
p271
F1396656910.0
sS'c:\\marmalade\\7.2\\s3e\\makefile_builder\\templates\\win8_vcxproj.pyc'
p272
F1396656910.0
sS'c:\\marmalade\\7.2\\s3e\\makefile_builder\\plugins\\s3e_ws8.pyc'
p273
F1396656910.0
sS'c:\\marmalade\\7.2\\s3e\\makefile_builder\\templates\\wp8_csproj.pyc'
p274
F1396656910.0
sS'c:\\marmalade\\7.2\\s3e\\makefile_builder\\templates\\vc7_suo.pyc'
p275
F1396656910.0
sS'c:\\marmalade\\7.2\\s3e\\makefile_builder\\plugins\\SConsEmitter.pyc'
p276
F1396656908.0
sS'c:\\marmalade\\7.2\\s3e\\makefile_builder\\mkb_option.pyc'
p277
F1396656908.0
sS'c:\\marmalade\\7.2\\s3e\\makefile_builder\\templates\\ws8_csproj_user.pyc'
p278
F1396656910.0
sS'c:\\marmalade\\7.2\\s3e\\makefile_builder\\mkb_main.pyc'
p279
F1396656908.0
sS'c:\\marmalade\\7.2\\s3e\\makefile_builder\\plugins'
p280
F1397674110.1315114
sS'c:\\marmalade\\7.2\\s3e\\makefile_builder\\plugins\\s3e_web.pyc'
p281
F1396656908.0
sS'c:\\marmalade\\7.2\\s3e\\makefile_builder\\plugins\\s3e_ws81.pyc'
p282
F1396656910.0
sS'c:\\marmalade\\7.2\\s3e\\makefile_builder\\mkb_globals.pyc'
p283
F1396656908.0
sS'c:\\marmalade\\7.2\\s3e\\makefile_builder\\plugins\\iphone.pyc'
p284
F1396656910.0
sS'c:\\marmalade\\7.2\\s3e\\makefile_builder\\mkb_launcher.exe'
p285
F1396656088.0
sS'c:\\marmalade\\7.2\\s3e\\makefile_builder\\plugins\\vc7_utils.pyc'
p286
F1396656908.0
sS'c:\\marmalade\\7.2\\s3e\\makefile_builder\\plugins\\s3e_wp8.pyc'
p287
F1396656910.0
sS'c:\\marmalade\\7.2\\s3e\\makefile_builder\\plugins\\vc6_utils.pyc'
p288
F1396656908.0
sS'c:\\marmalade\\7.2\\s3e\\makefile_builder\\deployment.pyc'
p289
F1396656908.0
sS'c:\\marmalade\\7.2\\s3e\\makefile_builder\\plugins\\s3e_vc6.pyc'
p290
F1396656908.0
sS'c:\\marmalade\\7.2\\s3e\\makefile_builder\\plugins\\null.pyc'
p291
F1396656908.0
sS'c:\\marmalade\\7.2\\s3e\\makefile_builder\\templates\\qmake.py'
p292
F1396655702.0
sS'c:\\marmalade\\7.2\\s3e\\makefile_builder\\templates\\xcode4_DeployTool.xcscheme'
p293
F1396655704.0
sS'c:\\marmalade\\7.2\\s3e\\makefile_builder\\templates\\win8_csproj_user.pyc'
p294
F1396656910.0
sS'c:\\marmalade\\7.2\\s3e\\makefile_builder\\plugins\\win8_utils.pyc'
p295
F1396656908.0
sS'c:\\marmalade\\7.2\\s3e\\makefile_builder\\mkb_util.pyc'
p296
F1396656908.0
sS'c:\\marmalade\\7.2\\s3e\\makefile_builder\\plugins\\wp8_wp8.pyc'
p297
F1396656910.0
sS'c:\\marmalade\\7.2\\s3e\\makefile_builder\\plugins\\s3e_xcode.py'
p298
F1396655700.0
sS'c:\\marmalade\\7.2\\s3e\\makefile_builder\\templates\\vc10_user.pyc'
p299
F1396656910.0
sS'c:\\marmalade\\7.2\\s3e\\makefile_builder\\templates\\qmake_user.py'
p300
F1396655702.0
sS'c:\\marmalade\\7.2\\s3e\\makefile_builder\\templates\\xcode_pbxuser.py'
p301
F1396655704.0
sccopy_reg
_reconstructor
p302
(cmkb_main
MkbFile
p303
c__builtin__
object
p304
Ntp305
Rp306
(dp307
g5
(lp308
sS'target_name'
p309
S'Hoppe'
p310
sS'current_file'
p311
g119
sS'package_path'
p312
(lp313
sS'post_build'
p314
(lp315
(lp316
S'c:/marmalade/7.2/s3e/tools'
p317
aS'C:\\Marmalade\\7.2\\s3e\\python\\python.exe .\\process_map.py "$(TargetPath)"'
p318
aa(S'c:\\marmalade\\7.2\\s3e\\bin'
p319
S'"s3e_plink" -l "$(TargetPath)" '
p320
g153
tp321
asS'librarys'
p322
(lp323
g302
(cmkb_main
Library
p324
g304
Ntp325
Rp326
(dp327
S'name'
p328
S'vc6_compat.lib'
p329
sS'expand_name'
p330
I00
sS'include_spec_rvct_objs'
p331
(lp332
sS'include_all_objs'
p333
I00
sS'share_arm'
p334
I00
sS'arch'
p335
S'x86'
p336
sS'nodebug'
p337
I00
sg35
Nsbag302
(g324
g304
Ntp338
Rp339
(dp340
g328
S'iwutil'
p341
sg330
I01
sg331
(lp342
sg333
Nsg334
Nsg335
Nsg337
I00
sg35
Nsbag302
(g324
g304
Ntp343
Rp344
(dp345
g328
S'jpeg'
p346
sg330
I01
sg331
g342
sg333
Nsg334
Nsg335
Nsg337
I00
sg35
Nsbag302
(g324
g304
Ntp347
Rp348
(dp349
g328
S'z'
p350
sg330
I01
sg331
g342
sg333
Nsg334
Nsg335
Nsg337
I00
sg35
Nsbag302
(g324
g304
Ntp351
Rp352
(dp353
g328
S'png'
p354
sg330
I01
sg331
g342
sg333
Nsg334
Nsg335
Nsg337
I00
sg35
Nsbag302
(g324
g304
Ntp355
Rp356
(dp357
g328
S'iw2d'
p358
sg330
I01
sg331
g342
sg333
Nsg334
Nsg335
Nsg337
I00
sg35
Nsbag302
(g324
g304
Ntp359
Rp360
(dp361
g328
S'ATI_Compress_MT_VC7.lib'
p362
sg330
I00
sg331
g342
sg333
Nsg334
Nsg335
S'x86'
p363
sg337
I00
sg35
Nsbag302
(g324
g304
Ntp364
Rp365
(dp366
g328
S'iwgx'
p367
sg330
I01
sg331
g342
sg333
Nsg334
Nsg335
Nsg337
I00
sg35
Nsbag302
(g324
g304
Ntp368
Rp369
(dp370
g328
S'iwgl'
p371
sg330
I01
sg331
g342
sg333
Nsg334
Nsg335
Nsg337
I00
sg35
Nsbag302
(g324
g304
Ntp372
Rp373
(dp374
g328
S'iwgeom'
p375
sg330
I01
sg331
g342
sg333
Nsg334
Nsg335
Nsg337
I00
sg35
Nsbag302
(g324
g304
Ntp376
Rp377
(dp378
g328
S'iwresmanager'
p379
sg330
I01
sg331
g342
sg333
Nsg334
Nsg335
Nsg337
I00
sg35
Nsbag302
(g324
g304
Ntp380
Rp381
(dp382
g328
S'iwgxfont'
p383
sg330
I01
sg331
g342
sg333
Nsg334
Nsg335
Nsg337
I00
sg35
Nsbag302
(g324
g304
Ntp384
Rp385
(dp386
g328
S'tiniconv'
p387
sg330
I01
sg331
g342
sg333
Nsg334
Nsg335
Nsg337
I00
sg35
Nsbag302
(g324
g304
Ntp388
Rp389
(dp390
g328
S's3e_cpp'
p391
sg330
I01
sg331
g332
sg333
I00
sg334
I00
sg335
Nsg337
I00
sg35
Nsbag302
(g324
g304
Ntp392
Rp393
(dp394
g328
S's3e'
p395
sg330
I01
sg331
(lp396
S'iwcrt.o'
p397
asg333
I00
sg334
I00
sg335
Nsg337
I00
sg35
Nsbag302
(g324
g304
Ntp398
Rp399
(dp400
g328
S's3e_api'
p401
sg330
I01
sg331
g332
sg333
I00
sg334
I00
sg335
S'x86'
p402
sg337
I01
sg35
Nsbag302
(g324
g304
Ntp403
Rp404
(dp405
g328
S's3e_api'
p406
sg330
I01
sg331
g332
sg333
I00
sg334
I00
sg335
S'!x86'
p407
sg337
I01
sg35
Nsbag302
(g324
g304
Ntp408
Rp409
(dp410
g328
S'stdc++'
p411
sg330
I00
sg331
g332
sg333
I00
sg334
I00
sg335
S'mips'
p412
sg337
I00
sg35
Nsbag302
(g324
g304
Ntp413
Rp414
(dp415
g328
S'c'
p416
sg330
I00
sg331
g332
sg333
I00
sg334
I00
sg335
S'mips'
p417
sg337
I00
sg35
Nsbag302
(g324
g304
Ntp418
Rp419
(dp420
g328
S'm'
p421
sg330
I00
sg331
g332
sg333
I00
sg334
I00
sg335
S'mips'
p422
sg337
I00
sg35
Nsbag302
(g324
g304
Ntp423
Rp424
(dp425
g328
S'gcc'
p426
sg330
I00
sg331
g332
sg333
I00
sg334
I00
sg335
S'mips'
p427
sg337
I00
sg35
Nsbag302
(g324
g304
Ntp428
Rp429
(dp430
g328
S'stdc++'
p431
sg330
I00
sg331
g332
sg333
I00
sg334
I00
sg335
S'gcc_x86_tizen'
p432
sg337
I00
sg35
Nsbag302
(g324
g304
Ntp433
Rp434
(dp435
g328
g416
sg330
I00
sg331
g332
sg333
I00
sg334
I00
sg335
S'gcc_x86_tizen'
p436
sg337
I00
sg35
Nsbag302
(g324
g304
Ntp437
Rp438
(dp439
g328
g421
sg330
I00
sg331
g332
sg333
I00
sg334
I00
sg335
S'gcc_x86_tizen'
p440
sg337
I00
sg35
Nsbag302
(g324
g304
Ntp441
Rp442
(dp443
g328
S'gcc'
p444
sg330
I00
sg331
g332
sg333
I00
sg334
I00
sg335
S'gcc_x86_tizen'
p445
sg337
I00
sg35
Nsbag302
(g324
g304
Ntp446
Rp447
(dp448
g328
S'gcc_eh'
p449
sg330
I00
sg331
g332
sg333
I00
sg334
I00
sg335
S'gcc_x86_tizen'
p450
sg337
I00
sg35
Nsbag302
(g324
g304
Ntp451
Rp452
(dp453
g328
S'stdc++'
p454
sg330
I00
sg331
g332
sg333
I00
sg334
I00
sg335
S'gcc_x86_android'
p455
sg337
I00
sg35
Nsbag302
(g324
g304
Ntp456
Rp457
(dp458
g328
g416
sg330
I00
sg331
g332
sg333
I00
sg334
I00
sg335
S'gcc_x86_android'
p459
sg337
I00
sg35
Nsbag302
(g324
g304
Ntp460
Rp461
(dp462
g328
g421
sg330
I00
sg331
g332
sg333
I00
sg334
I00
sg335
S'gcc_x86_android'
p463
sg337
I00
sg35
Nsbag302
(g324
g304
Ntp464
Rp465
(dp466
g328
S'gcc'
p467
sg330
I00
sg331
g332
sg333
I00
sg334
I00
sg335
S'gcc_x86_android'
p468
sg337
I00
sg35
NsbasS'library_paths'
p469
(lp470
g302
(cmkb_main
LibraryPath
p471
g304
Ntp472
Rp473
(dp474
S'expand_path'
p475
I01
sS'add_cpu_variant'
p476
I00
sg328
S'c:/marmalade/7.2/modules/iwutil'
p477
sbag302
(g471
g304
Ntp478
Rp479
(dp480
g475
I01
sg476
I00
sg328
S'c:/marmalade/7.2/modules/third_party/libjpeg'
p481
sbag302
(g471
g304
Ntp482
Rp483
(dp484
g475
I01
sg476
I00
sg328
S'c:/marmalade/7.2/modules/third_party/zlib'
p485
sbag302
(g471
g304
Ntp486
Rp487
(dp488
g475
I01
sg476
I00
sg328
S'c:/marmalade/7.2/modules/third_party/libpng'
p489
sbag302
(g471
g304
Ntp490
Rp491
(dp492
g475
I01
sg476
I00
sg328
S'c:/marmalade/7.2/modules/iw2d'
p493
sbag302
(g471
g304
Ntp494
Rp495
(dp496
g475
I00
sg476
I00
sg328
S'c:/marmalade/7.2/modules/iwgx/atitools'
p497
sbag302
(g471
g304
Ntp498
Rp499
(dp500
g475
I01
sg476
I00
sg328
S'c:/marmalade/7.2/modules/iwgx'
p501
sbag302
(g471
g304
Ntp502
Rp503
(dp504
g475
I01
sg476
I00
sg328
S'c:/marmalade/7.2/modules/iwgl'
p505
sbag302
(g471
g304
Ntp506
Rp507
(dp508
g475
I01
sg476
I00
sg328
S'c:/marmalade/7.2/modules/iwgeom'
p509
sbag302
(g471
g304
Ntp510
Rp511
(dp512
g475
I01
sg476
I00
sg328
S'c:/marmalade/7.2/modules/iwresmanager'
p513
sbag302
(g471
g304
Ntp514
Rp515
(dp516
g475
I01
sg476
I00
sg328
S'c:/marmalade/7.2/modules/iwgxfont'
p517
sbag302
(g471
g304
Ntp518
Rp519
(dp520
g475
I01
sg476
I00
sg328
S'c:/marmalade/7.2/modules/third_party/tiniconv'
p521
sbag302
(g471
g304
Ntp522
Rp523
(dp524
g475
I01
sg476
I00
sg328
S'c:/marmalade/7.2/s3e'
p525
sbasS'macros'
p526
(dp527
S'IW_TRACE_CHANNEL_WEBVIEW_VERBOSE'
p528
S'2'
p529
sS'IW_MKF_S3EFACEBOOK'
p530
NsS'I3D_PLATFORM_S3E'
p531
NsS'IW_TRACE_CHANNEL_FLURRY'
p532
S'1'
p533
sS'IW_USE_CALLSTACK'
p534
NsS'__S3E__'
p535
NsS'IW_TRACE_CHANNEL_WEBVIEW'
p536
g533
sS'IW_MKF_LIBJPEG'
p537
NsS'I3D_OS_S3E'
p538
NsS'IW_ASSERTION_CHANNEL_FLURRY'
p539
g533
sS'IW_MKF_TINICONV'
p540
NsS'IW_APP_VERSION'
p541
S'"1.0"'
p542
sS'IW_MKF_IWRESMANAGER'
p543
NsS'IW_MKF_IWUTIL'
p544
NsS'IW_PLATFORM_S3E'
p545
NsS'IW_ASSERTION_CHANNEL_2D'
p546
g533
sS'IW_APP_NAME'
p547
S'"Hoppe"'
p548
sS'IW_MKF_IWGXFONT'
p549
NsS'IW_MKF_IWTWEEN'
p550
NsS'IW_MKF_S3EFLURRY'
p551
NsS'IW_MKF_ZLIB'
p552
NsS'IW_MKF_IWGX'
p553
NsS'IW_MKF_IW2DSCENEGRAPH'
p554
NsS'IW_MKF_SOUNDENGINE'
p555
NsS'IW_ASSERTION_CHANNEL_WEBVIEW'
p556
g533
sS'IW_USE_ASSERTIONS'
p557
NsS'_CRT_SECURE_NO_DEPRECATE'
p558
NsS'IW_MKF_IWGL'
p559
NsS'IW_MKF_LIBPNG'
p560
NsS'IW_MKF_S3EWEBVIEW'
p561
NsS'IW_TRACE_CHANNEL_IW_2DSCENEGRAPH'
p562
g533
sS'IW_ASSERTION_CHANNEL_FACEBOOK'
p563
g533
sS'IW_TRACE_CHANNEL_FACEBOOK_VERBOSE'
p564
g529
sS'IW_DEBUG'
p565
NsS'IW_USE_TRACING'
p566
NsS'IW_ASSERTION_CHANNEL_IW_2DSCENEGRAPH'
p567
g533
sS'IW_SDK'
p568
NsS'S3E_INCLUDE_LEGACY'
p569
NsS'IW_MKF_IW2DSCENEGRAPHCORE'
p570
NsS'IW_TRACE_CHANNEL_FACEBOOK'
p571
g533
sS'IW_TRACE_CHANNEL_FLURRY_VERBOSE'
p572
g529
sS'IW_MKF_IW2D'
p573
NsS'IW_MKF_IWGEOM'
p574
NssS'done_warnings'
p575
(dp576
sS'subprojects'
p577
(dp578
g188
S'SoundEngine'
p579
sg183
S'iwgxfont'
p580
sg177
S's3eFacebook'
p581
sg172
S's3eWebView'
p582
sg173
S'iwutil'
p583
sg179
S'iwgx'
p584
sg182
S'iwresmanager'
p585
sg174
S'libjpeg'
p586
sg175
S'libpng'
p587
sg180
S'iwgl'
p588
sg187
S'iwtween'
p589
sg185
S'iw2dscenegraph'
p590
sg178
S'iw2d'
p591
sg181
S'iwgeom'
p592
sg184
S'tiniconv'
p593
sg176
S'zlib'
p594
sg186
S'../iw2dscenegraphcore'
p595
sg189
S's3eFlurry'
p596
ssS'deployments'
p597
(dp598
S'Default'
p599
g302
(cdeployment
Deployment
p600
g304
Ntp601
Rp602
(dp603
S'got_version'
p604
I0
sS'assets'
p605
g599
sS'mkb'
p606
g306
sS'target'
p607
Nsg335
(lp608
sS'options'
p609
(dp610
S'iphone-link-lib'
p611
(lp612
S's3eWebView'
p613
aS's3eFacebook'
p614
aS'FlurryAnalytics'
p615
aS's3eFlurry'
p616
asS'game-icf'
p617
NsS'winmobile-icon32'
p618
NsS'ws8-logo-image150x150'
p619
NsS'ws81-product-version'
p620
NsS'osx-ext-dll'
p621
(lp622
S'c:/marmalade/7.2/extensions/s3ewebview/lib/osx/libs3eWebView.dylib'
p623
aS'c:/marmalade/7.2/extensions/s3eflurry/lib/osx/libs3eFlurry.dylib'
p624
asS'iphone-provisioning-profile'
p625
NsS'ws8-splash-screen-image620x300'
p626
NsS'ws8-ext-capabilities'
p627
(lp628
sS'android-icon-hdpi'
p629
NsS'brew-icon-large'
p630
NsS'iphone-splash-full-orient'
p631
NsS'wp8-tile-fliptemplate-supports-large'
p632
NsS'iphone-show-status-bar'
p633
NsS'roku-requires-mkv'
p634
NsS'long-caption'
p635
NsS'android-pkgname'
p636
NsS'blackberry-permissions-read-device-identifying-information'
p637
NsS'ws81-certificate-end-date'
p638
NsS'psp-dlgcontentid'
p639
NsS'target-folder'
p640
NsS'tizen-dist1-CA-path'
p641
NsS'symbian-icon2-format'
p642
NsS'iphone-region'
p643
NsS'uiq3-icon3-mask'
p644
NsS'brew-encoding'
p645
NsS'android-x86'
p646
NsS'nds-initialcode'
p647
NsS'iphone-persistent-wifi'
p648
NsS'psp-snd0'
p649
NsS'osx-signing-identity-inst'
p650
NsS'winmobile-install-folder'
p651
NsS'android-external-res'
p652
(lp653
S'c:/marmalade/7.2/extensions/s3efacebook/facebook-android-sdk/facebook/res'
p654
asS'ws8-product-version'
p655
NsS'brew-priviledges'
p656
NsS'symbian-icon2-mask-black'
p657
NsS'iphone-icon-ipad'
p658
NsS'roku-hidden'
p659
NsS'psp-titlename'
p660
NsS'symbian-icon1-mask'
p661
NsS'psp-parentallevel'
p662
NsS'splashscreen-use-all'
p663
NsS'wp8-author'
p664
NsS'symbian-disable-ecompxl'
p665
NsS'splashscreen-auto-onblack'
p666
NsS'win32-ext-dll'
p667
(lp668
S'c:/marmalade/7.2/extensions/s3ewebview/lib/win32/s3eWebView.dll'
p669
aS'c:/marmalade/7.2/extensions/s3eflurry/lib/win32/s3eFlurry.dll'
p670
asS'iphone-development-key'
p671
NsS'winmobile-icon48'
p672
NsS'android-unsigned'
p673
NsS'osx-appstore-category'
p674
NsS'version-revision'
p675
NsS'roku-icon-focus-sd'
p676
NsS'android-keystore'
p677
NsS'winmobile-png90'
p678
NsS'iphone-icon-ipad-high-res'
p679
NsS'iphone-disable-ipad'
p680
NsS'wp8-product-id'
p681
NsS'wp8-ext-capabilities'
p682
(lp683
sS'iphone-ipad-only'
p684
NsS'symbian-icon1-mask-black'
p685
NsS'iphone-bundle-localisations'
p686
NsS'winmobile-png60'
p687
NsS'blackberry-permissions-access-shared'
p688
NsS'blackberry-author'
p689
NsS'android-icon-xxxhdpi'
p690
NsS'olddeploytoolstyle'
p691
NsS'android_icon_gallery'
p692
NsS'winmobile-cab-compress'
p693
NsS'ws81-ext-managed-dll'
p694
(lp695
sS'win32-icon'
p696
NsS'symbian-key'
p697
NsS'app-icf'
p698
NsS'blackberry-storepass'
p699
NsS'wp8-tile-fliptemplate-back-title'
p700
NsS'brew-compress-loader'
p701
NsS'win32-pref-windowposy'
p702
NsS'win32-pref-windowposx'
p703
NsS'roku-requires-audiometadata'
p704
NsS'wp8-exclude-low-mem'
p705
NsS'wp8-tile-fliptemplate-title'
p706
NsS'iphone-icon-ipad-search-high-res'
p707
NsS'iphone-link-libdir'
p708
(lp709
S'c:/marmalade/7.2/extensions/s3ewebview/lib/iphone'
p710
aS'c:/marmalade/7.2/extensions/s3efacebook/lib/iphone'
p711
aS'c:/marmalade/7.2/extensions/s3eflurry/lib/iphone'
p712
asS'blackberry-permissions-read-geolocation'
p713
NsS'winmobile-nouninstall'
p714
NsS'tizen-signed'
p715
NsS'android-extra-application-manifest'
p716
(lp717
S'c:/marmalade/7.2/extensions/s3efacebook/source/android/extra_app_manifest.xml'
p718
asS'ws8-ext-native-dll'
p719
(lp720
sS'symbian-icon2-mask'
p721
NsS'iphone-backgroundmode-audio'
p722
NsS'webos-memory'
p723
NsS'android-keypass'
p724
NsS'name'
p725
NsS'uiq3-icon2-format'
p726
NsS'roku-splash-screen-sd'
p727
NsS'auto-derbh'
p728
NsS'roku-icon-side-sd'
p729
NsS'symbian-maxheapsize'
p730
NsS'nds-publicsavedatasize'
p731
NsS'splashscreen'
p732
NsS'brew-mif'
p733
NsS'iphone-icon-settings-high-res'
p734
NsS'android-manifest'
p735
NsS'ws81-splash-screen-image620x300'
p736
NsS's3e-compression'
p737
NsS'tizen-author-password'
p738
NsS'wp8-tile-fliptemplate-back-content'
p739
NsS'symbian-icon1'
p740
NsS'symbian-icon2'
p741
NsS'android-extra-styles-file'
p742
NsS'nds-bannertitle-jp'
p743
NsS'osx-sign-for-store'
p744
NsS'symbian7-uid'
p745
NsS'wp8-tile-fliptemplate-large-back-content'
p746
NsS'nds-bannertitle-cn'
p747
NsS'iphone-distribution-key'
p748
NsS'android-icon-gallery'
p749
NsS'blackberry-keystore'
p750
NsS'iphone-nosign'
p751
NsS'caption'
p752
NsS'android-extra-manifest'
p753
(lp754
sS'android-icon-xxhdpi'
p755
NsS'version-minor'
p756
NsS'iphone-link-libdirs'
p757
(lp758
sS'iphone-icon-large'
p759
NsS'symbian-keypwd'
p760
NsS'symbian8-uid'
p761
NsS'symbian-cert-key'
p762
NsS'winmobile-ampd-part-number'
p763
NsS'arch'
p764
NsS'nds-romheadertemplate'
p765
NsS'webos-icon'
p766
NsS'psp-dlgprotectdocument'
p767
NsS'android-icon-mdpi'
p768
NsS'nds-icon'
p769
NsS'ws8-custom-manifest-fill'
p770
NsS'iphone-development-cert'
p771
NsS'blackberry-phone-icon'
p772
NsS'iphone-enable-4inch-retina'
p773
NsS'ws8-custom-manifest'
p774
NsS'version-major'
p775
NsS'wp8-genre-isgame'
p776
NsS'uiq3-uid'
p777
NsS'iphone-splash-retina-generate'
p778
NsS'tizen-hw-acceleration'
p779
NsS'iphone_bundle_localisations'
p780
NsS'tizen-dist1-key'
p781
NsS'wp8-custom-manifest'
p782
NsS'nds-bannertitle-ge'
p783
NsS'iphone-sign-for-distribution'
p784
NsS'wp8-tile-fliptemplate-medium-back-image'
p785
NsS'wp8-publisher-id'
p786
NsS'icon'
p787
NsS'wp8-exclude-wxga'
p788
NsS'uiq3-icon2-mask'
p789
NsS'iphone-splashscreen-portrait'
p790
NsS'iphone-icon-high-res'
p791
NsS'ws81-distribution-pfx-password'
p792
NsS'playbook-author'
p793
NsS'android-icon-xhdpi'
p794
NsS'linux-ext-lib'
p795
(lp796
sS'blackberry-permissions-access-internet'
p797
NsS'wp8-exclude-720p'
p798
NsS'lgtv-use-drm'
p799
NsS'symbian-platsecflags'
p800
NsS'ws8-description'
p801
NsS'blackberry-playbook-icon'
p802
NsS'copyright'
p803
NsS'version'
p804
NsS'ws81-logo-image150x150'
p805
NsS'osx-signing-identity-app'
p806
NsS'tizen-project-url'
p807
NsS'symbian-icon-svg'
p808
NsS'android-aliasname'
p809
NsS'psp-dlgmanual'
p810
NsS'brew-uid'
p811
NsS'symbian-locationsupport'
p812
NsS'ws8-ext-managed-dll'
p813
(lp814
sS'nds-bannertitle-it'
p815
NsS'ws8-ext-sdk-manifest-part'
p816
(lp817
sS'uiq3-icon1-mask'
p818
NsS'winmobile-icon16'
p819
NsS'ws8-product-name'
p820
NsS'blackberry-cskpass'
p821
NsS'winmobile-start-menu-folder'
p822
NsS'brew-clsid'
p823
NsS'roku-requires-bluetooth'
p824
NsS'ws8-ext-device-capabilities'
p825
(lp826
sS'blackberry-permissions-use-camera'
p827
NsS'iphone-prerendered-icon'
p828
NsS'iphone-appid'
p829
S'com.ideaworks3d.s3eIOSGameCenter'
p830
sS'ws8-identity-name'
p831
NsS'tizen-dist2-CA-path'
p832
NsS'winmobile-icon64'
p833
NsS'blackberry-permissions-post-notification'
p834
NsS'winmobile-setup-dll'
p835
NsS'android-external-jars'
p836
(lp837
S'c:/marmalade/7.2/extensions/s3ewebview/lib/android/s3eWebView.jar'
p838
aS'c:/marmalade/7.2/extensions/s3efacebook/lib/android/s3eFacebook.jar'
p839
aS'c:/marmalade/7.2/extensions/s3efacebook/facebook-android-sdk/libs/android-support-v4.jar'
p840
aS'c:/marmalade/7.2/extensions/s3efacebook/lib/android/annotations-4.1.1.4.jar'
p841
aS'c:/marmalade/7.2/extensions/s3eflurry/lib/android/s3eFlurry.jar'
p842
aS'c:/marmalade/7.2/extensions/s3eflurry/lib/android/FlurryAgent.jar'
p843
asS'symbian9-uid'
p844
NsS'iphone-icon-ipad-ios7'
p845
NsS'winmobile-trace-file'
p846
NsS'roku-splash-color'
p847
NsS'psp-appversion'
p848
NsS'ws8-publisher-id'
p849
NsS'android-supports-gl-texture'
p850
(lp851
sS'winmobile-png45'
p852
NsS'android-storepass'
p853
NsS'roku-icon-focus-hd'
p854
NsS'android-custom-activity'
p855
NsS'psp-discversion'
p856
NsS'psp-copyright'
p857
NsS'embed-icf'
p858
NsS'tizen-manifest'
p859
NsS'osx-icon'
p860
NsS'webos-appinfo'
p861
NsS'psp-dlghealthwarning'
p862
NsS'webos-appid'
p863
NsS'roku-icon-side-hd'
p864
NsS'iphone-icon-ipad-search-high-res-ios7'
p865
NsS'ws81-ext-sdk-manifest-part'
p866
(lp867
sS'loader_name_prefix'
p868
NsS'nds-titlename'
p869
NsS'ws81-logo-image50x50'
p870
NsS'osx-entitlements-plist'
p871
NsS'psp-dlgicon0'
p872
NsS'ws81-ext-device-capabilities'
p873
(lp874
sS'psp-discid'
p875
NsS'tizen-dist2-password'
p876
NsS'ws8-ext-sdk-ref'
p877
(lp878
sS'iphone-extra-string'
p879
(lp880
sS'version-string'
p881
NsS'iphone-icon-high-res-ios7'
p882
NsS'blackberry-permissions-record-audio'
p883
NsS'ws8-certificate-end-date'
p884
NsS'tizen-so'
p885
(lp886
sS'wp8-tile-fliptemplate-small-image'
p887
NsS'pkguid-as-uid'
p888
NsS'iphone-signing-identity'
p889
NsS'roku-persist-quota'
p890
NsS'nds-bannertitle-fr'
p891
NsS'ws8-distribution-pfx'
p892
NsS'ws8-publisher-display-name'
p893
NsS'brew-icon-small'
p894
NsS'psp-dlgpic2'
p895
NsS'psp-dlgpic0'
p896
NsS'psp-pic0'
p897
NsS'psp-pic1'
p898
NsS'psp-icon0'
p899
NsS'psp-icon1'
p900
NsS'ws81-identity-name'
p901
NsS'winmobile-icon'
p902
NsS'iphone-no-splash'
p903
NsS'iphone-splash'
p904
NsS'iphone-app-fonts'
p905
NsS'wp8-ext-native-dll'
p906
(lp907
S'c:/marmalade/7.2/extensions/s3ewebview/lib/wp8/s3eWebViewExtension.dll'
p908
aS'c:/marmalade/7.2/extensions/s3efacebook/lib/wp8/s3eFacebookExtension.dll'
p909
aS'c:/marmalade/7.2/extensions/s3eflurry/lib/wp8/s3eFlurryExtension.dll'
p910
asS'ws81-distribution-cer'
p911
NsS'uiq3-icon2'
p912
NsS'uiq3-icon3'
p913
NsS'uiq3-icon1'
p914
NsS'uiq3-icon1-format'
p915
NsS'ws8-logo-image50x50'
p916
NsS'iphone-icon-ipad-search'
p917
NsS'symbian-run-on-install'
p918
NsS'ws81-publisher-display-name'
p919
NsS'ws81-custom-manifest-fill'
p920
NsS'symbian-soundrecordsupport'
p921
NsS'nds-bannertitle-sp'
p922
NsS'psp-producer'
p923
NsS'iphone-apple-wwdr-cert'
p924
NsS'android-icon-nonstandard'
p925
NsS'win32-pref-processtitle'
p926
NsS'nds-bannertitle-hn'
p927
NsS'tizen-dist2-key'
p928
NsS'brew-depends'
p929
NsS'ws81-custom-manifest'
p930
NsS'iphone-icon-ipad-search-ios7'
p931
NsS'brew-icon-medium'
p932
NsS'iphone-bundle-url-name'
p933
S'ADD_YOUR_OWN_APP_ID'
p934
sS'wp8-tile-fliptemplate-large-front-image'
p935
NsS'tizen-dist2-CA-root-path'
p936
NsS'ws81-description'
p937
NsS'uiq3-icon3-format'
p938
NsS'ws81-logo-image30x30'
p939
NsS'iphone-signing-host'
p940
NsS'tizen-icon'
p941
NsS'osx-info-plist'
p942
NsS'symbian-icon1-format'
p943
NsS'ws81-distribution-pfx'
p944
NsS'blackberry-authorid'
p945
NsS'ws81-publisher-id'
p946
NsS'ws81-ext-sdk-ref'
p947
(lp948
sS'wp8-description'
p949
NsS'iphone-link-opts'
p950
(lp951
S'-F$MARMALADE_ROOT/extensions/s3eFacebook/source/iphone/facebook-ios-sdk -framework FacebookSDK -weak_framework AdSupport -weak_framework Accounts -weak_framework Social -lsqlite3'
p952
aS'-framework SystemConfiguration -framework Security'
p953
asS'roku-splash-min-time'
p954
NsS'wp8-tile-fliptemplate-medium-front-image'
p955
NsS'provider'
p956
NsS'playbook-keystore'
p957
NsS'tizen-appid'
p958
NsS'tizen-author-key'
p959
NsS'symbian-osexecsupport'
p960
NsS'android-install-location'
p961
NsS'nds-privatesavedatasize'
p962
NsS'playbook-storepass'
p963
NsS'android-icon-ldpi'
p964
NsS'manufacturer'
p965
NsS'itunes-artwork'
p966
NsS'iphone-extra-sections'
p967
NsS'ws81-product-name'
p968
NsS'ws81-ext-native-dll'
p969
(lp970
sS'iphone-info-plist'
p971
NsS'ws8-distribution-pfx-password'
p972
NsS'ws8-logo-image30x30'
p973
NsS'wp8-ext-managed-dll'
p974
(lp975
S'c:/marmalade/7.2/extensions/s3ewebview/lib/wp8/s3eWebViewManaged.dll'
p976
aS'c:/marmalade/7.2/extensions/s3efacebook/lib/wp8/s3eFacebookManaged.dll'
p977
aS'c:/marmalade/7.2/extensions/s3efacebook/facebook_wp8_lib/Facebook.Client.dll'
p978
aS'c:/marmalade/7.2/extensions/s3efacebook/facebook_wp8_lib/Facebook.dll'
p979
aS'c:/marmalade/7.2/extensions/s3eflurry/lib/wp8/FlurryWP8SDK.dll'
p980
aS'c:/marmalade/7.2/extensions/s3eflurry/lib/wp8/s3eFlurryManaged.dll'
p981
asS'iphone-splashscreen-landscape'
p982
NsS'nds-makercode'
p983
NsS'priv-sign-key'
p984
NsS'networking'
p985
NsS'android-icon'
p986
NsS'iphone-icon-settings'
p987
NsS'iphone-distribution-cert'
p988
NsS'android_extra_strings'
p989
NsS'nds-bannertitle-en'
p990
NsS'playbook-cskpass'
p991
NsS'android-so'
p992
(lp993
S'c:/marmalade/7.2/extensions/s3ewebview/lib/android/libs3eWebView.so'
p994
aS'c:/marmalade/7.2/extensions/s3efacebook/lib/android/libs3eFacebook.so'
p995
aS'c:/marmalade/7.2/extensions/s3eflurry/lib/android/libs3eFlurry.so'
p996
asS'wp8-higher-mem'
p997
NsS'roku-splash-screen-hd'
p998
NsS'iphone-bundle-url-schemes'
p999
S'fd<FACEBOOK_APP_ID>'
p1000
sS'roku-screensaver-private'
p1001
NsS'osx-extra-res'
p1002
(lp1003
sS'playbook-icon'
p1004
NsS'uid'
p1005
NsS'playbook-authorid'
p1006
NsS'win32-pref-windowtitle'
p1007
NsS'tizen-dist1-password'
p1008
NsS'roku-screensaver-title'
p1009
NsS'osx-minimum-osx-version'
p1010
NsS'symbian-cert'
p1011
NsS'iphone-icon'
p1012
NsS'ws81-ext-capabilities'
p1013
(lp1014
sS'ws8-distribution-cer'
p1015
NsS'playbook-access-shared'
p1016
NsS'iphone-icon-ipad-high-res-ios7'
p1017
NsS'iphone-link-libs'
p1018
(lp1019
sS'wp8-exclude-wvga'
p1020
NsS'assets'
p1021
NsS'wp8-tile-fliptemplate-large-back-image'
p1022
NsS'wp8-custom-manifest-fill'
p1023
NsS'pub-sign-key'
p1024
NsS'android-extra-strings'
p1025
NsS'tizen-author-CA-path'
p1026
Nssg328
g599
sbssS'platform'
p1027
S'S3E'
p1028
sg62
S'1.0'
p1029
sS'arcade_platform'
p1030
g4
sS'extensions'
p1031
(dp1032
sS'source_groups_tree'
p1033
(dp1034
S'(libpng)'
p1035
(dp1036
S'h'
p1037
(dp1038
S'c:/marmalade/7.2/modules/third_party/libpng/h/png.h'
p1039
(lp1040
I1
a(dp1041
asS'c:/marmalade/7.2/modules/third_party/libpng/h/pngconf.h'
p1042
(lp1043
I1
ag1041
assS'c:/marmalade/7.2/modules/third_party/libpng/libpng.mkf'
p1044
(lp1045
I1
a(dp1046
assS'(libjpeg)'
p1047
(dp1048
g1037
(dp1049
S'c:/marmalade/7.2/modules/third_party/libjpeg/h/jinclude.h'
p1050
(lp1051
I1
a(dp1052
asS'c:/marmalade/7.2/modules/third_party/libjpeg/h/jconfig.h'
p1053
(lp1054
I1
ag1052
asS'c:/marmalade/7.2/modules/third_party/libjpeg/h/cdjpeg.h'
p1055
(lp1056
I1
ag1052
asS'c:/marmalade/7.2/modules/third_party/libjpeg/h/jpegint.h'
p1057
(lp1058
I1
ag1052
asS'c:/marmalade/7.2/modules/third_party/libjpeg/h/transupp.h'
p1059
(lp1060
I1
ag1052
asS'c:/marmalade/7.2/modules/third_party/libjpeg/h/jpeglib.h'
p1061
(lp1062
I1
ag1052
asS'c:/marmalade/7.2/modules/third_party/libjpeg/h/jversion.h'
p1063
(lp1064
I1
ag1052
asS'c:/marmalade/7.2/modules/third_party/libjpeg/h/jdct.h'
p1065
(lp1066
I1
ag1052
asS'c:/marmalade/7.2/modules/third_party/libjpeg/h/jdhuff.h'
p1067
(lp1068
I1
ag1052
asS'c:/marmalade/7.2/modules/third_party/libjpeg/h/jmemsys.h'
p1069
(lp1070
I1
ag1052
asS'c:/marmalade/7.2/modules/third_party/libjpeg/h/jmorecfg.h'
p1071
(lp1072
I1
ag1052
asS'c:/marmalade/7.2/modules/third_party/libjpeg/h/jerror.h'
p1073
(lp1074
I1
ag1052
asS'c:/marmalade/7.2/modules/third_party/libjpeg/h/jchuff.h'
p1075
(lp1076
I1
ag1052
asS'c:/marmalade/7.2/modules/third_party/libjpeg/h/cderror.h'
p1077
(lp1078
I1
ag1052
assS'c:/marmalade/7.2/modules/third_party/libjpeg/libjpeg.mkf'
p1079
(lp1080
I1
a(dp1081
assS'(tiniconv)'
p1082
(dp1083
S'c:/marmalade/7.2/modules/third_party/tiniconv/source/tiniconv.h'
p1084
(lp1085
I1
a(dp1086
asS'c:/marmalade/7.2/modules/third_party/tiniconv/source/tiniconv_int.h'
p1087
(lp1088
I1
ag1086
asS'c:/marmalade/7.2/modules/third_party/tiniconv/tiniconv.mkf'
p1089
(lp1090
I1
a(dp1091
assS'(SoundEngine)'
p1092
(dp1093
S'c:/users/vinicius/desktop/yes or no/hoppe/modules/soundengine/source/IwSoundADPCM.cpp'
p1094
(lp1095
I1
a(dp1096
asS'c:/users/vinicius/desktop/yes or no/hoppe/modules/soundengine/h/IwSoundPCM.h'
p1097
(lp1098
I1
ag1096
asS'c:/users/vinicius/desktop/yes or no/hoppe/modules/soundengine/source/IwSoundData.cpp'
p1099
(lp1100
I1
ag1096
asS'c:/users/vinicius/desktop/yes or no/hoppe/modules/soundengine/h/IwSoundADPCM.h'
p1101
(lp1102
I1
ag1096
asS'c:/users/vinicius/desktop/yes or no/hoppe/modules/soundengine/h/IwSoundGroup.h'
p1103
(lp1104
I1
ag1096
asS'c:/users/vinicius/desktop/yes or no/hoppe/modules/soundengine/h/IwSoundWAV.h'
p1105
(lp1106
I1
ag1096
asS'c:/users/vinicius/desktop/yes or no/hoppe/modules/soundengine/source/IwSoundInst.cpp'
p1107
(lp1108
I1
ag1096
asS'Docs'
p1109
(dp1110
S'c:/users/vinicius/desktop/yes or no/hoppe/modules/soundengine/docs/iwsound.config.txt'
p1111
(lp1112
I1
ag1096
assS'c:/users/vinicius/desktop/yes or no/hoppe/modules/soundengine/source/IwResHandlerWAV.cpp'
p1113
(lp1114
I1
ag1096
asS'c:/users/vinicius/desktop/yes or no/hoppe/modules/soundengine/h/IwSoundData.h'
p1115
(lp1116
I1
ag1096
asS'c:/users/vinicius/desktop/yes or no/hoppe/modules/soundengine/source/IwSoundGroup.cpp'
p1117
(lp1118
I1
ag1096
asS'c:/users/vinicius/desktop/yes or no/hoppe/modules/soundengine/source/IwSoundSpec.cpp'
p1119
(lp1120
I1
ag1096
asS'c:/users/vinicius/desktop/yes or no/hoppe/modules/soundengine/source/IwSoundParams.cpp'
p1121
(lp1122
I1
ag1096
asS'c:/users/vinicius/desktop/yes or no/hoppe/modules/soundengine/h/IwResHandlerWAV.h'
p1123
(lp1124
I1
ag1096
asS'c:/users/vinicius/desktop/yes or no/hoppe/modules/soundengine/h/IwSound.h'
p1125
(lp1126
I1
ag1096
asS'c:/users/vinicius/desktop/yes or no/hoppe/modules/soundengine/soundengine.mkf'
p1127
(lp1128
I1
a(dp1129
asS'c:/users/vinicius/desktop/yes or no/hoppe/modules/soundengine/source/IwSoundPCM.cpp'
p1130
(lp1131
I1
ag1096
asS'c:/users/vinicius/desktop/yes or no/hoppe/modules/soundengine/source/IwSoundWAV.cpp'
p1132
(lp1133
I1
ag1096
asS'c:/users/vinicius/desktop/yes or no/hoppe/modules/soundengine/h/IwSoundInst.h'
p1134
(lp1135
I1
ag1096
asS'c:/users/vinicius/desktop/yes or no/hoppe/modules/soundengine/source/IwSoundManager.cpp'
p1136
(lp1137
I1
ag1096
asS'c:/users/vinicius/desktop/yes or no/hoppe/modules/soundengine/h/IwSoundSpec.h'
p1138
(lp1139
I1
ag1096
asS'c:/users/vinicius/desktop/yes or no/hoppe/modules/soundengine/h/IwSoundManager.h'
p1140
(lp1141
I1
ag1096
asS'c:/users/vinicius/desktop/yes or no/hoppe/modules/soundengine/h/IwSoundParams.h'
p1142
(lp1143
I1
ag1096
assS'Extensions'
p1144
(dp1145
S's3eWebView'
p1146
(dp1147
S'interface'
p1148
(dp1149
S'c:/marmalade/7.2/extensions/s3ewebview/interface/s3eWebView.defines.txt'
p1150
(lp1151
I1
a(dp1152
asS'c:/marmalade/7.2/extensions/s3ewebview/interface/s3eWebView_interface.cpp'
p1153
(lp1154
I1
ag1152
assS'c:/marmalade/7.2/extensions/s3ewebview/h/s3eWebView.h'
p1155
(lp1156
I1
ag1152
asS'c:/marmalade/7.2/extensions/s3ewebview/s3ewebview.mkf'
p1157
(lp1158
I1
a(dp1159
assS's3eFacebook'
p1160
(dp1161
S'interface'
p1162
(dp1163
S'c:/marmalade/7.2/extensions/s3efacebook/interface/s3eFacebook_interface.cpp'
p1164
(lp1165
I1
a(dp1166
asS'c:/marmalade/7.2/extensions/s3efacebook/interface/s3eFacebook.defines.txt'
p1167
(lp1168
I1
ag1166
assg1037
(dp1169
S'c:/marmalade/7.2/extensions/s3efacebook/h/s3eFacebook.h'
p1170
(lp1171
I1
ag1166
assS'c:/marmalade/7.2/extensions/s3efacebook/s3efacebook.mkf'
p1172
(lp1173
I1
a(dp1174
assS's3eFlurry'
p1175
(dp1176
S'interface'
p1177
(dp1178
S'c:/marmalade/7.2/extensions/s3eflurry/interface/s3eFlurry_interface.cpp'
p1179
(lp1180
I1
a(dp1181
asS'c:/marmalade/7.2/extensions/s3eflurry/interface/s3eFlurry.defines.txt'
p1182
(lp1183
I1
ag1181
assS'c:/marmalade/7.2/extensions/s3eflurry/h/s3eFlurry.h'
p1184
(lp1185
I1
ag1181
asS'c:/marmalade/7.2/extensions/s3eflurry/s3eflurry.mkf'
p1186
(lp1187
I1
a(dp1188
asssS"'Marmalade Studio'"
p1189
(dp1190
S'iw2dscenegraph'
p1191
(dp1192
S'c:/marmalade/7.2/modules/iw2dscenegraph/source/Iw2DSceneGraph.cpp'
p1193
(lp1194
I1
a(dp1195
asS'c:/marmalade/7.2/modules/iw2dscenegraph/iw2dscenegraph.mkf'
p1196
(lp1197
I1
a(dp1198
asS'c:/marmalade/7.2/modules/iw2dscenegraph/h/Iw2DSceneGraph.h'
p1199
(lp1200
I1
ag1195
asS'c:/marmalade/7.2/modules/iw2dscenegraph/docs/iw2dscenegraph.defines.txt'
p1201
(lp1202
I1
ag1195
assS'iwgl'
p1203
(dp1204
S'c:/marmalade/7.2/modules/iwgl/h/IwGL.h'
p1205
(lp1206
I1
a(dp1207
asS'c:/marmalade/7.2/modules/iwgl/iwgl.mkf'
p1208
(lp1209
I1
a(dp1210
asS'c:/marmalade/7.2/modules/iwgl/h/IwGLExt.h'
p1211
(lp1212
I1
ag1207
asS'c:/marmalade/7.2/modules/iwgl/docs/iwgl.config.txt'
p1213
(lp1214
I1
ag1207
assS'iw2d'
p1215
(dp1216
S'c:/marmalade/7.2/modules/iw2d/docs/iw2d_public.defines.txt'
p1217
(lp1218
I1
a(dp1219
asS'c:/marmalade/7.2/modules/iw2d/h/Iw2D.h'
p1220
(lp1221
I1
ag1219
asS'c:/marmalade/7.2/modules/iw2d/docs/iw2d.config.txt'
p1222
(lp1223
I1
ag1219
asS'c:/marmalade/7.2/modules/iw2d/iw2d.mkf'
p1224
(lp1225
I1
a(dp1226
assS'iwgxfont'
p1227
(dp1228
S'c:/marmalade/7.2/modules/iwgxfont/h/IwGxFont.h'
p1229
(lp1230
I1
a(dp1231
asS'c:/marmalade/7.2/modules/iwgxfont/h/IwGxFontPreparedData.h'
p1232
(lp1233
I1
ag1231
asS'c:/marmalade/7.2/modules/iwgxfont/h/IwGxFontContainer.h'
p1234
(lp1235
I1
ag1231
asS'c:/marmalade/7.2/modules/iwgxfont/docs/iwgxfont_public.defines.txt'
p1236
(lp1237
I1
ag1231
asS'c:/marmalade/7.2/modules/iwgxfont/h/IwGxFontGlyph.h'
p1238
(lp1239
I1
ag1231
asS'c:/marmalade/7.2/modules/iwgxfont/h/IwGxFontState.h'
p1240
(lp1241
I1
ag1231
asS'c:/marmalade/7.2/modules/iwgxfont/h/IwGxFontTypes.h'
p1242
(lp1243
I1
ag1231
asS'c:/marmalade/7.2/modules/iwgxfont/iwgxfont.mkf'
p1244
(lp1245
I1
a(dp1246
asS'c:/marmalade/7.2/modules/iwgxfont/docs/iwgxfont.config.txt'
p1247
(lp1248
I1
ag1231
assS'iwgeom'
p1249
(dp1250
S'c:/marmalade/7.2/modules/iwgeom/h/IwGeomFPlane.h'
p1251
(lp1252
I1
a(dp1253
asS'c:/marmalade/7.2/modules/iwgeom/h/IwGeomPlane.h'
p1254
(lp1255
I1
ag1253
asS'c:/marmalade/7.2/modules/iwgeom/h/IwGeomMat.h'
p1256
(lp1257
I1
ag1253
asS'c:/marmalade/7.2/modules/iwgeom/h/IwGeomMat2D.h'
p1258
(lp1259
I1
ag1253
asS'c:/marmalade/7.2/modules/iwgeom/h/IwGeomMenu.h'
p1260
(lp1261
I1
ag1253
asS'c:/marmalade/7.2/modules/iwgeom/h/IwGeomSqrt.h'
p1262
(lp1263
I1
ag1253
asS'c:/marmalade/7.2/modules/iwgeom/h/IwGeomFMat2D.h'
p1264
(lp1265
I1
ag1253
asS'c:/marmalade/7.2/modules/iwgeom/h/IwGeomCore.h'
p1266
(lp1267
I1
ag1253
asS'c:/marmalade/7.2/modules/iwgeom/h/IwGeomFVec3.h'
p1268
(lp1269
I1
ag1253
asS'c:/marmalade/7.2/modules/iwgeom/h/IwGeomFVec2.h'
p1270
(lp1271
I1
ag1253
asS'c:/marmalade/7.2/modules/iwgeom/h/IwGeom.h'
p1272
(lp1273
I1
ag1253
asS'c:/marmalade/7.2/modules/iwgeom/h/IwGeomSVec2.h'
p1274
(lp1275
I1
ag1253
asS'c:/marmalade/7.2/modules/iwgeom/h/IwGeomFVec4.h'
p1276
(lp1277
I1
ag1253
asS'c:/marmalade/7.2/modules/iwgeom/h/IwGeomSVec3.h'
p1278
(lp1279
I1
ag1253
asS'c:/marmalade/7.2/modules/iwgeom/h/IwGeomBBox.h'
p1280
(lp1281
I1
ag1253
asS'c:/marmalade/7.2/modules/iwgeom/h/IwGeomVec2.h'
p1282
(lp1283
I1
ag1253
asS'c:/marmalade/7.2/modules/iwgeom/h/IwGeomFMat.h'
p1284
(lp1285
I1
ag1253
asS'c:/marmalade/7.2/modules/iwgeom/h/IwGeomFQuat.h'
p1286
(lp1287
I1
ag1253
asS'c:/marmalade/7.2/modules/iwgeom/h/IwGeomVec3.h'
p1288
(lp1289
I1
ag1253
asS'c:/marmalade/7.2/modules/iwgeom/h/IwGeomSVec4.h'
p1290
(lp1291
I1
ag1253
asS'c:/marmalade/7.2/modules/iwgeom/docs/iwgeom.config.txt'
p1292
(lp1293
I1
ag1253
asS'c:/marmalade/7.2/modules/iwgeom/h/IwGeomFIntersect.h'
p1294
(lp1295
I1
ag1253
asS'c:/marmalade/7.2/modules/iwgeom/iwgeom.mkf'
p1296
(lp1297
I1
a(dp1298
asS'c:/marmalade/7.2/modules/iwgeom/h/IwGeomFSphere.h'
p1299
(lp1300
I1
ag1253
asS'c:/marmalade/7.2/modules/iwgeom/h/IwGeomLegacy.h'
p1301
(lp1302
I1
ag1253
asS'c:/marmalade/7.2/modules/iwgeom/h/IwGeomIntersect.h'
p1303
(lp1304
I1
ag1253
asS'c:/marmalade/7.2/modules/iwgeom/h/IwGeomSQuat.h'
p1305
(lp1306
I1
ag1253
asS'c:/marmalade/7.2/modules/iwgeom/h/IwGeomQuat.h'
p1307
(lp1308
I1
ag1253
asS'c:/marmalade/7.2/modules/iwgeom/h/IwGeomSphere.h'
p1309
(lp1310
I1
ag1253
asS'c:/marmalade/7.2/modules/iwgeom/h/IwGeomVec.h'
p1311
(lp1312
I1
ag1253
asS'c:/marmalade/7.2/modules/iwgeom/h/IwGeomVec4.h'
p1313
(lp1314
I1
ag1253
asS'c:/marmalade/7.2/modules/iwgeom/h/IwGeomFBBox.h'
p1315
(lp1316
I1
ag1253
assS'iwresmanager'
p1317
(dp1318
S'c:/marmalade/7.2/modules/iwresmanager/h/IwResHandlerGROUP.h'
p1319
(lp1320
I1
a(dp1321
asS'c:/marmalade/7.2/modules/iwresmanager/h/IwResHandler.h'
p1322
(lp1323
I1
ag1321
asS'c:/marmalade/7.2/modules/iwresmanager/iwresmanager.mkf'
p1324
(lp1325
I1
a(dp1326
asS'c:/marmalade/7.2/modules/iwresmanager/h/IwResGroup.h'
p1327
(lp1328
I1
ag1321
asS'c:/marmalade/7.2/modules/iwresmanager/h/IwResHandlerImage.h'
p1329
(lp1330
I1
ag1321
asS'c:/marmalade/7.2/modules/iwresmanager/docs/iwresmanager.config.txt'
p1331
(lp1332
I1
ag1321
asS'c:/marmalade/7.2/modules/iwresmanager/h/IwResManagerClass.h'
p1333
(lp1334
I1
ag1321
asS'c:/marmalade/7.2/modules/iwresmanager/h/IwResHandlerITX.h'
p1335
(lp1336
I1
ag1321
asS'c:/marmalade/7.2/modules/iwresmanager/h/IwResSerialise.h'
p1337
(lp1338
I1
ag1321
asS'c:/marmalade/7.2/modules/iwresmanager/h/IwResManager.h'
p1339
(lp1340
I1
ag1321
assS'iwgx'
p1341
(dp1342
S'c:/marmalade/7.2/modules/iwgx/h/IwTPage.h'
p1343
(lp1344
I1
a(dp1345
asS'c:/marmalade/7.2/modules/iwgx/h/IwGxStream.h'
p1346
(lp1347
I1
ag1345
asS'c:/marmalade/7.2/modules/iwgx/h/IwGxTransformSW.h'
p1348
(lp1349
I1
ag1345
asS'c:/marmalade/7.2/modules/iwgx/h/IwMaterial.h'
p1350
(lp1351
I1
ag1345
asS'c:/marmalade/7.2/modules/iwgx/h/IwMatAnim.h'
p1352
(lp1353
I1
ag1345
asS'c:/marmalade/7.2/modules/iwgx/docs/iwgx.config.txt'
p1354
(lp1355
I1
ag1345
asS'c:/marmalade/7.2/modules/iwgx/iwgx.mkf'
p1356
(lp1357
I1
a(dp1358
asS'c:/marmalade/7.2/modules/iwgx/h/IwResHandlerMTL.h'
p1359
(lp1360
I1
ag1345
asS'c:/marmalade/7.2/modules/iwgx/h/IwGxPrint.h'
p1361
(lp1362
I1
ag1345
asS'c:/marmalade/7.2/modules/iwgx/h/IwGxSurface.h'
p1363
(lp1364
I1
ag1345
asS'c:/marmalade/7.2/modules/iwgx/docs/iwgx_public.defines.txt'
p1365
(lp1366
I1
ag1345
asS'c:/marmalade/7.2/modules/iwgx/h/IwClip.h'
p1367
(lp1368
I1
ag1345
asS'c:/marmalade/7.2/modules/iwgx/h/IwGx.h'
p1369
(lp1370
I1
ag1345
asS'c:/marmalade/7.2/modules/iwgx/h/IwGxDebug.h'
p1371
(lp1372
I1
ag1345
asS'c:/marmalade/7.2/modules/iwgx/h/IwDebugPrim.h'
p1373
(lp1374
I1
ag1345
asS'c:/marmalade/7.2/modules/iwgx/h/IwGxMetrics.h'
p1375
(lp1376
I1
ag1345
asS'c:/marmalade/7.2/modules/iwgx/h/IwGxError.h'
p1377
(lp1378
I1
ag1345
asS'c:/marmalade/7.2/modules/iwgx/h/IwClip.inl'
p1379
(lp1380
I1
ag1345
asS'c:/marmalade/7.2/modules/iwgx/h/IwGxFuncTable.h'
p1381
(lp1382
I1
ag1345
asS'c:/marmalade/7.2/modules/iwgx/h/IwTexture.h'
p1383
(lp1384
I1
ag1345
asS'c:/marmalade/7.2/modules/iwgx/h/IwFColour.h'
p1385
(lp1386
I1
ag1345
asS'c:/marmalade/7.2/modules/iwgx/h/IwColour.h'
p1387
(lp1388
I1
ag1345
asS'c:/marmalade/7.2/modules/iwgx/h/IwGxShaderTechnique.h'
p1389
(lp1390
I1
ag1345
asS'c:/marmalade/7.2/modules/iwgx/h/IwGxTypes.h'
p1391
(lp1392
I1
ag1345
asS'c:/marmalade/7.2/modules/iwgx/h/IwGxState.h'
p1393
(lp1394
I1
ag1345
assS'iw2dscenegraphcore'
p1395
(dp1396
S'c:/marmalade/7.2/modules/iw2dscenegraphcore/iw2dscenegraphcore.mkf'
p1397
(lp1398
I1
a(dp1399
asS'c:/marmalade/7.2/modules/iw2dscenegraphcore/h/Iw2DSceneGraphCore.h'
p1400
(lp1401
I1
a(dp1402
asS'c:/marmalade/7.2/modules/iw2dscenegraphcore/source/Iw2DSceneGraphCore.cpp'
p1403
(lp1404
I1
ag1402
assS'iwutil'
p1405
(dp1406
S'c:/marmalade/7.2/modules/iwutil/h/IwCore.h'
p1407
(lp1408
I1
a(dp1409
asS'c:/marmalade/7.2/modules/iwutil/h/IwArray.h'
p1410
(lp1411
I1
ag1409
asS'c:/marmalade/7.2/modules/iwutil/h/IwResource.h'
p1412
(lp1413
I1
ag1409
asS'c:/marmalade/7.2/modules/iwutil/h/IwFibre.h'
p1414
(lp1415
I1
ag1409
asS'c:/marmalade/7.2/modules/iwutil/h/IwBuffer.h'
p1416
(lp1417
I1
ag1409
asS'c:/marmalade/7.2/modules/iwutil/h/IwRandom.h'
p1418
(lp1419
I1
ag1409
asS'c:/marmalade/7.2/modules/iwutil/h/IwManagedList.h'
p1420
(lp1421
I1
ag1409
asS'c:/marmalade/7.2/modules/iwutil/h/IwList.h'
p1422
(lp1423
I1
ag1409
asS'c:/marmalade/7.2/modules/iwutil/h/IwProfileMenu.h'
p1424
(lp1425
I1
ag1409
asS'c:/marmalade/7.2/modules/iwutil/h/IwMemory.h'
p1426
(lp1427
I1
ag1409
asS'c:/marmalade/7.2/modules/iwutil/h/IwMath.h'
p1428
(lp1429
I1
ag1409
asS'c:/marmalade/7.2/modules/iwutil/h/IwDivTable.h'
p1430
(lp1431
I1
ag1409
asS'c:/marmalade/7.2/modules/iwutil/h/IwTextParserITX.h'
p1432
(lp1433
I1
ag1409
asS'c:/marmalade/7.2/modules/iwutil/h/IwMenu.h'
p1434
(lp1435
I1
ag1409
asS'c:/marmalade/7.2/modules/iwutil/h/IwChar.h'
p1436
(lp1437
I1
ag1409
asS'c:/marmalade/7.2/modules/iwutil/h/IwEvent.h'
p1438
(lp1439
I1
ag1409
asS'c:/marmalade/7.2/modules/iwutil/h/IwTextParser.h'
p1440
(lp1441
I1
ag1409
asS'c:/marmalade/7.2/modules/iwutil/h/IwOptimiseSize.h'
p1442
(lp1443
I1
ag1409
asS'c:/marmalade/7.2/modules/iwutil/h/IwSingleton.h'
p1444
(lp1445
I1
ag1409
asS'c:/marmalade/7.2/modules/iwutil/h/IwImage.h'
p1446
(lp1447
I1
ag1409
asS'c:/marmalade/7.2/modules/iwutil/h/IwFile.h'
p1448
(lp1449
I1
ag1409
asS'c:/marmalade/7.2/modules/iwutil/h/IwString.h'
p1450
(lp1451
I1
ag1409
asS'c:/marmalade/7.2/modules/iwutil/h/IwVariableBitField.h'
p1452
(lp1453
I1
ag1409
asS'c:/marmalade/7.2/modules/iwutil/h/IwUncopyable.h'
p1454
(lp1455
I1
ag1409
asS'c:/marmalade/7.2/modules/iwutil/h/IwAllocator.h'
p1456
(lp1457
I1
ag1409
asS'c:/marmalade/7.2/modules/iwutil/h/IwTypes.h'
p1458
(lp1459
I1
ag1409
asS'c:/marmalade/7.2/modules/iwutil/h/IwManaged.h'
p1460
(lp1461
I1
ag1409
asS'c:/marmalade/7.2/modules/iwutil/h/IwRuntime.h'
p1462
(lp1463
I1
ag1409
asS'c:/marmalade/7.2/modules/iwutil/h/IwMemManagerDL.h'
p1464
(lp1465
I1
ag1409
asS'c:/marmalade/7.2/modules/iwutil/h/IwOptimiseThumb.h'
p1466
(lp1467
I1
ag1409
asS'c:/marmalade/7.2/modules/iwutil/h/IwUtil.h'
p1468
(lp1469
I1
ag1409
asS'c:/marmalade/7.2/modules/iwutil/docs/iwutil.config.txt'
p1470
(lp1471
I1
ag1409
asS'c:/marmalade/7.2/modules/iwutil/h/IwClassFactory.h'
p1472
(lp1473
I1
ag1409
asS'c:/marmalade/7.2/modules/iwutil/h/IwUtilInitTerm.h'
p1474
(lp1475
I1
ag1409
asS'c:/marmalade/7.2/modules/iwutil/h/IwAutoFile.h'
p1476
(lp1477
I1
ag1409
asS'c:/marmalade/7.2/modules/iwutil/h/IwUTF8.h'
p1478
(lp1479
I1
ag1409
asS'c:/marmalade/7.2/modules/iwutil/h/IwSerialise.h'
p1480
(lp1481
I1
ag1409
asS'c:/marmalade/7.2/modules/iwutil/h/IwPath.h'
p1482
(lp1483
I1
ag1409
asS'c:/marmalade/7.2/modules/iwutil/h/IwMemBucketHelpers.h'
p1484
(lp1485
I1
ag1409
asS'c:/marmalade/7.2/modules/iwutil/h/IwCopyingPtr.h'
p1486
(lp1487
I1
ag1409
asS'c:/marmalade/7.2/modules/iwutil/h/IwOptimiseARM.h'
p1488
(lp1489
I1
ag1409
asS'c:/marmalade/7.2/modules/iwutil/h/IwMemBucket.h'
p1490
(lp1491
I1
ag1409
asS'c:/marmalade/7.2/modules/iwutil/iwutil.mkf'
p1492
(lp1493
I1
a(dp1494
asS'c:/marmalade/7.2/modules/iwutil/h/IwKeymap.h'
p1495
(lp1496
I1
ag1409
asS'c:/marmalade/7.2/modules/iwutil/h/IwImageHelper.h'
p1497
(lp1498
I1
ag1409
asS'c:/marmalade/7.2/modules/iwutil/h/IwOptimiseSpeed.h'
p1499
(lp1500
I1
ag1409
asS'c:/marmalade/7.2/modules/iwutil/h/IwTextParseable.h'
p1501
(lp1502
I1
ag1409
asS'c:/marmalade/7.2/modules/iwutil/h/IwDebug.h'
p1503
(lp1504
I1
ag1409
asS'c:/marmalade/7.2/modules/iwutil/h/IwDivide.h'
p1505
(lp1506
I1
ag1409
asS'c:/marmalade/7.2/modules/iwutil/h/IwHashString.h'
p1507
(lp1508
I1
ag1409
asssS'(zlib)'
p1509
(dp1510
g1037
(dp1511
S'c:/marmalade/7.2/modules/third_party/zlib/h/zconf.h'
p1512
(lp1513
I1
a(dp1514
asS'c:/marmalade/7.2/modules/third_party/zlib/h/zlib.h'
p1515
(lp1516
I1
ag1514
assS'c:/marmalade/7.2/modules/third_party/zlib/zlib.mkf'
p1517
(lp1518
I1
a(dp1519
assS'(iwtween)'
p1520
(dp1521
S'c:/marmalade/7.2/modules/iwtween/iwtween.mkf'
p1522
(lp1523
I1
a(dp1524
asS'c:/marmalade/7.2/modules/iwtween/source/IwTween.cpp'
p1525
(lp1526
I1
a(dp1527
asS'c:/marmalade/7.2/modules/iwtween/h/IwTween.h'
p1528
(lp1529
I1
ag1527
assS'hope'
p1530
(dp1531
S'main'
p1532
(dp1533
S'c:/Users/Vinicius/Desktop/Yes or No/Hoppe/source/main.cpp'
p1534
(lp1535
I1
a(dp1536
asS'c:/Users/Vinicius/Desktop/Yes or No/Hoppe/source/include.h'
p1537
(lp1538
I1
ag1536
asS'c:/Users/Vinicius/Desktop/Yes or No/Hoppe/source/main.h'
p1539
(lp1540
I1
ag1536
assS'managers'
p1541
(dp1542
S'c:/Users/Vinicius/Desktop/Yes or No/Hoppe/source/audioManager.h'
p1543
(lp1544
I1
ag1536
asS'c:/Users/Vinicius/Desktop/Yes or No/Hoppe/source/timerManager.cpp'
p1545
(lp1546
I1
ag1536
asS'c:/Users/Vinicius/Desktop/Yes or No/Hoppe/source/timerManager.h'
p1547
(lp1548
I1
ag1536
asS'c:/Users/Vinicius/Desktop/Yes or No/Hoppe/source/inputManager.h'
p1549
(lp1550
I1
ag1536
asS'c:/Users/Vinicius/Desktop/Yes or No/Hoppe/source/inputManager.cpp'
p1551
(lp1552
I1
ag1536
asS'c:/Users/Vinicius/Desktop/Yes or No/Hoppe/source/audioManager.cpp'
p1553
(lp1554
I1
ag1536
asS'c:/Users/Vinicius/Desktop/Yes or No/Hoppe/source/sceneManager.cpp'
p1555
(lp1556
I1
ag1536
asS'c:/Users/Vinicius/Desktop/Yes or No/Hoppe/source/sceneManager.h'
p1557
(lp1558
I1
ag1536
assS'scenes'
p1559
(dp1560
S'c:/Users/Vinicius/Desktop/Yes or No/Hoppe/source/mainMenu.h'
p1561
(lp1562
I1
ag1536
asS'c:/Users/Vinicius/Desktop/Yes or No/Hoppe/source/mainMenu.cpp'
p1563
(lp1564
I1
ag1536
asS'c:/Users/Vinicius/Desktop/Yes or No/Hoppe/source/game.cpp'
p1565
(lp1566
I1
ag1536
asS'c:/Users/Vinicius/Desktop/Yes or No/Hoppe/source/game.h'
p1567
(lp1568
I1
ag1536
assssS'files'
p1569
(dp1570
S'IwGxFontPreparedData.h'
p1571
g302
(cmkb_main
File
p1572
g304
Ntp1573
Rp1574
(dp1575
S'flags'
p1576
g1231
sS'group'
p1577
(lp1578
S"'Marmalade Studio'"
p1579
ag1227
asg328
g1232
sbsS'iterator'
p1580
g302
(g1572
g304
Ntp1581
Rp1582
(dp1583
g1576
(dp1584
sg1577
(lp1585
S"'Marmalade System (S3E)'"
p1586
aS'stdc headers'
p1587
aS'c++'
p1588
asg328
S'c:/marmalade/7.2/s3e/h/std/c++/iterator'
p1589
sbsS'IwGL.h'
p1590
g302
(g1572
g304
Ntp1591
Rp1592
(dp1593
g1576
g1207
sg1577
(lp1594
S"'Marmalade Studio'"
p1595
ag1203
asg328
g1205
sbsS's3e.h'
p1596
g302
(g1572
g304
Ntp1597
Rp1598
(dp1599
g1576
g1584
sg1577
(lp1600
g1586
asg328
S'c:/marmalade/7.2/s3e/h/s3e.h'
p1601
sbsS'errno.h'
p1602
g302
(g1572
g304
Ntp1603
Rp1604
(dp1605
g1576
g1584
sg1577
(lp1606
g1586
aS'stdc headers'
p1607
asg328
S'c:/marmalade/7.2/s3e/h/std/errno.h'
p1608
sbsS'IwSingleton.h'
p1609
g302
(g1572
g304
Ntp1610
Rp1611
(dp1612
g1576
g1409
sg1577
(lp1613
S"'Marmalade Studio'"
p1614
ag1405
asg328
g1444
sbsS'dlfcn.h'
p1615
g302
(g1572
g304
Ntp1616
Rp1617
(dp1618
g1576
g1584
sg1577
g1606
sg328
S'c:/marmalade/7.2/s3e/h/std/dlfcn.h'
p1619
sbsS'IwSoundWAV.cpp'
p1620
g302
(g1572
g304
Ntp1621
Rp1622
(dp1623
g1576
g1096
sg1577
(lp1624
g1092
asg328
g1132
sbsS'sched.h'
p1625
g302
(g1572
g304
Ntp1626
Rp1627
(dp1628
g1576
g1584
sg1577
g1606
sg328
S'c:/marmalade/7.2/s3e/h/std/sched.h'
p1629
sbsS'IwSoundPCM.h'
p1630
g302
(g1572
g304
Ntp1631
Rp1632
(dp1633
g1576
g1096
sg1577
g1624
sg328
g1097
sbsS'IwGeomFMat2D.h'
p1634
g302
(g1572
g304
Ntp1635
Rp1636
(dp1637
g1576
g1253
sg1577
(lp1638
S"'Marmalade Studio'"
p1639
ag1249
asg328
g1264
sbsS'cassert'
p1640
g302
(g1572
g304
Ntp1641
Rp1642
(dp1643
g1576
g1584
sg1577
g1585
sg328
S'c:/marmalade/7.2/s3e/h/std/c++/cassert'
p1644
sbsS'grp.h'
p1645
g302
(g1572
g304
Ntp1646
Rp1647
(dp1648
g1576
g1584
sg1577
g1606
sg328
S'c:/marmalade/7.2/s3e/h/std/grp.h'
p1649
sbsS'list'
p1650
g302
(g1572
g304
Ntp1651
Rp1652
(dp1653
g1576
g1584
sg1577
g1585
sg328
S'c:/marmalade/7.2/s3e/h/std/c++/list'
p1654
sbsS'IwSoundSpec.cpp'
p1655
g302
(g1572
g304
Ntp1656
Rp1657
(dp1658
g1576
g1096
sg1577
g1624
sg328
g1119
sbsS'istream'
p1659
g302
(g1572
g304
Ntp1660
Rp1661
(dp1662
g1576
g1584
sg1577
g1585
sg328
S'c:/marmalade/7.2/s3e/h/std/c++/istream'
p1663
sbsS'jpeglib.h'
p1664
g302
(g1572
g304
Ntp1665
Rp1666
(dp1667
g1576
g1052
sg1577
(lp1668
g1047
ag1037
asg328
g1061
sbsS'iw2d_public.defines.txt'
p1669
g302
(g1572
g304
Ntp1670
Rp1671
(dp1672
g1576
g1219
sg1577
(lp1673
S"'Marmalade Studio'"
p1674
ag1215
asg328
g1217
sbsS'iostream.h'
p1675
g302
(g1572
g304
Ntp1676
Rp1677
(dp1678
g1576
g1584
sg1577
g1585
sg328
S'c:/marmalade/7.2/s3e/h/std/c++/iostream.h'
p1679
sbsS'IwSoundADPCM.h'
p1680
g302
(g1572
g304
Ntp1681
Rp1682
(dp1683
g1576
g1096
sg1577
g1624
sg328
g1101
sbsS'string'
p1684
g302
(g1572
g304
Ntp1685
Rp1686
(dp1687
g1576
g1584
sg1577
g1585
sg328
S'c:/marmalade/7.2/s3e/h/std/c++/string'
p1688
sbsS'IwMemory.h'
p1689
g302
(g1572
g304
Ntp1690
Rp1691
(dp1692
g1576
g1409
sg1577
g1613
sg328
g1426
sbsS'IwGeomPlane.h'
p1693
g302
(g1572
g304
Ntp1694
Rp1695
(dp1696
g1576
g1253
sg1577
g1638
sg328
g1254
sbsS'iw2d.config.txt'
p1697
g302
(g1572
g304
Ntp1698
Rp1699
(dp1700
g1576
g1219
sg1577
g1673
sg328
g1222
sbsS'iomanip'
p1701
g302
(g1572
g304
Ntp1702
Rp1703
(dp1704
g1576
g1584
sg1577
g1585
sg328
S'c:/marmalade/7.2/s3e/h/std/c++/iomanip'
p1705
sbsS'iwgeom.mkf'
p1706
g302
(g1572
g304
Ntp1707
Rp1708
(dp1709
g1576
g1298
sg1577
g1638
sg328
g1296
sbsS'IwGxError.h'
p1710
g302
(g1572
g304
Ntp1711
Rp1712
(dp1713
g1576
g1345
sg1577
(lp1714
S"'Marmalade Studio'"
p1715
ag1341
asg328
g1377
sbsS'IwGeom.h'
p1716
g302
(g1572
g304
Ntp1717
Rp1718
(dp1719
g1576
g1253
sg1577
g1638
sg328
g1272
sbsS'IwGeomVec4.h'
p1720
g302
(g1572
g304
Ntp1721
Rp1722
(dp1723
g1576
g1253
sg1577
g1638
sg328
g1313
sbsS'dir.h'
p1724
g302
(g1572
g304
Ntp1725
Rp1726
(dp1727
g1576
g1584
sg1577
(lp1728
g1586
aS'stdc headers'
p1729
aS'sys'
p1730
asg328
S'c:/marmalade/7.2/s3e/h/std/sys/dir.h'
p1731
sbsS'locale.h'
p1732
g302
(g1572
g304
Ntp1733
Rp1734
(dp1735
g1576
g1584
sg1577
g1606
sg328
S'c:/marmalade/7.2/s3e/h/std/locale.h'
p1736
sbsS'vector'
p1737
g302
(g1572
g304
Ntp1738
Rp1739
(dp1740
g1576
g1584
sg1577
g1585
sg328
S'c:/marmalade/7.2/s3e/h/std/c++/vector'
p1741
sbsS'IwManaged.h'
p1742
g302
(g1572
g304
Ntp1743
Rp1744
(dp1745
g1576
g1409
sg1577
g1613
sg328
g1460
sbsS's3eCompass.h'
p1746
g302
(g1572
g304
Ntp1747
Rp1748
(dp1749
g1576
g1584
sg1577
g1600
sg328
S'c:/marmalade/7.2/s3e/h/s3eCompass.h'
p1750
sbsS'cderror.h'
p1751
g302
(g1572
g304
Ntp1752
Rp1753
(dp1754
g1576
g1052
sg1577
g1668
sg328
g1077
sbsS'climits'
p1755
g302
(g1572
g304
Ntp1756
Rp1757
(dp1758
g1576
g1584
sg1577
g1585
sg328
S'c:/marmalade/7.2/s3e/h/std/c++/climits'
p1759
sbsS's3eVibra.h'
p1760
g302
(g1572
g304
Ntp1761
Rp1762
(dp1763
g1576
g1584
sg1577
g1600
sg328
S'c:/marmalade/7.2/s3e/h/s3eVibra.h'
p1764
sbsS'jversion.h'
p1765
g302
(g1572
g304
Ntp1766
Rp1767
(dp1768
g1576
g1052
sg1577
g1668
sg328
g1063
sbsS'fnmatch.h'
p1769
g302
(g1572
g304
Ntp1770
Rp1771
(dp1772
g1576
g1584
sg1577
g1606
sg328
S'c:/marmalade/7.2/s3e/h/std/fnmatch.h'
p1773
sbsS'IwGxState.h'
p1774
g302
(g1572
g304
Ntp1775
Rp1776
(dp1777
g1576
g1345
sg1577
g1714
sg328
g1393
sbsS's3eAudio.h'
p1778
g302
(g1572
g304
Ntp1779
Rp1780
(dp1781
g1576
g1584
sg1577
g1600
sg328
S'c:/marmalade/7.2/s3e/h/s3eAudio.h'
p1782
sbsS's3eSurface.h'
p1783
g302
(g1572
g304
Ntp1784
Rp1785
(dp1786
g1576
g1584
sg1577
g1600
sg328
S'c:/marmalade/7.2/s3e/h/s3eSurface.h'
p1787
sbsS'new'
p1788
g302
(g1572
g304
Ntp1789
Rp1790
(dp1791
g1576
g1584
sg1577
g1585
sg328
S'c:/marmalade/7.2/s3e/h/std/c++/new'
p1792
sbsS's3eWindow.h'
p1793
g302
(g1572
g304
Ntp1794
Rp1795
(dp1796
g1576
g1584
sg1577
(lp1797
g1586
aS'Extensions'
p1798
asg328
S'c:/marmalade/7.2/s3e/h/ext/s3eWindow.h'
p1799
sbsS'IwBuffer.h'
p1800
g302
(g1572
g304
Ntp1801
Rp1802
(dp1803
g1576
g1409
sg1577
g1613
sg328
g1416
sbsS's3eflurry.mkf'
p1804
g302
(g1572
g304
Ntp1805
Rp1806
(dp1807
g1576
g1188
sg1577
(lp1808
S'Extensions'
p1809
ag1175
asg328
g1186
sbsS'stdio_streambuf'
p1810
g302
(g1572
g304
Ntp1811
Rp1812
(dp1813
g1576
g1584
sg1577
g1585
sg328
S'c:/marmalade/7.2/s3e/h/std/c++/stdio_streambuf'
p1814
sbsS's3eOSExec.h'
p1815
g302
(g1572
g304
Ntp1816
Rp1817
(dp1818
g1576
g1584
sg1577
g1797
sg328
S'c:/marmalade/7.2/s3e/h/ext/s3eOSExec.h'
p1819
sbsS'IwGxTransformSW.h'
p1820
g302
(g1572
g304
Ntp1821
Rp1822
(dp1823
g1576
g1345
sg1577
g1714
sg328
g1348
sbsS'unistd.h'
p1824
g302
(g1572
g304
Ntp1825
Rp1826
(dp1827
g1576
g1584
sg1577
g1606
sg328
S'c:/marmalade/7.2/s3e/h/std/unistd.h'
p1828
sbsS'iwgxfont.config.txt'
p1829
g302
(g1572
g304
Ntp1830
Rp1831
(dp1832
g1576
g1231
sg1577
g1578
sg328
g1247
sbsS'gl2platform.h'
p1833
g302
(g1572
g304
Ntp1834
Rp1835
(dp1836
g1576
g1584
sg1577
(lp1837
g1586
aS'GL'
p1838
aS'GLES 2.0'
p1839
asg328
S'c:/marmalade/7.2/s3e/h/GLES2/gl2platform.h'
p1840
sbsS'IwResManagerClass.h'
p1841
g302
(g1572
g304
Ntp1842
Rp1843
(dp1844
g1576
g1321
sg1577
(lp1845
g1189
ag1317
asg328
g1333
sbsS'queue'
p1846
g302
(g1572
g304
Ntp1847
Rp1848
(dp1849
g1576
g1584
sg1577
g1585
sg328
S'c:/marmalade/7.2/s3e/h/std/c++/queue'
p1850
sbsS'time_1.h'
p1851
g302
(g1572
g304
Ntp1852
Rp1853
(dp1854
g1576
g1584
sg1577
g1728
sg328
S'c:/marmalade/7.2/s3e/h/std/sys/time.h'
p1855
sbsS'Iw2D.h'
p1856
g302
(g1572
g304
Ntp1857
Rp1858
(dp1859
g1576
g1219
sg1577
g1673
sg328
g1220
sbsS'IwGeomVec2.h'
p1860
g302
(g1572
g304
Ntp1861
Rp1862
(dp1863
g1576
g1253
sg1577
g1638
sg328
g1282
sbsS'sendfile.h'
p1864
g302
(g1572
g304
Ntp1865
Rp1866
(dp1867
g1576
g1584
sg1577
g1728
sg328
S'c:/marmalade/7.2/s3e/h/std/sys/sendfile.h'
p1868
sbsS'malloc.h'
p1869
g302
(g1572
g304
Ntp1870
Rp1871
(dp1872
g1576
g1584
sg1577
g1606
sg328
S'c:/marmalade/7.2/s3e/h/std/malloc.h'
p1873
sbsS'timerManager.h'
p1874
g302
(g1572
g304
Ntp1875
Rp1876
(dp1877
g1576
g1536
sg1577
(lp1878
g1530
ag1541
asg328
g1547
sbsS'stdarg.h'
p1879
g302
(g1572
g304
Ntp1880
Rp1881
(dp1882
g1576
g1584
sg1577
g1606
sg328
S'c:/marmalade/7.2/s3e/h/std/stdarg.h'
p1883
sbsS'IwGeomCore.h'
p1884
g302
(g1572
g304
Ntp1885
Rp1886
(dp1887
g1576
g1253
sg1577
g1638
sg328
g1266
sbsS'Iw2DSceneGraph.h'
p1888
g302
(g1572
g304
Ntp1889
Rp1890
(dp1891
g1576
g1195
sg1577
(lp1892
S"'Marmalade Studio'"
p1893
ag1191
asg328
g1199
sbsS'endian.h'
p1894
g302
(g1572
g304
Ntp1895
Rp1896
(dp1897
g1576
g1584
sg1577
g1606
sg328
S'c:/marmalade/7.2/s3e/h/std/endian.h'
p1898
sbsS'glob.h'
p1899
g302
(g1572
g304
Ntp1900
Rp1901
(dp1902
g1576
g1584
sg1577
g1606
sg328
S'c:/marmalade/7.2/s3e/h/std/glob.h'
p1903
sbsS'fstream'
p1904
g302
(g1572
g304
Ntp1905
Rp1906
(dp1907
g1576
g1584
sg1577
g1585
sg328
S'c:/marmalade/7.2/s3e/h/std/c++/fstream'
p1908
sbsS'include.h'
p1909
g302
(g1572
g304
Ntp1910
Rp1911
(dp1912
g1576
g1536
sg1577
(lp1913
S'hope'
p1914
ag1532
asg328
g1537
sbsS'jconfig.h'
p1915
g302
(g1572
g304
Ntp1916
Rp1917
(dp1918
g1576
g1052
sg1577
g1668
sg328
g1053
sbsS'memory'
p1919
g302
(g1572
g304
Ntp1920
Rp1921
(dp1922
g1576
g1584
sg1577
g1585
sg328
S'c:/marmalade/7.2/s3e/h/std/c++/memory'
p1923
sbsS'strstream'
p1924
g302
(g1572
g304
Ntp1925
Rp1926
(dp1927
g1576
g1584
sg1577
g1585
sg328
S'c:/marmalade/7.2/s3e/h/std/c++/strstream'
p1928
sbsS'egl.h'
p1929
g302
(g1572
g304
Ntp1930
Rp1931
(dp1932
g1576
g1584
sg1577
(lp1933
g1586
aS'GL'
p1934
aS'EGL'
p1935
asg328
S'c:/marmalade/7.2/s3e/h/EGL/egl.h'
p1936
sbsS'egl_1.h'
p1937
g302
(g1572
g304
Ntp1938
Rp1939
(dp1940
g1576
g1584
sg1577
(lp1941
g1586
aS'GL'
p1942
aS'GLES 1.x'
p1943
asg328
S'c:/marmalade/7.2/s3e/h/GLES/egl.h'
p1944
sbsS'IwMemManagerDL.h'
p1945
g302
(g1572
g304
Ntp1946
Rp1947
(dp1948
g1576
g1409
sg1577
g1613
sg328
g1464
sbsS'deque'
p1949
g302
(g1572
g304
Ntp1950
Rp1951
(dp1952
g1576
g1584
sg1577
g1585
sg328
S'c:/marmalade/7.2/s3e/h/std/c++/deque'
p1953
sbsS'IwString.h'
p1954
g302
(g1572
g304
Ntp1955
Rp1956
(dp1957
g1576
g1409
sg1577
g1613
sg328
g1450
sbsS'cwchar'
p1958
g302
(g1572
g304
Ntp1959
Rp1960
(dp1961
g1576
g1584
sg1577
g1585
sg328
S'c:/marmalade/7.2/s3e/h/std/c++/cwchar'
p1962
sbsS'iwutil.mkf'
p1963
g302
(g1572
g304
Ntp1964
Rp1965
(dp1966
g1576
g1494
sg1577
g1613
sg328
g1492
sbsS'csignal'
p1967
g302
(g1572
g304
Ntp1968
Rp1969
(dp1970
g1576
g1584
sg1577
g1585
sg328
S'c:/marmalade/7.2/s3e/h/std/c++/csignal'
p1971
sbsS'float.h'
p1972
g302
(g1572
g304
Ntp1973
Rp1974
(dp1975
g1576
g1584
sg1577
g1606
sg328
S'c:/marmalade/7.2/s3e/h/std/float.h'
p1976
sbsS'pthread_alloc'
p1977
g302
(g1572
g304
Ntp1978
Rp1979
(dp1980
g1576
g1584
sg1577
g1585
sg328
S'c:/marmalade/7.2/s3e/h/std/c++/pthread_alloc'
p1981
sbsS'getopt.h'
p1982
g302
(g1572
g304
Ntp1983
Rp1984
(dp1985
g1576
g1584
sg1577
g1606
sg328
S'c:/marmalade/7.2/s3e/h/std/getopt.h'
p1986
sbsS'IwOptimiseARM.h'
p1987
g302
(g1572
g304
Ntp1988
Rp1989
(dp1990
g1576
g1409
sg1577
g1613
sg328
g1488
sbsS'times.h'
p1991
g302
(g1572
g304
Ntp1992
Rp1993
(dp1994
g1576
g1584
sg1577
g1728
sg328
S'c:/marmalade/7.2/s3e/h/std/sys/times.h'
p1995
sbsS'IwGeomFSphere.h'
p1996
g302
(g1572
g304
Ntp1997
Rp1998
(dp1999
g1576
g1253
sg1577
g1638
sg328
g1299
sbsS'game.h'
p2000
g302
(g1572
g304
Ntp2001
Rp2002
(dp2003
g1576
g1536
sg1577
(lp2004
S'hope'
p2005
ag1559
asg328
g1567
sbsS'functional'
p2006
g302
(g1572
g304
Ntp2007
Rp2008
(dp2009
g1576
g1584
sg1577
g1585
sg328
S'c:/marmalade/7.2/s3e/h/std/c++/functional'
p2010
sbsS'IwTypes.h'
p2011
g302
(g1572
g304
Ntp2012
Rp2013
(dp2014
g1576
g1409
sg1577
g1613
sg328
g1458
sbsS'IwGxMetrics.h'
p2015
g302
(g1572
g304
Ntp2016
Rp2017
(dp2018
g1576
g1345
sg1577
g1714
sg328
g1375
sbsS's3eCompression.h'
p2019
g302
(g1572
g304
Ntp2020
Rp2021
(dp2022
g1576
g1584
sg1577
g1600
sg328
S'c:/marmalade/7.2/s3e/h/s3eCompression.h'
p2023
sbsS'langinfo.h'
p2024
g302
(g1572
g304
Ntp2025
Rp2026
(dp2027
g1576
g1584
sg1577
g1606
sg328
S'c:/marmalade/7.2/s3e/h/std/langinfo.h'
p2028
sbsS's3edebugHeap.h'
p2029
g302
(g1572
g304
Ntp2030
Rp2031
(dp2032
g1576
g1584
sg1577
g1797
sg328
S'c:/marmalade/7.2/s3e/h/ext/s3edebugHeap.h'
p2033
sbsS'AirplayVersion.h'
p2034
g302
(g1572
g304
Ntp2035
Rp2036
(dp2037
g1576
g1584
sg1577
g1600
sg328
S'c:/marmalade/7.2/s3e/h/AirplayVersion.h'
p2038
sbsS'gl2extimg.h'
p2039
g302
(g1572
g304
Ntp2040
Rp2041
(dp2042
g1576
g1584
sg1577
g1837
sg328
S'c:/marmalade/7.2/s3e/h/GLES2/gl2extimg.h'
p2043
sbsS'app.config.txt'
p2044
g302
(g1572
g304
Ntp2045
Rp2046
(dp2047
g1576
(dp2048
sg1577
g4
sg328
S'c:/Users/Vinicius/Desktop/Yes or No/Hoppe/data/app.config.txt'
p2049
sbsS'IwGeomSqrt.h'
p2050
g302
(g1572
g304
Ntp2051
Rp2052
(dp2053
g1576
g1253
sg1577
g1638
sg328
g1262
sbsS'tiniconv_int.h'
p2054
g302
(g1572
g304
Ntp2055
Rp2056
(dp2057
g1576
g1086
sg1577
(lp2058
g1082
asg328
g1087
sbsS'syslog.h'
p2059
g302
(g1572
g304
Ntp2060
Rp2061
(dp2062
g1576
g1584
sg1577
g1606
sg328
S'c:/marmalade/7.2/s3e/h/std/syslog.h'
p2063
sbsS'IwGxFontTypes.h'
p2064
g302
(g1572
g304
Ntp2065
Rp2066
(dp2067
g1576
g1231
sg1577
g1578
sg328
g1242
sbsS'IwGeomFIntersect.h'
p2068
g302
(g1572
g304
Ntp2069
Rp2070
(dp2071
g1576
g1253
sg1577
g1638
sg328
g1294
sbsS'hash_map'
p2072
g302
(g1572
g304
Ntp2073
Rp2074
(dp2075
g1576
g1584
sg1577
g1585
sg328
S'c:/marmalade/7.2/s3e/h/std/c++/hash_map'
p2076
sbsS's3e.mkf'
p2077
g302
(g1572
g304
Ntp2078
Rp2079
(dp2080
g1576
(dp2081
sg1577
g1600
sg328
S'c:/marmalade/7.2/s3e/s3e.mkf'
p2082
sbsS's3eOSReadString.h'
p2083
g302
(g1572
g304
Ntp2084
Rp2085
(dp2086
g1576
g1584
sg1577
g1797
sg328
S'c:/marmalade/7.2/s3e/h/ext/s3eOSReadString.h'
p2087
sbsS'IwSound.h'
p2088
g302
(g1572
g304
Ntp2089
Rp2090
(dp2091
g1576
g1096
sg1577
g1624
sg328
g1125
sbsS'map'
p2092
g302
(g1572
g304
Ntp2093
Rp2094
(dp2095
g1576
g1584
sg1577
g1585
sg328
S'c:/marmalade/7.2/s3e/h/std/c++/map'
p2096
sbsS'iwtween.mkf'
p2097
g302
(g1572
g304
Ntp2098
Rp2099
(dp2100
g1576
g1524
sg1577
(lp2101
g1520
asg328
g1522
sbsS'IwOptimiseSpeed.h'
p2102
g302
(g1572
g304
Ntp2103
Rp2104
(dp2105
g1576
g1409
sg1577
g1613
sg328
g1499
sbsS'inputManager.h'
p2106
g302
(g1572
g304
Ntp2107
Rp2108
(dp2109
g1576
g1536
sg1577
g1878
sg328
g1549
sbsS'ostream'
p2110
g302
(g1572
g304
Ntp2111
Rp2112
(dp2113
g1576
g1584
sg1577
g1585
sg328
S'c:/marmalade/7.2/s3e/h/std/c++/ostream'
p2114
sbsS'msl_string.h'
p2115
g302
(g1572
g304
Ntp2116
Rp2117
(dp2118
g1576
g1584
sg1577
g1585
sg328
S'c:/marmalade/7.2/s3e/h/std/c++/msl_string.h'
p2119
sbsS'select.h'
p2120
g302
(g1572
g304
Ntp2121
Rp2122
(dp2123
g1576
g1584
sg1577
g1728
sg328
S'c:/marmalade/7.2/s3e/h/std/sys/select.h'
p2124
sbsS'zlib.mkf'
p2125
g302
(g1572
g304
Ntp2126
Rp2127
(dp2128
g1576
g1519
sg1577
(lp2129
g1509
asg328
g1517
sbsS'signal.h'
p2130
g302
(g1572
g304
Ntp2131
Rp2132
(dp2133
g1576
g1584
sg1577
g1606
sg328
S'c:/marmalade/7.2/s3e/h/std/signal.h'
p2134
sbsS'sigcontext.h'
p2135
g302
(g1572
g304
Ntp2136
Rp2137
(dp2138
g1576
g1584
sg1577
g1606
sg328
S'c:/marmalade/7.2/s3e/h/std/sigcontext.h'
p2139
sbsS'libpng.mkf'
p2140
g302
(g1572
g304
Ntp2141
Rp2142
(dp2143
g1576
g1046
sg1577
(lp2144
g1035
asg328
g1044
sbsS's3eClipboard.h'
p2145
g302
(g1572
g304
Ntp2146
Rp2147
(dp2148
g1576
g1584
sg1577
g1600
sg328
S'c:/marmalade/7.2/s3e/h/s3eClipboard.h'
p2149
sbsS'IwGxFuncTable.h'
p2150
g302
(g1572
g304
Ntp2151
Rp2152
(dp2153
g1576
g1345
sg1577
g1714
sg328
g1381
sbsS'IwResHandlerGROUP.h'
p2154
g302
(g1572
g304
Ntp2155
Rp2156
(dp2157
g1576
g1321
sg1577
g1845
sg328
g1319
sbsS's3eDebug.h'
p2158
g302
(g1572
g304
Ntp2159
Rp2160
(dp2161
g1576
g1584
sg1577
g1600
sg328
S'c:/marmalade/7.2/s3e/h/s3eDebug.h'
p2162
sbsS'socket.h'
p2163
g302
(g1572
g304
Ntp2164
Rp2165
(dp2166
g1576
g1584
sg1577
g1728
sg328
S'c:/marmalade/7.2/s3e/h/std/sys/socket.h'
p2167
sbsS'glext.h'
p2168
g302
(g1572
g304
Ntp2169
Rp2170
(dp2171
g1576
g1584
sg1577
g1941
sg328
S'c:/marmalade/7.2/s3e/h/GLES/glext.h'
p2172
sbsS'typeinfo.h'
p2173
g302
(g1572
g304
Ntp2174
Rp2175
(dp2176
g1576
g1584
sg1577
g1585
sg328
S'c:/marmalade/7.2/s3e/h/std/c++/typeinfo.h'
p2177
sbsS'typeinfo'
p2178
g302
(g1572
g304
Ntp2179
Rp2180
(dp2181
g1576
g1584
sg1577
g1585
sg328
S'c:/marmalade/7.2/s3e/h/std/c++/typeinfo'
p2182
sbsS'iwsound.config.txt'
p2183
g302
(g1572
g304
Ntp2184
Rp2185
(dp2186
g1576
g1096
sg1577
(lp2187
g1092
ag1109
asg328
g1111
sbsS'fstream.h'
p2188
g302
(g1572
g304
Ntp2189
Rp2190
(dp2191
g1576
g1584
sg1577
g1585
sg328
S'c:/marmalade/7.2/s3e/h/std/c++/fstream.h'
p2192
sbsS'IwGeomMat.h'
p2193
g302
(g1572
g304
Ntp2194
Rp2195
(dp2196
g1576
g1253
sg1577
g1638
sg328
g1256
sbsS's3ePointer.h'
p2197
g302
(g1572
g304
Ntp2198
Rp2199
(dp2200
g1576
g1584
sg1577
g1600
sg328
S'c:/marmalade/7.2/s3e/h/s3ePointer.h'
p2201
sbsS'iw2d.mkf'
p2202
g302
(g1572
g304
Ntp2203
Rp2204
(dp2205
g1576
g1226
sg1577
g1673
sg328
g1224
sbsS's3eGL.h'
p2206
g302
(g1572
g304
Ntp2207
Rp2208
(dp2209
g1576
g1584
sg1577
g1600
sg328
S'c:/marmalade/7.2/s3e/h/s3eGL.h'
p2210
sbsS'IwGeomFVec2.h'
p2211
g302
(g1572
g304
Ntp2212
Rp2213
(dp2214
g1576
g1253
sg1577
g1638
sg328
g1270
sbsS'IwGeomSVec4.h'
p2215
g302
(g1572
g304
Ntp2216
Rp2217
(dp2218
g1576
g1253
sg1577
g1638
sg328
g1290
sbsS'poll.h'
p2219
g302
(g1572
g304
Ntp2220
Rp2221
(dp2222
g1576
g1584
sg1577
g1606
sg328
S'c:/marmalade/7.2/s3e/h/std/poll.h'
p2223
sbsS'IwMatAnim.h'
p2224
g302
(g1572
g304
Ntp2225
Rp2226
(dp2227
g1576
g1345
sg1577
g1714
sg328
g1352
sbsS'IwGeomFVec4.h'
p2228
g302
(g1572
g304
Ntp2229
Rp2230
(dp2231
g1576
g1253
sg1577
g1638
sg328
g1276
sbsS'IwGx.h'
p2232
g302
(g1572
g304
Ntp2233
Rp2234
(dp2235
g1576
g1345
sg1577
g1714
sg328
g1369
sbsS'valarray'
p2236
g302
(g1572
g304
Ntp2237
Rp2238
(dp2239
g1576
g1584
sg1577
g1585
sg328
S'c:/marmalade/7.2/s3e/h/std/c++/valarray'
p2240
sbsS'iosfwd'
p2241
g302
(g1572
g304
Ntp2242
Rp2243
(dp2244
g1576
g1584
sg1577
g1585
sg328
S'c:/marmalade/7.2/s3e/h/std/c++/iosfwd'
p2245
sbsS'gl2.h'
p2246
g302
(g1572
g304
Ntp2247
Rp2248
(dp2249
g1576
g1584
sg1577
g1837
sg328
S'c:/marmalade/7.2/s3e/h/GLES2/gl2.h'
p2250
sbsS'jpegint.h'
p2251
g302
(g1572
g304
Ntp2252
Rp2253
(dp2254
g1576
g1052
sg1577
g1668
sg328
g1057
sbsS'stdiostream.h'
p2255
g302
(g1572
g304
Ntp2256
Rp2257
(dp2258
g1576
g1584
sg1577
g1585
sg328
S'c:/marmalade/7.2/s3e/h/std/c++/stdiostream.h'
p2259
sbsS'mem.h'
p2260
g302
(g1572
g304
Ntp2261
Rp2262
(dp2263
g1576
g1584
sg1577
g1585
sg328
S'c:/marmalade/7.2/s3e/h/std/c++/mem.h'
p2264
sbsS'main.cpp'
p2265
g302
(g1572
g304
Ntp2266
Rp2267
(dp2268
g1576
g1536
sg1577
g1913
sg328
g1534
sbsS'zconf.h'
p2269
g302
(g1572
g304
Ntp2270
Rp2271
(dp2272
g1576
g1514
sg1577
(lp2273
g1509
ag1037
asg328
g1512
sbsS's3e.config.txt'
p2274
g302
(g1572
g304
Ntp2275
Rp2276
(dp2277
g1576
g1584
sg1577
g1600
sg328
S'c:/marmalade/7.2/s3e/s3e.config.txt'
p2278
sbsS'numeric'
p2279
g302
(g1572
g304
Ntp2280
Rp2281
(dp2282
g1576
g1584
sg1577
g1585
sg328
S'c:/marmalade/7.2/s3e/h/std/c++/numeric'
p2283
sbsS'utime.h'
p2284
g302
(g1572
g304
Ntp2285
Rp2286
(dp2287
g1576
g1584
sg1577
g1606
sg328
S'c:/marmalade/7.2/s3e/h/std/utime.h'
p2288
sbsS'jdhuff.h'
p2289
g302
(g1572
g304
Ntp2290
Rp2291
(dp2292
g1576
g1052
sg1577
g1668
sg328
g1067
sbsS'IwResHandlerWAV.cpp'
p2293
g302
(g1572
g304
Ntp2294
Rp2295
(dp2296
g1576
g1096
sg1577
g1624
sg328
g1113
sbsS'IwGxStream.h'
p2297
g302
(g1572
g304
Ntp2298
Rp2299
(dp2300
g1576
g1345
sg1577
g1714
sg328
g1346
sbsS'IwImage.h'
p2301
g302
(g1572
g304
Ntp2302
Rp2303
(dp2304
g1576
g1409
sg1577
g1613
sg328
g1446
sbsS's3eImagePicker.h'
p2305
g302
(g1572
g304
Ntp2306
Rp2307
(dp2308
g1576
g1584
sg1577
g1797
sg328
S'c:/marmalade/7.2/s3e/h/ext/s3eImagePicker.h'
p2309
sbsS's3eWebView.defines.txt'
p2310
g302
(g1572
g304
Ntp2311
Rp2312
(dp2313
g1576
g1152
sg1577
(lp2314
S'Extensions'
p2315
ag1146
ag1148
asg328
g1150
sbsS'stdlib.h'
p2316
g302
(g1572
g304
Ntp2317
Rp2318
(dp2319
g1576
g1584
sg1577
g1606
sg328
S'c:/marmalade/7.2/s3e/h/std/stdlib.h'
p2320
sbsS'IwCopyingPtr.h'
p2321
g302
(g1572
g304
Ntp2322
Rp2323
(dp2324
g1576
g1409
sg1577
g1613
sg328
g1486
sbsS'iostream'
p2325
g302
(g1572
g304
Ntp2326
Rp2327
(dp2328
g1576
g1584
sg1577
g1585
sg328
S'c:/marmalade/7.2/s3e/h/std/c++/iostream'
p2329
sbsS'png.h'
p2330
g302
(g1572
g304
Ntp2331
Rp2332
(dp2333
g1576
g1041
sg1577
(lp2334
g1035
ag1037
asg328
g1039
sbsS'stddef.h'
p2335
g302
(g1572
g304
Ntp2336
Rp2337
(dp2338
g1576
g1584
sg1577
g1606
sg328
S'c:/marmalade/7.2/s3e/h/std/stddef.h'
p2339
sbsS'setjmp_win32.h'
p2340
g302
(g1572
g304
Ntp2341
Rp2342
(dp2343
g1576
g1584
sg1577
g1606
sg328
S'c:/marmalade/7.2/s3e/h/std/setjmp_win32.h'
p2344
sbsS'IwGxPrint.h'
p2345
g302
(g1572
g304
Ntp2346
Rp2347
(dp2348
g1576
g1345
sg1577
g1714
sg328
g1361
sbsS'iwgx_public.defines.txt'
p2349
g302
(g1572
g304
Ntp2350
Rp2351
(dp2352
g1576
g1345
sg1577
g1714
sg328
g1365
sbsS'streambuf.h'
p2353
g302
(g1572
g304
Ntp2354
Rp2355
(dp2356
g1576
g1584
sg1577
g1585
sg328
S'c:/marmalade/7.2/s3e/h/std/c++/streambuf.h'
p2357
sbsS'IwGeomFPlane.h'
p2358
g302
(g1572
g304
Ntp2359
Rp2360
(dp2361
g1576
g1253
sg1577
g1638
sg328
g1251
sbsS'un.h'
p2362
g302
(g1572
g304
Ntp2363
Rp2364
(dp2365
g1576
g1584
sg1577
g1728
sg328
S'c:/marmalade/7.2/s3e/h/std/sys/un.h'
p2366
sbsS'wchar.h'
p2367
g302
(g1572
g304
Ntp2368
Rp2369
(dp2370
g1576
g1584
sg1577
g1606
sg328
S'c:/marmalade/7.2/s3e/h/std/wchar.h'
p2371
sbsS's3eCameraCapture.h'
p2372
g302
(g1572
g304
Ntp2373
Rp2374
(dp2375
g1576
g1584
sg1577
g1797
sg328
S'c:/marmalade/7.2/s3e/h/ext/s3eCameraCapture.h'
p2376
sbsS'eglext.h'
p2377
g302
(g1572
g304
Ntp2378
Rp2379
(dp2380
g1576
g1584
sg1577
g1933
sg328
S'c:/marmalade/7.2/s3e/h/EGL/eglext.h'
p2381
sbsS'IwResHandlerImage.h'
p2382
g302
(g1572
g304
Ntp2383
Rp2384
(dp2385
g1576
g1321
sg1577
g1845
sg328
g1329
sbsS'strstream.h'
p2386
g302
(g1572
g304
Ntp2387
Rp2388
(dp2389
g1576
g1584
sg1577
g1585
sg328
S'c:/marmalade/7.2/s3e/h/std/c++/strstream.h'
p2390
sbsS'tiniconv.h'
p2391
g302
(g1572
g304
Ntp2392
Rp2393
(dp2394
g1576
g1086
sg1577
g2058
sg328
g1084
sbsS'IwGLExt.h'
p2395
g302
(g1572
g304
Ntp2396
Rp2397
(dp2398
g1576
g1207
sg1577
g1594
sg328
g1211
sbsS'app.icf'
p2399
g302
(g1572
g304
Ntp2400
Rp2401
(dp2402
g1576
(dp2403
sg1577
g4
sg328
S'c:/Users/Vinicius/Desktop/Yes or No/Hoppe/data/app.icf'
p2404
sbsS'IwClassFactory.h'
p2405
g302
(g1572
g304
Ntp2406
Rp2407
(dp2408
g1576
g1409
sg1577
g1613
sg328
g1472
sbsS'file.h'
p2409
g302
(g1572
g304
Ntp2410
Rp2411
(dp2412
g1576
g1584
sg1577
g1728
sg328
S'c:/marmalade/7.2/s3e/h/std/sys/file.h'
p2413
sbsS'cstring'
p2414
g302
(g1572
g304
Ntp2415
Rp2416
(dp2417
g1576
g1584
sg1577
g1585
sg328
S'c:/marmalade/7.2/s3e/h/std/c++/cstring'
p2418
sbsS'IwSoundInst.cpp'
p2419
g302
(g1572
g304
Ntp2420
Rp2421
(dp2422
g1576
g1096
sg1577
g1624
sg328
g1107
sbsS'iwutil.config.txt'
p2423
g302
(g1572
g304
Ntp2424
Rp2425
(dp2426
g1576
g1409
sg1577
g1613
sg328
g1470
sbsS's3eSMS.h'
p2427
g302
(g1572
g304
Ntp2428
Rp2429
(dp2430
g1576
g1584
sg1577
g1797
sg328
S'c:/marmalade/7.2/s3e/h/ext/s3eSMS.h'
p2431
sbsS'limits.h'
p2432
g302
(g1572
g304
Ntp2433
Rp2434
(dp2435
g1576
g1584
sg1577
g1606
sg328
S'c:/marmalade/7.2/s3e/h/std/limits.h'
p2436
sbsS's3eLibrary.h'
p2437
g302
(g1572
g304
Ntp2438
Rp2439
(dp2440
g1576
g1584
sg1577
g1797
sg328
S'c:/marmalade/7.2/s3e/h/ext/s3eLibrary.h'
p2441
sbsS'IwMaterial.h'
p2442
g302
(g1572
g304
Ntp2443
Rp2444
(dp2445
g1576
g1345
sg1577
g1714
sg328
g1350
sbsS's3eFlurry.defines.txt'
p2446
g302
(g1572
g304
Ntp2447
Rp2448
(dp2449
g1576
g1181
sg1577
(lp2450
g1809
ag1175
ag1177
asg328
g1182
sbsS'IwGxSurface.h'
p2451
g302
(g1572
g304
Ntp2452
Rp2453
(dp2454
g1576
g1345
sg1577
g1714
sg328
g1363
sbsS's3eSocket.h'
p2455
g302
(g1572
g304
Ntp2456
Rp2457
(dp2458
g1576
g1584
sg1577
g1600
sg328
S'c:/marmalade/7.2/s3e/h/s3eSocket.h'
p2459
sbsS'IwAutoFile.h'
p2460
g302
(g1572
g304
Ntp2461
Rp2462
(dp2463
g1576
g1409
sg1577
g1613
sg328
g1476
sbsS'ipc.h'
p2464
g302
(g1572
g304
Ntp2465
Rp2466
(dp2467
g1576
g1584
sg1577
g1728
sg328
S'c:/marmalade/7.2/s3e/h/std/sys/ipc.h'
p2468
sbsS'poll_1.h'
p2469
g302
(g1572
g304
Ntp2470
Rp2471
(dp2472
g1576
g1584
sg1577
g1728
sg328
S'c:/marmalade/7.2/s3e/h/std/sys/poll.h'
p2473
sbsS's3eThread.h'
p2474
g302
(g1572
g304
Ntp2475
Rp2476
(dp2477
g1576
g1584
sg1577
g1600
sg328
S'c:/marmalade/7.2/s3e/h/s3eThread.h'
p2478
sbsS'ucontext.h'
p2479
g302
(g1572
g304
Ntp2480
Rp2481
(dp2482
g1576
g1584
sg1577
g1606
sg328
S'c:/marmalade/7.2/s3e/h/std/ucontext.h'
p2483
sbsS'time.h'
p2484
g302
(g1572
g304
Ntp2485
Rp2486
(dp2487
g1576
g1584
sg1577
g1606
sg328
S'c:/marmalade/7.2/s3e/h/std/time.h'
p2488
sbsS'jchuff.h'
p2489
g302
(g1572
g304
Ntp2490
Rp2491
(dp2492
g1576
g1052
sg1577
g1668
sg328
g1075
sbsS'IwSoundPCM.cpp'
p2493
g302
(g1572
g304
Ntp2494
Rp2495
(dp2496
g1576
g1096
sg1577
g1624
sg328
g1130
sbsS's3eSoundRecord.h'
p2497
g302
(g1572
g304
Ntp2498
Rp2499
(dp2500
g1576
g1584
sg1577
g1600
sg328
S'c:/marmalade/7.2/s3e/h/s3eSoundRecord.h'
p2501
sbsS'IwFibre.h'
p2502
g302
(g1572
g304
Ntp2503
Rp2504
(dp2505
g1576
g1409
sg1577
g1613
sg328
g1414
sbsS's3eVersion.h'
p2506
g302
(g1572
g304
Ntp2507
Rp2508
(dp2509
g1576
g1584
sg1577
g1600
sg328
S'c:/marmalade/7.2/s3e/h/s3eVersion.h'
p2510
sbsS'IwSoundGroup.h'
p2511
g302
(g1572
g304
Ntp2512
Rp2513
(dp2514
g1576
g1096
sg1577
g1624
sg328
g1103
sbsS'IwSoundWAV.h'
p2515
g302
(g1572
g304
Ntp2516
Rp2517
(dp2518
g1576
g1096
sg1577
g1624
sg328
g1105
sbsS'IwGxFontGlyph.h'
p2519
g302
(g1572
g304
Ntp2520
Rp2521
(dp2522
g1576
g1231
sg1577
g1578
sg328
g1238
sbsS's3eTypes.h'
p2523
g302
(g1572
g304
Ntp2524
Rp2525
(dp2526
g1576
g1584
sg1577
g1600
sg328
S'c:/marmalade/7.2/s3e/h/s3eTypes.h'
p2527
sbsS'IwSoundSpec.h'
p2528
g302
(g1572
g304
Ntp2529
Rp2530
(dp2531
g1576
g1096
sg1577
g1624
sg328
g1138
sbsS'signal_2.h'
p2532
g302
(g1572
g304
Ntp2533
Rp2534
(dp2535
g1576
g1584
sg1577
g1585
sg328
S'c:/marmalade/7.2/s3e/h/std/c++/signal.h'
p2536
sbsS'termios.h'
p2537
g302
(g1572
g304
Ntp2538
Rp2539
(dp2540
g1576
g1584
sg1577
g1606
sg328
S'c:/marmalade/7.2/s3e/h/std/termios.h'
p2541
sbsS'iw2dscenegraph.mkf'
p2542
g302
(g1572
g304
Ntp2543
Rp2544
(dp2545
g1576
g1198
sg1577
g1892
sg328
g1196
sbsS'slist'
p2546
g302
(g1572
g304
Ntp2547
Rp2548
(dp2549
g1576
g1584
sg1577
g1585
sg328
S'c:/marmalade/7.2/s3e/h/std/c++/slist'
p2550
sbsS'cstdlib'
p2551
g302
(g1572
g304
Ntp2552
Rp2553
(dp2554
g1576
g1584
sg1577
g1585
sg328
S'c:/marmalade/7.2/s3e/h/std/c++/cstdlib'
p2555
sbsS's3eLocation.h'
p2556
g302
(g1572
g304
Ntp2557
Rp2558
(dp2559
g1576
g1584
sg1577
g1600
sg328
S'c:/marmalade/7.2/s3e/h/s3eLocation.h'
p2560
sbsS'IwMemBucketHelpers.h'
p2561
g302
(g1572
g304
Ntp2562
Rp2563
(dp2564
g1576
g1409
sg1577
g1613
sg328
g1484
sbsS's3eHash.h'
p2565
g302
(g1572
g304
Ntp2566
Rp2567
(dp2568
g1576
g1584
sg1577
g1600
sg328
S'c:/marmalade/7.2/s3e/h/s3eHash.h'
p2569
sbsS'IwSoundGroup.cpp'
p2570
g302
(g1572
g304
Ntp2571
Rp2572
(dp2573
g1576
g1096
sg1577
g1624
sg328
g1117
sbsS'IwGeomFMat.h'
p2574
g302
(g1572
g304
Ntp2575
Rp2576
(dp2577
g1576
g1253
sg1577
g1638
sg328
g1284
sbsS'type_traits.h'
p2578
g302
(g1572
g304
Ntp2579
Rp2580
(dp2581
g1576
g1584
sg1577
g1585
sg328
S'c:/marmalade/7.2/s3e/h/std/c++/type_traits.h'
p2582
sbsS'IwMenu.h'
p2583
g302
(g1572
g304
Ntp2584
Rp2585
(dp2586
g1576
g1409
sg1577
g1613
sg328
g1434
sbsS'IwResHandlerITX.h'
p2587
g302
(g1572
g304
Ntp2588
Rp2589
(dp2590
g1576
g1321
sg1577
g1845
sg328
g1335
sbsS'IwSoundData.h'
p2591
g302
(g1572
g304
Ntp2592
Rp2593
(dp2594
g1576
g1096
sg1577
g1624
sg328
g1115
sbsS'IwArray.h'
p2595
g302
(g1572
g304
Ntp2596
Rp2597
(dp2598
g1576
g1409
sg1577
g1613
sg328
g1410
sbsS'IwUTF8.h'
p2599
g302
(g1572
g304
Ntp2600
Rp2601
(dp2602
g1576
g1409
sg1577
g1613
sg328
g1478
sbsS'math_rvct.h'
p2603
g302
(g1572
g304
Ntp2604
Rp2605
(dp2606
g1576
g1584
sg1577
g1606
sg328
S'c:/marmalade/7.2/s3e/h/std/math_rvct.h'
p2607
sbsS'IwUtil.h'
p2608
g302
(g1572
g304
Ntp2609
Rp2610
(dp2611
g1576
g1409
sg1577
g1613
sg328
g1468
sbsS'IwFColour.h'
p2612
g302
(g1572
g304
Ntp2613
Rp2614
(dp2615
g1576
g1345
sg1577
g1714
sg328
g1385
sbsS'wctype.h'
p2616
g302
(g1572
g304
Ntp2617
Rp2618
(dp2619
g1576
g1584
sg1577
g1606
sg328
S'c:/marmalade/7.2/s3e/h/std/wctype.h'
p2620
sbsS'mainMenu.h'
p2621
g302
(g1572
g304
Ntp2622
Rp2623
(dp2624
g1576
g1536
sg1577
g2004
sg328
g1561
sbsS'cstddef'
p2625
g302
(g1572
g304
Ntp2626
Rp2627
(dp2628
g1576
g1584
sg1577
g1585
sg328
S'c:/marmalade/7.2/s3e/h/std/c++/cstddef'
p2629
sbsS'assert.h'
p2630
g302
(g1572
g304
Ntp2631
Rp2632
(dp2633
g1576
g1584
sg1577
g1606
sg328
S'c:/marmalade/7.2/s3e/h/std/assert.h'
p2634
sbsS'mman.h'
p2635
g302
(g1572
g304
Ntp2636
Rp2637
(dp2638
g1576
g1584
sg1577
g1728
sg328
S'c:/marmalade/7.2/s3e/h/std/sys/mman.h'
p2639
sbsS'IwRandom.h'
p2640
g302
(g1572
g304
Ntp2641
Rp2642
(dp2643
g1576
g1409
sg1577
g1613
sg328
g1418
sbsS'libgen.h'
p2644
g302
(g1572
g304
Ntp2645
Rp2646
(dp2647
g1576
g1584
sg1577
g1606
sg328
S'c:/marmalade/7.2/s3e/h/std/libgen.h'
p2648
sbsS'utsname.h'
p2649
g302
(g1572
g304
Ntp2650
Rp2651
(dp2652
g1576
g1584
sg1577
g1728
sg328
S'c:/marmalade/7.2/s3e/h/std/sys/utsname.h'
p2653
sbsS'wait.h'
p2654
g302
(g1572
g304
Ntp2655
Rp2656
(dp2657
g1576
g1584
sg1577
g1728
sg328
S'c:/marmalade/7.2/s3e/h/std/sys/wait.h'
p2658
sbsS'param.h'
p2659
g302
(g1572
g304
Ntp2660
Rp2661
(dp2662
g1576
g1584
sg1577
g1728
sg328
S'c:/marmalade/7.2/s3e/h/std/sys/param.h'
p2663
sbsS'IwDivide.h'
p2664
g302
(g1572
g304
Ntp2665
Rp2666
(dp2667
g1576
g1409
sg1577
g1613
sg328
g1505
sbsS'Iw2DSceneGraphCore.cpp'
p2668
g302
(g1572
g304
Ntp2669
Rp2670
(dp2671
g1576
g1402
sg1577
(lp2672
S"'Marmalade Studio'"
p2673
ag1395
asg328
g1403
sbsS'IwResManager.h'
p2674
g302
(g1572
g304
Ntp2675
Rp2676
(dp2677
g1576
g1321
sg1577
g1845
sg328
g1339
sbsS'IwSoundManager.h'
p2678
g302
(g1572
g304
Ntp2679
Rp2680
(dp2681
g1576
g1096
sg1577
g1624
sg328
g1140
sbsS'cwctype'
p2682
g302
(g1572
g304
Ntp2683
Rp2684
(dp2685
g1576
g1584
sg1577
g1585
sg328
S'c:/marmalade/7.2/s3e/h/std/c++/cwctype'
p2686
sbsS'set'
p2687
g302
(g1572
g304
Ntp2688
Rp2689
(dp2690
g1576
g1584
sg1577
g1585
sg328
S'c:/marmalade/7.2/s3e/h/std/c++/set'
p2691
sbsS'IwGeomSQuat.h'
p2692
g302
(g1572
g304
Ntp2693
Rp2694
(dp2695
g1576
g1253
sg1577
g1638
sg328
g1305
sbsS'locale'
p2696
g302
(g1572
g304
Ntp2697
Rp2698
(dp2699
g1576
g1584
sg1577
g1585
sg328
S'c:/marmalade/7.2/s3e/h/std/c++/locale'
p2700
sbsS'cstdio'
p2701
g302
(g1572
g304
Ntp2702
Rp2703
(dp2704
g1576
g1584
sg1577
g1585
sg328
S'c:/marmalade/7.2/s3e/h/std/c++/cstdio'
p2705
sbsS'cdjpeg.h'
p2706
g302
(g1572
g304
Ntp2707
Rp2708
(dp2709
g1576
g1052
sg1577
g1668
sg328
g1055
sbsS'IwList.h'
p2710
g302
(g1572
g304
Ntp2711
Rp2712
(dp2713
g1576
g1409
sg1577
g1613
sg328
g1422
sbsS's3eWebView_interface.cpp'
p2714
g302
(g1572
g304
Ntp2715
Rp2716
(dp2717
g1576
g1152
sg1577
g2314
sg328
g1153
sbsS'inttypes.h'
p2718
g302
(g1572
g304
Ntp2719
Rp2720
(dp2721
g1576
g1584
sg1577
g1606
sg328
S'c:/marmalade/7.2/s3e/h/std/inttypes.h'
p2722
sbsS'dirent.h'
p2723
g302
(g1572
g304
Ntp2724
Rp2725
(dp2726
g1576
g1584
sg1577
g1606
sg328
S'c:/marmalade/7.2/s3e/h/std/dirent.h'
p2727
sbsS'IwGeomVec3.h'
p2728
g302
(g1572
g304
Ntp2729
Rp2730
(dp2731
g1576
g1253
sg1577
g1638
sg328
g1288
sbsS'transupp.h'
p2732
g302
(g1572
g304
Ntp2733
Rp2734
(dp2735
g1576
g1052
sg1577
g1668
sg328
g1059
sbsS'IwMath.h'
p2736
g302
(g1572
g304
Ntp2737
Rp2738
(dp2739
g1576
g1409
sg1577
g1613
sg328
g1428
sbsS'IwGeomQuat.h'
p2740
g302
(g1572
g304
Ntp2741
Rp2742
(dp2743
g1576
g1253
sg1577
g1638
sg328
g1307
sbsS'glplatform.h'
p2744
g302
(g1572
g304
Ntp2745
Rp2746
(dp2747
g1576
g1584
sg1577
g1941
sg328
S'c:/marmalade/7.2/s3e/h/GLES/glplatform.h'
p2748
sbsS'iwgl.config.txt'
p2749
g302
(g1572
g304
Ntp2750
Rp2751
(dp2752
g1576
g1207
sg1577
g1594
sg328
g1213
sbsS'bitset'
p2753
g302
(g1572
g304
Ntp2754
Rp2755
(dp2756
g1576
g1584
sg1577
g1585
sg328
S'c:/marmalade/7.2/s3e/h/std/c++/bitset'
p2757
sbsS'alloca.h'
p2758
g302
(g1572
g304
Ntp2759
Rp2760
(dp2761
g1576
g1584
sg1577
g1606
sg328
S'c:/marmalade/7.2/s3e/h/std/alloca.h'
p2762
sbsS'IwResHandler.h'
p2763
g302
(g1572
g304
Ntp2764
Rp2765
(dp2766
g1576
g1321
sg1577
g1845
sg328
g1322
sbsS'IwResHandlerMTL.h'
p2767
g302
(g1572
g304
Ntp2768
Rp2769
(dp2770
g1576
g1345
sg1577
g1714
sg328
g1359
sbsS'IwRuntime.h'
p2771
g302
(g1572
g304
Ntp2772
Rp2773
(dp2774
g1576
g1409
sg1577
g1613
sg328
g1462
sbsS's3eFlurry.h'
p2775
g302
(g1572
g304
Ntp2776
Rp2777
(dp2778
g1576
g1181
sg1577
g1808
sg328
g1184
sbsS'limits'
p2779
g302
(g1572
g304
Ntp2780
Rp2781
(dp2782
g1576
g1584
sg1577
g1585
sg328
S'c:/marmalade/7.2/s3e/h/std/c++/limits'
p2783
sbsS'IwGeomBBox.h'
p2784
g302
(g1572
g304
Ntp2785
Rp2786
(dp2787
g1576
g1253
sg1577
g1638
sg328
g1280
sbsS'audioManager.h'
p2788
g302
(g1572
g304
Ntp2789
Rp2790
(dp2791
g1576
g1536
sg1577
g1878
sg328
g1543
sbsS's3eContacts.h'
p2792
g302
(g1572
g304
Ntp2793
Rp2794
(dp2795
g1576
g1584
sg1577
g1600
sg328
S'c:/marmalade/7.2/s3e/h/s3eContacts.h'
p2796
sbsS's3eLicense.h'
p2797
g302
(g1572
g304
Ntp2798
Rp2799
(dp2800
g1576
g1584
sg1577
g1600
sg328
S'c:/marmalade/7.2/s3e/h/s3eLicense.h'
p2801
sbsS'iwgx.config.txt'
p2802
g302
(g1572
g304
Ntp2803
Rp2804
(dp2805
g1576
g1345
sg1577
g1714
sg328
g1354
sbsS'IwTextParser.h'
p2806
g302
(g1572
g304
Ntp2807
Rp2808
(dp2809
g1576
g1409
sg1577
g1613
sg328
g1440
sbsS's3eTimer.h'
p2810
g302
(g1572
g304
Ntp2811
Rp2812
(dp2813
g1576
g1584
sg1577
g1600
sg328
S'c:/marmalade/7.2/s3e/h/s3eTimer.h'
p2814
sbsS'IwGeomVec.h'
p2815
g302
(g1572
g304
Ntp2816
Rp2817
(dp2818
g1576
g1253
sg1577
g1638
sg328
g1311
sbsS'IwSerialise.h'
p2819
g302
(g1572
g304
Ntp2820
Rp2821
(dp2822
g1576
g1409
sg1577
g1613
sg328
g1480
sbsS'cstdarg'
p2823
g302
(g1572
g304
Ntp2824
Rp2825
(dp2826
g1576
g1584
sg1577
g1585
sg328
S'c:/marmalade/7.2/s3e/h/std/c++/cstdarg'
p2827
sbsS'gl2ext.h'
p2828
g302
(g1572
g304
Ntp2829
Rp2830
(dp2831
g1576
g1584
sg1577
g1837
sg328
S'c:/marmalade/7.2/s3e/h/GLES2/gl2ext.h'
p2832
sbsS'IwChar.h'
p2833
g302
(g1572
g304
Ntp2834
Rp2835
(dp2836
g1576
g1409
sg1577
g1613
sg328
g1436
sbsS's3eSound.h'
p2837
g302
(g1572
g304
Ntp2838
Rp2839
(dp2840
g1576
g1584
sg1577
g1600
sg328
S'c:/marmalade/7.2/s3e/h/s3eSound.h'
p2841
sbsS'IwVariableBitField.h'
p2842
g302
(g1572
g304
Ntp2843
Rp2844
(dp2845
g1576
g1409
sg1577
g1613
sg328
g1452
sbsS'exception.h'
p2846
g302
(g1572
g304
Ntp2847
Rp2848
(dp2849
g1576
g1584
sg1577
g1585
sg328
S'c:/marmalade/7.2/s3e/h/std/c++/exception.h'
p2850
sbsS'iwgeom.config.txt'
p2851
g302
(g1572
g304
Ntp2852
Rp2853
(dp2854
g1576
g1253
sg1577
g1638
sg328
g1292
sbsS'iwgx.mkf'
p2855
g302
(g1572
g304
Ntp2856
Rp2857
(dp2858
g1576
g1358
sg1577
g1714
sg328
g1356
sbsS'gl.h'
p2859
g302
(g1572
g304
Ntp2860
Rp2861
(dp2862
g1576
g1584
sg1577
g1941
sg328
S'c:/marmalade/7.2/s3e/h/GLES/gl.h'
p2863
sbsS'zlib.h'
p2864
g302
(g1572
g304
Ntp2865
Rp2866
(dp2867
g1576
g1514
sg1577
g2273
sg328
g1515
sbsS's3eFacebook.defines.txt'
p2868
g302
(g1572
g304
Ntp2869
Rp2870
(dp2871
g1576
g1166
sg1577
(lp2872
g1144
ag1160
ag1162
asg328
g1167
sbsS'iwgl.mkf'
p2873
g302
(g1572
g304
Ntp2874
Rp2875
(dp2876
g1576
g1210
sg1577
g1594
sg328
g1208
sbsS'audioManager.cpp'
p2877
g302
(g1572
g304
Ntp2878
Rp2879
(dp2880
g1576
g1536
sg1577
g1878
sg328
g1553
sbsS'IwColour.h'
p2881
g302
(g1572
g304
Ntp2882
Rp2883
(dp2884
g1576
g1345
sg1577
g1714
sg328
g1387
sbsS'types.h'
p2885
g302
(g1572
g304
Ntp2886
Rp2887
(dp2888
g1576
g1584
sg1577
g1728
sg328
S'c:/marmalade/7.2/s3e/h/std/sys/types.h'
p2889
sbsS'ifaddrs.h'
p2890
g302
(g1572
g304
Ntp2891
Rp2892
(dp2893
g1576
g1584
sg1577
g1606
sg328
S'c:/marmalade/7.2/s3e/h/std/ifaddrs.h'
p2894
sbsS'inputManager.cpp'
p2895
g302
(g1572
g304
Ntp2896
Rp2897
(dp2898
g1576
g1536
sg1577
g1878
sg328
g1551
sbsS'IwTween.cpp'
p2899
g302
(g1572
g304
Ntp2900
Rp2901
(dp2902
g1576
g1527
sg1577
g2101
sg328
g1525
sbsS'exception'
p2903
g302
(g1572
g304
Ntp2904
Rp2905
(dp2906
g1576
g1584
sg1577
g1585
sg328
S'c:/marmalade/7.2/s3e/h/std/c++/exception'
p2907
sbsS's3eFacebook_interface.cpp'
p2908
g302
(g1572
g304
Ntp2909
Rp2910
(dp2911
g1576
g1166
sg1577
g2872
sg328
g1164
sbsS'rlocks.h'
p2912
g302
(g1572
g304
Ntp2913
Rp2914
(dp2915
g1576
g1584
sg1577
g1585
sg328
S'c:/marmalade/7.2/s3e/h/std/c++/rlocks.h'
p2916
sbsS'ioctl.h'
p2917
g302
(g1572
g304
Ntp2918
Rp2919
(dp2920
g1576
g1584
sg1577
g1728
sg328
S'c:/marmalade/7.2/s3e/h/std/sys/ioctl.h'
p2921
sbsS'rope'
p2922
g302
(g1572
g304
Ntp2923
Rp2924
(dp2925
g1576
g1584
sg1577
g1585
sg328
S'c:/marmalade/7.2/s3e/h/std/c++/rope'
p2926
sbsS'jinclude.h'
p2927
g302
(g1572
g304
Ntp2928
Rp2929
(dp2930
g1576
g1052
sg1577
g1668
sg328
g1050
sbsS's3eFlurry_interface.cpp'
p2931
g302
(g1572
g304
Ntp2932
Rp2933
(dp2934
g1576
g1181
sg1577
g2450
sg328
g1179
sbsS's3eWebView.h'
p2935
g302
(g1572
g304
Ntp2936
Rp2937
(dp2938
g1576
g1152
sg1577
(lp2939
g2315
ag1146
asg328
g1155
sbsS'IwEvent.h'
p2940
g302
(g1572
g304
Ntp2941
Rp2942
(dp2943
g1576
g1409
sg1577
g1613
sg328
g1438
sbsS'IwOptimiseSize.h'
p2944
g302
(g1572
g304
Ntp2945
Rp2946
(dp2947
g1576
g1409
sg1577
g1613
sg328
g1442
sbsS'iwgxfont_public.defines.txt'
p2948
g302
(g1572
g304
Ntp2949
Rp2950
(dp2951
g1576
g1231
sg1577
g1578
sg328
g1236
sbsS'iconv.h'
p2952
g302
(g1572
g304
Ntp2953
Rp2954
(dp2955
g1576
g1584
sg1577
g1606
sg328
S'c:/marmalade/7.2/s3e/h/std/iconv.h'
p2956
sbsS's3eDevice.h'
p2957
g302
(g1572
g304
Ntp2958
Rp2959
(dp2960
g1576
g1584
sg1577
g1600
sg328
S'c:/marmalade/7.2/s3e/h/s3eDevice.h'
p2961
sbsS'IwGeomSphere.h'
p2962
g302
(g1572
g304
Ntp2963
Rp2964
(dp2965
g1576
g1253
sg1577
g1638
sg328
g1309
sbsS'tiniconv.mkf'
p2966
g302
(g1572
g304
Ntp2967
Rp2968
(dp2969
g1576
g1091
sg1577
g2058
sg328
g1089
sbsS'iw2dscenegraph.defines.txt'
p2970
g302
(g1572
g304
Ntp2971
Rp2972
(dp2973
g1576
g1195
sg1577
g1892
sg328
g1201
sbsS'jdct.h'
p2974
g302
(g1572
g304
Ntp2975
Rp2976
(dp2977
g1576
g1052
sg1577
g1668
sg328
g1065
sbsS'cctype'
p2978
g302
(g1572
g304
Ntp2979
Rp2980
(dp2981
g1576
g1584
sg1577
g1585
sg328
S'c:/marmalade/7.2/s3e/h/std/c++/cctype'
p2982
sbsS'IwSoundADPCM.cpp'
p2983
g302
(g1572
g304
Ntp2984
Rp2985
(dp2986
g1576
g1096
sg1577
g1624
sg328
g1094
sbsS's3eConfig.h'
p2987
g302
(g1572
g304
Ntp2988
Rp2989
(dp2990
g1576
g1584
sg1577
g1600
sg328
S'c:/marmalade/7.2/s3e/h/s3eConfig.h'
p2991
sbsS'IwHashString.h'
p2992
g302
(g1572
g304
Ntp2993
Rp2994
(dp2995
g1576
g1409
sg1577
g1613
sg328
g1507
sbsS'stat.h'
p2996
g302
(g1572
g304
Ntp2997
Rp2998
(dp2999
g1576
g1584
sg1577
g1728
sg328
S'c:/marmalade/7.2/s3e/h/std/sys/stat.h'
p3000
sbsS'byteswap.h'
p3001
g302
(g1572
g304
Ntp3002
Rp3003
(dp3004
g1576
g1584
sg1577
g1606
sg328
S'c:/marmalade/7.2/s3e/h/std/byteswap.h'
p3005
sbsS'iwresmanager.mkf'
p3006
g302
(g1572
g304
Ntp3007
Rp3008
(dp3009
g1576
g1326
sg1577
g1845
sg328
g1324
sbsS'IwUtilInitTerm.h'
p3010
g302
(g1572
g304
Ntp3011
Rp3012
(dp3013
g1576
g1409
sg1577
g1613
sg328
g1474
sbsS'pthread_1.h'
p3014
g302
(g1572
g304
Ntp3015
Rp3016
(dp3017
g1576
g1584
sg1577
g1585
sg328
S'c:/marmalade/7.2/s3e/h/std/c++/pthread.h'
p3018
sbsS'IwMemBucket.h'
p3019
g302
(g1572
g304
Ntp3020
Rp3021
(dp3022
g1576
g1409
sg1577
g1613
sg328
g1490
sbsS'complex'
p3023
g302
(g1572
g304
Ntp3024
Rp3025
(dp3026
g1576
g1584
sg1577
g1585
sg328
S'c:/marmalade/7.2/s3e/h/std/c++/complex'
p3027
sbsS'game.cpp'
p3028
g302
(g1572
g304
Ntp3029
Rp3030
(dp3031
g1576
g1536
sg1577
g2004
sg328
g1565
sbsS'algorithm'
p3032
g302
(g1572
g304
Ntp3033
Rp3034
(dp3035
g1576
g1584
sg1577
g1585
sg328
S'c:/marmalade/7.2/s3e/h/std/c++/algorithm'
p3036
sbsS's3e.icf'
p3037
g302
(g1572
g304
Ntp3038
Rp3039
(dp3040
g1576
g1584
sg1577
g1600
sg328
S'c:/marmalade/7.2/s3e/s3e.icf'
p3041
sbsS'sem.h'
p3042
g302
(g1572
g304
Ntp3043
Rp3044
(dp3045
g1576
g1584
sg1577
g1728
sg328
S'c:/marmalade/7.2/s3e/h/std/sys/sem.h'
p3046
sbsS'IwGxFontState.h'
p3047
g302
(g1572
g304
Ntp3048
Rp3049
(dp3050
g1576
g1231
sg1577
g1578
sg328
g1240
sbsS'stdio.h'
p3051
g302
(g1572
g304
Ntp3052
Rp3053
(dp3054
g1576
g1584
sg1577
g1606
sg328
S'c:/marmalade/7.2/s3e/h/std/stdio.h'
p3055
sbsS'jmemsys.h'
p3056
g302
(g1572
g304
Ntp3057
Rp3058
(dp3059
g1576
g1052
sg1577
g1668
sg328
g1069
sbsS'ios'
p3060
g302
(g1572
g304
Ntp3061
Rp3062
(dp3063
g1576
g1584
sg1577
g1585
sg328
S'c:/marmalade/7.2/s3e/h/std/c++/ios'
p3064
sbsS'IwTween.h'
p3065
g302
(g1572
g304
Ntp3066
Rp3067
(dp3068
g1576
g1527
sg1577
g2101
sg328
g1528
sbsS'stack'
p3069
g302
(g1572
g304
Ntp3070
Rp3071
(dp3072
g1576
g1584
sg1577
g1585
sg328
S'c:/marmalade/7.2/s3e/h/std/c++/stack'
p3073
sbsS'IwSoundParams.h'
p3074
g302
(g1572
g304
Ntp3075
Rp3076
(dp3077
g1576
g1096
sg1577
g1624
sg328
g1142
sbsS'new.h'
p3078
g302
(g1572
g304
Ntp3079
Rp3080
(dp3081
g1576
g1584
sg1577
g1585
sg328
S'c:/marmalade/7.2/s3e/h/std/c++/new.h'
p3082
sbsS's3eEMail.h'
p3083
g302
(g1572
g304
Ntp3084
Rp3085
(dp3086
g1576
g1584
sg1577
g1797
sg328
S'c:/marmalade/7.2/s3e/h/ext/s3eEMail.h'
p3087
sbsS's3eVideo.h'
p3088
g302
(g1572
g304
Ntp3089
Rp3090
(dp3091
g1576
g1584
sg1577
g1600
sg328
S'c:/marmalade/7.2/s3e/h/s3eVideo.h'
p3092
sbsS'pngconf.h'
p3093
g302
(g1572
g304
Ntp3094
Rp3095
(dp3096
g1576
g1041
sg1577
g2334
sg328
g1042
sbsS'pwd.h'
p3097
g302
(g1572
g304
Ntp3098
Rp3099
(dp3100
g1576
g1584
sg1577
g1606
sg328
S'c:/marmalade/7.2/s3e/h/std/pwd.h'
p3101
sbsS'IwOptimiseThumb.h'
p3102
g302
(g1572
g304
Ntp3103
Rp3104
(dp3105
g1576
g1409
sg1577
g1613
sg328
g1466
sbsS'IwClip.h'
p3106
g302
(g1572
g304
Ntp3107
Rp3108
(dp3109
g1576
g1345
sg1577
g1714
sg328
g1367
sbsS'IwSoundInst.h'
p3110
g302
(g1572
g304
Ntp3111
Rp3112
(dp3113
g1576
g1096
sg1577
g1624
sg328
g1134
sbsS'iwresmanager.config.txt'
p3114
g302
(g1572
g304
Ntp3115
Rp3116
(dp3117
g1576
g1321
sg1577
g1845
sg328
g1331
sbsS'IwGxShaderTechnique.h'
p3118
g302
(g1572
g304
Ntp3119
Rp3120
(dp3121
g1576
g1345
sg1577
g1714
sg328
g1389
sbsS'IwCore.h'
p3122
g302
(g1572
g304
Ntp3123
Rp3124
(dp3125
g1576
g1409
sg1577
g1613
sg328
g1407
sbsS'cfloat'
p3126
g302
(g1572
g304
Ntp3127
Rp3128
(dp3129
g1576
g1584
sg1577
g1585
sg328
S'c:/marmalade/7.2/s3e/h/std/c++/cfloat'
p3130
sbsS'IwGeomMat2D.h'
p3131
g302
(g1572
g304
Ntp3132
Rp3133
(dp3134
g1576
g1253
sg1577
g1638
sg328
g1258
sbsS'IwAllocator.h'
p3135
g302
(g1572
g304
Ntp3136
Rp3137
(dp3138
g1576
g1409
sg1577
g1613
sg328
g1456
sbsS'timerManager.cpp'
p3139
g302
(g1572
g304
Ntp3140
Rp3141
(dp3142
g1576
g1536
sg1577
g1878
sg328
g1545
sbsS'IwPath.h'
p3143
g302
(g1572
g304
Ntp3144
Rp3145
(dp3146
g1576
g1409
sg1577
g1613
sg328
g1482
sbsS'iwgxfont.mkf'
p3147
g302
(g1572
g304
Ntp3148
Rp3149
(dp3150
g1576
g1246
sg1577
g1578
sg328
g1244
sbsS'IwTexture.h'
p3151
g302
(g1572
g304
Ntp3152
Rp3153
(dp3154
g1576
g1345
sg1577
g1714
sg328
g1383
sbsS's3eAccelerometer.h'
p3155
g302
(g1572
g304
Ntp3156
Rp3157
(dp3158
g1576
g1584
sg1577
g1600
sg328
S'c:/marmalade/7.2/s3e/h/s3eAccelerometer.h'
p3159
sbsS'setjmp.h'
p3160
g302
(g1572
g304
Ntp3161
Rp3162
(dp3163
g1576
g1584
sg1577
g1606
sg328
S'c:/marmalade/7.2/s3e/h/std/setjmp.h'
p3164
sbsS's3eFacebook.h'
p3165
g302
(g1572
g304
Ntp3166
Rp3167
(dp3168
g1576
g1166
sg1577
(lp3169
g1144
ag1160
ag1037
asg328
g1170
sbsS'IwSoundParams.cpp'
p3170
g302
(g1572
g304
Ntp3171
Rp3172
(dp3173
g1576
g1096
sg1577
g1624
sg328
g1121
sbsS'IwFile.h'
p3174
g302
(g1572
g304
Ntp3175
Rp3176
(dp3177
g1576
g1409
sg1577
g1613
sg328
g1448
sbsS'IwTextParseable.h'
p3178
g302
(g1572
g304
Ntp3179
Rp3180
(dp3181
g1576
g1409
sg1577
g1613
sg328
g1501
sbsS'istream.h'
p3182
g302
(g1572
g304
Ntp3183
Rp3184
(dp3185
g1576
g1584
sg1577
g1585
sg328
S'c:/marmalade/7.2/s3e/h/std/c++/istream.h'
p3186
sbsS'stdint.h'
p3187
g302
(g1572
g304
Ntp3188
Rp3189
(dp3190
g1576
g1584
sg1577
g1606
sg328
S'c:/marmalade/7.2/s3e/h/std/stdint.h'
p3191
sbsS'semaphore.h'
p3192
g302
(g1572
g304
Ntp3193
Rp3194
(dp3195
g1576
g1584
sg1577
g1606
sg328
S'c:/marmalade/7.2/s3e/h/std/semaphore.h'
p3196
sbsS'ctime'
p3197
g302
(g1572
g304
Ntp3198
Rp3199
(dp3200
g1576
g1584
sg1577
g1585
sg328
S'c:/marmalade/7.2/s3e/h/std/c++/ctime'
p3201
sbsS'sstream'
p3202
g302
(g1572
g304
Ntp3203
Rp3204
(dp3205
g1576
g1584
sg1577
g1585
sg328
S'c:/marmalade/7.2/s3e/h/std/c++/sstream'
p3206
sbsS'IwGeomFBBox.h'
p3207
g302
(g1572
g304
Ntp3208
Rp3209
(dp3210
g1576
g1253
sg1577
g1638
sg328
g1315
sbsS'IwDebugPrim.h'
p3211
g302
(g1572
g304
Ntp3212
Rp3213
(dp3214
g1576
g1345
sg1577
g1714
sg328
g1373
sbsS'IwGxFontContainer.h'
p3215
g302
(g1572
g304
Ntp3216
Rp3217
(dp3218
g1576
g1231
sg1577
g1578
sg328
g1234
sbsS'IwGeomSVec3.h'
p3219
g302
(g1572
g304
Ntp3220
Rp3221
(dp3222
g1576
g1253
sg1577
g1638
sg328
g1278
sbsS'iw2dscenegraphcore.mkf'
p3223
g302
(g1572
g304
Ntp3224
Rp3225
(dp3226
g1576
g1399
sg1577
g2672
sg328
g1397
sbsS's3eExt.h'
p3227
g302
(g1572
g304
Ntp3228
Rp3229
(dp3230
g1576
g1584
sg1577
g1600
sg328
S'c:/marmalade/7.2/s3e/h/s3eExt.h'
p3231
sbsS'IwGeomFVec3.h'
p3232
g302
(g1572
g304
Ntp3233
Rp3234
(dp3235
g1576
g1253
sg1577
g1638
sg328
g1268
sbsS'IwClip.inl'
p3236
g302
(g1572
g304
Ntp3237
Rp3238
(dp3239
g1576
g1345
sg1577
g1714
sg328
g1379
sbsS'streambuf'
p3240
g302
(g1572
g304
Ntp3241
Rp3242
(dp3243
g1576
g1584
sg1577
g1585
sg328
S'c:/marmalade/7.2/s3e/h/std/c++/streambuf'
p3244
sbsS's3eMetrics.h'
p3245
g302
(g1572
g304
Ntp3246
Rp3247
(dp3248
g1576
g1584
sg1577
g1797
sg328
S'c:/marmalade/7.2/s3e/h/ext/s3eMetrics.h'
p3249
sbsS'IwGxFont.h'
p3250
g302
(g1572
g304
Ntp3251
Rp3252
(dp3253
g1576
g1231
sg1577
g1578
sg328
g1229
sbsS's3eSecureStorage.h'
p3254
g302
(g1572
g304
Ntp3255
Rp3256
(dp3257
g1576
g1584
sg1577
g1600
sg328
S'c:/marmalade/7.2/s3e/h/s3eSecureStorage.h'
p3258
sbsS'string.h'
p3259
g302
(g1572
g304
Ntp3260
Rp3261
(dp3262
g1576
g1584
sg1577
g1606
sg328
S'c:/marmalade/7.2/s3e/h/std/string.h'
p3263
sbsS'IwResource.h'
p3264
g302
(g1572
g304
Ntp3265
Rp3266
(dp3267
g1576
g1409
sg1577
g1613
sg328
g1412
sbsS'IwGeomSVec2.h'
p3268
g302
(g1572
g304
Ntp3269
Rp3270
(dp3271
g1576
g1253
sg1577
g1638
sg328
g1274
sbsS'libjpeg.mkf'
p3272
g302
(g1572
g304
Ntp3273
Rp3274
(dp3275
g1576
g1081
sg1577
(lp3276
g1047
asg328
g1079
sbsS'IwGxDebug.h'
p3277
g302
(g1572
g304
Ntp3278
Rp3279
(dp3280
g1576
g1345
sg1577
g1714
sg328
g1371
sbsS'pthread_types.h'
p3281
g302
(g1572
g304
Ntp3282
Rp3283
(dp3284
g1576
g1584
sg1577
g1606
sg328
S'c:/marmalade/7.2/s3e/h/std/pthread_types.h'
p3285
sbsS'iomanip.h'
p3286
g302
(g1572
g304
Ntp3287
Rp3288
(dp3289
g1576
g1584
sg1577
g1585
sg328
S'c:/marmalade/7.2/s3e/h/std/c++/iomanip.h'
p3290
sbsS'IwKeymap.h'
p3291
g302
(g1572
g304
Ntp3292
Rp3293
(dp3294
g1576
g1409
sg1577
g1613
sg328
g1495
sbsS'IwDebug.h'
p3295
g302
(g1572
g304
Ntp3296
Rp3297
(dp3298
g1576
g1409
sg1577
g1613
sg328
g1503
sbsS's3eIOSBackgroundAudio.h'
p3299
g302
(g1572
g304
Ntp3300
Rp3301
(dp3302
g1576
g1584
sg1577
g1797
sg328
S'c:/marmalade/7.2/s3e/h/ext/s3eIOSBackgroundAudio.h'
p3303
sbsS'IwGeomMenu.h'
p3304
g302
(g1572
g304
Ntp3305
Rp3306
(dp3307
g1576
g1253
sg1577
g1638
sg328
g1260
sbsS'IwDivTable.h'
p3308
g302
(g1572
g304
Ntp3309
Rp3310
(dp3311
g1576
g1409
sg1577
g1613
sg328
g1430
sbsS'ctype.h'
p3312
g302
(g1572
g304
Ntp3313
Rp3314
(dp3315
g1576
g1584
sg1577
g1606
sg328
S'c:/marmalade/7.2/s3e/h/std/ctype.h'
p3316
sbsS'mainMenu.cpp'
p3317
g302
(g1572
g304
Ntp3318
Rp3319
(dp3320
g1576
g1536
sg1577
g2004
sg328
g1563
sbsS'IwResGroup.h'
p3321
g302
(g1572
g304
Ntp3322
Rp3323
(dp3324
g1576
g1321
sg1577
g1845
sg328
g1327
sbsS'signal_1.h'
p3325
g302
(g1572
g304
Ntp3326
Rp3327
(dp3328
g1576
g1584
sg1577
g1728
sg328
S'c:/marmalade/7.2/s3e/h/std/sys/signal.h'
p3329
sbsS'IwSoundData.cpp'
p3330
g302
(g1572
g304
Ntp3331
Rp3332
(dp3333
g1576
g1096
sg1577
g1624
sg328
g1099
sbsS'jerror.h'
p3334
g302
(g1572
g304
Ntp3335
Rp3336
(dp3337
g1576
g1052
sg1577
g1668
sg328
g1073
sbsS'shm.h'
p3338
g302
(g1572
g304
Ntp3339
Rp3340
(dp3341
g1576
g1584
sg1577
g1728
sg328
S'c:/marmalade/7.2/s3e/h/std/sys/shm.h'
p3342
sbsS'IwManagedList.h'
p3343
g302
(g1572
g304
Ntp3344
Rp3345
(dp3346
g1576
g1409
sg1577
g1613
sg328
g1420
sbsS'prctl.h'
p3347
g302
(g1572
g304
Ntp3348
Rp3349
(dp3350
g1576
g1584
sg1577
g1728
sg328
S'c:/marmalade/7.2/s3e/h/std/sys/prctl.h'
p3351
sbsS's3eCamera.h'
p3352
g302
(g1572
g304
Ntp3353
Rp3354
(dp3355
g1576
g1584
sg1577
g1600
sg328
S'c:/marmalade/7.2/s3e/h/s3eCamera.h'
p3356
sbsS'utility'
p3357
g302
(g1572
g304
Ntp3358
Rp3359
(dp3360
g1576
g1584
sg1577
g1585
sg328
S'c:/marmalade/7.2/s3e/h/std/c++/utility'
p3361
sbsS's3ewebview.mkf'
p3362
g302
(g1572
g304
Ntp3363
Rp3364
(dp3365
g1576
g1159
sg1577
g2939
sg328
g1157
sbsS'IwGeomLegacy.h'
p3366
g302
(g1572
g304
Ntp3367
Rp3368
(dp3369
g1576
g1253
sg1577
g1638
sg328
g1301
sbsS'IwTPage.h'
p3370
g302
(g1572
g304
Ntp3371
Rp3372
(dp3373
g1576
g1345
sg1577
g1714
sg328
g1343
sbsS'IwResSerialise.h'
p3374
g302
(g1572
g304
Ntp3375
Rp3376
(dp3377
g1576
g1321
sg1577
g1845
sg328
g1337
sbsS's3eCrypto.h'
p3378
g302
(g1572
g304
Ntp3379
Rp3380
(dp3381
g1576
g1584
sg1577
g1600
sg328
S'c:/marmalade/7.2/s3e/h/s3eCrypto.h'
p3382
sbsS's3eKeyboard.h'
p3383
g302
(g1572
g304
Ntp3384
Rp3385
(dp3386
g1576
g1584
sg1577
g1600
sg328
S'c:/marmalade/7.2/s3e/h/s3eKeyboard.h'
p3387
sbsS'fcntl.h'
p3388
g302
(g1572
g304
Ntp3389
Rp3390
(dp3391
g1576
g1584
sg1577
g1606
sg328
S'c:/marmalade/7.2/s3e/h/std/fcntl.h'
p3392
sbsS'Iw2DSceneGraphCore.h'
p3393
g302
(g1572
g304
Ntp3394
Rp3395
(dp3396
g1576
g1402
sg1577
g2672
sg328
g1400
sbsS'memory.h'
p3397
g302
(g1572
g304
Ntp3398
Rp3399
(dp3400
g1576
g1584
sg1577
g1606
sg328
S'c:/marmalade/7.2/s3e/h/std/memory.h'
p3401
sbsS'pthread.h'
p3402
g302
(g1572
g304
Ntp3403
Rp3404
(dp3405
g1576
g1584
sg1577
g1606
sg328
S'c:/marmalade/7.2/s3e/h/std/pthread.h'
p3406
sbsS'IwGeomIntersect.h'
p3407
g302
(g1572
g304
Ntp3408
Rp3409
(dp3410
g1576
g1253
sg1577
g1638
sg328
g1303
sbsS'IwTextParserITX.h'
p3411
g302
(g1572
g304
Ntp3412
Rp3413
(dp3414
g1576
g1409
sg1577
g1613
sg328
g1432
sbsS'sceneManager.h'
p3415
g302
(g1572
g304
Ntp3416
Rp3417
(dp3418
g1576
g1536
sg1577
g1878
sg328
g1557
sbsS'sceneManager.cpp'
p3419
g302
(g1572
g304
Ntp3420
Rp3421
(dp3422
g1576
g1536
sg1577
g1878
sg328
g1555
sbsS'Iw2DSceneGraph.cpp'
p3423
g302
(g1572
g304
Ntp3424
Rp3425
(dp3426
g1576
g1195
sg1577
g1892
sg328
g1193
sbsS'ostream.h'
p3427
g302
(g1572
g304
Ntp3428
Rp3429
(dp3430
g1576
g1584
sg1577
g1585
sg328
S'c:/marmalade/7.2/s3e/h/std/c++/ostream.h'
p3431
sbsS'stl_user_config.h'
p3432
g302
(g1572
g304
Ntp3433
Rp3434
(dp3435
g1576
g1584
sg1577
g1585
sg328
S'c:/marmalade/7.2/s3e/h/std/c++/stl_user_config.h'
p3436
sbsS'IwProfileMenu.h'
p3437
g302
(g1572
g304
Ntp3438
Rp3439
(dp3440
g1576
g1409
sg1577
g1613
sg328
g1424
sbsS'MarmaladeVersion.h'
p3441
g302
(g1572
g304
Ntp3442
Rp3443
(dp3444
g1576
g1584
sg1577
g1600
sg328
S'c:/marmalade/7.2/s3e/h/MarmaladeVersion.h'
p3445
sbsS'IwResHandlerWAV.h'
p3446
g302
(g1572
g304
Ntp3447
Rp3448
(dp3449
g1576
g1096
sg1577
g1624
sg328
g1123
sbsS'ios.h'
p3450
g302
(g1572
g304
Ntp3451
Rp3452
(dp3453
g1576
g1584
sg1577
g1585
sg328
S'c:/marmalade/7.2/s3e/h/std/c++/ios.h'
p3454
sbsS'IwImageHelper.h'
p3455
g302
(g1572
g304
Ntp3456
Rp3457
(dp3458
g1576
g1409
sg1577
g1613
sg328
g1497
sbsS'hash_set'
p3459
g302
(g1572
g304
Ntp3460
Rp3461
(dp3462
g1576
g1584
sg1577
g1585
sg328
S'c:/marmalade/7.2/s3e/h/std/c++/hash_set'
p3463
sbsS'IwGeomFQuat.h'
p3464
g302
(g1572
g304
Ntp3465
Rp3466
(dp3467
g1576
g1253
sg1577
g1638
sg328
g1286
sbsS'jmorecfg.h'
p3468
g302
(g1572
g304
Ntp3469
Rp3470
(dp3471
g1576
g1052
sg1577
g1668
sg328
g1071
sbsS'eglplatform.h'
p3472
g302
(g1572
g304
Ntp3473
Rp3474
(dp3475
g1576
g1584
sg1577
g1933
sg328
S'c:/marmalade/7.2/s3e/h/EGL/eglplatform.h'
p3476
sbsS'cmath'
p3477
g302
(g1572
g304
Ntp3478
Rp3479
(dp3480
g1576
g1584
sg1577
g1585
sg328
S'c:/marmalade/7.2/s3e/h/std/c++/cmath'
p3481
sbsS'math_gcc.h'
p3482
g302
(g1572
g304
Ntp3483
Rp3484
(dp3485
g1576
g1584
sg1577
g1606
sg328
S'c:/marmalade/7.2/s3e/h/std/math_gcc.h'
p3486
sbsS's3eMemory.h'
p3487
g302
(g1572
g304
Ntp3488
Rp3489
(dp3490
g1576
g1584
sg1577
g1600
sg328
S'c:/marmalade/7.2/s3e/h/s3eMemory.h'
p3491
sbsS'strings.h'
p3492
g302
(g1572
g304
Ntp3493
Rp3494
(dp3495
g1576
g1584
sg1577
g1606
sg328
S'c:/marmalade/7.2/s3e/h/std/strings.h'
p3496
sbsS's3eFile.h'
p3497
g302
(g1572
g304
Ntp3498
Rp3499
(dp3500
g1576
g1584
sg1577
g1600
sg328
S'c:/marmalade/7.2/s3e/h/s3eFile.h'
p3501
sbsS'IwGxTypes.h'
p3502
g302
(g1572
g304
Ntp3503
Rp3504
(dp3505
g1576
g1345
sg1577
g1714
sg328
g1391
sbsS'cerrno'
p3506
g302
(g1572
g304
Ntp3507
Rp3508
(dp3509
g1576
g1584
sg1577
g1585
sg328
S'c:/marmalade/7.2/s3e/h/std/c++/cerrno'
p3510
sbsS'IwSoundManager.cpp'
p3511
g302
(g1572
g304
Ntp3512
Rp3513
(dp3514
g1576
g1096
sg1577
g1624
sg328
g1136
sbsS'main.h'
p3515
g302
(g1572
g304
Ntp3516
Rp3517
(dp3518
g1576
g1536
sg1577
g1913
sg328
g1539
sbsS'soundengine.mkf'
p3519
g302
(g1572
g304
Ntp3520
Rp3521
(dp3522
g1576
g1129
sg1577
g1624
sg328
g1127
sbsS'resource.h'
p3523
g302
(g1572
g304
Ntp3524
Rp3525
(dp3526
g1576
g1584
sg1577
g1728
sg328
S'c:/marmalade/7.2/s3e/h/std/sys/resource.h'
p3527
sbsS'clocale'
p3528
g302
(g1572
g304
Ntp3529
Rp3530
(dp3531
g1576
g1584
sg1577
g1585
sg328
S'c:/marmalade/7.2/s3e/h/std/c++/clocale'
p3532
sbsS'csetjmp'
p3533
g302
(g1572
g304
Ntp3534
Rp3535
(dp3536
g1576
g1584
sg1577
g1585
sg328
S'c:/marmalade/7.2/s3e/h/std/c++/csetjmp'
p3537
sbsS'netdb.h'
p3538
g302
(g1572
g304
Ntp3539
Rp3540
(dp3541
g1576
g1584
sg1577
g1606
sg328
S'c:/marmalade/7.2/s3e/h/std/netdb.h'
p3542
sbsS's3eAndroidJNI.h'
p3543
g302
(g1572
g304
Ntp3544
Rp3545
(dp3546
g1576
g1584
sg1577
g1797
sg328
S'c:/marmalade/7.2/s3e/h/ext/s3eAndroidJNI.h'
p3547
sbsS'stdexcept'
p3548
g302
(g1572
g304
Ntp3549
Rp3550
(dp3551
g1576
g1584
sg1577
g1585
sg328
S'c:/marmalade/7.2/s3e/h/std/c++/stdexcept'
p3552
sbsS'math.h'
p3553
g302
(g1572
g304
Ntp3554
Rp3555
(dp3556
g1576
g1584
sg1577
g1606
sg328
S'c:/marmalade/7.2/s3e/h/std/math.h'
p3557
sbsS'stdbool.h'
p3558
g302
(g1572
g304
Ntp3559
Rp3560
(dp3561
g1576
g1584
sg1577
g1606
sg328
S'c:/marmalade/7.2/s3e/h/std/stdbool.h'
p3562
sbsS'uio.h'
p3563
g302
(g1572
g304
Ntp3564
Rp3565
(dp3566
g1576
g1584
sg1577
g1728
sg328
S'c:/marmalade/7.2/s3e/h/std/sys/uio.h'
p3567
sbsS'IwUncopyable.h'
p3568
g302
(g1572
g304
Ntp3569
Rp3570
(dp3571
g1576
g1409
sg1577
g1613
sg328
g1454
sbsS's3efacebook.mkf'
p3572
g302
(g1572
g304
Ntp3573
Rp3574
(dp3575
g1576
g1174
sg1577
(lp3576
g1144
ag1160
asg328
g1172
sbssS'juice_build_type'
p3577
g4
sS'tests'
p3578
(lp3579
sS'project_name'
p3580
g310
sS'root_file'
p3581
g119
sS'current_root'
p3582
S'c:/Users/Vinicius/Desktop/Yes or No/Hoppe'
p3583
sS'dependencies'
p3584
(lp3585
sS'include_paths'
p3586
(lp3587
S'c:/marmalade/7.2/extensions/s3ewebview/h'
p3588
aS'c:/marmalade/7.2/modules/iwutil/h'
p3589
aS'c:/marmalade/7.2/modules/third_party/libjpeg/h'
p3590
aS'c:/marmalade/7.2/modules/third_party/zlib/h'
p3591
aS'c:/marmalade/7.2/modules/third_party/libpng/h'
p3592
aS'c:/marmalade/7.2/extensions/s3efacebook/h'
p3593
aS'c:/marmalade/7.2/modules/iw2d/h'
p3594
aS'c:/marmalade/7.2/modules/iwgx/h'
p3595
aS'c:/marmalade/7.2/modules/iwgl/h'
p3596
aS'c:/marmalade/7.2/modules/iwgeom/h'
p3597
aS'c:/marmalade/7.2/modules/iwresmanager/h'
p3598
aS'c:/marmalade/7.2/modules/iwgxfont/h'
p3599
aS'c:/marmalade/7.2/modules/third_party/tiniconv/source'
p3600
aS'c:/marmalade/7.2/modules/iw2dscenegraph/h'
p3601
aS'c:/marmalade/7.2/modules/iw2dscenegraphcore/h'
p3602
aS'c:/marmalade/7.2/modules/iwtween/h'
p3603
aS'c:/users/vinicius/desktop/yes or no/hoppe/modules/soundengine/h'
p3604
aS'c:/users/vinicius/desktop/yes or no/hoppe/modules/soundengine/source'
p3605
aS'c:/marmalade/7.2/extensions/s3eflurry/h'
p3606
aS'c:/marmalade/7.2/s3e/h'
p3607
aS'c:/marmalade/7.2/s3e/h/ext'
p3608
aS'c:/marmalade/7.2/s3e/h/std'
p3609
aS'c:/marmalade/7.2/s3e/h/std/c++'
p3610
aS'c:/marmalade/7.2/s3e/h/ext_legacy'
p3611
aS'c:/marmalade/7.2/s3e/h/legacy'
p3612
asS'weak_frameworks'
p3613
(lp3614
sS'extprojects'
p3615
(dp3616
sg605
(dp3617
g599
(lp3618
(S'c:/Users/Vinicius/Desktop/Yes or No/Hoppe/data/audio'
p3619
S'audio'
p3620
I0
tp3621
a(S'c:/Users/Vinicius/Desktop/Yes or No/Hoppe/data/textures'
p3622
S'textures'
p3623
I0
tp3624
a(S'c:/Users/Vinicius/Desktop/Yes or No/Hoppe/data-ram/data-gles1,c:/Users/Vinicius/Desktop/Yes or No/Hoppe/data'
p3625
S'.'
p3626
I0
tp3627
a(S'c:/marmalade/7.2/extensions/s3ewebview/s3eWebView.js'
p3628
S's3eWebView.js'
p3629
I0
tp3630
a(S'c:/marmalade/7.2/extensions/s3efacebook/source/iphone/facebook-ios-sdk/FacebookSDK.framework/Versions/A/Resources/FacebookSDKResources.bundle/FBDialog/images/fbicon.png'
p3631
S'FacebookSDKResources.bundle/FBDialog/images/fbicon.png'
p3632
I0
tp3633
a(S'c:/marmalade/7.2/extensions/s3efacebook/source/iphone/facebook-ios-sdk/FacebookSDK.framework/Versions/A/Resources/FacebookSDKResources.bundle/FBDialog/images/close.png'
p3634
S'FacebookSDKResources.bundle/FBDialog/images/close.png'
p3635
I0
tp3636
a(S'c:/marmalade/7.2/extensions/s3efacebook/source/iphone/facebook-ios-sdk/FacebookSDK.framework/Versions/A/Resources/FacebookSDKResources.bundle/FBDialog/images/close@2x.png'
p3637
S'FacebookSDKResources.bundle/FBDialog/images/close@2x.png'
p3638
I0
tp3639
a(S'c:/marmalade/7.2/extensions/s3efacebook/facebook-winclient-sdk-master/Source/Facebook.Client-WindowsStore/FacebookDialogPage.xaml'
p3640
S'FacebookDialogPage.xaml'
p3641
I0
tp3642
asS'WebView32Assets'
p3643
(lp3644
(S'c:/marmalade/7.2/extensions/s3ewebview/lib/win32/locales'
p3645
S'locales'
p3646
I0
tp3647
a(S'c:/marmalade/7.2/extensions/s3ewebview/lib/win32/avcodec-53.dll'
p3648
S'avcodec-53.dll'
p3649
I0
tp3650
a(S'c:/marmalade/7.2/extensions/s3ewebview/lib/win32/avformat-53.dll'
p3651
S'avformat-53.dll'
p3652
I0
tp3653
a(S'c:/marmalade/7.2/extensions/s3ewebview/lib/win32/avutil-51.dll'
p3654
S'avutil-51.dll'
p3655
I0
tp3656
a(S'c:/marmalade/7.2/extensions/s3ewebview/lib/win32/chrome.pak'
p3657
S'chrome.pak'
p3658
I0
tp3659
a(S'c:/marmalade/7.2/extensions/s3ewebview/lib/win32/d3dcompiler_43.dll'
p3660
S'd3dcompiler_43.dll'
p3661
I0
tp3662
a(S'c:/marmalade/7.2/extensions/s3ewebview/lib/win32/d3dx9_43.dll'
p3663
S'd3dx9_43.dll'
p3664
I0
tp3665
a(S'c:/marmalade/7.2/extensions/s3ewebview/lib/win32/icudt.dll'
p3666
S'icudt.dll'
p3667
I0
tp3668
a(S'c:/marmalade/7.2/extensions/s3ewebview/lib/win32/libcef.dll'
p3669
S'libcef.dll'
p3670
I0
tp3671
a(S'c:/marmalade/7.2/extensions/s3ewebview/lib/win32/libEGL.dll'
p3672
S'libEGL.dll'
p3673
I0
tp3674
a(S'c:/marmalade/7.2/extensions/s3ewebview/lib/win32/libGLESv2.dll'
p3675
S'libGLESv2.dll'
p3676
I0
tp3677
assS'macro_types'
p3678
(dp3679
g528
I0
sg530
I0
sg531
I0
sg532
I0
sg534
I1
sg535
I0
sg536
I0
sg537
I0
sg538
I0
sg539
I0
sg540
I0
sg541
I0
sg543
I0
sg544
I0
sg545
I0
sg546
I0
sg547
I0
sg549
I0
sg550
I0
sg551
I0
sg552
I0
sg553
I0
sg554
I0
sg555
I0
sg556
I0
sg557
I1
sg558
I0
sg559
I0
sg560
I0
sg561
I0
sg562
I0
sg563
I0
sg564
I0
sg565
I01
sg566
I1
sg567
I0
sg568
I0
sg569
I0
sg570
I0
sg571
I0
sg572
I0
sg573
I0
sg574
I0
ssS'commands'
p3680
(lp3681
sg607
(g1028
S'VC12X'
p3682
S'X86ARM'
p3683
tp3684
sS'build_libs'
p3685
(dp3686
sg609
g0
sS'frameworks'
p3687
(lp3688
sS'environ'
p3689
(dp3690
sS'target_name_debug'
p3691
g310
sS'builders'
p3692
(dp3693
g599
(dp3694
S'.S'
p3695
(dp3696
S'rvct'
p3697
(lp3698
S'.obj'
p3699
aS'echo ARM Assembling(RVCT) ${SOURCE}...'
p3700
aS'c:/marmalade/7.2/s3e\\rvct\\bin\\armasm -o ${TARGET} ${SOURCE}'
p3701
asS'gcc'
p3702
(lp3703
g3699
aS'echo ARM Assembling(GCC) ${SOURCE}...'
p3704
aS'c:/marmalade/7.2/s3e\\gcc\\bin\\arm-none-eabi-gcc -c -o ${TARGET} ${SOURCE}'
p3705
asS'ppu'
p3706
(lp3707
S'.a'
p3708
aS'echo PPU Assembling(SNC) ${SOURCE}...'
p3709
aS'c:/marmalade/7.2/s3e\\rvct\\bin\\armasm -o ${TARGET} ${SOURCE}'
p3710
assS'.s'
p3711
g3696
sS'.vp'
p3712
(lp3713
NaS'"C:/Marmalade/7.2/s3e/python/python.exe" "c:/marmalade/7.2/modules/iwgx/tools/compile_shaders.py" ${SOURCE}'
p3714
asssS'extproject_names'
p3715
(lp3716
sbtp3717
.