((dp0
S'arm_dbg_args'
p1
S'-via:"c:\\Users\\Vinicius\\Desktop\\Yes or No\\Hoppe\\build_hoppe_vc12x\\Hoppe_vc12x_arm_debug.via" -qemu'
p2
sS'game-icf'
p3
S''
p4
sS'dist'
p5
NsS'csproj'
p6
g4
sS'module_path_append'
p7
NsS'global_path'
p8
S'c:\\users\\vinicius\\desktop\\yes or no'
p9
sS'system_path'
p10
S'c:\\marmalade\\7.2\\s3e\\makefile_builder'
p11
sS'android_x86_dbg_args'
p12
S'../../tools/DeployTool/DeployTool.exe --dir "c:\\Users\\Vinicius\\Desktop\\Yes or No\\Hoppe\\build_hoppe_vc12x"'
p13
sS'use_prebuilt'
p14
NsS'arm_rel_rtsm_args'
p15
S'-via:"c:\\Users\\Vinicius\\Desktop\\Yes or No\\Hoppe\\build_hoppe_vc12x\\Hoppe_vc12x_arm_release.via" -qemu'
p16
sS'amd64'
p17
NsS'line-width'
p18
I80
sS'gcc_dbg_args'
p19
S'-via:"c:\\Users\\Vinicius\\Desktop\\Yes or No\\Hoppe\\build_hoppe_vc12x\\Hoppe_vc12x_gcc_debug.via" -qemu'
p20
sS'android-x86'
p21
NsS'x86_dbg_exe'
p22
S'c:/marmalade/7.2/s3e\\win32\\s3e_simulator_debug.exe'
p23
sS'disable-runtime-checks'
p24
NsS'release'
p25
NsS'no-make'
p26
NsS'optimise-size'
p27
NsS'output-name-debug'
p28
g4
sS'arm-fpu'
p29
S'vfp'
p30
sS'proj_name'
p31
S'Hoppe_vc12x'
p32
sS'rvct-version'
p33
S'none'
p34
sS'compiler'
p35
g4
sS'execute'
p36
I01
sS'compile-static'
p37
NsS'msvc-project'
p38
NsS'buildenv'
p39
S'VC12X'
p40
sS'quick'
p41
NsS'module_path'
p42
(lp43
S'c:/Users/Vinicius/Desktop/Yes or No/Hoppe/modules'
p44
asS'use-release-std-libs'
p45
NsS'using_perforce'
p46
I00
sS'tizen-x86'
p47
NsS'mips-s3e'
p48
NsS'ios-no-pic'
p49
NsS'shared-arm-lib'
p50
NsS'arm-cpu'
p51
g4
sS'compile-thumb'
p52
NsS'no-ide'
p53
I01
sS'msvc-version'
p54
S'6.0'
p55
sS'arm'
p56
NsS'builddir'
p57
g4
sS'compile-debug-as-release'
p58
I0
sS'brief'
p59
NsS'dll'
p60
NsS'buildenv-toolset'
p61
g4
sS'version'
p62
NsS'ccache'
p63
I0
sS'offline'
p64
NsS'ios-version'
p65
g4
sS'hub_data'
p66
g4
sS'fake_vc_call'
p67
NsS'jobs'
p68
I0
sS'linkflags'
p69
NsS'tizen-x86-toolsroot'
p70
S'c:/marmalade/7.2/s3e\\..\\tools\\gcc\\x86\\tizen_windows'
p71
sS'debug'
p72
I01
sS'xcode-build-order'
p73
g4
sS'gcc_rel_rtsm_args'
p74
S'-via:"c:\\Users\\Vinicius\\Desktop\\Yes or No\\Hoppe\\build_hoppe_vc12x\\Hoppe_vc12x_gcc_release.via" -qemu'
p75
sS'done_defaults'
p76
I1
sS'path'
p77
NsS's3e-data-dir'
p78
S'c:/Users/Vinicius/Desktop/Yes or No/Hoppe\\data'
p79
sS'enable-exceptions'
p80
NsS'osx-dll'
p81
NsS'extension'
p82
g4
sS'no-vc6'
p83
NsS'non-interactive'
p84
NsS'win32-console'
p85
NsS'dist-format'
p86
g4
sS's3e-force-arch'
p87
NsS'dump_defines'
p88
NsS'verbose'
p89
I0
sS'gcc-version'
p90
g4
sS'x86_dbg_args'
p91
S'-via:"c:\\Users\\Vinicius\\Desktop\\Yes or No\\Hoppe\\build_hoppe_vc12x\\Hoppe_vc12x_debug.via"'
p92
sS'tizen_x86_dbg_args'
p93
g13
sS'arm-debugger'
p94
g4
sS'use_temp_extension'
p95
NsS'log'
p96
NsS'no-strip'
p97
NsS'rebuild'
p98
NsS'win32-simulator-dll'
p99
NsS'strict'
p100
NsS'mips_dbg_args'
p101
g13
sS'enable-global-path'
p102
NsS'cflags'
p103
NsS'dist-dir'
p104
g4
sS'jflags'
p105
NsS'csprojSDKRefs'
p106
g4
sS'tizen_x86_rel_exe'
p107
S'c:\\marmalade\\7.2\\s3e\\makefile_builder\\tool_launcher.exe'
p108
sS'test-assets'
p109
g4
sS'distcc'
p110
NsS'external-compiler'
p111
NsS'no-distcc'
p112
NsS'preinclude'
p113
NsS'using_sdk'
p114
I01
sS'nologo'
p115
NsS'warn-level'
p116
I2
sS'mips_dbg_exe'
p117
g108
sS'mkb_in'
p118
S'c:/Users/Vinicius/Desktop/Yes or No/Hoppe/Hoppe.mkb'
p119
sS'tizen_x86_dbg_exe'
p120
g108
sS'arm_dbg_exe'
p121
S'c:/marmalade/7.2/s3e\\bin\\armdebug.exe'
p122
sS'csprojDLLRef'
p123
NsS'tizen_x86_rel_args'
p124
g13
sS'android_x86_dbg_exe'
p125
g108
sS'test-config'
p126
g4
sS'list-targets'
p127
NsS'arm_rel_exe'
p128
g108
sS'arm_rel_args'
p129
g13
sS'makedeps'
p130
NsS'android_x86_rel_exe'
p131
g108
sS'default-buildenv'
p132
S'VC12X'
p133
sS'x86_rel_exe'
p134
g23
sS'preprocess-java'
p135
NsS'mips_rel_args'
p136
g13
sS'defines'
p137
NsS'lib'
p138
NsS'global_argv'
p139
(lp140
S'C:\\Marmalade\\7.2\\s3e\\makefile_builder\\mkb.py'
p141
aS'C:/Users/Vinicius/Desktop/Yes or No/Hoppe/Hoppe.mkb'
p142
aS'--buildenv=VC12X'
p143
aS'--debug'
p144
aS'--x86'
p145
aS'--no-ide'
p146
aS'--execute'
p147
asS'make'
p148
NsS'optimise-speed'
p149
NsS'internal'
p150
NsS'enable-stdinc'
p151
NsS'deploy-only'
p152
NsS'x86'
p153
I01
sS'deploy'
p154
g4
sS'x86_run_exe'
p155
S'c:/marmalade/7.2/s3e\\win32\\s3e_console.exe'
p156
sS'x86_rel_args'
p157
S'-via:"c:\\Users\\Vinicius\\Desktop\\Yes or No\\Hoppe\\build_hoppe_vc12x\\Hoppe_vc12x_release.via"'
p158
sS'gcc_rel_args'
p159
g13
sS'mips'
p160
NsS'xcode-build-settings'
p161
g4
sS'incredibuild'
p162
NsS'strict-compile'
p163
NsS'use-auto-subdirs'
p164
NsS'mips_rel_exe'
p165
g108
sS'android_x86_rel_args'
p166
g13
sS'app-icf'
p167
g4
sS'deployargs'
p168
NsS'iosnativedebug'
p169
NsS'mkf_in'
p170
(lp171
S'c:\\marmalade\\7.2\\extensions\\s3ewebview\\s3ewebview.mkf'
p172
aS'c:\\marmalade\\7.2\\modules\\iwutil\\iwutil.mkf'
p173
aS'c:\\marmalade\\7.2\\modules\\third_party\\libjpeg\\libjpeg.mkf'
p174
aS'c:\\marmalade\\7.2\\modules\\third_party\\libpng\\libpng.mkf'
p175
aS'c:\\marmalade\\7.2\\modules\\third_party\\zlib\\zlib.mkf'
p176
aS'c:\\marmalade\\7.2\\extensions\\s3efacebook\\s3efacebook.mkf'
p177
aS'c:\\marmalade\\7.2\\modules\\iw2d\\iw2d.mkf'
p178
aS'c:\\marmalade\\7.2\\modules\\iwgx\\iwgx.mkf'
p179
aS'c:\\marmalade\\7.2\\modules\\iwgl\\iwgl.mkf'
p180
aS'c:\\marmalade\\7.2\\modules\\iwgeom\\iwgeom.mkf'
p181
aS'c:\\marmalade\\7.2\\modules\\iwresmanager\\iwresmanager.mkf'
p182
aS'c:\\marmalade\\7.2\\modules\\iwgxfont\\iwgxfont.mkf'
p183
aS'c:\\marmalade\\7.2\\modules\\third_party\\tiniconv\\tiniconv.mkf'
p184
aS'c:\\marmalade\\7.2\\modules\\iw2dscenegraph\\iw2dscenegraph.mkf'
p185
aS'c:\\marmalade\\7.2\\modules\\iw2dscenegraphcore\\iw2dscenegraphcore.mkf'
p186
aS'c:\\marmalade\\7.2\\modules\\iwtween\\iwtween.mkf'
p187
aS'c:\\users\\vinicius\\desktop\\yes or no\\hoppe\\modules\\soundengine\\soundengine.mkf'
p188
aS'c:\\marmalade\\7.2\\extensions\\s3eflurry\\s3eflurry.mkf'
p189
asS'strict-mkb'
p190
NsS'executeargs'
p191
NsS'clean'
p192
NsS'no-asm'
p193
NsS'output-name'
p194
g4
sS'no-modules'
p195
NsS'find_define'
p196
g4
s(dp197
S'c:\\marmalade\\7.2\\s3e\\makefile_builder\\templates\\ws8_sln.pyc'
p198
F1396656910.0
sS'c:\\marmalade\\7.2\\s3e\\makefile_builder\\plugins\\java.pyc'
p199
F1396656908.0
sS'c:\\marmalade\\7.2\\s3e\\makefile_builder\\plugins\\S3EEmitter.pyc'
p200
F1396656908.0
sS'c:\\marmalade\\7.2\\s3e\\makefile_builder\\templates\\win32_vcxproj_filters.pyc'
p201
F1396656910.0
sS'c:\\marmalade\\7.2\\s3e\\makefile_builder\\plugins\\xcode4_schememanagement.py'
p202
F1396655700.0
sS'c:\\marmalade\\7.2\\s3e\\makefile_builder\\plugins\\linux_scons.pyc'
p203
F1396656910.0
sS'c:\\marmalade\\7.2\\s3e\\makefile_builder\\templates\\wp8_sln.pyc'
p204
F1396656910.0
sS'c:\\marmalade\\7.2\\s3e\\makefile_builder\\templates\\ws8_ext_sln.pyc'
p205
F1396656910.0
sS'c:\\marmalade\\7.2\\s3e\\makefile_builder\\templates\\MainWindow.xib'
p206
F1396655700.0
sS'c:\\marmalade\\7.2\\s3e\\makefile_builder\\templates\\ws81_ext_sln.pyc'
p207
F1396656910.0
sS'c:\\marmalade\\7.2\\s3e\\makefile_builder\\plugins\\Win8Emitter.pyc'
p208
F1396656910.0
sS'c:\\marmalade\\7.2\\s3e\\makefile_builder\\templates\\win8_ext_csproj.pyc'
p209
F1396656910.0
sS'c:\\marmalade\\7.2\\s3e\\makefile_builder\\templates\\rvct_linker_script'
p210
F1396655702.0
sS'c:\\marmalade\\7.2\\s3e\\makefile_builder\\templates\\win8_sln.pyc'
p211
F1396656910.0
sS'c:\\marmalade\\7.2\\s3e\\makefile_builder\\templates\\ws8_ext_csproj.pyc'
p212
F1396656910.0
sS'c:\\marmalade\\7.2\\s3e\\makefile_builder\\plugins\\s3e_make.pyc'
p213
F1396656908.0
sS'c:\\marmalade\\7.2\\s3e\\makefile_builder\\templates\\wp8_csproj_user.pyc'
p214
F1396656910.0
sS'c:\\marmalade\\7.2\\s3e\\makefile_builder\\plugins\\s3e_scons.pyc'
p215
F1396656908.0
sS'c:\\marmalade\\7.2\\s3e\\makefile_builder\\plugins\\s3e_qmake.py'
p216
F1396655700.0
sS'c:\\marmalade\\7.2\\s3e\\makefile_builder\\docs\\deprecated.options.txt'
p217
F1396655698.0
sS'c:\\marmalade\\7.2\\s3e\\makefile_builder\\plugins\\ws8_ws8.pyc'
p218
F1396656910.0
sS'c:\\marmalade\\7.2\\s3e\\makefile_builder\\templates\\ws81_sln.pyc'
p219
F1396656910.0
sS'c:\\marmalade\\7.2\\s3e\\makefile_builder\\templates\\ws81_ext_csproj.pyc'
p220
F1396656910.0
sS'c:\\marmalade\\7.2\\s3e\\makefile_builder\\templates\\wp8_vcxproj.pyc'
p221
F1396656910.0
sS'c:\\marmalade\\7.2\\s3e\\makefile_builder\\templates\\vc6_opt.pyc'
p222
F1396656910.0
sS'c:\\marmalade\\7.2\\s3e\\makefile_builder\\plugins\\deploy.pyc'
p223
F1396656908.0
sS'c:\\marmalade\\7.2\\s3e\\makefile_builder\\templates\\scons.pyc'
p224
F1396656910.0
sS'c:\\marmalade\\7.2\\s3e\\makefile_builder\\templates\\win32_vcproj.pyc'
p225
F1396656910.0
sS'c:\\marmalade\\7.2\\s3e\\makefile_builder\\templates\\win8_csproj.pyc'
p226
F1396656910.0
sS'c:\\marmalade\\7.2\\s3e\\makefile_builder\\extensions\\make_dist.py'
p227
F1396655698.0
sS'c:\\marmalade\\7.2\\s3e\\makefile_builder\\templates\\gdb_start.txt'
p228
F1396655702.0
sS'c:\\marmalade\\7.2\\s3e\\makefile_builder\\templates\\vc8_user.pyc'
p229
F1396656910.0
sS'c:\\marmalade\\7.2\\s3e\\makefile_builder\\plugins\\s3e_win8.pyc'
p230
F1396656910.0
sS'c:\\marmalade\\7.2\\s3e\\makefile_builder\\templates\\win32_sln.pyc'
p231
F1396656910.0
sS'c:\\marmalade\\7.2\\s3e\\makefile_builder\\docs\\options.txt'
p232
F1396655698.0
sS'c:\\marmalade\\7.2\\s3e\\makefile_builder\\mkb.py'
p233
F1396655698.0
sS'c:\\marmalade\\7.2\\s3e\\makefile_builder\\templates\\Info.plist'
p234
F1396655700.0
sS'c:\\marmalade\\7.2\\s3e\\makefile_builder\\docs\\parse_options.pyc'
p235
F1396656912.0
sS'c:\\marmalade\\7.2\\s3e\\makefile_builder\\templates\\ws8_csproj.pyc'
p236
F1396656910.0
sS'c:\\marmalade\\7.2\\s3e\\makefile_builder\\templates\\ws81_csproj.pyc'
p237
F1396656910.0
sS'c:\\marmalade\\7.2\\s3e\\makefile_builder\\plugins\\osx_xcode.pyc'
p238
F1396656910.0
sS'c:\\marmalade\\7.2\\s3e\\makefile_builder\\plugins\\s3e_xcode.pyc'
p239
F1397674110.1375155
sS'c:\\marmalade\\7.2\\s3e\\makefile_builder\\plugins\\xcode4_schememanagement.pyc'
p240
F1397674109.1068296
sS'c:\\marmalade\\7.2\\s3e\\makefile_builder\\templates\\xcode4.xcscheme'
p241
F1396655704.0
sS'c:\\marmalade\\7.2\\s3e\\makefile_builder\\plugins\\Emitter.pyc'
p242
F1396656908.0
sS'c:\\marmalade\\7.2\\s3e\\makefile_builder\\templates\\mips_linker_script'
p243
F1396655702.0
sS'c:\\marmalade\\7.2\\s3e\\makefile_builder\\templates\\ws8_vcxproj.pyc'
p244
F1396656910.0
sS'c:\\marmalade\\7.2\\s3e\\makefile_builder\\plugins\\win32_vc6.pyc'
p245
F1396656910.0
sS'c:\\marmalade\\7.2\\s3e\\makefile_builder\\mkb_parser.pyc'
p246
F1396656908.0
sS'c:\\marmalade\\7.2\\s3e\\makefile_builder\\templates\\ws81_csproj_user.pyc'
p247
F1396656910.0
sS'c:\\marmalade\\7.2\\s3e\\makefile_builder\\templates\\linker_script'
p248
F1396655702.0
sS'c:\\marmalade\\7.2\\s3e\\makefile_builder\\docs\\deprecated.defines.txt'
p249
F1396655698.0
sS'c:\\marmalade\\7.2\\s3e\\makefile_builder\\templates\\template.suo'
p250
F1396655702.0
sS'c:\\marmalade\\7.2\\s3e\\makefile_builder\\templates\\make.py'
p251
F1396655702.0
sS'c:\\marmalade\\7.2\\s3e\\makefile_builder\\extensions'
p252
F1397673792.7230873
sS'c:\\marmalade\\7.2\\s3e\\makefile_builder\\templates\\win32_dsp.pyc'
p253
F1396656910.0
sS'c:\\marmalade\\7.2\\s3e\\makefile_builder\\templates\\wp8_ext_csproj.pyc'
p254
F1396656910.0
sS'c:\\marmalade\\7.2\\s3e\\makefile_builder\\plugins\\MakeEmitter.pyc'
p255
F1396656908.0
sS'c:\\marmalade\\7.2\\s3e\\makefile_builder\\plugins\\XcodeEmitter.pyc'
p256
F1397674109.0167696
sS'c:\\marmalade\\7.2\\s3e\\makefile_builder\\templates\\win32_dsw.pyc'
p257
F1396656910.0
sS'c:\\marmalade\\7.2\\s3e\\makefile_builder\\docs\\mkb.defines.txt'
p258
F1396655698.0
sS'c:\\marmalade\\7.2\\s3e\\makefile_builder\\docs\\deployment_options.txt'
p259
F1396655698.0
sS'c:\\marmalade\\7.2\\s3e\\makefile_builder\\plugins\\s3e_qmake.pyc'
p260
F1397674109.7792768
sS'c:\\marmalade\\7.2\\s3e\\makefile_builder\\plugins\\ws81_ws81.pyc'
p261
F1396656910.0
sS'c:\\marmalade\\7.2\\s3e\\makefile_builder\\templates\\win32_vcxproj.pyc'
p262
F1396656910.0
sS'c:\\marmalade\\7.2\\s3e\\makefile_builder\\docs'
p263
F1397673793.1573761
sS'c:\\marmalade\\7.2\\s3e\\makefile_builder\\plugins\\XcodeEmitter.py'
p264
F1396655698.0
sS'c:\\marmalade\\7.2\\s3e\\makefile_builder\\templates\\template.opt'
p265
F1396655702.0
sS'c:\\marmalade\\7.2\\s3e\\makefile_builder\\tool_launcher.exe'
p266
F1396656088.0
sS'c:\\marmalade\\7.2\\s3e\\makefile_builder\\templates\\xcode.py'
p267
F1396655702.0
sS'c:\\marmalade\\7.2\\s3e\\makefile_builder\\plugins\\VisualStudioEmitter.pyc'
p268
F1396656908.0
sS'c:\\marmalade\\7.2\\s3e\\makefile_builder\\plugins\\osx_scons.pyc'
p269
F1396656910.0
sS'c:\\marmalade\\7.2\\s3e\\makefile_builder\\templates'
p270
F1397673792.65204
sS'c:\\marmalade\\7.2\\s3e\\makefile_builder\\templates\\ws81_vcxproj.pyc'
p271
F1396656910.0
sS'c:\\marmalade\\7.2\\s3e\\makefile_builder\\templates\\win8_vcxproj.pyc'
p272
F1396656910.0
sS'c:\\marmalade\\7.2\\s3e\\makefile_builder\\plugins\\s3e_ws8.pyc'
p273
F1396656910.0
sS'c:\\marmalade\\7.2\\s3e\\makefile_builder\\templates\\wp8_csproj.pyc'
p274
F1396656910.0
sS'c:\\marmalade\\7.2\\s3e\\makefile_builder\\templates\\vc7_suo.pyc'
p275
F1396656910.0
sS'c:\\marmalade\\7.2\\s3e\\makefile_builder\\plugins\\SConsEmitter.pyc'
p276
F1396656908.0
sS'c:\\marmalade\\7.2\\s3e\\makefile_builder\\mkb_option.pyc'
p277
F1396656908.0
sS'c:\\marmalade\\7.2\\s3e\\makefile_builder\\templates\\ws8_csproj_user.pyc'
p278
F1396656910.0
sS'c:\\marmalade\\7.2\\s3e\\makefile_builder\\mkb_main.pyc'
p279
F1396656908.0
sS'c:\\marmalade\\7.2\\s3e\\makefile_builder\\plugins'
p280
F1397674110.1315114
sS'c:\\marmalade\\7.2\\s3e\\makefile_builder\\plugins\\s3e_web.pyc'
p281
F1396656908.0
sS'c:\\marmalade\\7.2\\s3e\\makefile_builder\\plugins\\s3e_ws81.pyc'
p282
F1396656910.0
sS'c:\\marmalade\\7.2\\s3e\\makefile_builder\\mkb_globals.pyc'
p283
F1396656908.0
sS'c:\\marmalade\\7.2\\s3e\\makefile_builder\\plugins\\iphone.pyc'
p284
F1396656910.0
sS'c:\\marmalade\\7.2\\s3e\\makefile_builder\\mkb_launcher.exe'
p285
F1396656088.0
sS'c:\\marmalade\\7.2\\s3e\\makefile_builder\\plugins\\vc7_utils.pyc'
p286
F1396656908.0
sS'c:\\marmalade\\7.2\\s3e\\makefile_builder\\plugins\\s3e_wp8.pyc'
p287
F1396656910.0
sS'c:\\marmalade\\7.2\\s3e\\makefile_builder\\plugins\\vc6_utils.pyc'
p288
F1396656908.0
sS'c:\\marmalade\\7.2\\s3e\\makefile_builder\\deployment.pyc'
p289
F1396656908.0
sS'c:\\marmalade\\7.2\\s3e\\makefile_builder\\plugins\\s3e_vc6.pyc'
p290
F1396656908.0
sS'c:\\marmalade\\7.2\\s3e\\makefile_builder\\plugins\\null.pyc'
p291
F1396656908.0
sS'c:\\marmalade\\7.2\\s3e\\makefile_builder\\templates\\qmake.py'
p292
F1396655702.0
sS'c:\\marmalade\\7.2\\s3e\\makefile_builder\\templates\\xcode4_DeployTool.xcscheme'
p293
F1396655704.0
sS'c:\\marmalade\\7.2\\s3e\\makefile_builder\\templates\\win8_csproj_user.pyc'
p294
F1396656910.0
sS'c:\\marmalade\\7.2\\s3e\\makefile_builder\\plugins\\win8_utils.pyc'
p295
F1396656908.0
sS'c:\\marmalade\\7.2\\s3e\\makefile_builder\\mkb_util.pyc'
p296
F1396656908.0
sS'c:\\marmalade\\7.2\\s3e\\makefile_builder\\plugins\\wp8_wp8.pyc'
p297
F1396656910.0
sS'c:\\marmalade\\7.2\\s3e\\makefile_builder\\plugins\\s3e_xcode.py'
p298
F1396655700.0
sS'c:\\marmalade\\7.2\\s3e\\makefile_builder\\templates\\vc10_user.pyc'
p299
F1396656910.0
sS'c:\\marmalade\\7.2\\s3e\\makefile_builder\\templates\\qmake_user.py'
p300
F1396655702.0
sS'c:\\marmalade\\7.2\\s3e\\makefile_builder\\templates\\xcode_pbxuser.py'
p301
F1396655704.0
sccopy_reg
_reconstructor
p302
(cmkb_main
MkbFile
p303
c__builtin__
object
p304
Ntp305
Rp306
(dp307
g5
(lp308
sS'target_name'
p309
S'Hoppe'
p310
sS'current_file'
p311
g119
sS'package_path'
p312
(lp313
sS'post_build'
p314
(lp315
(lp316
S'c:/marmalade/7.2/s3e/tools'
p317
aS'C:\\Marmalade\\7.2\\s3e\\python\\python.exe .\\process_map.py "$(TargetPath)"'
p318
aa(S'c:\\marmalade\\7.2\\s3e\\bin'
p319
S'"s3e_plink" -l "$(TargetPath)" '
p320
g153
tp321
asS'librarys'
p322
(lp323
g302
(cmkb_main
Library
p324
g304
Ntp325
Rp326
(dp327
S'name'
p328
S'vc6_compat.lib'
p329
sS'expand_name'
p330
I00
sS'include_spec_rvct_objs'
p331
(lp332
sS'include_all_objs'
p333
I00
sS'share_arm'
p334
I00
sS'arch'
p335
S'x86'
p336
sS'nodebug'
p337
I00
sg35
Nsbag302
(g324
g304
Ntp338
Rp339
(dp340
g328
S'iwutil'
p341
sg330
I01
sg331
(lp342
sg333
Nsg334
Nsg335
Nsg337
I00
sg35
Nsbag302
(g324
g304
Ntp343
Rp344
(dp345
g328
S'jpeg'
p346
sg330
I01
sg331
g342
sg333
Nsg334
Nsg335
Nsg337
I00
sg35
Nsbag302
(g324
g304
Ntp347
Rp348
(dp349
g328
S'z'
p350
sg330
I01
sg331
g342
sg333
Nsg334
Nsg335
Nsg337
I00
sg35
Nsbag302
(g324
g304
Ntp351
Rp352
(dp353
g328
S'png'
p354
sg330
I01
sg331
g342
sg333
Nsg334
Nsg335
Nsg337
I00
sg35
Nsbag302
(g324
g304
Ntp355
Rp356
(dp357
g328
S'iw2d'
p358
sg330
I01
sg331
g342
sg333
Nsg334
Nsg335
Nsg337
I00
sg35
Nsbag302
(g324
g304
Ntp359
Rp360
(dp361
g328
S'ATI_Compress_MT_VC7.lib'
p362
sg330
I00
sg331
g342
sg333
Nsg334
Nsg335
S'x86'
p363
sg337
I00
sg35
Nsbag302
(g324
g304
Ntp364
Rp365
(dp366
g328
S'iwgx'
p367
sg330
I01
sg331
g342
sg333
Nsg334
Nsg335
Nsg337
I00
sg35
Nsbag302
(g324
g304
Ntp368
Rp369
(dp370
g328
S'iwgl'
p371
sg330
I01
sg331
g342
sg333
Nsg334
Nsg335
Nsg337
I00
sg35
Nsbag302
(g324
g304
Ntp372
Rp373
(dp374
g328
S'iwgeom'
p375
sg330
I01
sg331
g342
sg333
Nsg334
Nsg335
Nsg337
I00
sg35
Nsbag302
(g324
g304
Ntp376
Rp377
(dp378
g328
S'iwresmanager'
p379
sg330
I01
sg331
g342
sg333
Nsg334
Nsg335
Nsg337
I00
sg35
Nsbag302
(g324
g304
Ntp380
Rp381
(dp382
g328
S'iwgxfont'
p383
sg330
I01
sg331
g342
sg333
Nsg334
Nsg335
Nsg337
I00
sg35
Nsbag302
(g324
g304
Ntp384
Rp385
(dp386
g328
S'tiniconv'
p387
sg330
I01
sg331
g342
sg333
Nsg334
Nsg335
Nsg337
I00
sg35
Nsbag302
(g324
g304
Ntp388
Rp389
(dp390
g328
S's3e_cpp'
p391
sg330
I01
sg331
g332
sg333
I00
sg334
I00
sg335
Nsg337
I00
sg35
Nsbag302
(g324
g304
Ntp392
Rp393
(dp394
g328
S's3e'
p395
sg330
I01
sg331
(lp396
S'iwcrt.o'
p397
asg333
I00
sg334
I00
sg335
Nsg337
I00
sg35
Nsbag302
(g324
g304
Ntp398
Rp399
(dp400
g328
S's3e_api'
p401
sg330
I01
sg331
g332
sg333
I00
sg334
I00
sg335
S'x86'
p402
sg337
I01
sg35
Nsbag302
(g324
g304
Ntp403
Rp404
(dp405
g328
S's3e_api'
p406
sg330
I01
sg331
g332
sg333
I00
sg334
I00
sg335
S'!x86'
p407
sg337
I01
sg35
Nsbag302
(g324
g304
Ntp408
Rp409
(dp410
g328
S'stdc++'
p411
sg330
I00
sg331
g332
sg333
I00
sg334
I00
sg335
S'mips'
p412
sg337
I00
sg35
Nsbag302
(g324
g304
Ntp413
Rp414
(dp415
g328
S'c'
p416
sg330
I00
sg331
g332
sg333
I00
sg334
I00
sg335
S'mips'
p417
sg337
I00
sg35
Nsbag302
(g324
g304
Ntp418
Rp419
(dp420
g328
S'm'
p421
sg330
I00
sg331
g332
sg333
I00
sg334
I00
sg335
S'mips'
p422
sg337
I00
sg35
Nsbag302
(g324
g304
Ntp423
Rp424
(dp425
g328
S'gcc'
p426
sg330
I00
sg331
g332
sg333
I00
sg334
I00
sg335
S'mips'
p427
sg337
I00
sg35
Nsbag302
(g324
g304
Ntp428
Rp429
(dp430
g328
S'stdc++'
p431
sg330
I00
sg331
g332
sg333
I00
sg334
I00
sg335
S'gcc_x86_tizen'
p432
sg337
I00
sg35
Nsbag302
(g324
g304
Ntp433
Rp434
(dp435
g328
g416
sg330
I00
sg331
g332
sg333
I00
sg334
I00
sg335
S'gcc_x86_tizen'
p436
sg337
I00
sg35
Nsbag302
(g324
g304
Ntp437
Rp438
(dp439
g328
g421
sg330
I00
sg331
g332
sg333
I00
sg334
I00
sg335
S'gcc_x86_tizen'
p440
sg337
I00
sg35
Nsbag302
(g324
g304
Ntp441
Rp442
(dp443
g328
S'gcc'
p444
sg330
I00
sg331
g332
sg333
I00
sg334
I00
sg335
S'gcc_x86_tizen'
p445
sg337
I00
sg35
Nsbag302
(g324
g304
Ntp446
Rp447
(dp448
g328
S'gcc_eh'
p449
sg330
I00
sg331
g332
sg333
I00
sg334
I00
sg335
S'gcc_x86_tizen'
p450
sg337
I00
sg35
Nsbag302
(g324
g304
Ntp451
Rp452
(dp453
g328
S'stdc++'
p454
sg330
I00
sg331
g332
sg333
I00
sg334
I00
sg335
S'gcc_x86_android'
p455
sg337
I00
sg35
Nsbag302
(g324
g304
Ntp456
Rp457
(dp458
g328
g416
sg330
I00
sg331
g332
sg333
I00
sg334
I00
sg335
S'gcc_x86_android'
p459
sg337
I00
sg35
Nsbag302
(g324
g304
Ntp460
Rp461
(dp462
g328
g421
sg330
I00
sg331
g332
sg333
I00
sg334
I00
sg335
S'gcc_x86_android'
p463
sg337
I00
sg35
Nsbag302
(g324
g304
Ntp464
Rp465
(dp466
g328
S'gcc'
p467
sg330
I00
sg331
g332
sg333
I00
sg334
I00
sg335
S'gcc_x86_android'
p468
sg337
I00
sg35
NsbasS'library_paths'
p469
(lp470
g302
(cmkb_main
LibraryPath
p471
g304
Ntp472
Rp473
(dp474
S'expand_path'
p475
I01
sS'add_cpu_variant'
p476
I00
sg328
S'c:/marmalade/7.2/modules/iwutil'
p477
sbag302
(g471
g304
Ntp478
Rp479
(dp480
g475
I01
sg476
I00
sg328
S'c:/marmalade/7.2/modules/third_party/libjpeg'
p481
sbag302
(g471
g304
Ntp482
Rp483
(dp484
g475
I01
sg476
I00
sg328
S'c:/marmalade/7.2/modules/third_party/zlib'
p485
sbag302
(g471
g304
Ntp486
Rp487
(dp488
g475
I01
sg476
I00
sg328
S'c:/marmalade/7.2/modules/third_party/libpng'
p489
sbag302
(g471
g304
Ntp490
Rp491
(dp492
g475
I01
sg476
I00
sg328
S'c:/marmalade/7.2/modules/iw2d'
p493
sbag302
(g471
g304
Ntp494
Rp495
(dp496
g475
I00
sg476
I00
sg328
S'c:/marmalade/7.2/modules/iwgx/atitools'
p497
sbag302
(g471
g304
Ntp498
Rp499
(dp500
g475
I01
sg476
I00
sg328
S'c:/marmalade/7.2/modules/iwgx'
p501
sbag302
(g471
g304
Ntp502
Rp503
(dp504
g475
I01
sg476
I00
sg328
S'c:/marmalade/7.2/modules/iwgl'
p505
sbag302
(g471
g304
Ntp506
Rp507
(dp508
g475
I01
sg476
I00
sg328
S'c:/marmalade/7.2/modules/iwgeom'
p509
sbag302
(g471
g304
Ntp510
Rp511
(dp512
g475
I01
sg476
I00
sg328
S'c:/marmalade/7.2/modules/iwresmanager'
p513
sbag302
(g471
g304
Ntp514
Rp515
(dp516
g475
I01
sg476
I00
sg328
S'c:/marmalade/7.2/modules/iwgxfont'
p517
sbag302
(g471
g304
Ntp518
Rp519
(dp520
g475
I01
sg476
I00
sg328
S'c:/marmalade/7.2/modules/third_party/tiniconv'
p521
sbag302
(g471
g304
Ntp522
Rp523
(dp524
g475
I01
sg476
I00
sg328
S'c:/marmalade/7.2/s3e'
p525
sbasS'macros'
p526
(dp527
S'IW_TRACE_CHANNEL_WEBVIEW_VERBOSE'
p528
S'2'
p529
sS'IW_MKF_S3EFACEBOOK'
p530
NsS'I3D_PLATFORM_S3E'
p531
NsS'IW_TRACE_CHANNEL_FLURRY'
p532
S'1'
p533
sS'IW_USE_CALLSTACK'
p534
NsS'__S3E__'
p535
NsS'IW_TRACE_CHANNEL_WEBVIEW'
p536
g533
sS'IW_MKF_LIBJPEG'
p537
NsS'I3D_OS_S3E'
p538
NsS'IW_ASSERTION_CHANNEL_FLURRY'
p539
g533
sS'IW_MKF_TINICONV'
p540
NsS'IW_APP_VERSION'
p541
S'"1.0"'
p542
sS'IW_MKF_IWRESMANAGER'
p543
NsS'IW_MKF_IWUTIL'
p544
NsS'IW_PLATFORM_S3E'
p545
NsS'IW_ASSERTION_CHANNEL_2D'
p546
g533
sS'IW_APP_NAME'
p547
S'"Hoppe"'
p548
sS'IW_MKF_IWGXFONT'
p549
NsS'IW_MKF_IWTWEEN'
p550
NsS'IW_MKF_S3EFLURRY'
p551
NsS'IW_MKF_ZLIB'
p552
NsS'IW_MKF_IWGX'
p553
NsS'IW_MKF_IW2DSCENEGRAPH'
p554
NsS'IW_MKF_SOUNDENGINE'
p555
NsS'IW_ASSERTION_CHANNEL_WEBVIEW'
p556
g533
sS'IW_USE_ASSERTIONS'
p557
NsS'_CRT_SECURE_NO_DEPRECATE'
p558
NsS'IW_MKF_IWGL'
p559
NsS'IW_MKF_LIBPNG'
p560
NsS'IW_MKF_S3EWEBVIEW'
p561
NsS'IW_TRACE_CHANNEL_IW_2DSCENEGRAPH'
p562
g533
sS'IW_ASSERTION_CHANNEL_FACEBOOK'
p563
g533
sS'IW_TRACE_CHANNEL_FACEBOOK_VERBOSE'
p564
g529
sS'IW_DEBUG'
p565
NsS'IW_USE_TRACING'
p566
NsS'IW_ASSERTION_CHANNEL_IW_2DSCENEGRAPH'
p567
g533
sS'IW_SDK'
p568
NsS'S3E_INCLUDE_LEGACY'
p569
NsS'IW_MKF_IW2DSCENEGRAPHCORE'
p570
NsS'IW_TRACE_CHANNEL_FACEBOOK'
p571
g533
sS'IW_TRACE_CHANNEL_FLURRY_VERBOSE'
p572
g529
sS'IW_MKF_IW2D'
p573
NsS'IW_MKF_IWGEOM'
p574
NssS'done_warnings'
p575
(dp576
sS'subprojects'
p577
(dp578
g188
S'SoundEngine'
p579
sg183
S'iwgxfont'
p580
sg177
S's3eFacebook'
p581
sg172
S's3eWebView'
p582
sg173
S'iwutil'
p583
sg179
S'iwgx'
p584
sg182
S'iwresmanager'
p585
sg174
S'libjpeg'
p586
sg175
S'libpng'
p587
sg180
S'iwgl'
p588
sg187
S'iwtween'
p589
sg185
S'iw2dscenegraph'
p590
sg178
S'iw2d'
p591
sg181
S'iwgeom'
p592
sg184
S'tiniconv'
p593
sg176
S'zlib'
p594
sg186
S'../iw2dscenegraphcore'
p595
sg189
S's3eFlurry'
p596
ssS'deployments'
p597
(dp598
S'Default'
p599
g302
(cdeployment
Deployment
p600
g304
Ntp601
Rp602
(dp603
S'got_version'
p604
I0
sS'assets'
p605
g599
sS'mkb'
p606
g306
sS'target'
p607
Nsg335
(lp608
sS'options'
p609
(dp610
S'iphone-link-lib'
p611
(lp612
S's3eWebView'
p613
aS's3eFacebook'
p614
aS'FlurryAnalytics'
p615
aS's3eFlurry'
p616
asS'game-icf'
p617
NsS'winmobile-icon32'
p618
NsS'ws8-logo-image150x150'
p619
NsS'ws81-product-version'
p620
NsS'osx-ext-dll'
p621
(lp622
S'c:/marmalade/7.2/extensions/s3ewebview/lib/osx/libs3eWebView.dylib'
p623
aS'c:/marmalade/7.2/extensions/s3eflurry/lib/osx/libs3eFlurry.dylib'
p624
asS'iphone-provisioning-profile'
p625
NsS'ws8-splash-screen-image620x300'
p626
NsS'ws8-ext-capabilities'
p627
(lp628
sS'android-icon-hdpi'
p629
NsS'brew-icon-large'
p630
NsS'iphone-splash-full-orient'
p631
NsS'wp8-tile-fliptemplate-supports-large'
p632
NsS'iphone-show-status-bar'
p633
NsS'roku-requires-mkv'
p634
NsS'long-caption'
p635
NsS'android-pkgname'
p636
NsS'blackberry-permissions-read-device-identifying-information'
p637
NsS'ws81-certificate-end-date'
p638
NsS'psp-dlgcontentid'
p639
NsS'target-folder'
p640
NsS'tizen-dist1-CA-path'
p641
NsS'symbian-icon2-format'
p642
NsS'iphone-region'
p643
NsS'uiq3-icon3-mask'
p644
NsS'brew-encoding'
p645
NsS'android-x86'
p646
NsS'nds-initialcode'
p647
NsS'iphone-persistent-wifi'
p648
NsS'psp-snd0'
p649
NsS'osx-signing-identity-inst'
p650
NsS'winmobile-install-folder'
p651
NsS'android-external-res'
p652
(lp653
S'c:/marmalade/7.2/extensions/s3efacebook/facebook-android-sdk/facebook/res'
p654
asS'ws8-product-version'
p655
NsS'brew-priviledges'
p656
NsS'symbian-icon2-mask-black'
p657
NsS'iphone-icon-ipad'
p658
NsS'roku-hidden'
p659
NsS'psp-titlename'
p660
NsS'symbian-icon1-mask'
p661
NsS'psp-parentallevel'
p662
NsS'splashscreen-use-all'
p663
NsS'wp8-author'
p664
NsS'symbian-disable-ecompxl'
p665
NsS'splashscreen-auto-onblack'
p666
NsS'win32-ext-dll'
p667
(lp668
S'c:/marmalade/7.2/extensions/s3ewebview/lib/win32/s3eWebView.dll'
p669
aS'c:/marmalade/7.2/extensions/s3eflurry/lib/win32/s3eFlurry.dll'
p670
asS'iphone-development-key'
p671
NsS'winmobile-icon48'
p672
NsS'android-unsigned'
p673
NsS'osx-appstore-category'
p674
NsS'version-revision'
p675
NsS'roku-icon-focus-sd'
p676
NsS'android-keystore'
p677
NsS'winmobile-png90'
p678
NsS'iphone-icon-ipad-high-res'
p679
NsS'iphone-disable-ipad'
p680
NsS'wp8-product-id'
p681
NsS'wp8-ext-capabilities'
p682
(lp683
sS'iphone-ipad-only'
p684
NsS'symbian-icon1-mask-black'
p685
NsS'iphone-bundle-localisations'
p686
NsS'winmobile-png60'
p687
NsS'blackberry-permissions-access-shared'
p688
NsS'blackberry-author'
p689
NsS'android-icon-xxxhdpi'
p690
NsS'olddeploytoolstyle'
p691
NsS'android_icon_gallery'
p692
NsS'winmobile-cab-compress'
p693
NsS'ws81-ext-managed-dll'
p694
(lp695
sS'win32-icon'
p696
NsS'symbian-key'
p697
NsS'app-icf'
p698
NsS'blackberry-storepass'
p699
NsS'wp8-tile-fliptemplate-back-title'
p700
NsS'brew-compress-loader'
p701
NsS'win32-pref-windowposy'
p702
NsS'win32-pref-windowposx'
p703
NsS'roku-requires-audiometadata'
p704
NsS'wp8-exclude-low-mem'
p705
NsS'wp8-tile-fliptemplate-title'
p706
NsS'iphone-icon-ipad-search-high-res'
p707
NsS'iphone-link-libdir'
p708
(lp709
S'c:/marmalade/7.2/extensions/s3ewebview/lib/iphone'
p710
aS'c:/marmalade/7.2/extensions/s3efacebook/lib/iphone'
p711
aS'c:/marmalade/7.2/extensions/s3eflurry/lib/iphone'
p712
asS'blackberry-permissions-read-geolocation'
p713
NsS'winmobile-nouninstall'
p714
NsS'tizen-signed'
p715
NsS'android-extra-application-manifest'
p716
(lp717
S'c:/marmalade/7.2/extensions/s3efacebook/source/android/extra_app_manifest.xml'
p718
asS'ws8-ext-native-dll'
p719
(lp720
sS'symbian-icon2-mask'
p721
NsS'iphone-backgroundmode-audio'
p722
NsS'webos-memory'
p723
NsS'android-keypass'
p724
NsS'name'
p725
NsS'uiq3-icon2-format'
p726
NsS'roku-splash-screen-sd'
p727
NsS'auto-derbh'
p728
NsS'roku-icon-side-sd'
p729
NsS'symbian-maxheapsize'
p730
NsS'nds-publicsavedatasize'
p731
NsS'splashscreen'
p732
NsS'brew-mif'
p733
NsS'iphone-icon-settings-high-res'
p734
NsS'android-manifest'
p735
NsS'ws81-splash-screen-image620x300'
p736
NsS's3e-compression'
p737
NsS'tizen-author-password'
p738
NsS'wp8-tile-fliptemplate-back-content'
p739
NsS'symbian-icon1'
p740
NsS'symbian-icon2'
p741
NsS'android-extra-styles-file'
p742
NsS'nds-bannertitle-jp'
p743
NsS'osx-sign-for-store'
p744
NsS'symbian7-uid'
p745
NsS'wp8-tile-fliptemplate-large-back-content'
p746
NsS'nds-bannertitle-cn'
p747
NsS'iphone-distribution-key'
p748
NsS'android-icon-gallery'
p749
NsS'blackberry-keystore'
p750
NsS'iphone-nosign'
p751
NsS'caption'
p752
NsS'android-extra-manifest'
p753
(lp754
sS'android-icon-xxhdpi'
p755
NsS'version-minor'
p756
NsS'iphone-link-libdirs'
p757
(lp758
sS'iphone-icon-large'
p759
NsS'symbian-keypwd'
p760
NsS'symbian8-uid'
p761
NsS'symbian-cert-key'
p762
NsS'winmobile-ampd-part-number'
p763
NsS'arch'
p764
NsS'nds-romheadertemplate'
p765
NsS'webos-icon'
p766
NsS'psp-dlgprotectdocument'
p767
NsS'android-icon-mdpi'
p768
NsS'nds-icon'
p769
NsS'ws8-custom-manifest-fill'
p770
NsS'iphone-development-cert'
p771
NsS'blackberry-phone-icon'
p772
NsS'iphone-enable-4inch-retina'
p773
NsS'ws8-custom-manifest'
p774
NsS'version-major'
p775
NsS'wp8-genre-isgame'
p776
NsS'uiq3-uid'
p777
NsS'iphone-splash-retina-generate'
p778
NsS'tizen-hw-acceleration'
p779
NsS'iphone_bundle_localisations'
p780
NsS'tizen-dist1-key'
p781
NsS'wp8-custom-manifest'
p782
NsS'nds-bannertitle-ge'
p783
NsS'iphone-sign-for-distribution'
p784
NsS'wp8-tile-fliptemplate-medium-back-image'
p785
NsS'wp8-publisher-id'
p786
NsS'icon'
p787
NsS'wp8-exclude-wxga'
p788
NsS'uiq3-icon2-mask'
p789
NsS'iphone-splashscreen-portrait'
p790
NsS'iphone-icon-high-res'
p791
NsS'ws81-distribution-pfx-password'
p792
NsS'playbook-author'
p793
NsS'android-icon-xhdpi'
p794
NsS'linux-ext-lib'
p795
(lp796
sS'blackberry-permissions-access-internet'
p797
NsS'wp8-exclude-720p'
p798
NsS'lgtv-use-drm'
p799
NsS'symbian-platsecflags'
p800
NsS'ws8-description'
p801
NsS'blackberry-playbook-icon'
p802
NsS'copyright'
p803
NsS'version'
p804
NsS'ws81-logo-image150x150'
p805
NsS'osx-signing-identity-app'
p806
NsS'tizen-project-url'
p807
NsS'symbian-icon-svg'
p808
NsS'android-aliasname'
p809
NsS'psp-dlgmanual'
p810
NsS'brew-uid'
p811
NsS'symbian-locationsupport'
p812
NsS'ws8-ext-managed-dll'
p813
(lp814
sS'nds-bannertitle-it'
p815
NsS'ws8-ext-sdk-manifest-part'
p816
(lp817
sS'uiq3-icon1-mask'
p818
NsS'winmobile-icon16'
p819
NsS'ws8-product-name'
p820
NsS'blackberry-cskpass'
p821
NsS'winmobile-start-menu-folder'
p822
NsS'brew-clsid'
p823
NsS'roku-requires-bluetooth'
p824
NsS'ws8-ext-device-capabilities'
p825
(lp826
sS'blackberry-permissions-use-camera'
p827
NsS'iphone-prerendered-icon'
p828
NsS'iphone-appid'
p829
S'com.ideaworks3d.s3eIOSGameCenter'
p830
sS'ws8-identity-name'
p831
NsS'tizen-dist2-CA-path'
p832
NsS'winmobile-icon64'
p833
NsS'blackberry-permissions-post-notification'
p834
NsS'winmobile-setup-dll'
p835
NsS'android-external-jars'
p836
(lp837
S'c:/marmalade/7.2/extensions/s3ewebview/lib/android/s3eWebView.jar'
p838
aS'c:/marmalade/7.2/extensions/s3efacebook/lib/android/s3eFacebook.jar'
p839
aS'c:/marmalade/7.2/extensions/s3efacebook/facebook-android-sdk/libs/android-support-v4.jar'
p840
aS'c:/marmalade/7.2/extensions/s3efacebook/lib/android/annotations-4.1.1.4.jar'
p841
aS'c:/marmalade/7.2/extensions/s3eflurry/lib/android/s3eFlurry.jar'
p842
aS'c:/marmalade/7.2/extensions/s3eflurry/lib/android/FlurryAgent.jar'
p843
asS'symbian9-uid'
p844
NsS'iphone-icon-ipad-ios7'
p845
NsS'winmobile-trace-file'
p846
NsS'roku-splash-color'
p847
NsS'psp-appversion'
p848
NsS'ws8-publisher-id'
p849
NsS'android-supports-gl-texture'
p850
(lp851
sS'winmobile-png45'
p852
NsS'android-storepass'
p853
NsS'roku-icon-focus-hd'
p854
NsS'android-custom-activity'
p855
NsS'psp-discversion'
p856
NsS'psp-copyright'
p857
NsS'embed-icf'
p858
NsS'tizen-manifest'
p859
NsS'osx-icon'
p860
NsS'webos-appinfo'
p861
NsS'psp-dlghealthwarning'
p862
NsS'webos-appid'
p863
NsS'roku-icon-side-hd'
p864
NsS'iphone-icon-ipad-search-high-res-ios7'
p865
NsS'ws81-ext-sdk-manifest-part'
p866
(lp867
sS'loader_name_prefix'
p868
NsS'nds-titlename'
p869
NsS'ws81-logo-image50x50'
p870
NsS'osx-entitlements-plist'
p871
NsS'psp-dlgicon0'
p872
NsS'ws81-ext-device-capabilities'
p873
(lp874
sS'psp-discid'
p875
NsS'tizen-dist2-password'
p876
NsS'ws8-ext-sdk-ref'
p877
(lp878
sS'iphone-extra-string'
p879
(lp880
sS'version-string'
p881
NsS'iphone-icon-high-res-ios7'
p882
NsS'blackberry-permissions-record-audio'
p883
NsS'ws8-certificate-end-date'
p884
NsS'tizen-so'
p885
(lp886
sS'wp8-tile-fliptemplate-small-image'
p887
NsS'pkguid-as-uid'
p888
NsS'iphone-signing-identity'
p889
NsS'roku-persist-quota'
p890
NsS'nds-bannertitle-fr'
p891
NsS'ws8-distribution-pfx'
p892
NsS'ws8-publisher-display-name'
p893
NsS'brew-icon-small'
p894
NsS'psp-dlgpic2'
p895
NsS'psp-dlgpic0'
p896
NsS'psp-pic0'
p897
NsS'psp-pic1'
p898
NsS'psp-icon0'
p899
NsS'psp-icon1'
p900
NsS'ws81-identity-name'
p901
NsS'winmobile-icon'
p902
NsS'iphone-no-splash'
p903
NsS'iphone-splash'
p904
NsS'iphone-app-fonts'
p905
NsS'wp8-ext-native-dll'
p906
(lp907
S'c:/marmalade/7.2/extensions/s3ewebview/lib/wp8/s3eWebViewExtension.dll'
p908
aS'c:/marmalade/7.2/extensions/s3efacebook/lib/wp8/s3eFacebookExtension.dll'
p909
aS'c:/marmalade/7.2/extensions/s3eflurry/lib/wp8/s3eFlurryExtension.dll'
p910
asS'ws81-distribution-cer'
p911
NsS'uiq3-icon2'
p912
NsS'uiq3-icon3'
p913
NsS'uiq3-icon1'
p914
NsS'uiq3-icon1-format'
p915
NsS'ws8-logo-image50x50'
p916
NsS'iphone-icon-ipad-search'
p917
NsS'symbian-run-on-install'
p918
NsS'ws81-publisher-display-name'
p919
NsS'ws81-custom-manifest-fill'
p920
NsS'symbian-soundrecordsupport'
p921
NsS'nds-bannertitle-sp'
p922
NsS'psp-producer'
p923
NsS'iphone-apple-wwdr-cert'
p924
NsS'android-icon-nonstandard'
p925
NsS'win32-pref-processtitle'
p926
NsS'nds-bannertitle-hn'
p927
NsS'tizen-dist2-key'
p928
NsS'brew-depends'
p929
NsS'ws81-custom-manifest'
p930
NsS'iphone-icon-ipad-search-ios7'
p931
NsS'brew-icon-medium'
p932
NsS'iphone-bundle-url-name'
p933
S'ADD_YOUR_OWN_APP_ID'
p934
sS'wp8-tile-fliptemplate-large-front-image'
p935
NsS'tizen-dist2-CA-root-path'
p936
NsS'ws81-description'
p937
NsS'uiq3-icon3-format'
p938
NsS'ws81-logo-image30x30'
p939
NsS'iphone-signing-host'
p940
NsS'tizen-icon'
p941
NsS'osx-info-plist'
p942
NsS'symbian-icon1-format'
p943
NsS'ws81-distribution-pfx'
p944
NsS'blackberry-authorid'
p945
NsS'ws81-publisher-id'
p946
NsS'ws81-ext-sdk-ref'
p947
(lp948
sS'wp8-description'
p949
NsS'iphone-link-opts'
p950
(lp951
S'-F$MARMALADE_ROOT/extensions/s3eFacebook/source/iphone/facebook-ios-sdk -framework FacebookSDK -weak_framework AdSupport -weak_framework Accounts -weak_framework Social -lsqlite3'
p952
aS'-framework SystemConfiguration -framework Security'
p953
asS'roku-splash-min-time'
p954
NsS'wp8-tile-fliptemplate-medium-front-image'
p955
NsS'provider'
p956
NsS'playbook-keystore'
p957
NsS'tizen-appid'
p958
NsS'tizen-author-key'
p959
NsS'symbian-osexecsupport'
p960
NsS'android-install-location'
p961
NsS'nds-privatesavedatasize'
p962
NsS'playbook-storepass'
p963
NsS'android-icon-ldpi'
p964
NsS'manufacturer'
p965
NsS'itunes-artwork'
p966
NsS'iphone-extra-sections'
p967
NsS'ws81-product-name'
p968
NsS'ws81-ext-native-dll'
p969
(lp970
sS'iphone-info-plist'
p971
NsS'ws8-distribution-pfx-password'
p972
NsS'ws8-logo-image30x30'
p973
NsS'wp8-ext-managed-dll'
p974
(lp975
S'c:/marmalade/7.2/extensions/s3ewebview/lib/wp8/s3eWebViewManaged.dll'
p976
aS'c:/marmalade/7.2/extensions/s3efacebook/lib/wp8/s3eFacebookManaged.dll'
p977
aS'c:/marmalade/7.2/extensions/s3efacebook/facebook_wp8_lib/Facebook.Client.dll'
p978
aS'c:/marmalade/7.2/extensions/s3efacebook/facebook_wp8_lib/Facebook.dll'
p979
aS'c:/marmalade/7.2/extensions/s3eflurry/lib/wp8/FlurryWP8SDK.dll'
p980
aS'c:/marmalade/7.2/extensions/s3eflurry/lib/wp8/s3eFlurryManaged.dll'
p981
asS'iphone-splashscreen-landscape'
p982
NsS'nds-makercode'
p983
NsS'priv-sign-key'
p984
NsS'networking'
p985
NsS'android-icon'
p986
NsS'iphone-icon-settings'
p987
NsS'iphone-distribution-cert'
p988
NsS'android_extra_strings'
p989
NsS'nds-bannertitle-en'
p990
NsS'playbook-cskpass'
p991
NsS'android-so'
p992
(lp993
S'c:/marmalade/7.2/extensions/s3ewebview/lib/android/libs3eWebView.so'
p994
aS'c:/marmalade/7.2/extensions/s3efacebook/lib/android/libs3eFacebook.so'
p995
aS'c:/marmalade/7.2/extensions/s3eflurry/lib/android/libs3eFlurry.so'
p996
asS'wp8-higher-mem'
p997
NsS'roku-splash-screen-hd'
p998
NsS'iphone-bundle-url-schemes'
p999
S'fd<FACEBOOK_APP_ID>'
p1000
sS'roku-screensaver-private'
p1001
NsS'osx-extra-res'
p1002
(lp1003
sS'playbook-icon'
p1004
NsS'uid'
p1005
NsS'playbook-authorid'
p1006
NsS'win32-pref-windowtitle'
p1007
NsS'tizen-dist1-password'
p1008
NsS'roku-screensaver-title'
p1009
NsS'osx-minimum-osx-version'
p1010
NsS'symbian-cert'
p1011
NsS'iphone-icon'
p1012
NsS'ws81-ext-capabilities'
p1013
(lp1014
sS'ws8-distribution-cer'
p1015
NsS'playbook-access-shared'
p1016
NsS'iphone-icon-ipad-high-res-ios7'
p1017
NsS'iphone-link-libs'
p1018
(lp1019
sS'wp8-exclude-wvga'
p1020
NsS'assets'
p1021
NsS'wp8-tile-fliptemplate-large-back-image'
p1022
NsS'wp8-custom-manifest-fill'
p1023
NsS'pub-sign-key'
p1024
NsS'android-extra-strings'
p1025
NsS'tizen-author-CA-path'
p1026
Nssg328
g599
sbssS'platform'
p1027
S'S3E'
p1028
sg62
S'1.0'
p1029
sS'arcade_platform'
p1030
g4
sS'extensions'
p1031
(dp1032
sS'source_groups_tree'
p1033
(dp1034
S'(libpng)'
p1035
(dp1036
S'h'
p1037
(dp1038
S'c:/marmalade/7.2/modules/third_party/libpng/h/png.h'
p1039
(lp1040
I1
a(dp1041
asS'c:/marmalade/7.2/modules/third_party/libpng/h/pngconf.h'
p1042
(lp1043
I1
ag1041
assS'c:/marmalade/7.2/modules/third_party/libpng/libpng.mkf'
p1044
(lp1045
I1
a(dp1046
assS'(libjpeg)'
p1047
(dp1048
g1037
(dp1049
S'c:/marmalade/7.2/modules/third_party/libjpeg/h/jinclude.h'
p1050
(lp1051
I1
a(dp1052
asS'c:/marmalade/7.2/modules/third_party/libjpeg/h/jconfig.h'
p1053
(lp1054
I1
ag1052
asS'c:/marmalade/7.2/modules/third_party/libjpeg/h/cdjpeg.h'
p1055
(lp1056
I1
ag1052
asS'c:/marmalade/7.2/modules/third_party/libjpeg/h/jpegint.h'
p1057
(lp1058
I1
ag1052
asS'c:/marmalade/7.2/modules/third_party/libjpeg/h/transupp.h'
p1059
(lp1060
I1
ag1052
asS'c:/marmalade/7.2/modules/third_party/libjpeg/h/jpeglib.h'
p1061
(lp1062
I1
ag1052
asS'c:/marmalade/7.2/modules/third_party/libjpeg/h/jversion.h'
p1063
(lp1064
I1
ag1052
asS'c:/marmalade/7.2/modules/third_party/libjpeg/h/jdct.h'
p1065
(lp1066
I1
ag1052
asS'c:/marmalade/7.2/modules/third_party/libjpeg/h/jdhuff.h'
p1067
(lp1068
I1
ag1052
asS'c:/marmalade/7.2/modules/third_party/libjpeg/h/jmemsys.h'
p1069
(lp1070
I1
ag1052
asS'c:/marmalade/7.2/modules/third_party/libjpeg/h/jmorecfg.h'
p1071
(lp1072
I1
ag1052
asS'c:/marmalade/7.2/modules/third_party/libjpeg/h/jerror.h'
p1073
(lp1074
I1
ag1052
asS'c:/marmalade/7.2/modules/third_party/libjpeg/h/jchuff.h'
p1075
(lp1076
I1
ag1052
asS'c:/marmalade/7.2/modules/third_party/libjpeg/h/cderror.h'
p1077
(lp1078
I1
ag1052
assS'c:/marmalade/7.2/modules/third_party/libjpeg/libjpeg.mkf'
p1079
(lp1080
I1
a(dp1081
assS'(tiniconv)'
p1082
(dp1083
S'c:/marmalade/7.2/modules/third_party/tiniconv/source/tiniconv.h'
p1084
(lp1085
I1
a(dp1086
asS'c:/marmalade/7.2/modules/third_party/tiniconv/source/tiniconv_int.h'
p1087
(lp1088
I1
ag1086
asS'c:/marmalade/7.2/modules/third_party/tiniconv/tiniconv.mkf'
p1089
(lp1090
I1
a(dp1091
assS'(SoundEngine)'
p1092
(dp1093
S'c:/users/vinicius/desktop/yes or no/hoppe/modules/soundengine/source/IwSoundADPCM.cpp'
p1094
(lp1095
I1
a(dp1096
asS'c:/users/vinicius/desktop/yes or no/hoppe/modules/soundengine/h/IwSoundPCM.h'
p1097
(lp1098
I1
ag1096
asS'c:/users/vinicius/desktop/yes or no/hoppe/modules/soundengine/source/IwSoundData.cpp'
p1099
(lp1100
I1
ag1096
asS'c:/users/vinicius/desktop/yes or no/hoppe/modules/soundengine/h/IwSoundADPCM.h'
p1101
(lp1102
I1
ag1096
asS'c:/users/vinicius/desktop/yes or no/hoppe/modules/soundengine/h/IwSoundGroup.h'
p1103
(lp1104
I1
ag1096
asS'c:/users/vinicius/desktop/yes or no/hoppe/modules/soundengine/h/IwSoundWAV.h'
p1105
(lp1106
I1
ag1096
asS'c:/users/vinicius/desktop/yes or no/hoppe/modules/soundengine/source/IwSoundInst.cpp'
p1107
(lp1108
I1
ag1096
asS'Docs'
p1109
(dp1110
S'c:/users/vinicius/desktop/yes or no/hoppe/modules/soundengine/docs/iwsound.config.txt'
p1111
(lp1112
I1
ag1096
assS'c:/users/vinicius/desktop/yes or no/hoppe/modules/soundengine/source/IwResHandlerWAV.cpp'
p1113
(lp1114
I1
ag1096
asS'c:/users/vinicius/desktop/yes or no/hoppe/modules/soundengine/h/IwSoundData.h'
p1115
(lp1116
I1
ag1096
asS'c:/users/vinicius/desktop/yes or no/hoppe/modules/soundengine/source/IwSoundGroup.cpp'
p1117
(lp1118
I1
ag1096
asS'c:/users/vinicius/desktop/yes or no/hoppe/modules/soundengine/source/IwSoundSpec.cpp'
p1119
(lp1120
I1
ag1096
asS'c:/users/vinicius/desktop/yes or no/hoppe/modules/soundengine/source/IwSoundParams.cpp'
p1121
(lp1122
I1
ag1096
asS'c:/users/vinicius/desktop/yes or no/hoppe/modules/soundengine/h/IwResHandlerWAV.h'
p1123
(lp1124
I1
ag1096
asS'c:/users/vinicius/desktop/yes or no/hoppe/modules/soundengine/h/IwSound.h'
p1125
(lp1126
I1
ag1096
asS'c:/users/vinicius/desktop/yes or no/hoppe/modules/soundengine/h/IwSoundSpec.h'
p1127
(lp1128
I1
ag1096
asS'c:/users/vinicius/desktop/yes or no/hoppe/modules/soundengine/source/IwSoundPCM.cpp'
p1129
(lp1130
I1
ag1096
asS'c:/users/vinicius/desktop/yes or no/hoppe/modules/soundengine/source/IwSoundWAV.cpp'
p1131
(lp1132
I1
ag1096
asS'c:/users/vinicius/desktop/yes or no/hoppe/modules/soundengine/h/IwSoundInst.h'
p1133
(lp1134
I1
ag1096
asS'c:/users/vinicius/desktop/yes or no/hoppe/modules/soundengine/source/IwSoundManager.cpp'
p1135
(lp1136
I1
ag1096
asS'c:/users/vinicius/desktop/yes or no/hoppe/modules/soundengine/soundengine.mkf'
p1137
(lp1138
I1
a(dp1139
asS'c:/users/vinicius/desktop/yes or no/hoppe/modules/soundengine/h/IwSoundManager.h'
p1140
(lp1141
I1
ag1096
asS'c:/users/vinicius/desktop/yes or no/hoppe/modules/soundengine/h/IwSoundParams.h'
p1142
(lp1143
I1
ag1096
assS'source'
p1144
(dp1145
S'c:/Users/Vinicius/Desktop/Yes or No/Hoppe/source/mainMenu.h'
p1146
(lp1147
I1
a(dp1148
asS'c:/Users/Vinicius/Desktop/Yes or No/Hoppe/source/timer.h'
p1149
(lp1150
I1
ag1148
asS'c:/Users/Vinicius/Desktop/Yes or No/Hoppe/source/input.cpp'
p1151
(lp1152
I1
ag1148
asS'c:/Users/Vinicius/Desktop/Yes or No/Hoppe/source/scene.cpp'
p1153
(lp1154
I1
ag1148
asS'c:/Users/Vinicius/Desktop/Yes or No/Hoppe/source/audio.h'
p1155
(lp1156
I1
ag1148
asS'c:/Users/Vinicius/Desktop/Yes or No/Hoppe/source/grid.h'
p1157
(lp1158
I1
ag1148
asS'c:/Users/Vinicius/Desktop/Yes or No/Hoppe/source/grid.cpp'
p1159
(lp1160
I1
ag1148
asS'c:/Users/Vinicius/Desktop/Yes or No/Hoppe/source/pauseMenu.cpp'
p1161
(lp1162
I1
ag1148
asS'c:/Users/Vinicius/Desktop/Yes or No/Hoppe/source/scene.h'
p1163
(lp1164
I1
ag1148
asS'c:/Users/Vinicius/Desktop/Yes or No/Hoppe/source/resources.cpp'
p1165
(lp1166
I1
ag1148
asS'c:/Users/Vinicius/Desktop/Yes or No/Hoppe/source/main.h'
p1167
(lp1168
I1
ag1148
asS'c:/Users/Vinicius/Desktop/Yes or No/Hoppe/source/pauseMenu.h'
p1169
(lp1170
I1
ag1148
asS'c:/Users/Vinicius/Desktop/Yes or No/Hoppe/source/resources.h'
p1171
(lp1172
I1
ag1148
asS'c:/Users/Vinicius/Desktop/Yes or No/Hoppe/source/explosion.h'
p1173
(lp1174
I1
ag1148
asS'c:/Users/Vinicius/Desktop/Yes or No/Hoppe/source/gem.cpp'
p1175
(lp1176
I1
ag1148
asS'c:/Users/Vinicius/Desktop/Yes or No/Hoppe/source/explosion.cpp'
p1177
(lp1178
I1
ag1148
asS'c:/Users/Vinicius/Desktop/Yes or No/Hoppe/source/input.h'
p1179
(lp1180
I1
ag1148
asS'c:/Users/Vinicius/Desktop/Yes or No/Hoppe/source/gem.h'
p1181
(lp1182
I1
ag1148
asS'c:/Users/Vinicius/Desktop/Yes or No/Hoppe/source/game.h'
p1183
(lp1184
I1
ag1148
asS'c:/Users/Vinicius/Desktop/Yes or No/Hoppe/source/mainMenu.cpp'
p1185
(lp1186
I1
ag1148
asS'c:/Users/Vinicius/Desktop/Yes or No/Hoppe/source/timer.cpp'
p1187
(lp1188
I1
ag1148
asS'c:/Users/Vinicius/Desktop/Yes or No/Hoppe/source/main.cpp'
p1189
(lp1190
I1
ag1148
asS'c:/Users/Vinicius/Desktop/Yes or No/Hoppe/source/audio.cpp'
p1191
(lp1192
I1
ag1148
asS'c:/Users/Vinicius/Desktop/Yes or No/Hoppe/source/game.cpp'
p1193
(lp1194
I1
ag1148
assS'Extensions'
p1195
(dp1196
S's3eWebView'
p1197
(dp1198
S'interface'
p1199
(dp1200
S'c:/marmalade/7.2/extensions/s3ewebview/interface/s3eWebView.defines.txt'
p1201
(lp1202
I1
a(dp1203
asS'c:/marmalade/7.2/extensions/s3ewebview/interface/s3eWebView_interface.cpp'
p1204
(lp1205
I1
ag1203
assS'c:/marmalade/7.2/extensions/s3ewebview/h/s3eWebView.h'
p1206
(lp1207
I1
ag1203
asS'c:/marmalade/7.2/extensions/s3ewebview/s3ewebview.mkf'
p1208
(lp1209
I1
a(dp1210
assS's3eFacebook'
p1211
(dp1212
S'interface'
p1213
(dp1214
S'c:/marmalade/7.2/extensions/s3efacebook/interface/s3eFacebook_interface.cpp'
p1215
(lp1216
I1
a(dp1217
asS'c:/marmalade/7.2/extensions/s3efacebook/interface/s3eFacebook.defines.txt'
p1218
(lp1219
I1
ag1217
assg1037
(dp1220
S'c:/marmalade/7.2/extensions/s3efacebook/h/s3eFacebook.h'
p1221
(lp1222
I1
ag1217
assS'c:/marmalade/7.2/extensions/s3efacebook/s3efacebook.mkf'
p1223
(lp1224
I1
a(dp1225
assS's3eFlurry'
p1226
(dp1227
S'interface'
p1228
(dp1229
S'c:/marmalade/7.2/extensions/s3eflurry/interface/s3eFlurry_interface.cpp'
p1230
(lp1231
I1
a(dp1232
asS'c:/marmalade/7.2/extensions/s3eflurry/interface/s3eFlurry.defines.txt'
p1233
(lp1234
I1
ag1232
assS'c:/marmalade/7.2/extensions/s3eflurry/h/s3eFlurry.h'
p1235
(lp1236
I1
ag1232
asS'c:/marmalade/7.2/extensions/s3eflurry/s3eflurry.mkf'
p1237
(lp1238
I1
a(dp1239
asssS"'Marmalade Studio'"
p1240
(dp1241
S'iw2dscenegraph'
p1242
(dp1243
S'c:/marmalade/7.2/modules/iw2dscenegraph/source/Iw2DSceneGraph.cpp'
p1244
(lp1245
I1
a(dp1246
asS'c:/marmalade/7.2/modules/iw2dscenegraph/iw2dscenegraph.mkf'
p1247
(lp1248
I1
a(dp1249
asS'c:/marmalade/7.2/modules/iw2dscenegraph/h/Iw2DSceneGraph.h'
p1250
(lp1251
I1
ag1246
asS'c:/marmalade/7.2/modules/iw2dscenegraph/docs/iw2dscenegraph.defines.txt'
p1252
(lp1253
I1
ag1246
assS'iwgl'
p1254
(dp1255
S'c:/marmalade/7.2/modules/iwgl/h/IwGL.h'
p1256
(lp1257
I1
a(dp1258
asS'c:/marmalade/7.2/modules/iwgl/iwgl.mkf'
p1259
(lp1260
I1
a(dp1261
asS'c:/marmalade/7.2/modules/iwgl/h/IwGLExt.h'
p1262
(lp1263
I1
ag1258
asS'c:/marmalade/7.2/modules/iwgl/docs/iwgl.config.txt'
p1264
(lp1265
I1
ag1258
assS'iw2d'
p1266
(dp1267
S'c:/marmalade/7.2/modules/iw2d/docs/iw2d_public.defines.txt'
p1268
(lp1269
I1
a(dp1270
asS'c:/marmalade/7.2/modules/iw2d/h/Iw2D.h'
p1271
(lp1272
I1
ag1270
asS'c:/marmalade/7.2/modules/iw2d/docs/iw2d.config.txt'
p1273
(lp1274
I1
ag1270
asS'c:/marmalade/7.2/modules/iw2d/iw2d.mkf'
p1275
(lp1276
I1
a(dp1277
assS'iwgxfont'
p1278
(dp1279
S'c:/marmalade/7.2/modules/iwgxfont/h/IwGxFont.h'
p1280
(lp1281
I1
a(dp1282
asS'c:/marmalade/7.2/modules/iwgxfont/h/IwGxFontPreparedData.h'
p1283
(lp1284
I1
ag1282
asS'c:/marmalade/7.2/modules/iwgxfont/h/IwGxFontContainer.h'
p1285
(lp1286
I1
ag1282
asS'c:/marmalade/7.2/modules/iwgxfont/docs/iwgxfont_public.defines.txt'
p1287
(lp1288
I1
ag1282
asS'c:/marmalade/7.2/modules/iwgxfont/h/IwGxFontGlyph.h'
p1289
(lp1290
I1
ag1282
asS'c:/marmalade/7.2/modules/iwgxfont/h/IwGxFontState.h'
p1291
(lp1292
I1
ag1282
asS'c:/marmalade/7.2/modules/iwgxfont/h/IwGxFontTypes.h'
p1293
(lp1294
I1
ag1282
asS'c:/marmalade/7.2/modules/iwgxfont/iwgxfont.mkf'
p1295
(lp1296
I1
a(dp1297
asS'c:/marmalade/7.2/modules/iwgxfont/docs/iwgxfont.config.txt'
p1298
(lp1299
I1
ag1282
assS'iwgeom'
p1300
(dp1301
S'c:/marmalade/7.2/modules/iwgeom/h/IwGeomFPlane.h'
p1302
(lp1303
I1
a(dp1304
asS'c:/marmalade/7.2/modules/iwgeom/h/IwGeomPlane.h'
p1305
(lp1306
I1
ag1304
asS'c:/marmalade/7.2/modules/iwgeom/h/IwGeomMat.h'
p1307
(lp1308
I1
ag1304
asS'c:/marmalade/7.2/modules/iwgeom/h/IwGeomMat2D.h'
p1309
(lp1310
I1
ag1304
asS'c:/marmalade/7.2/modules/iwgeom/h/IwGeomMenu.h'
p1311
(lp1312
I1
ag1304
asS'c:/marmalade/7.2/modules/iwgeom/h/IwGeomSqrt.h'
p1313
(lp1314
I1
ag1304
asS'c:/marmalade/7.2/modules/iwgeom/h/IwGeomFMat2D.h'
p1315
(lp1316
I1
ag1304
asS'c:/marmalade/7.2/modules/iwgeom/h/IwGeomCore.h'
p1317
(lp1318
I1
ag1304
asS'c:/marmalade/7.2/modules/iwgeom/h/IwGeomFVec3.h'
p1319
(lp1320
I1
ag1304
asS'c:/marmalade/7.2/modules/iwgeom/h/IwGeomFVec2.h'
p1321
(lp1322
I1
ag1304
asS'c:/marmalade/7.2/modules/iwgeom/h/IwGeom.h'
p1323
(lp1324
I1
ag1304
asS'c:/marmalade/7.2/modules/iwgeom/h/IwGeomSVec2.h'
p1325
(lp1326
I1
ag1304
asS'c:/marmalade/7.2/modules/iwgeom/h/IwGeomFVec4.h'
p1327
(lp1328
I1
ag1304
asS'c:/marmalade/7.2/modules/iwgeom/h/IwGeomSVec3.h'
p1329
(lp1330
I1
ag1304
asS'c:/marmalade/7.2/modules/iwgeom/h/IwGeomBBox.h'
p1331
(lp1332
I1
ag1304
asS'c:/marmalade/7.2/modules/iwgeom/h/IwGeomVec2.h'
p1333
(lp1334
I1
ag1304
asS'c:/marmalade/7.2/modules/iwgeom/h/IwGeomFMat.h'
p1335
(lp1336
I1
ag1304
asS'c:/marmalade/7.2/modules/iwgeom/h/IwGeomFQuat.h'
p1337
(lp1338
I1
ag1304
asS'c:/marmalade/7.2/modules/iwgeom/h/IwGeomVec3.h'
p1339
(lp1340
I1
ag1304
asS'c:/marmalade/7.2/modules/iwgeom/h/IwGeomSVec4.h'
p1341
(lp1342
I1
ag1304
asS'c:/marmalade/7.2/modules/iwgeom/docs/iwgeom.config.txt'
p1343
(lp1344
I1
ag1304
asS'c:/marmalade/7.2/modules/iwgeom/h/IwGeomFIntersect.h'
p1345
(lp1346
I1
ag1304
asS'c:/marmalade/7.2/modules/iwgeom/iwgeom.mkf'
p1347
(lp1348
I1
a(dp1349
asS'c:/marmalade/7.2/modules/iwgeom/h/IwGeomFSphere.h'
p1350
(lp1351
I1
ag1304
asS'c:/marmalade/7.2/modules/iwgeom/h/IwGeomLegacy.h'
p1352
(lp1353
I1
ag1304
asS'c:/marmalade/7.2/modules/iwgeom/h/IwGeomIntersect.h'
p1354
(lp1355
I1
ag1304
asS'c:/marmalade/7.2/modules/iwgeom/h/IwGeomSQuat.h'
p1356
(lp1357
I1
ag1304
asS'c:/marmalade/7.2/modules/iwgeom/h/IwGeomQuat.h'
p1358
(lp1359
I1
ag1304
asS'c:/marmalade/7.2/modules/iwgeom/h/IwGeomSphere.h'
p1360
(lp1361
I1
ag1304
asS'c:/marmalade/7.2/modules/iwgeom/h/IwGeomVec.h'
p1362
(lp1363
I1
ag1304
asS'c:/marmalade/7.2/modules/iwgeom/h/IwGeomVec4.h'
p1364
(lp1365
I1
ag1304
asS'c:/marmalade/7.2/modules/iwgeom/h/IwGeomFBBox.h'
p1366
(lp1367
I1
ag1304
assS'iwresmanager'
p1368
(dp1369
S'c:/marmalade/7.2/modules/iwresmanager/h/IwResHandlerGROUP.h'
p1370
(lp1371
I1
a(dp1372
asS'c:/marmalade/7.2/modules/iwresmanager/h/IwResHandler.h'
p1373
(lp1374
I1
ag1372
asS'c:/marmalade/7.2/modules/iwresmanager/iwresmanager.mkf'
p1375
(lp1376
I1
a(dp1377
asS'c:/marmalade/7.2/modules/iwresmanager/h/IwResGroup.h'
p1378
(lp1379
I1
ag1372
asS'c:/marmalade/7.2/modules/iwresmanager/h/IwResHandlerImage.h'
p1380
(lp1381
I1
ag1372
asS'c:/marmalade/7.2/modules/iwresmanager/docs/iwresmanager.config.txt'
p1382
(lp1383
I1
ag1372
asS'c:/marmalade/7.2/modules/iwresmanager/h/IwResManagerClass.h'
p1384
(lp1385
I1
ag1372
asS'c:/marmalade/7.2/modules/iwresmanager/h/IwResHandlerITX.h'
p1386
(lp1387
I1
ag1372
asS'c:/marmalade/7.2/modules/iwresmanager/h/IwResSerialise.h'
p1388
(lp1389
I1
ag1372
asS'c:/marmalade/7.2/modules/iwresmanager/h/IwResManager.h'
p1390
(lp1391
I1
ag1372
assS'iwgx'
p1392
(dp1393
S'c:/marmalade/7.2/modules/iwgx/h/IwTPage.h'
p1394
(lp1395
I1
a(dp1396
asS'c:/marmalade/7.2/modules/iwgx/h/IwGxStream.h'
p1397
(lp1398
I1
ag1396
asS'c:/marmalade/7.2/modules/iwgx/h/IwGxTransformSW.h'
p1399
(lp1400
I1
ag1396
asS'c:/marmalade/7.2/modules/iwgx/h/IwMaterial.h'
p1401
(lp1402
I1
ag1396
asS'c:/marmalade/7.2/modules/iwgx/h/IwMatAnim.h'
p1403
(lp1404
I1
ag1396
asS'c:/marmalade/7.2/modules/iwgx/docs/iwgx.config.txt'
p1405
(lp1406
I1
ag1396
asS'c:/marmalade/7.2/modules/iwgx/iwgx.mkf'
p1407
(lp1408
I1
a(dp1409
asS'c:/marmalade/7.2/modules/iwgx/h/IwResHandlerMTL.h'
p1410
(lp1411
I1
ag1396
asS'c:/marmalade/7.2/modules/iwgx/h/IwGxPrint.h'
p1412
(lp1413
I1
ag1396
asS'c:/marmalade/7.2/modules/iwgx/h/IwGxSurface.h'
p1414
(lp1415
I1
ag1396
asS'c:/marmalade/7.2/modules/iwgx/docs/iwgx_public.defines.txt'
p1416
(lp1417
I1
ag1396
asS'c:/marmalade/7.2/modules/iwgx/h/IwClip.h'
p1418
(lp1419
I1
ag1396
asS'c:/marmalade/7.2/modules/iwgx/h/IwGx.h'
p1420
(lp1421
I1
ag1396
asS'c:/marmalade/7.2/modules/iwgx/h/IwGxDebug.h'
p1422
(lp1423
I1
ag1396
asS'c:/marmalade/7.2/modules/iwgx/h/IwDebugPrim.h'
p1424
(lp1425
I1
ag1396
asS'c:/marmalade/7.2/modules/iwgx/h/IwGxMetrics.h'
p1426
(lp1427
I1
ag1396
asS'c:/marmalade/7.2/modules/iwgx/h/IwGxError.h'
p1428
(lp1429
I1
ag1396
asS'c:/marmalade/7.2/modules/iwgx/h/IwClip.inl'
p1430
(lp1431
I1
ag1396
asS'c:/marmalade/7.2/modules/iwgx/h/IwGxFuncTable.h'
p1432
(lp1433
I1
ag1396
asS'c:/marmalade/7.2/modules/iwgx/h/IwTexture.h'
p1434
(lp1435
I1
ag1396
asS'c:/marmalade/7.2/modules/iwgx/h/IwFColour.h'
p1436
(lp1437
I1
ag1396
asS'c:/marmalade/7.2/modules/iwgx/h/IwColour.h'
p1438
(lp1439
I1
ag1396
asS'c:/marmalade/7.2/modules/iwgx/h/IwGxShaderTechnique.h'
p1440
(lp1441
I1
ag1396
asS'c:/marmalade/7.2/modules/iwgx/h/IwGxTypes.h'
p1442
(lp1443
I1
ag1396
asS'c:/marmalade/7.2/modules/iwgx/h/IwGxState.h'
p1444
(lp1445
I1
ag1396
assS'iw2dscenegraphcore'
p1446
(dp1447
S'c:/marmalade/7.2/modules/iw2dscenegraphcore/iw2dscenegraphcore.mkf'
p1448
(lp1449
I1
a(dp1450
asS'c:/marmalade/7.2/modules/iw2dscenegraphcore/h/Iw2DSceneGraphCore.h'
p1451
(lp1452
I1
a(dp1453
asS'c:/marmalade/7.2/modules/iw2dscenegraphcore/source/Iw2DSceneGraphCore.cpp'
p1454
(lp1455
I1
ag1453
assS'iwutil'
p1456
(dp1457
S'c:/marmalade/7.2/modules/iwutil/h/IwCore.h'
p1458
(lp1459
I1
a(dp1460
asS'c:/marmalade/7.2/modules/iwutil/h/IwArray.h'
p1461
(lp1462
I1
ag1460
asS'c:/marmalade/7.2/modules/iwutil/h/IwResource.h'
p1463
(lp1464
I1
ag1460
asS'c:/marmalade/7.2/modules/iwutil/h/IwFibre.h'
p1465
(lp1466
I1
ag1460
asS'c:/marmalade/7.2/modules/iwutil/h/IwBuffer.h'
p1467
(lp1468
I1
ag1460
asS'c:/marmalade/7.2/modules/iwutil/h/IwRandom.h'
p1469
(lp1470
I1
ag1460
asS'c:/marmalade/7.2/modules/iwutil/h/IwManagedList.h'
p1471
(lp1472
I1
ag1460
asS'c:/marmalade/7.2/modules/iwutil/h/IwList.h'
p1473
(lp1474
I1
ag1460
asS'c:/marmalade/7.2/modules/iwutil/h/IwProfileMenu.h'
p1475
(lp1476
I1
ag1460
asS'c:/marmalade/7.2/modules/iwutil/h/IwMemory.h'
p1477
(lp1478
I1
ag1460
asS'c:/marmalade/7.2/modules/iwutil/h/IwMath.h'
p1479
(lp1480
I1
ag1460
asS'c:/marmalade/7.2/modules/iwutil/h/IwDivTable.h'
p1481
(lp1482
I1
ag1460
asS'c:/marmalade/7.2/modules/iwutil/h/IwTextParserITX.h'
p1483
(lp1484
I1
ag1460
asS'c:/marmalade/7.2/modules/iwutil/h/IwMenu.h'
p1485
(lp1486
I1
ag1460
asS'c:/marmalade/7.2/modules/iwutil/h/IwChar.h'
p1487
(lp1488
I1
ag1460
asS'c:/marmalade/7.2/modules/iwutil/h/IwEvent.h'
p1489
(lp1490
I1
ag1460
asS'c:/marmalade/7.2/modules/iwutil/h/IwTextParser.h'
p1491
(lp1492
I1
ag1460
asS'c:/marmalade/7.2/modules/iwutil/h/IwOptimiseSize.h'
p1493
(lp1494
I1
ag1460
asS'c:/marmalade/7.2/modules/iwutil/h/IwSingleton.h'
p1495
(lp1496
I1
ag1460
asS'c:/marmalade/7.2/modules/iwutil/h/IwAllocator.h'
p1497
(lp1498
I1
ag1460
asS'c:/marmalade/7.2/modules/iwutil/h/IwFile.h'
p1499
(lp1500
I1
ag1460
asS'c:/marmalade/7.2/modules/iwutil/h/IwString.h'
p1501
(lp1502
I1
ag1460
asS'c:/marmalade/7.2/modules/iwutil/h/IwVariableBitField.h'
p1503
(lp1504
I1
ag1460
asS'c:/marmalade/7.2/modules/iwutil/h/IwUncopyable.h'
p1505
(lp1506
I1
ag1460
asS'c:/marmalade/7.2/modules/iwutil/h/IwImage.h'
p1507
(lp1508
I1
ag1460
asS'c:/marmalade/7.2/modules/iwutil/h/IwTypes.h'
p1509
(lp1510
I1
ag1460
asS'c:/marmalade/7.2/modules/iwutil/h/IwManaged.h'
p1511
(lp1512
I1
ag1460
asS'c:/marmalade/7.2/modules/iwutil/h/IwRuntime.h'
p1513
(lp1514
I1
ag1460
asS'c:/marmalade/7.2/modules/iwutil/h/IwMemManagerDL.h'
p1515
(lp1516
I1
ag1460
asS'c:/marmalade/7.2/modules/iwutil/h/IwOptimiseThumb.h'
p1517
(lp1518
I1
ag1460
asS'c:/marmalade/7.2/modules/iwutil/h/IwUtil.h'
p1519
(lp1520
I1
ag1460
asS'c:/marmalade/7.2/modules/iwutil/docs/iwutil.config.txt'
p1521
(lp1522
I1
ag1460
asS'c:/marmalade/7.2/modules/iwutil/h/IwClassFactory.h'
p1523
(lp1524
I1
ag1460
asS'c:/marmalade/7.2/modules/iwutil/h/IwUtilInitTerm.h'
p1525
(lp1526
I1
ag1460
asS'c:/marmalade/7.2/modules/iwutil/h/IwAutoFile.h'
p1527
(lp1528
I1
ag1460
asS'c:/marmalade/7.2/modules/iwutil/h/IwUTF8.h'
p1529
(lp1530
I1
ag1460
asS'c:/marmalade/7.2/modules/iwutil/h/IwSerialise.h'
p1531
(lp1532
I1
ag1460
asS'c:/marmalade/7.2/modules/iwutil/h/IwPath.h'
p1533
(lp1534
I1
ag1460
asS'c:/marmalade/7.2/modules/iwutil/h/IwMemBucketHelpers.h'
p1535
(lp1536
I1
ag1460
asS'c:/marmalade/7.2/modules/iwutil/h/IwCopyingPtr.h'
p1537
(lp1538
I1
ag1460
asS'c:/marmalade/7.2/modules/iwutil/h/IwOptimiseARM.h'
p1539
(lp1540
I1
ag1460
asS'c:/marmalade/7.2/modules/iwutil/h/IwMemBucket.h'
p1541
(lp1542
I1
ag1460
asS'c:/marmalade/7.2/modules/iwutil/iwutil.mkf'
p1543
(lp1544
I1
a(dp1545
asS'c:/marmalade/7.2/modules/iwutil/h/IwKeymap.h'
p1546
(lp1547
I1
ag1460
asS'c:/marmalade/7.2/modules/iwutil/h/IwImageHelper.h'
p1548
(lp1549
I1
ag1460
asS'c:/marmalade/7.2/modules/iwutil/h/IwOptimiseSpeed.h'
p1550
(lp1551
I1
ag1460
asS'c:/marmalade/7.2/modules/iwutil/h/IwTextParseable.h'
p1552
(lp1553
I1
ag1460
asS'c:/marmalade/7.2/modules/iwutil/h/IwDebug.h'
p1554
(lp1555
I1
ag1460
asS'c:/marmalade/7.2/modules/iwutil/h/IwDivide.h'
p1556
(lp1557
I1
ag1460
asS'c:/marmalade/7.2/modules/iwutil/h/IwHashString.h'
p1558
(lp1559
I1
ag1460
asssS'(zlib)'
p1560
(dp1561
g1037
(dp1562
S'c:/marmalade/7.2/modules/third_party/zlib/h/zconf.h'
p1563
(lp1564
I1
a(dp1565
asS'c:/marmalade/7.2/modules/third_party/zlib/h/zlib.h'
p1566
(lp1567
I1
ag1565
assS'c:/marmalade/7.2/modules/third_party/zlib/zlib.mkf'
p1568
(lp1569
I1
a(dp1570
assS'(iwtween)'
p1571
(dp1572
S'c:/marmalade/7.2/modules/iwtween/iwtween.mkf'
p1573
(lp1574
I1
a(dp1575
asS'c:/marmalade/7.2/modules/iwtween/source/IwTween.cpp'
p1576
(lp1577
I1
a(dp1578
asS'c:/marmalade/7.2/modules/iwtween/h/IwTween.h'
p1579
(lp1580
I1
ag1578
asssS'files'
p1581
(dp1582
S'IwGxFontPreparedData.h'
p1583
g302
(cmkb_main
File
p1584
g304
Ntp1585
Rp1586
(dp1587
S'flags'
p1588
g1282
sS'group'
p1589
(lp1590
S"'Marmalade Studio'"
p1591
ag1278
asg328
g1283
sbsS'iterator'
p1592
g302
(g1584
g304
Ntp1593
Rp1594
(dp1595
g1588
(dp1596
sg1589
(lp1597
S"'Marmalade System (S3E)'"
p1598
aS'stdc headers'
p1599
aS'c++'
p1600
asg328
S'c:/marmalade/7.2/s3e/h/std/c++/iterator'
p1601
sbsS'IwGL.h'
p1602
g302
(g1584
g304
Ntp1603
Rp1604
(dp1605
g1588
g1258
sg1589
(lp1606
S"'Marmalade Studio'"
p1607
ag1254
asg328
g1256
sbsS's3e.h'
p1608
g302
(g1584
g304
Ntp1609
Rp1610
(dp1611
g1588
g1596
sg1589
(lp1612
g1598
asg328
S'c:/marmalade/7.2/s3e/h/s3e.h'
p1613
sbsS'errno.h'
p1614
g302
(g1584
g304
Ntp1615
Rp1616
(dp1617
g1588
g1596
sg1589
(lp1618
g1598
aS'stdc headers'
p1619
asg328
S'c:/marmalade/7.2/s3e/h/std/errno.h'
p1620
sbsS'IwSingleton.h'
p1621
g302
(g1584
g304
Ntp1622
Rp1623
(dp1624
g1588
g1460
sg1589
(lp1625
S"'Marmalade Studio'"
p1626
ag1456
asg328
g1495
sbsS'dlfcn.h'
p1627
g302
(g1584
g304
Ntp1628
Rp1629
(dp1630
g1588
g1596
sg1589
g1618
sg328
S'c:/marmalade/7.2/s3e/h/std/dlfcn.h'
p1631
sbsS'IwSoundWAV.cpp'
p1632
g302
(g1584
g304
Ntp1633
Rp1634
(dp1635
g1588
g1096
sg1589
(lp1636
g1092
asg328
g1131
sbsS'sched.h'
p1637
g302
(g1584
g304
Ntp1638
Rp1639
(dp1640
g1588
g1596
sg1589
g1618
sg328
S'c:/marmalade/7.2/s3e/h/std/sched.h'
p1641
sbsS'IwSoundPCM.h'
p1642
g302
(g1584
g304
Ntp1643
Rp1644
(dp1645
g1588
g1096
sg1589
g1636
sg328
g1097
sbsS'IwGeomFMat2D.h'
p1646
g302
(g1584
g304
Ntp1647
Rp1648
(dp1649
g1588
g1304
sg1589
(lp1650
S"'Marmalade Studio'"
p1651
ag1300
asg328
g1315
sbsS'cassert'
p1652
g302
(g1584
g304
Ntp1653
Rp1654
(dp1655
g1588
g1596
sg1589
g1597
sg328
S'c:/marmalade/7.2/s3e/h/std/c++/cassert'
p1656
sbsS'grp.h'
p1657
g302
(g1584
g304
Ntp1658
Rp1659
(dp1660
g1588
g1596
sg1589
g1618
sg328
S'c:/marmalade/7.2/s3e/h/std/grp.h'
p1661
sbsS'list'
p1662
g302
(g1584
g304
Ntp1663
Rp1664
(dp1665
g1588
g1596
sg1589
g1597
sg328
S'c:/marmalade/7.2/s3e/h/std/c++/list'
p1666
sbsS'IwSoundSpec.cpp'
p1667
g302
(g1584
g304
Ntp1668
Rp1669
(dp1670
g1588
g1096
sg1589
g1636
sg328
g1119
sbsS'istream'
p1671
g302
(g1584
g304
Ntp1672
Rp1673
(dp1674
g1588
g1596
sg1589
g1597
sg328
S'c:/marmalade/7.2/s3e/h/std/c++/istream'
p1675
sbsS'jpeglib.h'
p1676
g302
(g1584
g304
Ntp1677
Rp1678
(dp1679
g1588
g1052
sg1589
(lp1680
g1047
ag1037
asg328
g1061
sbsS'iw2d_public.defines.txt'
p1681
g302
(g1584
g304
Ntp1682
Rp1683
(dp1684
g1588
g1270
sg1589
(lp1685
S"'Marmalade Studio'"
p1686
ag1266
asg328
g1268
sbsS'iostream.h'
p1687
g302
(g1584
g304
Ntp1688
Rp1689
(dp1690
g1588
g1596
sg1589
g1597
sg328
S'c:/marmalade/7.2/s3e/h/std/c++/iostream.h'
p1691
sbsS'IwSoundADPCM.h'
p1692
g302
(g1584
g304
Ntp1693
Rp1694
(dp1695
g1588
g1096
sg1589
g1636
sg328
g1101
sbsS'string'
p1696
g302
(g1584
g304
Ntp1697
Rp1698
(dp1699
g1588
g1596
sg1589
g1597
sg328
S'c:/marmalade/7.2/s3e/h/std/c++/string'
p1700
sbsS'IwMemory.h'
p1701
g302
(g1584
g304
Ntp1702
Rp1703
(dp1704
g1588
g1460
sg1589
g1625
sg328
g1477
sbsS'IwGeomPlane.h'
p1705
g302
(g1584
g304
Ntp1706
Rp1707
(dp1708
g1588
g1304
sg1589
g1650
sg328
g1305
sbsS'iw2d.config.txt'
p1709
g302
(g1584
g304
Ntp1710
Rp1711
(dp1712
g1588
g1270
sg1589
g1685
sg328
g1273
sbsS'iomanip'
p1713
g302
(g1584
g304
Ntp1714
Rp1715
(dp1716
g1588
g1596
sg1589
g1597
sg328
S'c:/marmalade/7.2/s3e/h/std/c++/iomanip'
p1717
sbsS'iwgeom.mkf'
p1718
g302
(g1584
g304
Ntp1719
Rp1720
(dp1721
g1588
g1349
sg1589
g1650
sg328
g1347
sbsS'IwGxError.h'
p1722
g302
(g1584
g304
Ntp1723
Rp1724
(dp1725
g1588
g1396
sg1589
(lp1726
S"'Marmalade Studio'"
p1727
ag1392
asg328
g1428
sbsS'IwGeom.h'
p1728
g302
(g1584
g304
Ntp1729
Rp1730
(dp1731
g1588
g1304
sg1589
g1650
sg328
g1323
sbsS'scene.cpp'
p1732
g302
(g1584
g304
Ntp1733
Rp1734
(dp1735
g1588
g1148
sg1589
(lp1736
g1144
asg328
g1153
sbsS'IwGeomVec4.h'
p1737
g302
(g1584
g304
Ntp1738
Rp1739
(dp1740
g1588
g1304
sg1589
g1650
sg328
g1364
sbsS'dir.h'
p1741
g302
(g1584
g304
Ntp1742
Rp1743
(dp1744
g1588
g1596
sg1589
(lp1745
g1598
aS'stdc headers'
p1746
aS'sys'
p1747
asg328
S'c:/marmalade/7.2/s3e/h/std/sys/dir.h'
p1748
sbsS'locale.h'
p1749
g302
(g1584
g304
Ntp1750
Rp1751
(dp1752
g1588
g1596
sg1589
g1618
sg328
S'c:/marmalade/7.2/s3e/h/std/locale.h'
p1753
sbsS'vector'
p1754
g302
(g1584
g304
Ntp1755
Rp1756
(dp1757
g1588
g1596
sg1589
g1597
sg328
S'c:/marmalade/7.2/s3e/h/std/c++/vector'
p1758
sbsS'grid.h'
p1759
g302
(g1584
g304
Ntp1760
Rp1761
(dp1762
g1588
g1148
sg1589
g1736
sg328
g1157
sbsS'IwManaged.h'
p1763
g302
(g1584
g304
Ntp1764
Rp1765
(dp1766
g1588
g1460
sg1589
g1625
sg328
g1511
sbsS's3eCompass.h'
p1767
g302
(g1584
g304
Ntp1768
Rp1769
(dp1770
g1588
g1596
sg1589
g1612
sg328
S'c:/marmalade/7.2/s3e/h/s3eCompass.h'
p1771
sbsS'cderror.h'
p1772
g302
(g1584
g304
Ntp1773
Rp1774
(dp1775
g1588
g1052
sg1589
g1680
sg328
g1077
sbsS'climits'
p1776
g302
(g1584
g304
Ntp1777
Rp1778
(dp1779
g1588
g1596
sg1589
g1597
sg328
S'c:/marmalade/7.2/s3e/h/std/c++/climits'
p1780
sbsS's3eVibra.h'
p1781
g302
(g1584
g304
Ntp1782
Rp1783
(dp1784
g1588
g1596
sg1589
g1612
sg328
S'c:/marmalade/7.2/s3e/h/s3eVibra.h'
p1785
sbsS'jversion.h'
p1786
g302
(g1584
g304
Ntp1787
Rp1788
(dp1789
g1588
g1052
sg1589
g1680
sg328
g1063
sbsS'fnmatch.h'
p1790
g302
(g1584
g304
Ntp1791
Rp1792
(dp1793
g1588
g1596
sg1589
g1618
sg328
S'c:/marmalade/7.2/s3e/h/std/fnmatch.h'
p1794
sbsS'IwGxState.h'
p1795
g302
(g1584
g304
Ntp1796
Rp1797
(dp1798
g1588
g1396
sg1589
g1726
sg328
g1444
sbsS'rope'
p1799
g302
(g1584
g304
Ntp1800
Rp1801
(dp1802
g1588
g1596
sg1589
g1597
sg328
S'c:/marmalade/7.2/s3e/h/std/c++/rope'
p1803
sbsS's3eAudio.h'
p1804
g302
(g1584
g304
Ntp1805
Rp1806
(dp1807
g1588
g1596
sg1589
g1612
sg328
S'c:/marmalade/7.2/s3e/h/s3eAudio.h'
p1808
sbsS's3eSurface.h'
p1809
g302
(g1584
g304
Ntp1810
Rp1811
(dp1812
g1588
g1596
sg1589
g1612
sg328
S'c:/marmalade/7.2/s3e/h/s3eSurface.h'
p1813
sbsS'new'
p1814
g302
(g1584
g304
Ntp1815
Rp1816
(dp1817
g1588
g1596
sg1589
g1597
sg328
S'c:/marmalade/7.2/s3e/h/std/c++/new'
p1818
sbsS's3eWindow.h'
p1819
g302
(g1584
g304
Ntp1820
Rp1821
(dp1822
g1588
g1596
sg1589
(lp1823
g1598
aS'Extensions'
p1824
asg328
S'c:/marmalade/7.2/s3e/h/ext/s3eWindow.h'
p1825
sbsS'IwBuffer.h'
p1826
g302
(g1584
g304
Ntp1827
Rp1828
(dp1829
g1588
g1460
sg1589
g1625
sg328
g1467
sbsS's3eflurry.mkf'
p1830
g302
(g1584
g304
Ntp1831
Rp1832
(dp1833
g1588
g1239
sg1589
(lp1834
S'Extensions'
p1835
ag1226
asg328
g1237
sbsS'stdio_streambuf'
p1836
g302
(g1584
g304
Ntp1837
Rp1838
(dp1839
g1588
g1596
sg1589
g1597
sg328
S'c:/marmalade/7.2/s3e/h/std/c++/stdio_streambuf'
p1840
sbsS's3eOSExec.h'
p1841
g302
(g1584
g304
Ntp1842
Rp1843
(dp1844
g1588
g1596
sg1589
g1823
sg328
S'c:/marmalade/7.2/s3e/h/ext/s3eOSExec.h'
p1845
sbsS'IwGxTransformSW.h'
p1846
g302
(g1584
g304
Ntp1847
Rp1848
(dp1849
g1588
g1396
sg1589
g1726
sg328
g1399
sbsS'IwGxMetrics.h'
p1850
g302
(g1584
g304
Ntp1851
Rp1852
(dp1853
g1588
g1396
sg1589
g1726
sg328
g1426
sbsS'iwgxfont.config.txt'
p1854
g302
(g1584
g304
Ntp1855
Rp1856
(dp1857
g1588
g1282
sg1589
g1590
sg328
g1298
sbsS'gl2platform.h'
p1858
g302
(g1584
g304
Ntp1859
Rp1860
(dp1861
g1588
g1596
sg1589
(lp1862
g1598
aS'GL'
p1863
aS'GLES 2.0'
p1864
asg328
S'c:/marmalade/7.2/s3e/h/GLES2/gl2platform.h'
p1865
sbsS'IwResManagerClass.h'
p1866
g302
(g1584
g304
Ntp1867
Rp1868
(dp1869
g1588
g1372
sg1589
(lp1870
g1240
ag1368
asg328
g1384
sbsS'queue'
p1871
g302
(g1584
g304
Ntp1872
Rp1873
(dp1874
g1588
g1596
sg1589
g1597
sg328
S'c:/marmalade/7.2/s3e/h/std/c++/queue'
p1875
sbsS'time_1.h'
p1876
g302
(g1584
g304
Ntp1877
Rp1878
(dp1879
g1588
g1596
sg1589
g1745
sg328
S'c:/marmalade/7.2/s3e/h/std/sys/time.h'
p1880
sbsS'Iw2D.h'
p1881
g302
(g1584
g304
Ntp1882
Rp1883
(dp1884
g1588
g1270
sg1589
g1685
sg328
g1271
sbsS'IwGeomVec2.h'
p1885
g302
(g1584
g304
Ntp1886
Rp1887
(dp1888
g1588
g1304
sg1589
g1650
sg328
g1333
sbsS'sendfile.h'
p1889
g302
(g1584
g304
Ntp1890
Rp1891
(dp1892
g1588
g1596
sg1589
g1745
sg328
S'c:/marmalade/7.2/s3e/h/std/sys/sendfile.h'
p1893
sbsS'malloc.h'
p1894
g302
(g1584
g304
Ntp1895
Rp1896
(dp1897
g1588
g1596
sg1589
g1618
sg328
S'c:/marmalade/7.2/s3e/h/std/malloc.h'
p1898
sbsS'stdarg.h'
p1899
g302
(g1584
g304
Ntp1900
Rp1901
(dp1902
g1588
g1596
sg1589
g1618
sg328
S'c:/marmalade/7.2/s3e/h/std/stdarg.h'
p1903
sbsS'IwGeomCore.h'
p1904
g302
(g1584
g304
Ntp1905
Rp1906
(dp1907
g1588
g1304
sg1589
g1650
sg328
g1317
sbsS'Iw2DSceneGraph.h'
p1908
g302
(g1584
g304
Ntp1909
Rp1910
(dp1911
g1588
g1246
sg1589
(lp1912
S"'Marmalade Studio'"
p1913
ag1242
asg328
g1250
sbsS'endian.h'
p1914
g302
(g1584
g304
Ntp1915
Rp1916
(dp1917
g1588
g1596
sg1589
g1618
sg328
S'c:/marmalade/7.2/s3e/h/std/endian.h'
p1918
sbsS'glob.h'
p1919
g302
(g1584
g304
Ntp1920
Rp1921
(dp1922
g1588
g1596
sg1589
g1618
sg328
S'c:/marmalade/7.2/s3e/h/std/glob.h'
p1923
sbsS'fstream'
p1924
g302
(g1584
g304
Ntp1925
Rp1926
(dp1927
g1588
g1596
sg1589
g1597
sg328
S'c:/marmalade/7.2/s3e/h/std/c++/fstream'
p1928
sbsS's3eCamera.h'
p1929
g302
(g1584
g304
Ntp1930
Rp1931
(dp1932
g1588
g1596
sg1589
g1612
sg328
S'c:/marmalade/7.2/s3e/h/s3eCamera.h'
p1933
sbsS'jconfig.h'
p1934
g302
(g1584
g304
Ntp1935
Rp1936
(dp1937
g1588
g1052
sg1589
g1680
sg328
g1053
sbsS'memory'
p1938
g302
(g1584
g304
Ntp1939
Rp1940
(dp1941
g1588
g1596
sg1589
g1597
sg328
S'c:/marmalade/7.2/s3e/h/std/c++/memory'
p1942
sbsS'egl.h'
p1943
g302
(g1584
g304
Ntp1944
Rp1945
(dp1946
g1588
g1596
sg1589
(lp1947
g1598
aS'GL'
p1948
aS'EGL'
p1949
asg328
S'c:/marmalade/7.2/s3e/h/EGL/egl.h'
p1950
sbsS'egl_1.h'
p1951
g302
(g1584
g304
Ntp1952
Rp1953
(dp1954
g1588
g1596
sg1589
(lp1955
g1598
aS'GL'
p1956
aS'GLES 1.x'
p1957
asg328
S'c:/marmalade/7.2/s3e/h/GLES/egl.h'
p1958
sbsS'IwMemManagerDL.h'
p1959
g302
(g1584
g304
Ntp1960
Rp1961
(dp1962
g1588
g1460
sg1589
g1625
sg328
g1515
sbsS'deque'
p1963
g302
(g1584
g304
Ntp1964
Rp1965
(dp1966
g1588
g1596
sg1589
g1597
sg328
S'c:/marmalade/7.2/s3e/h/std/c++/deque'
p1967
sbsS'IwString.h'
p1968
g302
(g1584
g304
Ntp1969
Rp1970
(dp1971
g1588
g1460
sg1589
g1625
sg328
g1501
sbsS'cwchar'
p1972
g302
(g1584
g304
Ntp1973
Rp1974
(dp1975
g1588
g1596
sg1589
g1597
sg328
S'c:/marmalade/7.2/s3e/h/std/c++/cwchar'
p1976
sbsS'iwutil.mkf'
p1977
g302
(g1584
g304
Ntp1978
Rp1979
(dp1980
g1588
g1545
sg1589
g1625
sg328
g1543
sbsS'csignal'
p1981
g302
(g1584
g304
Ntp1982
Rp1983
(dp1984
g1588
g1596
sg1589
g1597
sg328
S'c:/marmalade/7.2/s3e/h/std/c++/csignal'
p1985
sbsS'pthread_types.h'
p1986
g302
(g1584
g304
Ntp1987
Rp1988
(dp1989
g1588
g1596
sg1589
g1618
sg328
S'c:/marmalade/7.2/s3e/h/std/pthread_types.h'
p1990
sbsS'pthread_alloc'
p1991
g302
(g1584
g304
Ntp1992
Rp1993
(dp1994
g1588
g1596
sg1589
g1597
sg328
S'c:/marmalade/7.2/s3e/h/std/c++/pthread_alloc'
p1995
sbsS'getopt.h'
p1996
g302
(g1584
g304
Ntp1997
Rp1998
(dp1999
g1588
g1596
sg1589
g1618
sg328
S'c:/marmalade/7.2/s3e/h/std/getopt.h'
p2000
sbsS'IwOptimiseARM.h'
p2001
g302
(g1584
g304
Ntp2002
Rp2003
(dp2004
g1588
g1460
sg1589
g1625
sg328
g1539
sbsS'times.h'
p2005
g302
(g1584
g304
Ntp2006
Rp2007
(dp2008
g1588
g1596
sg1589
g1745
sg328
S'c:/marmalade/7.2/s3e/h/std/sys/times.h'
p2009
sbsS'IwGeomFSphere.h'
p2010
g302
(g1584
g304
Ntp2011
Rp2012
(dp2013
g1588
g1304
sg1589
g1650
sg328
g1350
sbsS'game.h'
p2014
g302
(g1584
g304
Ntp2015
Rp2016
(dp2017
g1588
g1148
sg1589
g1736
sg328
g1183
sbsS'functional'
p2018
g302
(g1584
g304
Ntp2019
Rp2020
(dp2021
g1588
g1596
sg1589
g1597
sg328
S'c:/marmalade/7.2/s3e/h/std/c++/functional'
p2022
sbsS'explosion.cpp'
p2023
g302
(g1584
g304
Ntp2024
Rp2025
(dp2026
g1588
g1148
sg1589
g1736
sg328
g1177
sbsS'IwTypes.h'
p2027
g302
(g1584
g304
Ntp2028
Rp2029
(dp2030
g1588
g1460
sg1589
g1625
sg328
g1509
sbsS'unistd.h'
p2031
g302
(g1584
g304
Ntp2032
Rp2033
(dp2034
g1588
g1596
sg1589
g1618
sg328
S'c:/marmalade/7.2/s3e/h/std/unistd.h'
p2035
sbsS'audio.cpp'
p2036
g302
(g1584
g304
Ntp2037
Rp2038
(dp2039
g1588
g1148
sg1589
g1736
sg328
g1191
sbsS's3eCompression.h'
p2040
g302
(g1584
g304
Ntp2041
Rp2042
(dp2043
g1588
g1596
sg1589
g1612
sg328
S'c:/marmalade/7.2/s3e/h/s3eCompression.h'
p2044
sbsS'langinfo.h'
p2045
g302
(g1584
g304
Ntp2046
Rp2047
(dp2048
g1588
g1596
sg1589
g1618
sg328
S'c:/marmalade/7.2/s3e/h/std/langinfo.h'
p2049
sbsS's3edebugHeap.h'
p2050
g302
(g1584
g304
Ntp2051
Rp2052
(dp2053
g1588
g1596
sg1589
g1823
sg328
S'c:/marmalade/7.2/s3e/h/ext/s3edebugHeap.h'
p2054
sbsS'AirplayVersion.h'
p2055
g302
(g1584
g304
Ntp2056
Rp2057
(dp2058
g1588
g1596
sg1589
g1612
sg328
S'c:/marmalade/7.2/s3e/h/AirplayVersion.h'
p2059
sbsS'gl2extimg.h'
p2060
g302
(g1584
g304
Ntp2061
Rp2062
(dp2063
g1588
g1596
sg1589
g1862
sg328
S'c:/marmalade/7.2/s3e/h/GLES2/gl2extimg.h'
p2064
sbsS'app.config.txt'
p2065
g302
(g1584
g304
Ntp2066
Rp2067
(dp2068
g1588
(dp2069
sg1589
g4
sg328
S'c:/Users/Vinicius/Desktop/Yes or No/Hoppe/data/app.config.txt'
p2070
sbsS'IwGeomSqrt.h'
p2071
g302
(g1584
g304
Ntp2072
Rp2073
(dp2074
g1588
g1304
sg1589
g1650
sg328
g1313
sbsS'tiniconv_int.h'
p2075
g302
(g1584
g304
Ntp2076
Rp2077
(dp2078
g1588
g1086
sg1589
(lp2079
g1082
asg328
g1087
sbsS'syslog.h'
p2080
g302
(g1584
g304
Ntp2081
Rp2082
(dp2083
g1588
g1596
sg1589
g1618
sg328
S'c:/marmalade/7.2/s3e/h/std/syslog.h'
p2084
sbsS'IwGxFontTypes.h'
p2085
g302
(g1584
g304
Ntp2086
Rp2087
(dp2088
g1588
g1282
sg1589
g1590
sg328
g1293
sbsS'IwGeomFIntersect.h'
p2089
g302
(g1584
g304
Ntp2090
Rp2091
(dp2092
g1588
g1304
sg1589
g1650
sg328
g1345
sbsS'hash_map'
p2093
g302
(g1584
g304
Ntp2094
Rp2095
(dp2096
g1588
g1596
sg1589
g1597
sg328
S'c:/marmalade/7.2/s3e/h/std/c++/hash_map'
p2097
sbsS's3e.mkf'
p2098
g302
(g1584
g304
Ntp2099
Rp2100
(dp2101
g1588
(dp2102
sg1589
g1612
sg328
S'c:/marmalade/7.2/s3e/s3e.mkf'
p2103
sbsS's3eOSReadString.h'
p2104
g302
(g1584
g304
Ntp2105
Rp2106
(dp2107
g1588
g1596
sg1589
g1823
sg328
S'c:/marmalade/7.2/s3e/h/ext/s3eOSReadString.h'
p2108
sbsS'IwSound.h'
p2109
g302
(g1584
g304
Ntp2110
Rp2111
(dp2112
g1588
g1096
sg1589
g1636
sg328
g1125
sbsS'map'
p2113
g302
(g1584
g304
Ntp2114
Rp2115
(dp2116
g1588
g1596
sg1589
g1597
sg328
S'c:/marmalade/7.2/s3e/h/std/c++/map'
p2117
sbsS'iwtween.mkf'
p2118
g302
(g1584
g304
Ntp2119
Rp2120
(dp2121
g1588
g1575
sg1589
(lp2122
g1571
asg328
g1573
sbsS'IwOptimiseSpeed.h'
p2123
g302
(g1584
g304
Ntp2124
Rp2125
(dp2126
g1588
g1460
sg1589
g1625
sg328
g1550
sbsS'ostream'
p2127
g302
(g1584
g304
Ntp2128
Rp2129
(dp2130
g1588
g1596
sg1589
g1597
sg328
S'c:/marmalade/7.2/s3e/h/std/c++/ostream'
p2131
sbsS'msl_string.h'
p2132
g302
(g1584
g304
Ntp2133
Rp2134
(dp2135
g1588
g1596
sg1589
g1597
sg328
S'c:/marmalade/7.2/s3e/h/std/c++/msl_string.h'
p2136
sbsS'select.h'
p2137
g302
(g1584
g304
Ntp2138
Rp2139
(dp2140
g1588
g1596
sg1589
g1745
sg328
S'c:/marmalade/7.2/s3e/h/std/sys/select.h'
p2141
sbsS'zlib.mkf'
p2142
g302
(g1584
g304
Ntp2143
Rp2144
(dp2145
g1588
g1570
sg1589
(lp2146
g1560
asg328
g1568
sbsS'signal.h'
p2147
g302
(g1584
g304
Ntp2148
Rp2149
(dp2150
g1588
g1596
sg1589
g1618
sg328
S'c:/marmalade/7.2/s3e/h/std/signal.h'
p2151
sbsS'sigcontext.h'
p2152
g302
(g1584
g304
Ntp2153
Rp2154
(dp2155
g1588
g1596
sg1589
g1618
sg328
S'c:/marmalade/7.2/s3e/h/std/sigcontext.h'
p2156
sbsS'libpng.mkf'
p2157
g302
(g1584
g304
Ntp2158
Rp2159
(dp2160
g1588
g1046
sg1589
(lp2161
g1035
asg328
g1044
sbsS's3eClipboard.h'
p2162
g302
(g1584
g304
Ntp2163
Rp2164
(dp2165
g1588
g1596
sg1589
g1612
sg328
S'c:/marmalade/7.2/s3e/h/s3eClipboard.h'
p2166
sbsS'IwGxFuncTable.h'
p2167
g302
(g1584
g304
Ntp2168
Rp2169
(dp2170
g1588
g1396
sg1589
g1726
sg328
g1432
sbsS'IwResHandlerGROUP.h'
p2171
g302
(g1584
g304
Ntp2172
Rp2173
(dp2174
g1588
g1372
sg1589
g1870
sg328
g1370
sbsS's3eDebug.h'
p2175
g302
(g1584
g304
Ntp2176
Rp2177
(dp2178
g1588
g1596
sg1589
g1612
sg328
S'c:/marmalade/7.2/s3e/h/s3eDebug.h'
p2179
sbsS'socket.h'
p2180
g302
(g1584
g304
Ntp2181
Rp2182
(dp2183
g1588
g1596
sg1589
g1745
sg328
S'c:/marmalade/7.2/s3e/h/std/sys/socket.h'
p2184
sbsS'glext.h'
p2185
g302
(g1584
g304
Ntp2186
Rp2187
(dp2188
g1588
g1596
sg1589
g1955
sg328
S'c:/marmalade/7.2/s3e/h/GLES/glext.h'
p2189
sbsS'typeinfo.h'
p2190
g302
(g1584
g304
Ntp2191
Rp2192
(dp2193
g1588
g1596
sg1589
g1597
sg328
S'c:/marmalade/7.2/s3e/h/std/c++/typeinfo.h'
p2194
sbsS'typeinfo'
p2195
g302
(g1584
g304
Ntp2196
Rp2197
(dp2198
g1588
g1596
sg1589
g1597
sg328
S'c:/marmalade/7.2/s3e/h/std/c++/typeinfo'
p2199
sbsS'iwsound.config.txt'
p2200
g302
(g1584
g304
Ntp2201
Rp2202
(dp2203
g1588
g1096
sg1589
(lp2204
g1092
ag1109
asg328
g1111
sbsS'fstream.h'
p2205
g302
(g1584
g304
Ntp2206
Rp2207
(dp2208
g1588
g1596
sg1589
g1597
sg328
S'c:/marmalade/7.2/s3e/h/std/c++/fstream.h'
p2209
sbsS'IwGeomMat.h'
p2210
g302
(g1584
g304
Ntp2211
Rp2212
(dp2213
g1588
g1304
sg1589
g1650
sg328
g1307
sbsS's3ePointer.h'
p2214
g302
(g1584
g304
Ntp2215
Rp2216
(dp2217
g1588
g1596
sg1589
g1612
sg328
S'c:/marmalade/7.2/s3e/h/s3ePointer.h'
p2218
sbsS'IwMemBucket.h'
p2219
g302
(g1584
g304
Ntp2220
Rp2221
(dp2222
g1588
g1460
sg1589
g1625
sg328
g1541
sbsS's3eGL.h'
p2223
g302
(g1584
g304
Ntp2224
Rp2225
(dp2226
g1588
g1596
sg1589
g1612
sg328
S'c:/marmalade/7.2/s3e/h/s3eGL.h'
p2227
sbsS'grid.cpp'
p2228
g302
(g1584
g304
Ntp2229
Rp2230
(dp2231
g1588
g1148
sg1589
g1736
sg328
g1159
sbsS'IwGeomFVec2.h'
p2232
g302
(g1584
g304
Ntp2233
Rp2234
(dp2235
g1588
g1304
sg1589
g1650
sg328
g1321
sbsS'IwGeomSVec4.h'
p2236
g302
(g1584
g304
Ntp2237
Rp2238
(dp2239
g1588
g1304
sg1589
g1650
sg328
g1341
sbsS'poll.h'
p2240
g302
(g1584
g304
Ntp2241
Rp2242
(dp2243
g1588
g1596
sg1589
g1618
sg328
S'c:/marmalade/7.2/s3e/h/std/poll.h'
p2244
sbsS'IwMatAnim.h'
p2245
g302
(g1584
g304
Ntp2246
Rp2247
(dp2248
g1588
g1396
sg1589
g1726
sg328
g1403
sbsS'IwGeomFVec4.h'
p2249
g302
(g1584
g304
Ntp2250
Rp2251
(dp2252
g1588
g1304
sg1589
g1650
sg328
g1327
sbsS'IwGx.h'
p2253
g302
(g1584
g304
Ntp2254
Rp2255
(dp2256
g1588
g1396
sg1589
g1726
sg328
g1420
sbsS'valarray'
p2257
g302
(g1584
g304
Ntp2258
Rp2259
(dp2260
g1588
g1596
sg1589
g1597
sg328
S'c:/marmalade/7.2/s3e/h/std/c++/valarray'
p2261
sbsS'iosfwd'
p2262
g302
(g1584
g304
Ntp2263
Rp2264
(dp2265
g1588
g1596
sg1589
g1597
sg328
S'c:/marmalade/7.2/s3e/h/std/c++/iosfwd'
p2266
sbsS'gl2.h'
p2267
g302
(g1584
g304
Ntp2268
Rp2269
(dp2270
g1588
g1596
sg1589
g1862
sg328
S'c:/marmalade/7.2/s3e/h/GLES2/gl2.h'
p2271
sbsS'jpegint.h'
p2272
g302
(g1584
g304
Ntp2273
Rp2274
(dp2275
g1588
g1052
sg1589
g1680
sg328
g1057
sbsS'stdiostream.h'
p2276
g302
(g1584
g304
Ntp2277
Rp2278
(dp2279
g1588
g1596
sg1589
g1597
sg328
S'c:/marmalade/7.2/s3e/h/std/c++/stdiostream.h'
p2280
sbsS'mem.h'
p2281
g302
(g1584
g304
Ntp2282
Rp2283
(dp2284
g1588
g1596
sg1589
g1597
sg328
S'c:/marmalade/7.2/s3e/h/std/c++/mem.h'
p2285
sbsS'jerror.h'
p2286
g302
(g1584
g304
Ntp2287
Rp2288
(dp2289
g1588
g1052
sg1589
g1680
sg328
g1073
sbsS'zconf.h'
p2290
g302
(g1584
g304
Ntp2291
Rp2292
(dp2293
g1588
g1565
sg1589
(lp2294
g1560
ag1037
asg328
g1563
sbsS's3e.config.txt'
p2295
g302
(g1584
g304
Ntp2296
Rp2297
(dp2298
g1588
g1596
sg1589
g1612
sg328
S'c:/marmalade/7.2/s3e/s3e.config.txt'
p2299
sbsS'numeric'
p2300
g302
(g1584
g304
Ntp2301
Rp2302
(dp2303
g1588
g1596
sg1589
g1597
sg328
S'c:/marmalade/7.2/s3e/h/std/c++/numeric'
p2304
sbsS'utime.h'
p2305
g302
(g1584
g304
Ntp2306
Rp2307
(dp2308
g1588
g1596
sg1589
g1618
sg328
S'c:/marmalade/7.2/s3e/h/std/utime.h'
p2309
sbsS'jdhuff.h'
p2310
g302
(g1584
g304
Ntp2311
Rp2312
(dp2313
g1588
g1052
sg1589
g1680
sg328
g1067
sbsS'IwResHandlerWAV.cpp'
p2314
g302
(g1584
g304
Ntp2315
Rp2316
(dp2317
g1588
g1096
sg1589
g1636
sg328
g1113
sbsS'un.h'
p2318
g302
(g1584
g304
Ntp2319
Rp2320
(dp2321
g1588
g1596
sg1589
g1745
sg328
S'c:/marmalade/7.2/s3e/h/std/sys/un.h'
p2322
sbsS'IwImage.h'
p2323
g302
(g1584
g304
Ntp2324
Rp2325
(dp2326
g1588
g1460
sg1589
g1625
sg328
g1507
sbsS's3eImagePicker.h'
p2327
g302
(g1584
g304
Ntp2328
Rp2329
(dp2330
g1588
g1596
sg1589
g1823
sg328
S'c:/marmalade/7.2/s3e/h/ext/s3eImagePicker.h'
p2331
sbsS's3eWebView.defines.txt'
p2332
g302
(g1584
g304
Ntp2333
Rp2334
(dp2335
g1588
g1203
sg1589
(lp2336
S'Extensions'
p2337
ag1197
ag1199
asg328
g1201
sbsS'explosion.h'
p2338
g302
(g1584
g304
Ntp2339
Rp2340
(dp2341
g1588
g1148
sg1589
g1736
sg328
g1173
sbsS'stdlib.h'
p2342
g302
(g1584
g304
Ntp2343
Rp2344
(dp2345
g1588
g1596
sg1589
g1618
sg328
S'c:/marmalade/7.2/s3e/h/std/stdlib.h'
p2346
sbsS'IwCopyingPtr.h'
p2347
g302
(g1584
g304
Ntp2348
Rp2349
(dp2350
g1588
g1460
sg1589
g1625
sg328
g1537
sbsS'iostream'
p2351
g302
(g1584
g304
Ntp2352
Rp2353
(dp2354
g1588
g1596
sg1589
g1597
sg328
S'c:/marmalade/7.2/s3e/h/std/c++/iostream'
p2355
sbsS'png.h'
p2356
g302
(g1584
g304
Ntp2357
Rp2358
(dp2359
g1588
g1041
sg1589
(lp2360
g1035
ag1037
asg328
g1039
sbsS'stddef.h'
p2361
g302
(g1584
g304
Ntp2362
Rp2363
(dp2364
g1588
g1596
sg1589
g1618
sg328
S'c:/marmalade/7.2/s3e/h/std/stddef.h'
p2365
sbsS'setjmp_win32.h'
p2366
g302
(g1584
g304
Ntp2367
Rp2368
(dp2369
g1588
g1596
sg1589
g1618
sg328
S'c:/marmalade/7.2/s3e/h/std/setjmp_win32.h'
p2370
sbsS'pauseMenu.h'
p2371
g302
(g1584
g304
Ntp2372
Rp2373
(dp2374
g1588
g1148
sg1589
g1736
sg328
g1169
sbsS'IwGxPrint.h'
p2375
g302
(g1584
g304
Ntp2376
Rp2377
(dp2378
g1588
g1396
sg1589
g1726
sg328
g1412
sbsS'iwgx_public.defines.txt'
p2379
g302
(g1584
g304
Ntp2380
Rp2381
(dp2382
g1588
g1396
sg1589
g1726
sg328
g1416
sbsS'streambuf.h'
p2383
g302
(g1584
g304
Ntp2384
Rp2385
(dp2386
g1588
g1596
sg1589
g1597
sg328
S'c:/marmalade/7.2/s3e/h/std/c++/streambuf.h'
p2387
sbsS'resources.cpp'
p2388
g302
(g1584
g304
Ntp2389
Rp2390
(dp2391
g1588
g1148
sg1589
g1736
sg328
g1165
sbsS'IwGeomFPlane.h'
p2392
g302
(g1584
g304
Ntp2393
Rp2394
(dp2395
g1588
g1304
sg1589
g1650
sg328
g1302
sbsS'wchar.h'
p2396
g302
(g1584
g304
Ntp2397
Rp2398
(dp2399
g1588
g1596
sg1589
g1618
sg328
S'c:/marmalade/7.2/s3e/h/std/wchar.h'
p2400
sbsS's3eCameraCapture.h'
p2401
g302
(g1584
g304
Ntp2402
Rp2403
(dp2404
g1588
g1596
sg1589
g1823
sg328
S'c:/marmalade/7.2/s3e/h/ext/s3eCameraCapture.h'
p2405
sbsS'eglext.h'
p2406
g302
(g1584
g304
Ntp2407
Rp2408
(dp2409
g1588
g1596
sg1589
g1947
sg328
S'c:/marmalade/7.2/s3e/h/EGL/eglext.h'
p2410
sbsS'IwResHandlerImage.h'
p2411
g302
(g1584
g304
Ntp2412
Rp2413
(dp2414
g1588
g1372
sg1589
g1870
sg328
g1380
sbsS'strstream.h'
p2415
g302
(g1584
g304
Ntp2416
Rp2417
(dp2418
g1588
g1596
sg1589
g1597
sg328
S'c:/marmalade/7.2/s3e/h/std/c++/strstream.h'
p2419
sbsS'tiniconv.h'
p2420
g302
(g1584
g304
Ntp2421
Rp2422
(dp2423
g1588
g1086
sg1589
g2079
sg328
g1084
sbsS'IwGLExt.h'
p2424
g302
(g1584
g304
Ntp2425
Rp2426
(dp2427
g1588
g1258
sg1589
g1606
sg328
g1262
sbsS'app.icf'
p2428
g302
(g1584
g304
Ntp2429
Rp2430
(dp2431
g1588
(dp2432
sg1589
g4
sg328
S'c:/Users/Vinicius/Desktop/Yes or No/Hoppe/data/app.icf'
p2433
sbsS'IwClassFactory.h'
p2434
g302
(g1584
g304
Ntp2435
Rp2436
(dp2437
g1588
g1460
sg1589
g1625
sg328
g1523
sbsS'file.h'
p2438
g302
(g1584
g304
Ntp2439
Rp2440
(dp2441
g1588
g1596
sg1589
g1745
sg328
S'c:/marmalade/7.2/s3e/h/std/sys/file.h'
p2442
sbsS'cstring'
p2443
g302
(g1584
g304
Ntp2444
Rp2445
(dp2446
g1588
g1596
sg1589
g1597
sg328
S'c:/marmalade/7.2/s3e/h/std/c++/cstring'
p2447
sbsS'IwSoundInst.cpp'
p2448
g302
(g1584
g304
Ntp2449
Rp2450
(dp2451
g1588
g1096
sg1589
g1636
sg328
g1107
sbsS'iwutil.config.txt'
p2452
g302
(g1584
g304
Ntp2453
Rp2454
(dp2455
g1588
g1460
sg1589
g1625
sg328
g1521
sbsS's3eSMS.h'
p2456
g302
(g1584
g304
Ntp2457
Rp2458
(dp2459
g1588
g1596
sg1589
g1823
sg328
S'c:/marmalade/7.2/s3e/h/ext/s3eSMS.h'
p2460
sbsS'limits.h'
p2461
g302
(g1584
g304
Ntp2462
Rp2463
(dp2464
g1588
g1596
sg1589
g1618
sg328
S'c:/marmalade/7.2/s3e/h/std/limits.h'
p2465
sbsS's3eLibrary.h'
p2466
g302
(g1584
g304
Ntp2467
Rp2468
(dp2469
g1588
g1596
sg1589
g1823
sg328
S'c:/marmalade/7.2/s3e/h/ext/s3eLibrary.h'
p2470
sbsS'IwMaterial.h'
p2471
g302
(g1584
g304
Ntp2472
Rp2473
(dp2474
g1588
g1396
sg1589
g1726
sg328
g1401
sbsS's3eFlurry.defines.txt'
p2475
g302
(g1584
g304
Ntp2476
Rp2477
(dp2478
g1588
g1232
sg1589
(lp2479
g1835
ag1226
ag1228
asg328
g1233
sbsS'IwGxSurface.h'
p2480
g302
(g1584
g304
Ntp2481
Rp2482
(dp2483
g1588
g1396
sg1589
g1726
sg328
g1414
sbsS's3eSocket.h'
p2484
g302
(g1584
g304
Ntp2485
Rp2486
(dp2487
g1588
g1596
sg1589
g1612
sg328
S'c:/marmalade/7.2/s3e/h/s3eSocket.h'
p2488
sbsS'IwAutoFile.h'
p2489
g302
(g1584
g304
Ntp2490
Rp2491
(dp2492
g1588
g1460
sg1589
g1625
sg328
g1527
sbsS'ipc.h'
p2493
g302
(g1584
g304
Ntp2494
Rp2495
(dp2496
g1588
g1596
sg1589
g1745
sg328
S'c:/marmalade/7.2/s3e/h/std/sys/ipc.h'
p2497
sbsS'poll_1.h'
p2498
g302
(g1584
g304
Ntp2499
Rp2500
(dp2501
g1588
g1596
sg1589
g1745
sg328
S'c:/marmalade/7.2/s3e/h/std/sys/poll.h'
p2502
sbsS's3eThread.h'
p2503
g302
(g1584
g304
Ntp2504
Rp2505
(dp2506
g1588
g1596
sg1589
g1612
sg328
S'c:/marmalade/7.2/s3e/h/s3eThread.h'
p2507
sbsS'ucontext.h'
p2508
g302
(g1584
g304
Ntp2509
Rp2510
(dp2511
g1588
g1596
sg1589
g1618
sg328
S'c:/marmalade/7.2/s3e/h/std/ucontext.h'
p2512
sbsS'time.h'
p2513
g302
(g1584
g304
Ntp2514
Rp2515
(dp2516
g1588
g1596
sg1589
g1618
sg328
S'c:/marmalade/7.2/s3e/h/std/time.h'
p2517
sbsS'jchuff.h'
p2518
g302
(g1584
g304
Ntp2519
Rp2520
(dp2521
g1588
g1052
sg1589
g1680
sg328
g1075
sbsS'IwSoundPCM.cpp'
p2522
g302
(g1584
g304
Ntp2523
Rp2524
(dp2525
g1588
g1096
sg1589
g1636
sg328
g1129
sbsS's3eSoundRecord.h'
p2526
g302
(g1584
g304
Ntp2527
Rp2528
(dp2529
g1588
g1596
sg1589
g1612
sg328
S'c:/marmalade/7.2/s3e/h/s3eSoundRecord.h'
p2530
sbsS'IwFibre.h'
p2531
g302
(g1584
g304
Ntp2532
Rp2533
(dp2534
g1588
g1460
sg1589
g1625
sg328
g1465
sbsS's3eVersion.h'
p2535
g302
(g1584
g304
Ntp2536
Rp2537
(dp2538
g1588
g1596
sg1589
g1612
sg328
S'c:/marmalade/7.2/s3e/h/s3eVersion.h'
p2539
sbsS'input.cpp'
p2540
g302
(g1584
g304
Ntp2541
Rp2542
(dp2543
g1588
g1148
sg1589
g1736
sg328
g1151
sbsS'IwSoundGroup.h'
p2544
g302
(g1584
g304
Ntp2545
Rp2546
(dp2547
g1588
g1096
sg1589
g1636
sg328
g1103
sbsS'IwSoundWAV.h'
p2548
g302
(g1584
g304
Ntp2549
Rp2550
(dp2551
g1588
g1096
sg1589
g1636
sg328
g1105
sbsS'IwGxFontGlyph.h'
p2552
g302
(g1584
g304
Ntp2553
Rp2554
(dp2555
g1588
g1282
sg1589
g1590
sg328
g1289
sbsS's3eTypes.h'
p2556
g302
(g1584
g304
Ntp2557
Rp2558
(dp2559
g1588
g1596
sg1589
g1612
sg328
S'c:/marmalade/7.2/s3e/h/s3eTypes.h'
p2560
sbsS'IwSoundSpec.h'
p2561
g302
(g1584
g304
Ntp2562
Rp2563
(dp2564
g1588
g1096
sg1589
g1636
sg328
g1127
sbsS'signal_2.h'
p2565
g302
(g1584
g304
Ntp2566
Rp2567
(dp2568
g1588
g1596
sg1589
g1597
sg328
S'c:/marmalade/7.2/s3e/h/std/c++/signal.h'
p2569
sbsS'termios.h'
p2570
g302
(g1584
g304
Ntp2571
Rp2572
(dp2573
g1588
g1596
sg1589
g1618
sg328
S'c:/marmalade/7.2/s3e/h/std/termios.h'
p2574
sbsS'gem.h'
p2575
g302
(g1584
g304
Ntp2576
Rp2577
(dp2578
g1588
g1148
sg1589
g1736
sg328
g1181
sbsS'iw2dscenegraph.mkf'
p2579
g302
(g1584
g304
Ntp2580
Rp2581
(dp2582
g1588
g1249
sg1589
g1912
sg328
g1247
sbsS'scene.h'
p2583
g302
(g1584
g304
Ntp2584
Rp2585
(dp2586
g1588
g1148
sg1589
g1736
sg328
g1163
sbsS'slist'
p2587
g302
(g1584
g304
Ntp2588
Rp2589
(dp2590
g1588
g1596
sg1589
g1597
sg328
S'c:/marmalade/7.2/s3e/h/std/c++/slist'
p2591
sbsS'cstdlib'
p2592
g302
(g1584
g304
Ntp2593
Rp2594
(dp2595
g1588
g1596
sg1589
g1597
sg328
S'c:/marmalade/7.2/s3e/h/std/c++/cstdlib'
p2596
sbsS's3eLocation.h'
p2597
g302
(g1584
g304
Ntp2598
Rp2599
(dp2600
g1588
g1596
sg1589
g1612
sg328
S'c:/marmalade/7.2/s3e/h/s3eLocation.h'
p2601
sbsS'IwMemBucketHelpers.h'
p2602
g302
(g1584
g304
Ntp2603
Rp2604
(dp2605
g1588
g1460
sg1589
g1625
sg328
g1535
sbsS's3eHash.h'
p2606
g302
(g1584
g304
Ntp2607
Rp2608
(dp2609
g1588
g1596
sg1589
g1612
sg328
S'c:/marmalade/7.2/s3e/h/s3eHash.h'
p2610
sbsS'IwSoundGroup.cpp'
p2611
g302
(g1584
g304
Ntp2612
Rp2613
(dp2614
g1588
g1096
sg1589
g1636
sg328
g1117
sbsS'IwGeomFMat.h'
p2615
g302
(g1584
g304
Ntp2616
Rp2617
(dp2618
g1588
g1304
sg1589
g1650
sg328
g1335
sbsS'type_traits.h'
p2619
g302
(g1584
g304
Ntp2620
Rp2621
(dp2622
g1588
g1596
sg1589
g1597
sg328
S'c:/marmalade/7.2/s3e/h/std/c++/type_traits.h'
p2623
sbsS'IwMenu.h'
p2624
g302
(g1584
g304
Ntp2625
Rp2626
(dp2627
g1588
g1460
sg1589
g1625
sg328
g1485
sbsS'IwResHandlerITX.h'
p2628
g302
(g1584
g304
Ntp2629
Rp2630
(dp2631
g1588
g1372
sg1589
g1870
sg328
g1386
sbsS'IwSoundData.h'
p2632
g302
(g1584
g304
Ntp2633
Rp2634
(dp2635
g1588
g1096
sg1589
g1636
sg328
g1115
sbsS'IwArray.h'
p2636
g302
(g1584
g304
Ntp2637
Rp2638
(dp2639
g1588
g1460
sg1589
g1625
sg328
g1461
sbsS'IwUTF8.h'
p2640
g302
(g1584
g304
Ntp2641
Rp2642
(dp2643
g1588
g1460
sg1589
g1625
sg328
g1529
sbsS'math_rvct.h'
p2644
g302
(g1584
g304
Ntp2645
Rp2646
(dp2647
g1588
g1596
sg1589
g1618
sg328
S'c:/marmalade/7.2/s3e/h/std/math_rvct.h'
p2648
sbsS'IwUtil.h'
p2649
g302
(g1584
g304
Ntp2650
Rp2651
(dp2652
g1588
g1460
sg1589
g1625
sg328
g1519
sbsS'IwFColour.h'
p2653
g302
(g1584
g304
Ntp2654
Rp2655
(dp2656
g1588
g1396
sg1589
g1726
sg328
g1436
sbsS'wctype.h'
p2657
g302
(g1584
g304
Ntp2658
Rp2659
(dp2660
g1588
g1596
sg1589
g1618
sg328
S'c:/marmalade/7.2/s3e/h/std/wctype.h'
p2661
sbsS'mainMenu.h'
p2662
g302
(g1584
g304
Ntp2663
Rp2664
(dp2665
g1588
g1148
sg1589
g1736
sg328
g1146
sbsS'cstddef'
p2666
g302
(g1584
g304
Ntp2667
Rp2668
(dp2669
g1588
g1596
sg1589
g1597
sg328
S'c:/marmalade/7.2/s3e/h/std/c++/cstddef'
p2670
sbsS'assert.h'
p2671
g302
(g1584
g304
Ntp2672
Rp2673
(dp2674
g1588
g1596
sg1589
g1618
sg328
S'c:/marmalade/7.2/s3e/h/std/assert.h'
p2675
sbsS'mman.h'
p2676
g302
(g1584
g304
Ntp2677
Rp2678
(dp2679
g1588
g1596
sg1589
g1745
sg328
S'c:/marmalade/7.2/s3e/h/std/sys/mman.h'
p2680
sbsS'IwRandom.h'
p2681
g302
(g1584
g304
Ntp2682
Rp2683
(dp2684
g1588
g1460
sg1589
g1625
sg328
g1469
sbsS'libgen.h'
p2685
g302
(g1584
g304
Ntp2686
Rp2687
(dp2688
g1588
g1596
sg1589
g1618
sg328
S'c:/marmalade/7.2/s3e/h/std/libgen.h'
p2689
sbsS'utsname.h'
p2690
g302
(g1584
g304
Ntp2691
Rp2692
(dp2693
g1588
g1596
sg1589
g1745
sg328
S'c:/marmalade/7.2/s3e/h/std/sys/utsname.h'
p2694
sbsS'wait.h'
p2695
g302
(g1584
g304
Ntp2696
Rp2697
(dp2698
g1588
g1596
sg1589
g1745
sg328
S'c:/marmalade/7.2/s3e/h/std/sys/wait.h'
p2699
sbsS'param.h'
p2700
g302
(g1584
g304
Ntp2701
Rp2702
(dp2703
g1588
g1596
sg1589
g1745
sg328
S'c:/marmalade/7.2/s3e/h/std/sys/param.h'
p2704
sbsS'IwDivide.h'
p2705
g302
(g1584
g304
Ntp2706
Rp2707
(dp2708
g1588
g1460
sg1589
g1625
sg328
g1556
sbsS'Iw2DSceneGraphCore.cpp'
p2709
g302
(g1584
g304
Ntp2710
Rp2711
(dp2712
g1588
g1453
sg1589
(lp2713
S"'Marmalade Studio'"
p2714
ag1446
asg328
g1454
sbsS'IwResManager.h'
p2715
g302
(g1584
g304
Ntp2716
Rp2717
(dp2718
g1588
g1372
sg1589
g1870
sg328
g1390
sbsS'IwSoundManager.h'
p2719
g302
(g1584
g304
Ntp2720
Rp2721
(dp2722
g1588
g1096
sg1589
g1636
sg328
g1140
sbsS'cwctype'
p2723
g302
(g1584
g304
Ntp2724
Rp2725
(dp2726
g1588
g1596
sg1589
g1597
sg328
S'c:/marmalade/7.2/s3e/h/std/c++/cwctype'
p2727
sbsS'set'
p2728
g302
(g1584
g304
Ntp2729
Rp2730
(dp2731
g1588
g1596
sg1589
g1597
sg328
S'c:/marmalade/7.2/s3e/h/std/c++/set'
p2732
sbsS'IwGeomSQuat.h'
p2733
g302
(g1584
g304
Ntp2734
Rp2735
(dp2736
g1588
g1304
sg1589
g1650
sg328
g1356
sbsS'locale'
p2737
g302
(g1584
g304
Ntp2738
Rp2739
(dp2740
g1588
g1596
sg1589
g1597
sg328
S'c:/marmalade/7.2/s3e/h/std/c++/locale'
p2741
sbsS'timer.cpp'
p2742
g302
(g1584
g304
Ntp2743
Rp2744
(dp2745
g1588
g1148
sg1589
g1736
sg328
g1187
sbsS'cstdio'
p2746
g302
(g1584
g304
Ntp2747
Rp2748
(dp2749
g1588
g1596
sg1589
g1597
sg328
S'c:/marmalade/7.2/s3e/h/std/c++/cstdio'
p2750
sbsS'cdjpeg.h'
p2751
g302
(g1584
g304
Ntp2752
Rp2753
(dp2754
g1588
g1052
sg1589
g1680
sg328
g1055
sbsS'audio.h'
p2755
g302
(g1584
g304
Ntp2756
Rp2757
(dp2758
g1588
g1148
sg1589
g1736
sg328
g1155
sbsS'IwList.h'
p2759
g302
(g1584
g304
Ntp2760
Rp2761
(dp2762
g1588
g1460
sg1589
g1625
sg328
g1473
sbsS's3eWebView_interface.cpp'
p2763
g302
(g1584
g304
Ntp2764
Rp2765
(dp2766
g1588
g1203
sg1589
g2336
sg328
g1204
sbsS'pauseMenu.cpp'
p2767
g302
(g1584
g304
Ntp2768
Rp2769
(dp2770
g1588
g1148
sg1589
g1736
sg328
g1161
sbsS'inttypes.h'
p2771
g302
(g1584
g304
Ntp2772
Rp2773
(dp2774
g1588
g1596
sg1589
g1618
sg328
S'c:/marmalade/7.2/s3e/h/std/inttypes.h'
p2775
sbsS'dirent.h'
p2776
g302
(g1584
g304
Ntp2777
Rp2778
(dp2779
g1588
g1596
sg1589
g1618
sg328
S'c:/marmalade/7.2/s3e/h/std/dirent.h'
p2780
sbsS'IwGeomVec3.h'
p2781
g302
(g1584
g304
Ntp2782
Rp2783
(dp2784
g1588
g1304
sg1589
g1650
sg328
g1339
sbsS'transupp.h'
p2785
g302
(g1584
g304
Ntp2786
Rp2787
(dp2788
g1588
g1052
sg1589
g1680
sg328
g1059
sbsS'IwMath.h'
p2789
g302
(g1584
g304
Ntp2790
Rp2791
(dp2792
g1588
g1460
sg1589
g1625
sg328
g1479
sbsS'IwGeomQuat.h'
p2793
g302
(g1584
g304
Ntp2794
Rp2795
(dp2796
g1588
g1304
sg1589
g1650
sg328
g1358
sbsS'glplatform.h'
p2797
g302
(g1584
g304
Ntp2798
Rp2799
(dp2800
g1588
g1596
sg1589
g1955
sg328
S'c:/marmalade/7.2/s3e/h/GLES/glplatform.h'
p2801
sbsS'iwgl.config.txt'
p2802
g302
(g1584
g304
Ntp2803
Rp2804
(dp2805
g1588
g1258
sg1589
g1606
sg328
g1264
sbsS'bitset'
p2806
g302
(g1584
g304
Ntp2807
Rp2808
(dp2809
g1588
g1596
sg1589
g1597
sg328
S'c:/marmalade/7.2/s3e/h/std/c++/bitset'
p2810
sbsS'alloca.h'
p2811
g302
(g1584
g304
Ntp2812
Rp2813
(dp2814
g1588
g1596
sg1589
g1618
sg328
S'c:/marmalade/7.2/s3e/h/std/alloca.h'
p2815
sbsS'IwResHandler.h'
p2816
g302
(g1584
g304
Ntp2817
Rp2818
(dp2819
g1588
g1372
sg1589
g1870
sg328
g1373
sbsS'IwResHandlerMTL.h'
p2820
g302
(g1584
g304
Ntp2821
Rp2822
(dp2823
g1588
g1396
sg1589
g1726
sg328
g1410
sbsS'IwRuntime.h'
p2824
g302
(g1584
g304
Ntp2825
Rp2826
(dp2827
g1588
g1460
sg1589
g1625
sg328
g1513
sbsS's3eFlurry.h'
p2828
g302
(g1584
g304
Ntp2829
Rp2830
(dp2831
g1588
g1232
sg1589
g1834
sg328
g1235
sbsS'limits'
p2832
g302
(g1584
g304
Ntp2833
Rp2834
(dp2835
g1588
g1596
sg1589
g1597
sg328
S'c:/marmalade/7.2/s3e/h/std/c++/limits'
p2836
sbsS'IwGeomBBox.h'
p2837
g302
(g1584
g304
Ntp2838
Rp2839
(dp2840
g1588
g1304
sg1589
g1650
sg328
g1331
sbsS's3eContacts.h'
p2841
g302
(g1584
g304
Ntp2842
Rp2843
(dp2844
g1588
g1596
sg1589
g1612
sg328
S'c:/marmalade/7.2/s3e/h/s3eContacts.h'
p2845
sbsS's3eLicense.h'
p2846
g302
(g1584
g304
Ntp2847
Rp2848
(dp2849
g1588
g1596
sg1589
g1612
sg328
S'c:/marmalade/7.2/s3e/h/s3eLicense.h'
p2850
sbsS'iwgx.config.txt'
p2851
g302
(g1584
g304
Ntp2852
Rp2853
(dp2854
g1588
g1396
sg1589
g1726
sg328
g1405
sbsS'IwTextParser.h'
p2855
g302
(g1584
g304
Ntp2856
Rp2857
(dp2858
g1588
g1460
sg1589
g1625
sg328
g1491
sbsS's3eTimer.h'
p2859
g302
(g1584
g304
Ntp2860
Rp2861
(dp2862
g1588
g1596
sg1589
g1612
sg328
S'c:/marmalade/7.2/s3e/h/s3eTimer.h'
p2863
sbsS'IwGeomVec.h'
p2864
g302
(g1584
g304
Ntp2865
Rp2866
(dp2867
g1588
g1304
sg1589
g1650
sg328
g1362
sbsS'IwSerialise.h'
p2868
g302
(g1584
g304
Ntp2869
Rp2870
(dp2871
g1588
g1460
sg1589
g1625
sg328
g1531
sbsS'cstdarg'
p2872
g302
(g1584
g304
Ntp2873
Rp2874
(dp2875
g1588
g1596
sg1589
g1597
sg328
S'c:/marmalade/7.2/s3e/h/std/c++/cstdarg'
p2876
sbsS'gl2ext.h'
p2877
g302
(g1584
g304
Ntp2878
Rp2879
(dp2880
g1588
g1596
sg1589
g1862
sg328
S'c:/marmalade/7.2/s3e/h/GLES2/gl2ext.h'
p2881
sbsS'IwChar.h'
p2882
g302
(g1584
g304
Ntp2883
Rp2884
(dp2885
g1588
g1460
sg1589
g1625
sg328
g1487
sbsS's3eSound.h'
p2886
g302
(g1584
g304
Ntp2887
Rp2888
(dp2889
g1588
g1596
sg1589
g1612
sg328
S'c:/marmalade/7.2/s3e/h/s3eSound.h'
p2890
sbsS's3eIOSBackgroundAudio.h'
p2891
g302
(g1584
g304
Ntp2892
Rp2893
(dp2894
g1588
g1596
sg1589
g1823
sg328
S'c:/marmalade/7.2/s3e/h/ext/s3eIOSBackgroundAudio.h'
p2895
sbsS'exception.h'
p2896
g302
(g1584
g304
Ntp2897
Rp2898
(dp2899
g1588
g1596
sg1589
g1597
sg328
S'c:/marmalade/7.2/s3e/h/std/c++/exception.h'
p2900
sbsS'iwgeom.config.txt'
p2901
g302
(g1584
g304
Ntp2902
Rp2903
(dp2904
g1588
g1304
sg1589
g1650
sg328
g1343
sbsS'iwgx.mkf'
p2905
g302
(g1584
g304
Ntp2906
Rp2907
(dp2908
g1588
g1409
sg1589
g1726
sg328
g1407
sbsS'gl.h'
p2909
g302
(g1584
g304
Ntp2910
Rp2911
(dp2912
g1588
g1596
sg1589
g1955
sg328
S'c:/marmalade/7.2/s3e/h/GLES/gl.h'
p2913
sbsS'zlib.h'
p2914
g302
(g1584
g304
Ntp2915
Rp2916
(dp2917
g1588
g1565
sg1589
g2294
sg328
g1566
sbsS's3eFacebook.defines.txt'
p2918
g302
(g1584
g304
Ntp2919
Rp2920
(dp2921
g1588
g1217
sg1589
(lp2922
g1195
ag1211
ag1213
asg328
g1218
sbsS'iwgl.mkf'
p2923
g302
(g1584
g304
Ntp2924
Rp2925
(dp2926
g1588
g1261
sg1589
g1606
sg328
g1259
sbsS'IwColour.h'
p2927
g302
(g1584
g304
Ntp2928
Rp2929
(dp2930
g1588
g1396
sg1589
g1726
sg328
g1438
sbsS'types.h'
p2931
g302
(g1584
g304
Ntp2932
Rp2933
(dp2934
g1588
g1596
sg1589
g1745
sg328
S'c:/marmalade/7.2/s3e/h/std/sys/types.h'
p2935
sbsS'ifaddrs.h'
p2936
g302
(g1584
g304
Ntp2937
Rp2938
(dp2939
g1588
g1596
sg1589
g1618
sg328
S'c:/marmalade/7.2/s3e/h/std/ifaddrs.h'
p2940
sbsS'strstream'
p2941
g302
(g1584
g304
Ntp2942
Rp2943
(dp2944
g1588
g1596
sg1589
g1597
sg328
S'c:/marmalade/7.2/s3e/h/std/c++/strstream'
p2945
sbsS'IwTween.cpp'
p2946
g302
(g1584
g304
Ntp2947
Rp2948
(dp2949
g1588
g1578
sg1589
g2122
sg328
g1576
sbsS'exception'
p2950
g302
(g1584
g304
Ntp2951
Rp2952
(dp2953
g1588
g1596
sg1589
g1597
sg328
S'c:/marmalade/7.2/s3e/h/std/c++/exception'
p2954
sbsS's3eFacebook_interface.cpp'
p2955
g302
(g1584
g304
Ntp2956
Rp2957
(dp2958
g1588
g1217
sg1589
g2922
sg328
g1215
sbsS'rlocks.h'
p2959
g302
(g1584
g304
Ntp2960
Rp2961
(dp2962
g1588
g1596
sg1589
g1597
sg328
S'c:/marmalade/7.2/s3e/h/std/c++/rlocks.h'
p2963
sbsS'ioctl.h'
p2964
g302
(g1584
g304
Ntp2965
Rp2966
(dp2967
g1588
g1596
sg1589
g1745
sg328
S'c:/marmalade/7.2/s3e/h/std/sys/ioctl.h'
p2968
sbsS'sem.h'
p2969
g302
(g1584
g304
Ntp2970
Rp2971
(dp2972
g1588
g1596
sg1589
g1745
sg328
S'c:/marmalade/7.2/s3e/h/std/sys/sem.h'
p2973
sbsS'jinclude.h'
p2974
g302
(g1584
g304
Ntp2975
Rp2976
(dp2977
g1588
g1052
sg1589
g1680
sg328
g1050
sbsS's3eFlurry_interface.cpp'
p2978
g302
(g1584
g304
Ntp2979
Rp2980
(dp2981
g1588
g1232
sg1589
g2479
sg328
g1230
sbsS's3eWebView.h'
p2982
g302
(g1584
g304
Ntp2983
Rp2984
(dp2985
g1588
g1203
sg1589
(lp2986
g2337
ag1197
asg328
g1206
sbsS'IwEvent.h'
p2987
g302
(g1584
g304
Ntp2988
Rp2989
(dp2990
g1588
g1460
sg1589
g1625
sg328
g1489
sbsS'IwOptimiseSize.h'
p2991
g302
(g1584
g304
Ntp2992
Rp2993
(dp2994
g1588
g1460
sg1589
g1625
sg328
g1493
sbsS'iwgxfont_public.defines.txt'
p2995
g302
(g1584
g304
Ntp2996
Rp2997
(dp2998
g1588
g1282
sg1589
g1590
sg328
g1287
sbsS'iconv.h'
p2999
g302
(g1584
g304
Ntp3000
Rp3001
(dp3002
g1588
g1596
sg1589
g1618
sg328
S'c:/marmalade/7.2/s3e/h/std/iconv.h'
p3003
sbsS's3eDevice.h'
p3004
g302
(g1584
g304
Ntp3005
Rp3006
(dp3007
g1588
g1596
sg1589
g1612
sg328
S'c:/marmalade/7.2/s3e/h/s3eDevice.h'
p3008
sbsS'IwGeomSphere.h'
p3009
g302
(g1584
g304
Ntp3010
Rp3011
(dp3012
g1588
g1304
sg1589
g1650
sg328
g1360
sbsS'tiniconv.mkf'
p3013
g302
(g1584
g304
Ntp3014
Rp3015
(dp3016
g1588
g1091
sg1589
g2079
sg328
g1089
sbsS'iw2dscenegraph.defines.txt'
p3017
g302
(g1584
g304
Ntp3018
Rp3019
(dp3020
g1588
g1246
sg1589
g1912
sg328
g1252
sbsS'jdct.h'
p3021
g302
(g1584
g304
Ntp3022
Rp3023
(dp3024
g1588
g1052
sg1589
g1680
sg328
g1065
sbsS'cctype'
p3025
g302
(g1584
g304
Ntp3026
Rp3027
(dp3028
g1588
g1596
sg1589
g1597
sg328
S'c:/marmalade/7.2/s3e/h/std/c++/cctype'
p3029
sbsS'IwSoundADPCM.cpp'
p3030
g302
(g1584
g304
Ntp3031
Rp3032
(dp3033
g1588
g1096
sg1589
g1636
sg328
g1094
sbsS's3eConfig.h'
p3034
g302
(g1584
g304
Ntp3035
Rp3036
(dp3037
g1588
g1596
sg1589
g1612
sg328
S'c:/marmalade/7.2/s3e/h/s3eConfig.h'
p3038
sbsS'IwHashString.h'
p3039
g302
(g1584
g304
Ntp3040
Rp3041
(dp3042
g1588
g1460
sg1589
g1625
sg328
g1558
sbsS'stat.h'
p3043
g302
(g1584
g304
Ntp3044
Rp3045
(dp3046
g1588
g1596
sg1589
g1745
sg328
S'c:/marmalade/7.2/s3e/h/std/sys/stat.h'
p3047
sbsS'byteswap.h'
p3048
g302
(g1584
g304
Ntp3049
Rp3050
(dp3051
g1588
g1596
sg1589
g1618
sg328
S'c:/marmalade/7.2/s3e/h/std/byteswap.h'
p3052
sbsS'iwresmanager.mkf'
p3053
g302
(g1584
g304
Ntp3054
Rp3055
(dp3056
g1588
g1377
sg1589
g1870
sg328
g1375
sbsS'IwUtilInitTerm.h'
p3057
g302
(g1584
g304
Ntp3058
Rp3059
(dp3060
g1588
g1460
sg1589
g1625
sg328
g1525
sbsS'pthread_1.h'
p3061
g302
(g1584
g304
Ntp3062
Rp3063
(dp3064
g1588
g1596
sg1589
g1597
sg328
S'c:/marmalade/7.2/s3e/h/std/c++/pthread.h'
p3065
sbsS'iw2d.mkf'
p3066
g302
(g1584
g304
Ntp3067
Rp3068
(dp3069
g1588
g1277
sg1589
g1685
sg328
g1275
sbsS'complex'
p3070
g302
(g1584
g304
Ntp3071
Rp3072
(dp3073
g1588
g1596
sg1589
g1597
sg328
S'c:/marmalade/7.2/s3e/h/std/c++/complex'
p3074
sbsS'game.cpp'
p3075
g302
(g1584
g304
Ntp3076
Rp3077
(dp3078
g1588
g1148
sg1589
g1736
sg328
g1193
sbsS'algorithm'
p3079
g302
(g1584
g304
Ntp3080
Rp3081
(dp3082
g1588
g1596
sg1589
g1597
sg328
S'c:/marmalade/7.2/s3e/h/std/c++/algorithm'
p3083
sbsS's3e.icf'
p3084
g302
(g1584
g304
Ntp3085
Rp3086
(dp3087
g1588
g1596
sg1589
g1612
sg328
S'c:/marmalade/7.2/s3e/s3e.icf'
p3088
sbsS'resources.h'
p3089
g302
(g1584
g304
Ntp3090
Rp3091
(dp3092
g1588
g1148
sg1589
g1736
sg328
g1171
sbsS'IwGxFontState.h'
p3093
g302
(g1584
g304
Ntp3094
Rp3095
(dp3096
g1588
g1282
sg1589
g1590
sg328
g1291
sbsS'stdio.h'
p3097
g302
(g1584
g304
Ntp3098
Rp3099
(dp3100
g1588
g1596
sg1589
g1618
sg328
S'c:/marmalade/7.2/s3e/h/std/stdio.h'
p3101
sbsS'jmemsys.h'
p3102
g302
(g1584
g304
Ntp3103
Rp3104
(dp3105
g1588
g1052
sg1589
g1680
sg328
g1069
sbsS'ios'
p3106
g302
(g1584
g304
Ntp3107
Rp3108
(dp3109
g1588
g1596
sg1589
g1597
sg328
S'c:/marmalade/7.2/s3e/h/std/c++/ios'
p3110
sbsS'IwTween.h'
p3111
g302
(g1584
g304
Ntp3112
Rp3113
(dp3114
g1588
g1578
sg1589
g2122
sg328
g1579
sbsS'stack'
p3115
g302
(g1584
g304
Ntp3116
Rp3117
(dp3118
g1588
g1596
sg1589
g1597
sg328
S'c:/marmalade/7.2/s3e/h/std/c++/stack'
p3119
sbsS'IwSoundParams.h'
p3120
g302
(g1584
g304
Ntp3121
Rp3122
(dp3123
g1588
g1096
sg1589
g1636
sg328
g1142
sbsS'new.h'
p3124
g302
(g1584
g304
Ntp3125
Rp3126
(dp3127
g1588
g1596
sg1589
g1597
sg328
S'c:/marmalade/7.2/s3e/h/std/c++/new.h'
p3128
sbsS's3eEMail.h'
p3129
g302
(g1584
g304
Ntp3130
Rp3131
(dp3132
g1588
g1596
sg1589
g1823
sg328
S'c:/marmalade/7.2/s3e/h/ext/s3eEMail.h'
p3133
sbsS's3eVideo.h'
p3134
g302
(g1584
g304
Ntp3135
Rp3136
(dp3137
g1588
g1596
sg1589
g1612
sg328
S'c:/marmalade/7.2/s3e/h/s3eVideo.h'
p3138
sbsS'pngconf.h'
p3139
g302
(g1584
g304
Ntp3140
Rp3141
(dp3142
g1588
g1041
sg1589
g2360
sg328
g1042
sbsS'pwd.h'
p3143
g302
(g1584
g304
Ntp3144
Rp3145
(dp3146
g1588
g1596
sg1589
g1618
sg328
S'c:/marmalade/7.2/s3e/h/std/pwd.h'
p3147
sbsS'IwOptimiseThumb.h'
p3148
g302
(g1584
g304
Ntp3149
Rp3150
(dp3151
g1588
g1460
sg1589
g1625
sg328
g1517
sbsS'IwClip.h'
p3152
g302
(g1584
g304
Ntp3153
Rp3154
(dp3155
g1588
g1396
sg1589
g1726
sg328
g1418
sbsS'IwSoundInst.h'
p3156
g302
(g1584
g304
Ntp3157
Rp3158
(dp3159
g1588
g1096
sg1589
g1636
sg328
g1133
sbsS'iwresmanager.config.txt'
p3160
g302
(g1584
g304
Ntp3161
Rp3162
(dp3163
g1588
g1372
sg1589
g1870
sg328
g1382
sbsS'IwGxShaderTechnique.h'
p3164
g302
(g1584
g304
Ntp3165
Rp3166
(dp3167
g1588
g1396
sg1589
g1726
sg328
g1440
sbsS'IwCore.h'
p3168
g302
(g1584
g304
Ntp3169
Rp3170
(dp3171
g1588
g1460
sg1589
g1625
sg328
g1458
sbsS'cfloat'
p3172
g302
(g1584
g304
Ntp3173
Rp3174
(dp3175
g1588
g1596
sg1589
g1597
sg328
S'c:/marmalade/7.2/s3e/h/std/c++/cfloat'
p3176
sbsS'IwGeomMat2D.h'
p3177
g302
(g1584
g304
Ntp3178
Rp3179
(dp3180
g1588
g1304
sg1589
g1650
sg328
g1309
sbsS'IwAllocator.h'
p3181
g302
(g1584
g304
Ntp3182
Rp3183
(dp3184
g1588
g1460
sg1589
g1625
sg328
g1497
sbsS'IwPath.h'
p3185
g302
(g1584
g304
Ntp3186
Rp3187
(dp3188
g1588
g1460
sg1589
g1625
sg328
g1533
sbsS'iwgxfont.mkf'
p3189
g302
(g1584
g304
Ntp3190
Rp3191
(dp3192
g1588
g1297
sg1589
g1590
sg328
g1295
sbsS'IwTexture.h'
p3193
g302
(g1584
g304
Ntp3194
Rp3195
(dp3196
g1588
g1396
sg1589
g1726
sg328
g1434
sbsS's3eAccelerometer.h'
p3197
g302
(g1584
g304
Ntp3198
Rp3199
(dp3200
g1588
g1596
sg1589
g1612
sg328
S'c:/marmalade/7.2/s3e/h/s3eAccelerometer.h'
p3201
sbsS'setjmp.h'
p3202
g302
(g1584
g304
Ntp3203
Rp3204
(dp3205
g1588
g1596
sg1589
g1618
sg328
S'c:/marmalade/7.2/s3e/h/std/setjmp.h'
p3206
sbsS's3eFacebook.h'
p3207
g302
(g1584
g304
Ntp3208
Rp3209
(dp3210
g1588
g1217
sg1589
(lp3211
g1195
ag1211
ag1037
asg328
g1221
sbsS'IwSoundParams.cpp'
p3212
g302
(g1584
g304
Ntp3213
Rp3214
(dp3215
g1588
g1096
sg1589
g1636
sg328
g1121
sbsS'IwFile.h'
p3216
g302
(g1584
g304
Ntp3217
Rp3218
(dp3219
g1588
g1460
sg1589
g1625
sg328
g1499
sbsS'IwTextParseable.h'
p3220
g302
(g1584
g304
Ntp3221
Rp3222
(dp3223
g1588
g1460
sg1589
g1625
sg328
g1552
sbsS'istream.h'
p3224
g302
(g1584
g304
Ntp3225
Rp3226
(dp3227
g1588
g1596
sg1589
g1597
sg328
S'c:/marmalade/7.2/s3e/h/std/c++/istream.h'
p3228
sbsS'gem.cpp'
p3229
g302
(g1584
g304
Ntp3230
Rp3231
(dp3232
g1588
g1148
sg1589
g1736
sg328
g1175
sbsS'stdint.h'
p3233
g302
(g1584
g304
Ntp3234
Rp3235
(dp3236
g1588
g1596
sg1589
g1618
sg328
S'c:/marmalade/7.2/s3e/h/std/stdint.h'
p3237
sbsS'semaphore.h'
p3238
g302
(g1584
g304
Ntp3239
Rp3240
(dp3241
g1588
g1596
sg1589
g1618
sg328
S'c:/marmalade/7.2/s3e/h/std/semaphore.h'
p3242
sbsS'ctime'
p3243
g302
(g1584
g304
Ntp3244
Rp3245
(dp3246
g1588
g1596
sg1589
g1597
sg328
S'c:/marmalade/7.2/s3e/h/std/c++/ctime'
p3247
sbsS'sstream'
p3248
g302
(g1584
g304
Ntp3249
Rp3250
(dp3251
g1588
g1596
sg1589
g1597
sg328
S'c:/marmalade/7.2/s3e/h/std/c++/sstream'
p3252
sbsS'IwGeomFBBox.h'
p3253
g302
(g1584
g304
Ntp3254
Rp3255
(dp3256
g1588
g1304
sg1589
g1650
sg328
g1366
sbsS'IwDebugPrim.h'
p3257
g302
(g1584
g304
Ntp3258
Rp3259
(dp3260
g1588
g1396
sg1589
g1726
sg328
g1424
sbsS'IwGxFontContainer.h'
p3261
g302
(g1584
g304
Ntp3262
Rp3263
(dp3264
g1588
g1282
sg1589
g1590
sg328
g1285
sbsS'IwGeomSVec3.h'
p3265
g302
(g1584
g304
Ntp3266
Rp3267
(dp3268
g1588
g1304
sg1589
g1650
sg328
g1329
sbsS'timer.h'
p3269
g302
(g1584
g304
Ntp3270
Rp3271
(dp3272
g1588
g1148
sg1589
g1736
sg328
g1149
sbsS'iw2dscenegraphcore.mkf'
p3273
g302
(g1584
g304
Ntp3274
Rp3275
(dp3276
g1588
g1450
sg1589
g2713
sg328
g1448
sbsS's3eExt.h'
p3277
g302
(g1584
g304
Ntp3278
Rp3279
(dp3280
g1588
g1596
sg1589
g1612
sg328
S'c:/marmalade/7.2/s3e/h/s3eExt.h'
p3281
sbsS'IwGeomFVec3.h'
p3282
g302
(g1584
g304
Ntp3283
Rp3284
(dp3285
g1588
g1304
sg1589
g1650
sg328
g1319
sbsS'streambuf'
p3286
g302
(g1584
g304
Ntp3287
Rp3288
(dp3289
g1588
g1596
sg1589
g1597
sg328
S'c:/marmalade/7.2/s3e/h/std/c++/streambuf'
p3290
sbsS's3eMetrics.h'
p3291
g302
(g1584
g304
Ntp3292
Rp3293
(dp3294
g1588
g1596
sg1589
g1823
sg328
S'c:/marmalade/7.2/s3e/h/ext/s3eMetrics.h'
p3295
sbsS'IwGxFont.h'
p3296
g302
(g1584
g304
Ntp3297
Rp3298
(dp3299
g1588
g1282
sg1589
g1590
sg328
g1280
sbsS's3eSecureStorage.h'
p3300
g302
(g1584
g304
Ntp3301
Rp3302
(dp3303
g1588
g1596
sg1589
g1612
sg328
S'c:/marmalade/7.2/s3e/h/s3eSecureStorage.h'
p3304
sbsS'string.h'
p3305
g302
(g1584
g304
Ntp3306
Rp3307
(dp3308
g1588
g1596
sg1589
g1618
sg328
S'c:/marmalade/7.2/s3e/h/std/string.h'
p3309
sbsS'IwResource.h'
p3310
g302
(g1584
g304
Ntp3311
Rp3312
(dp3313
g1588
g1460
sg1589
g1625
sg328
g1463
sbsS'IwGeomSVec2.h'
p3314
g302
(g1584
g304
Ntp3315
Rp3316
(dp3317
g1588
g1304
sg1589
g1650
sg328
g1325
sbsS'libjpeg.mkf'
p3318
g302
(g1584
g304
Ntp3319
Rp3320
(dp3321
g1588
g1081
sg1589
(lp3322
g1047
asg328
g1079
sbsS'IwGxDebug.h'
p3323
g302
(g1584
g304
Ntp3324
Rp3325
(dp3326
g1588
g1396
sg1589
g1726
sg328
g1422
sbsS'float.h'
p3327
g302
(g1584
g304
Ntp3328
Rp3329
(dp3330
g1588
g1596
sg1589
g1618
sg328
S'c:/marmalade/7.2/s3e/h/std/float.h'
p3331
sbsS'iomanip.h'
p3332
g302
(g1584
g304
Ntp3333
Rp3334
(dp3335
g1588
g1596
sg1589
g1597
sg328
S'c:/marmalade/7.2/s3e/h/std/c++/iomanip.h'
p3336
sbsS'IwKeymap.h'
p3337
g302
(g1584
g304
Ntp3338
Rp3339
(dp3340
g1588
g1460
sg1589
g1625
sg328
g1546
sbsS'IwDebug.h'
p3341
g302
(g1584
g304
Ntp3342
Rp3343
(dp3344
g1588
g1460
sg1589
g1625
sg328
g1554
sbsS'IwVariableBitField.h'
p3345
g302
(g1584
g304
Ntp3346
Rp3347
(dp3348
g1588
g1460
sg1589
g1625
sg328
g1503
sbsS'IwGeomMenu.h'
p3349
g302
(g1584
g304
Ntp3350
Rp3351
(dp3352
g1588
g1304
sg1589
g1650
sg328
g1311
sbsS'IwDivTable.h'
p3353
g302
(g1584
g304
Ntp3354
Rp3355
(dp3356
g1588
g1460
sg1589
g1625
sg328
g1481
sbsS'ctype.h'
p3357
g302
(g1584
g304
Ntp3358
Rp3359
(dp3360
g1588
g1596
sg1589
g1618
sg328
S'c:/marmalade/7.2/s3e/h/std/ctype.h'
p3361
sbsS'mainMenu.cpp'
p3362
g302
(g1584
g304
Ntp3363
Rp3364
(dp3365
g1588
g1148
sg1589
g1736
sg328
g1185
sbsS'IwResGroup.h'
p3366
g302
(g1584
g304
Ntp3367
Rp3368
(dp3369
g1588
g1372
sg1589
g1870
sg328
g1378
sbsS'signal_1.h'
p3370
g302
(g1584
g304
Ntp3371
Rp3372
(dp3373
g1588
g1596
sg1589
g1745
sg328
S'c:/marmalade/7.2/s3e/h/std/sys/signal.h'
p3374
sbsS'IwSoundData.cpp'
p3375
g302
(g1584
g304
Ntp3376
Rp3377
(dp3378
g1588
g1096
sg1589
g1636
sg328
g1099
sbsS'main.cpp'
p3379
g302
(g1584
g304
Ntp3380
Rp3381
(dp3382
g1588
g1148
sg1589
g1736
sg328
g1189
sbsS'shm.h'
p3383
g302
(g1584
g304
Ntp3384
Rp3385
(dp3386
g1588
g1596
sg1589
g1745
sg328
S'c:/marmalade/7.2/s3e/h/std/sys/shm.h'
p3387
sbsS'IwManagedList.h'
p3388
g302
(g1584
g304
Ntp3389
Rp3390
(dp3391
g1588
g1460
sg1589
g1625
sg328
g1471
sbsS'prctl.h'
p3392
g302
(g1584
g304
Ntp3393
Rp3394
(dp3395
g1588
g1596
sg1589
g1745
sg328
S'c:/marmalade/7.2/s3e/h/std/sys/prctl.h'
p3396
sbsS'IwGxStream.h'
p3397
g302
(g1584
g304
Ntp3398
Rp3399
(dp3400
g1588
g1396
sg1589
g1726
sg328
g1397
sbsS'utility'
p3401
g302
(g1584
g304
Ntp3402
Rp3403
(dp3404
g1588
g1596
sg1589
g1597
sg328
S'c:/marmalade/7.2/s3e/h/std/c++/utility'
p3405
sbsS'input.h'
p3406
g302
(g1584
g304
Ntp3407
Rp3408
(dp3409
g1588
g1148
sg1589
g1736
sg328
g1179
sbsS's3ewebview.mkf'
p3410
g302
(g1584
g304
Ntp3411
Rp3412
(dp3413
g1588
g1210
sg1589
g2986
sg328
g1208
sbsS'IwGeomLegacy.h'
p3414
g302
(g1584
g304
Ntp3415
Rp3416
(dp3417
g1588
g1304
sg1589
g1650
sg328
g1352
sbsS'IwTPage.h'
p3418
g302
(g1584
g304
Ntp3419
Rp3420
(dp3421
g1588
g1396
sg1589
g1726
sg328
g1394
sbsS'IwResSerialise.h'
p3422
g302
(g1584
g304
Ntp3423
Rp3424
(dp3425
g1588
g1372
sg1589
g1870
sg328
g1388
sbsS's3eCrypto.h'
p3426
g302
(g1584
g304
Ntp3427
Rp3428
(dp3429
g1588
g1596
sg1589
g1612
sg328
S'c:/marmalade/7.2/s3e/h/s3eCrypto.h'
p3430
sbsS's3eKeyboard.h'
p3431
g302
(g1584
g304
Ntp3432
Rp3433
(dp3434
g1588
g1596
sg1589
g1612
sg328
S'c:/marmalade/7.2/s3e/h/s3eKeyboard.h'
p3435
sbsS'fcntl.h'
p3436
g302
(g1584
g304
Ntp3437
Rp3438
(dp3439
g1588
g1596
sg1589
g1618
sg328
S'c:/marmalade/7.2/s3e/h/std/fcntl.h'
p3440
sbsS'Iw2DSceneGraphCore.h'
p3441
g302
(g1584
g304
Ntp3442
Rp3443
(dp3444
g1588
g1453
sg1589
g2713
sg328
g1451
sbsS'memory.h'
p3445
g302
(g1584
g304
Ntp3446
Rp3447
(dp3448
g1588
g1596
sg1589
g1618
sg328
S'c:/marmalade/7.2/s3e/h/std/memory.h'
p3449
sbsS'pthread.h'
p3450
g302
(g1584
g304
Ntp3451
Rp3452
(dp3453
g1588
g1596
sg1589
g1618
sg328
S'c:/marmalade/7.2/s3e/h/std/pthread.h'
p3454
sbsS'IwGeomIntersect.h'
p3455
g302
(g1584
g304
Ntp3456
Rp3457
(dp3458
g1588
g1304
sg1589
g1650
sg328
g1354
sbsS'IwTextParserITX.h'
p3459
g302
(g1584
g304
Ntp3460
Rp3461
(dp3462
g1588
g1460
sg1589
g1625
sg328
g1483
sbsS'IwClip.inl'
p3463
g302
(g1584
g304
Ntp3464
Rp3465
(dp3466
g1588
g1396
sg1589
g1726
sg328
g1430
sbsS'Iw2DSceneGraph.cpp'
p3467
g302
(g1584
g304
Ntp3468
Rp3469
(dp3470
g1588
g1246
sg1589
g1912
sg328
g1244
sbsS'ostream.h'
p3471
g302
(g1584
g304
Ntp3472
Rp3473
(dp3474
g1588
g1596
sg1589
g1597
sg328
S'c:/marmalade/7.2/s3e/h/std/c++/ostream.h'
p3475
sbsS'stl_user_config.h'
p3476
g302
(g1584
g304
Ntp3477
Rp3478
(dp3479
g1588
g1596
sg1589
g1597
sg328
S'c:/marmalade/7.2/s3e/h/std/c++/stl_user_config.h'
p3480
sbsS'IwProfileMenu.h'
p3481
g302
(g1584
g304
Ntp3482
Rp3483
(dp3484
g1588
g1460
sg1589
g1625
sg328
g1475
sbsS'MarmaladeVersion.h'
p3485
g302
(g1584
g304
Ntp3486
Rp3487
(dp3488
g1588
g1596
sg1589
g1612
sg328
S'c:/marmalade/7.2/s3e/h/MarmaladeVersion.h'
p3489
sbsS'IwResHandlerWAV.h'
p3490
g302
(g1584
g304
Ntp3491
Rp3492
(dp3493
g1588
g1096
sg1589
g1636
sg328
g1123
sbsS'ios.h'
p3494
g302
(g1584
g304
Ntp3495
Rp3496
(dp3497
g1588
g1596
sg1589
g1597
sg328
S'c:/marmalade/7.2/s3e/h/std/c++/ios.h'
p3498
sbsS'IwImageHelper.h'
p3499
g302
(g1584
g304
Ntp3500
Rp3501
(dp3502
g1588
g1460
sg1589
g1625
sg328
g1548
sbsS'hash_set'
p3503
g302
(g1584
g304
Ntp3504
Rp3505
(dp3506
g1588
g1596
sg1589
g1597
sg328
S'c:/marmalade/7.2/s3e/h/std/c++/hash_set'
p3507
sbsS'IwGeomFQuat.h'
p3508
g302
(g1584
g304
Ntp3509
Rp3510
(dp3511
g1588
g1304
sg1589
g1650
sg328
g1337
sbsS'jmorecfg.h'
p3512
g302
(g1584
g304
Ntp3513
Rp3514
(dp3515
g1588
g1052
sg1589
g1680
sg328
g1071
sbsS'eglplatform.h'
p3516
g302
(g1584
g304
Ntp3517
Rp3518
(dp3519
g1588
g1596
sg1589
g1947
sg328
S'c:/marmalade/7.2/s3e/h/EGL/eglplatform.h'
p3520
sbsS'cmath'
p3521
g302
(g1584
g304
Ntp3522
Rp3523
(dp3524
g1588
g1596
sg1589
g1597
sg328
S'c:/marmalade/7.2/s3e/h/std/c++/cmath'
p3525
sbsS'math_gcc.h'
p3526
g302
(g1584
g304
Ntp3527
Rp3528
(dp3529
g1588
g1596
sg1589
g1618
sg328
S'c:/marmalade/7.2/s3e/h/std/math_gcc.h'
p3530
sbsS's3eMemory.h'
p3531
g302
(g1584
g304
Ntp3532
Rp3533
(dp3534
g1588
g1596
sg1589
g1612
sg328
S'c:/marmalade/7.2/s3e/h/s3eMemory.h'
p3535
sbsS'strings.h'
p3536
g302
(g1584
g304
Ntp3537
Rp3538
(dp3539
g1588
g1596
sg1589
g1618
sg328
S'c:/marmalade/7.2/s3e/h/std/strings.h'
p3540
sbsS's3eFile.h'
p3541
g302
(g1584
g304
Ntp3542
Rp3543
(dp3544
g1588
g1596
sg1589
g1612
sg328
S'c:/marmalade/7.2/s3e/h/s3eFile.h'
p3545
sbsS'IwGxTypes.h'
p3546
g302
(g1584
g304
Ntp3547
Rp3548
(dp3549
g1588
g1396
sg1589
g1726
sg328
g1442
sbsS'cerrno'
p3550
g302
(g1584
g304
Ntp3551
Rp3552
(dp3553
g1588
g1596
sg1589
g1597
sg328
S'c:/marmalade/7.2/s3e/h/std/c++/cerrno'
p3554
sbsS'IwSoundManager.cpp'
p3555
g302
(g1584
g304
Ntp3556
Rp3557
(dp3558
g1588
g1096
sg1589
g1636
sg328
g1135
sbsS'main.h'
p3559
g302
(g1584
g304
Ntp3560
Rp3561
(dp3562
g1588
g1148
sg1589
g1736
sg328
g1167
sbsS'soundengine.mkf'
p3563
g302
(g1584
g304
Ntp3564
Rp3565
(dp3566
g1588
g1139
sg1589
g1636
sg328
g1137
sbsS'resource.h'
p3567
g302
(g1584
g304
Ntp3568
Rp3569
(dp3570
g1588
g1596
sg1589
g1745
sg328
S'c:/marmalade/7.2/s3e/h/std/sys/resource.h'
p3571
sbsS'clocale'
p3572
g302
(g1584
g304
Ntp3573
Rp3574
(dp3575
g1588
g1596
sg1589
g1597
sg328
S'c:/marmalade/7.2/s3e/h/std/c++/clocale'
p3576
sbsS'csetjmp'
p3577
g302
(g1584
g304
Ntp3578
Rp3579
(dp3580
g1588
g1596
sg1589
g1597
sg328
S'c:/marmalade/7.2/s3e/h/std/c++/csetjmp'
p3581
sbsS'netdb.h'
p3582
g302
(g1584
g304
Ntp3583
Rp3584
(dp3585
g1588
g1596
sg1589
g1618
sg328
S'c:/marmalade/7.2/s3e/h/std/netdb.h'
p3586
sbsS's3eAndroidJNI.h'
p3587
g302
(g1584
g304
Ntp3588
Rp3589
(dp3590
g1588
g1596
sg1589
g1823
sg328
S'c:/marmalade/7.2/s3e/h/ext/s3eAndroidJNI.h'
p3591
sbsS'stdexcept'
p3592
g302
(g1584
g304
Ntp3593
Rp3594
(dp3595
g1588
g1596
sg1589
g1597
sg328
S'c:/marmalade/7.2/s3e/h/std/c++/stdexcept'
p3596
sbsS'math.h'
p3597
g302
(g1584
g304
Ntp3598
Rp3599
(dp3600
g1588
g1596
sg1589
g1618
sg328
S'c:/marmalade/7.2/s3e/h/std/math.h'
p3601
sbsS'stdbool.h'
p3602
g302
(g1584
g304
Ntp3603
Rp3604
(dp3605
g1588
g1596
sg1589
g1618
sg328
S'c:/marmalade/7.2/s3e/h/std/stdbool.h'
p3606
sbsS'uio.h'
p3607
g302
(g1584
g304
Ntp3608
Rp3609
(dp3610
g1588
g1596
sg1589
g1745
sg328
S'c:/marmalade/7.2/s3e/h/std/sys/uio.h'
p3611
sbsS'IwUncopyable.h'
p3612
g302
(g1584
g304
Ntp3613
Rp3614
(dp3615
g1588
g1460
sg1589
g1625
sg328
g1505
sbsS's3efacebook.mkf'
p3616
g302
(g1584
g304
Ntp3617
Rp3618
(dp3619
g1588
g1225
sg1589
(lp3620
g1195
ag1211
asg328
g1223
sbssS'juice_build_type'
p3621
g4
sS'tests'
p3622
(lp3623
sS'project_name'
p3624
g310
sS'root_file'
p3625
g119
sS'current_root'
p3626
S'c:/Users/Vinicius/Desktop/Yes or No/Hoppe'
p3627
sS'dependencies'
p3628
(lp3629
sS'include_paths'
p3630
(lp3631
S'c:/marmalade/7.2/extensions/s3ewebview/h'
p3632
aS'c:/marmalade/7.2/modules/iwutil/h'
p3633
aS'c:/marmalade/7.2/modules/third_party/libjpeg/h'
p3634
aS'c:/marmalade/7.2/modules/third_party/zlib/h'
p3635
aS'c:/marmalade/7.2/modules/third_party/libpng/h'
p3636
aS'c:/marmalade/7.2/extensions/s3efacebook/h'
p3637
aS'c:/marmalade/7.2/modules/iw2d/h'
p3638
aS'c:/marmalade/7.2/modules/iwgx/h'
p3639
aS'c:/marmalade/7.2/modules/iwgl/h'
p3640
aS'c:/marmalade/7.2/modules/iwgeom/h'
p3641
aS'c:/marmalade/7.2/modules/iwresmanager/h'
p3642
aS'c:/marmalade/7.2/modules/iwgxfont/h'
p3643
aS'c:/marmalade/7.2/modules/third_party/tiniconv/source'
p3644
aS'c:/marmalade/7.2/modules/iw2dscenegraph/h'
p3645
aS'c:/marmalade/7.2/modules/iw2dscenegraphcore/h'
p3646
aS'c:/marmalade/7.2/modules/iwtween/h'
p3647
aS'c:/users/vinicius/desktop/yes or no/hoppe/modules/soundengine/h'
p3648
aS'c:/users/vinicius/desktop/yes or no/hoppe/modules/soundengine/source'
p3649
aS'c:/marmalade/7.2/extensions/s3eflurry/h'
p3650
aS'c:/marmalade/7.2/s3e/h'
p3651
aS'c:/marmalade/7.2/s3e/h/ext'
p3652
aS'c:/marmalade/7.2/s3e/h/std'
p3653
aS'c:/marmalade/7.2/s3e/h/std/c++'
p3654
aS'c:/marmalade/7.2/s3e/h/ext_legacy'
p3655
aS'c:/marmalade/7.2/s3e/h/legacy'
p3656
asS'weak_frameworks'
p3657
(lp3658
sS'extprojects'
p3659
(dp3660
sg605
(dp3661
g599
(lp3662
(S'c:/marmalade/7.2/extensions/s3ewebview/s3eWebView.js'
p3663
S's3eWebView.js'
p3664
I0
tp3665
a(S'c:/marmalade/7.2/extensions/s3efacebook/source/iphone/facebook-ios-sdk/FacebookSDK.framework/Versions/A/Resources/FacebookSDKResources.bundle/FBDialog/images/fbicon.png'
p3666
S'FacebookSDKResources.bundle/FBDialog/images/fbicon.png'
p3667
I0
tp3668
a(S'c:/marmalade/7.2/extensions/s3efacebook/source/iphone/facebook-ios-sdk/FacebookSDK.framework/Versions/A/Resources/FacebookSDKResources.bundle/FBDialog/images/close.png'
p3669
S'FacebookSDKResources.bundle/FBDialog/images/close.png'
p3670
I0
tp3671
a(S'c:/marmalade/7.2/extensions/s3efacebook/source/iphone/facebook-ios-sdk/FacebookSDK.framework/Versions/A/Resources/FacebookSDKResources.bundle/FBDialog/images/close@2x.png'
p3672
S'FacebookSDKResources.bundle/FBDialog/images/close@2x.png'
p3673
I0
tp3674
a(S'c:/marmalade/7.2/extensions/s3efacebook/facebook-winclient-sdk-master/Source/Facebook.Client-WindowsStore/FacebookDialogPage.xaml'
p3675
S'FacebookDialogPage.xaml'
p3676
I0
tp3677
a(S'c:/Users/Vinicius/Desktop/Yes or No/Hoppe/data/audio'
p3678
S'audio'
p3679
I0
tp3680
a(S'c:/Users/Vinicius/Desktop/Yes or No/Hoppe/data/textures'
p3681
S'textures'
p3682
I0
tp3683
a(S'c:/Users/Vinicius/Desktop/Yes or No/Hoppe/data-ram/data-gles1,c:/Users/Vinicius/Desktop/Yes or No/Hoppe/data'
p3684
S'.'
p3685
I0
tp3686
asS'WebView32Assets'
p3687
(lp3688
(S'c:/marmalade/7.2/extensions/s3ewebview/lib/win32/locales'
p3689
S'locales'
p3690
I0
tp3691
a(S'c:/marmalade/7.2/extensions/s3ewebview/lib/win32/avcodec-53.dll'
p3692
S'avcodec-53.dll'
p3693
I0
tp3694
a(S'c:/marmalade/7.2/extensions/s3ewebview/lib/win32/avformat-53.dll'
p3695
S'avformat-53.dll'
p3696
I0
tp3697
a(S'c:/marmalade/7.2/extensions/s3ewebview/lib/win32/avutil-51.dll'
p3698
S'avutil-51.dll'
p3699
I0
tp3700
a(S'c:/marmalade/7.2/extensions/s3ewebview/lib/win32/chrome.pak'
p3701
S'chrome.pak'
p3702
I0
tp3703
a(S'c:/marmalade/7.2/extensions/s3ewebview/lib/win32/d3dcompiler_43.dll'
p3704
S'd3dcompiler_43.dll'
p3705
I0
tp3706
a(S'c:/marmalade/7.2/extensions/s3ewebview/lib/win32/d3dx9_43.dll'
p3707
S'd3dx9_43.dll'
p3708
I0
tp3709
a(S'c:/marmalade/7.2/extensions/s3ewebview/lib/win32/icudt.dll'
p3710
S'icudt.dll'
p3711
I0
tp3712
a(S'c:/marmalade/7.2/extensions/s3ewebview/lib/win32/libcef.dll'
p3713
S'libcef.dll'
p3714
I0
tp3715
a(S'c:/marmalade/7.2/extensions/s3ewebview/lib/win32/libEGL.dll'
p3716
S'libEGL.dll'
p3717
I0
tp3718
a(S'c:/marmalade/7.2/extensions/s3ewebview/lib/win32/libGLESv2.dll'
p3719
S'libGLESv2.dll'
p3720
I0
tp3721
assS'macro_types'
p3722
(dp3723
g528
I0
sg530
I0
sg531
I0
sg532
I0
sg534
I1
sg535
I0
sg536
I0
sg537
I0
sg538
I0
sg539
I0
sg540
I0
sg541
I0
sg543
I0
sg544
I0
sg545
I0
sg546
I0
sg547
I0
sg549
I0
sg550
I0
sg551
I0
sg552
I0
sg553
I0
sg554
I0
sg555
I0
sg556
I0
sg557
I1
sg558
I0
sg559
I0
sg560
I0
sg561
I0
sg562
I0
sg563
I0
sg564
I0
sg565
I01
sg566
I1
sg567
I0
sg568
I0
sg569
I0
sg570
I0
sg571
I0
sg572
I0
sg573
I0
sg574
I0
ssS'commands'
p3724
(lp3725
sg607
(g1028
S'VC12X'
p3726
S'X86ARM'
p3727
tp3728
sS'build_libs'
p3729
(dp3730
sg609
g0
sS'frameworks'
p3731
(lp3732
sS'environ'
p3733
(dp3734
sS'target_name_debug'
p3735
g310
sS'builders'
p3736
(dp3737
g599
(dp3738
S'.S'
p3739
(dp3740
S'rvct'
p3741
(lp3742
S'.obj'
p3743
aS'echo ARM Assembling(RVCT) ${SOURCE}...'
p3744
aS'c:/marmalade/7.2/s3e\\rvct\\bin\\armasm -o ${TARGET} ${SOURCE}'
p3745
asS'gcc'
p3746
(lp3747
g3743
aS'echo ARM Assembling(GCC) ${SOURCE}...'
p3748
aS'c:/marmalade/7.2/s3e\\gcc\\bin\\arm-none-eabi-gcc -c -o ${TARGET} ${SOURCE}'
p3749
asS'ppu'
p3750
(lp3751
S'.a'
p3752
aS'echo PPU Assembling(SNC) ${SOURCE}...'
p3753
aS'c:/marmalade/7.2/s3e\\rvct\\bin\\armasm -o ${TARGET} ${SOURCE}'
p3754
assS'.s'
p3755
g3740
sS'.vp'
p3756
(lp3757
NaS'"C:/Marmalade/7.2/s3e/python/python.exe" "c:/marmalade/7.2/modules/iwgx/tools/compile_shaders.py" ${SOURCE}'
p3758
asssS'extproject_names'
p3759
(lp3760
sbtp3761
.