((dp0
S'arm_dbg_args'
p1
S'-via:"c:\\Users\\Vinicius\\Desktop\\Yes or No\\Hoppe\\build_hoppe_vc12x\\Hoppe_vc12x_arm_debug.via" -qemu'
p2
sS'game-icf'
p3
S''
p4
sS'dist'
p5
NsS'csproj'
p6
g4
sS'module_path_append'
p7
NsS'global_path'
p8
S'c:\\users\\vinicius\\desktop\\yes or no'
p9
sS'system_path'
p10
S'c:\\marmalade\\7.2\\s3e\\makefile_builder'
p11
sS'android_x86_dbg_args'
p12
S'../../tools/DeployTool/DeployTool.exe --dir "c:\\Users\\Vinicius\\Desktop\\Yes or No\\Hoppe\\build_hoppe_vc12x"'
p13
sS'use_prebuilt'
p14
NsS'arm_rel_rtsm_args'
p15
S'-via:"c:\\Users\\Vinicius\\Desktop\\Yes or No\\Hoppe\\build_hoppe_vc12x\\Hoppe_vc12x_arm_release.via" -qemu'
p16
sS'amd64'
p17
NsS'line-width'
p18
I80
sS'gcc_dbg_args'
p19
S'-via:"c:\\Users\\Vinicius\\Desktop\\Yes or No\\Hoppe\\build_hoppe_vc12x\\Hoppe_vc12x_gcc_debug.via" -qemu'
p20
sS'android-x86'
p21
NsS'x86_dbg_exe'
p22
S'c:/marmalade/7.2/s3e\\win32\\s3e_simulator_debug.exe'
p23
sS'disable-runtime-checks'
p24
NsS'release'
p25
NsS'no-make'
p26
NsS'optimise-size'
p27
NsS'output-name-debug'
p28
g4
sS'arm-fpu'
p29
S'vfp'
p30
sS'proj_name'
p31
S'Hoppe_vc12x'
p32
sS'rvct-version'
p33
S'none'
p34
sS'compiler'
p35
g4
sS'execute'
p36
NsS'compile-static'
p37
NsS'msvc-project'
p38
NsS'buildenv'
p39
S'VC12X'
p40
sS'quick'
p41
NsS'module_path'
p42
(lp43
S'c:/Users/Vinicius/Desktop/Yes or No/Hoppe/modules'
p44
asS'use-release-std-libs'
p45
NsS'using_perforce'
p46
I00
sS'tizen-x86'
p47
NsS'mips-s3e'
p48
NsS'ios-no-pic'
p49
NsS'shared-arm-lib'
p50
NsS'arm-cpu'
p51
g4
sS'compile-thumb'
p52
NsS'no-ide'
p53
NsS'msvc-version'
p54
S'6.0'
p55
sS'arm'
p56
NsS'builddir'
p57
g4
sS'compile-debug-as-release'
p58
I0
sS'brief'
p59
NsS'dll'
p60
NsS'buildenv-toolset'
p61
g4
sS'version'
p62
NsS'ccache'
p63
I0
sS'offline'
p64
NsS'ios-version'
p65
g4
sS'hub_data'
p66
g4
sS'fake_vc_call'
p67
I01
sS'jobs'
p68
I0
sS'linkflags'
p69
NsS'tizen-x86-toolsroot'
p70
S'c:/marmalade/7.2/s3e\\..\\tools\\gcc\\x86\\tizen_windows'
p71
sS'debug'
p72
NsS'xcode-build-order'
p73
g4
sS'gcc_rel_rtsm_args'
p74
S'-via:"c:\\Users\\Vinicius\\Desktop\\Yes or No\\Hoppe\\build_hoppe_vc12x\\Hoppe_vc12x_gcc_release.via" -qemu'
p75
sS'done_defaults'
p76
I1
sS'path'
p77
NsS's3e-data-dir'
p78
S'c:/Users/Vinicius/Desktop/Yes or No/Hoppe\\data'
p79
sS'enable-exceptions'
p80
NsS'osx-dll'
p81
NsS'extension'
p82
g4
sS'no-vc6'
p83
NsS'non-interactive'
p84
NsS'win32-console'
p85
NsS'dist-format'
p86
g4
sS's3e-force-arch'
p87
NsS'dump_defines'
p88
NsS'verbose'
p89
I0
sS'gcc-version'
p90
g4
sS'x86_dbg_args'
p91
S'-via:"c:\\Users\\Vinicius\\Desktop\\Yes or No\\Hoppe\\build_hoppe_vc12x\\Hoppe_vc12x_debug.via"'
p92
sS'tizen_x86_dbg_args'
p93
g13
sS'arm-debugger'
p94
g4
sS'use_temp_extension'
p95
NsS'log'
p96
NsS'no-strip'
p97
NsS'rebuild'
p98
NsS'win32-simulator-dll'
p99
NsS'strict'
p100
NsS'mips_dbg_args'
p101
g13
sS'enable-global-path'
p102
NsS'cflags'
p103
NsS'dist-dir'
p104
g4
sS'jflags'
p105
NsS'csprojSDKRefs'
p106
g4
sS'tizen_x86_rel_exe'
p107
S'c:\\marmalade\\7.2\\s3e\\makefile_builder\\tool_launcher.exe'
p108
sS'test-assets'
p109
g4
sS'distcc'
p110
NsS'external-compiler'
p111
NsS'no-distcc'
p112
NsS'preinclude'
p113
NsS'using_sdk'
p114
I01
sS'nologo'
p115
NsS'warn-level'
p116
I2
sS'mips_dbg_exe'
p117
g108
sS'mkb_in'
p118
S'c:/Users/Vinicius/Desktop/Yes or No/Hoppe/Hoppe.mkb'
p119
sS'tizen_x86_dbg_exe'
p120
g108
sS'arm_dbg_exe'
p121
S'c:/marmalade/7.2/s3e\\bin\\armdebug.exe'
p122
sS'csprojDLLRef'
p123
NsS'tizen_x86_rel_args'
p124
g13
sS'android_x86_dbg_exe'
p125
g108
sS'test-config'
p126
g4
sS'list-targets'
p127
NsS'arm_rel_exe'
p128
g108
sS'arm_rel_args'
p129
g13
sS'makedeps'
p130
NsS'android_x86_rel_exe'
p131
g108
sS'default-buildenv'
p132
S'VC12X'
p133
sS'x86_rel_exe'
p134
g23
sS'preprocess-java'
p135
NsS'mips_rel_args'
p136
g13
sS'defines'
p137
NsS'lib'
p138
NsS'global_argv'
p139
(lp140
S'C:\\Marmalade\\7.2\\s3e\\makefile_builder\\mkb.py'
p141
aS'C:/Users/Vinicius/Desktop/Yes or No/Hoppe/Hoppe.mkb'
p142
aS'--buildenv=VC12X'
p143
aS'--fake-vc-call'
p144
asS'make'
p145
NsS'optimise-speed'
p146
NsS'internal'
p147
NsS'enable-stdinc'
p148
NsS'deploy-only'
p149
NsS'x86'
p150
NsS'deploy'
p151
g4
sS'x86_run_exe'
p152
S'c:/marmalade/7.2/s3e\\win32\\s3e_console.exe'
p153
sS'x86_rel_args'
p154
S'-via:"c:\\Users\\Vinicius\\Desktop\\Yes or No\\Hoppe\\build_hoppe_vc12x\\Hoppe_vc12x_release.via"'
p155
sS'gcc_rel_args'
p156
g13
sS'mips'
p157
NsS'xcode-build-settings'
p158
g4
sS'incredibuild'
p159
NsS'strict-compile'
p160
NsS'use-auto-subdirs'
p161
NsS'mips_rel_exe'
p162
g108
sS'android_x86_rel_args'
p163
g13
sS'app-icf'
p164
g4
sS'deployargs'
p165
NsS'iosnativedebug'
p166
NsS'mkf_in'
p167
(lp168
S'c:\\marmalade\\7.2\\extensions\\s3ewebview\\s3ewebview.mkf'
p169
aS'c:\\marmalade\\7.2\\modules\\iwutil\\iwutil.mkf'
p170
aS'c:\\marmalade\\7.2\\modules\\third_party\\libjpeg\\libjpeg.mkf'
p171
aS'c:\\marmalade\\7.2\\modules\\third_party\\libpng\\libpng.mkf'
p172
aS'c:\\marmalade\\7.2\\modules\\third_party\\zlib\\zlib.mkf'
p173
aS'c:\\marmalade\\7.2\\extensions\\s3efacebook\\s3efacebook.mkf'
p174
aS'c:\\marmalade\\7.2\\modules\\iw2d\\iw2d.mkf'
p175
aS'c:\\marmalade\\7.2\\modules\\iwgx\\iwgx.mkf'
p176
aS'c:\\marmalade\\7.2\\modules\\iwgl\\iwgl.mkf'
p177
aS'c:\\marmalade\\7.2\\modules\\iwgeom\\iwgeom.mkf'
p178
aS'c:\\marmalade\\7.2\\modules\\iwresmanager\\iwresmanager.mkf'
p179
aS'c:\\marmalade\\7.2\\modules\\iwgxfont\\iwgxfont.mkf'
p180
aS'c:\\marmalade\\7.2\\modules\\third_party\\tiniconv\\tiniconv.mkf'
p181
aS'c:\\marmalade\\7.2\\modules\\iw2dscenegraph\\iw2dscenegraph.mkf'
p182
aS'c:\\marmalade\\7.2\\modules\\iw2dscenegraphcore\\iw2dscenegraphcore.mkf'
p183
aS'c:\\marmalade\\7.2\\modules\\iwtween\\iwtween.mkf'
p184
aS'c:\\users\\vinicius\\desktop\\yes or no\\hoppe\\modules\\soundengine\\soundengine.mkf'
p185
aS'c:\\marmalade\\7.2\\extensions\\s3eflurry\\s3eflurry.mkf'
p186
asS'strict-mkb'
p187
NsS'executeargs'
p188
NsS'clean'
p189
NsS'no-asm'
p190
NsS'output-name'
p191
g4
sS'no-modules'
p192
NsS'find_define'
p193
g4
s(dp194
S'c:\\marmalade\\7.2\\s3e\\makefile_builder\\templates\\ws8_sln.pyc'
p195
F1396656910.0
sS'c:\\marmalade\\7.2\\s3e\\makefile_builder\\plugins\\java.pyc'
p196
F1396656908.0
sS'c:\\marmalade\\7.2\\s3e\\makefile_builder\\plugins\\S3EEmitter.pyc'
p197
F1396656908.0
sS'c:\\marmalade\\7.2\\s3e\\makefile_builder\\templates\\win32_vcxproj_filters.pyc'
p198
F1396656910.0
sS'c:\\marmalade\\7.2\\s3e\\makefile_builder\\plugins\\xcode4_schememanagement.py'
p199
F1396655700.0
sS'c:\\marmalade\\7.2\\s3e\\makefile_builder\\plugins\\linux_scons.pyc'
p200
F1396656910.0
sS'c:\\marmalade\\7.2\\s3e\\makefile_builder\\templates\\wp8_sln.pyc'
p201
F1396656910.0
sS'c:\\marmalade\\7.2\\s3e\\makefile_builder\\templates\\ws8_ext_sln.pyc'
p202
F1396656910.0
sS'c:\\marmalade\\7.2\\s3e\\makefile_builder\\templates\\MainWindow.xib'
p203
F1396655700.0
sS'c:\\marmalade\\7.2\\s3e\\makefile_builder\\templates\\ws81_ext_sln.pyc'
p204
F1396656910.0
sS'c:\\marmalade\\7.2\\s3e\\makefile_builder\\plugins\\Win8Emitter.pyc'
p205
F1396656910.0
sS'c:\\marmalade\\7.2\\s3e\\makefile_builder\\templates\\win8_ext_csproj.pyc'
p206
F1396656910.0
sS'c:\\marmalade\\7.2\\s3e\\makefile_builder\\templates\\rvct_linker_script'
p207
F1396655702.0
sS'c:\\marmalade\\7.2\\s3e\\makefile_builder\\templates\\win8_sln.pyc'
p208
F1396656910.0
sS'c:\\marmalade\\7.2\\s3e\\makefile_builder\\templates\\ws8_ext_csproj.pyc'
p209
F1396656910.0
sS'c:\\marmalade\\7.2\\s3e\\makefile_builder\\plugins\\s3e_make.pyc'
p210
F1396656908.0
sS'c:\\marmalade\\7.2\\s3e\\makefile_builder\\templates\\wp8_csproj_user.pyc'
p211
F1396656910.0
sS'c:\\marmalade\\7.2\\s3e\\makefile_builder\\plugins\\s3e_scons.pyc'
p212
F1396656908.0
sS'c:\\marmalade\\7.2\\s3e\\makefile_builder\\plugins\\s3e_qmake.py'
p213
F1396655700.0
sS'c:\\marmalade\\7.2\\s3e\\makefile_builder\\docs\\deprecated.options.txt'
p214
F1396655698.0
sS'c:\\marmalade\\7.2\\s3e\\makefile_builder\\plugins\\ws8_ws8.pyc'
p215
F1396656910.0
sS'c:\\marmalade\\7.2\\s3e\\makefile_builder\\templates\\ws81_sln.pyc'
p216
F1396656910.0
sS'c:\\marmalade\\7.2\\s3e\\makefile_builder\\templates\\ws81_ext_csproj.pyc'
p217
F1396656910.0
sS'c:\\marmalade\\7.2\\s3e\\makefile_builder\\templates\\wp8_vcxproj.pyc'
p218
F1396656910.0
sS'c:\\marmalade\\7.2\\s3e\\makefile_builder\\templates\\vc6_opt.pyc'
p219
F1396656910.0
sS'c:\\marmalade\\7.2\\s3e\\makefile_builder\\plugins\\deploy.pyc'
p220
F1396656908.0
sS'c:\\marmalade\\7.2\\s3e\\makefile_builder\\templates\\scons.pyc'
p221
F1396656910.0
sS'c:\\marmalade\\7.2\\s3e\\makefile_builder\\templates\\win32_vcproj.pyc'
p222
F1396656910.0
sS'c:\\marmalade\\7.2\\s3e\\makefile_builder\\templates\\win8_csproj.pyc'
p223
F1396656910.0
sS'c:\\marmalade\\7.2\\s3e\\makefile_builder\\extensions\\make_dist.py'
p224
F1396655698.0
sS'c:\\marmalade\\7.2\\s3e\\makefile_builder\\templates\\gdb_start.txt'
p225
F1396655702.0
sS'c:\\marmalade\\7.2\\s3e\\makefile_builder\\templates\\vc8_user.pyc'
p226
F1396656910.0
sS'c:\\marmalade\\7.2\\s3e\\makefile_builder\\plugins\\s3e_win8.pyc'
p227
F1396656910.0
sS'c:\\marmalade\\7.2\\s3e\\makefile_builder\\templates\\win32_sln.pyc'
p228
F1396656910.0
sS'c:\\marmalade\\7.2\\s3e\\makefile_builder\\docs\\options.txt'
p229
F1396655698.0
sS'c:\\marmalade\\7.2\\s3e\\makefile_builder\\mkb.py'
p230
F1396655698.0
sS'c:\\marmalade\\7.2\\s3e\\makefile_builder\\templates\\Info.plist'
p231
F1396655700.0
sS'c:\\marmalade\\7.2\\s3e\\makefile_builder\\docs\\parse_options.pyc'
p232
F1396656912.0
sS'c:\\marmalade\\7.2\\s3e\\makefile_builder\\templates\\ws8_csproj.pyc'
p233
F1396656910.0
sS'c:\\marmalade\\7.2\\s3e\\makefile_builder\\templates\\ws81_csproj.pyc'
p234
F1396656910.0
sS'c:\\marmalade\\7.2\\s3e\\makefile_builder\\plugins\\osx_xcode.pyc'
p235
F1396656910.0
sS'c:\\marmalade\\7.2\\s3e\\makefile_builder\\plugins\\s3e_xcode.pyc'
p236
F1397674110.1375155
sS'c:\\marmalade\\7.2\\s3e\\makefile_builder\\plugins\\xcode4_schememanagement.pyc'
p237
F1397674109.1068296
sS'c:\\marmalade\\7.2\\s3e\\makefile_builder\\templates\\xcode4.xcscheme'
p238
F1396655704.0
sS'c:\\marmalade\\7.2\\s3e\\makefile_builder\\plugins\\Emitter.pyc'
p239
F1396656908.0
sS'c:\\marmalade\\7.2\\s3e\\makefile_builder\\templates\\mips_linker_script'
p240
F1396655702.0
sS'c:\\marmalade\\7.2\\s3e\\makefile_builder\\templates\\ws8_vcxproj.pyc'
p241
F1396656910.0
sS'c:\\marmalade\\7.2\\s3e\\makefile_builder\\plugins\\win32_vc6.pyc'
p242
F1396656910.0
sS'c:\\marmalade\\7.2\\s3e\\makefile_builder\\mkb_parser.pyc'
p243
F1396656908.0
sS'c:\\marmalade\\7.2\\s3e\\makefile_builder\\templates\\ws81_csproj_user.pyc'
p244
F1396656910.0
sS'c:\\marmalade\\7.2\\s3e\\makefile_builder\\templates\\linker_script'
p245
F1396655702.0
sS'c:\\marmalade\\7.2\\s3e\\makefile_builder\\docs\\deprecated.defines.txt'
p246
F1396655698.0
sS'c:\\marmalade\\7.2\\s3e\\makefile_builder\\templates\\template.suo'
p247
F1396655702.0
sS'c:\\marmalade\\7.2\\s3e\\makefile_builder\\templates\\make.py'
p248
F1396655702.0
sS'c:\\marmalade\\7.2\\s3e\\makefile_builder\\extensions'
p249
F1397673792.7230873
sS'c:\\marmalade\\7.2\\s3e\\makefile_builder\\templates\\win32_dsp.pyc'
p250
F1396656910.0
sS'c:\\marmalade\\7.2\\s3e\\makefile_builder\\templates\\wp8_ext_csproj.pyc'
p251
F1396656910.0
sS'c:\\marmalade\\7.2\\s3e\\makefile_builder\\plugins\\MakeEmitter.pyc'
p252
F1396656908.0
sS'c:\\marmalade\\7.2\\s3e\\makefile_builder\\plugins\\XcodeEmitter.pyc'
p253
F1397674109.0167696
sS'c:\\marmalade\\7.2\\s3e\\makefile_builder\\templates\\win32_dsw.pyc'
p254
F1396656910.0
sS'c:\\marmalade\\7.2\\s3e\\makefile_builder\\docs\\mkb.defines.txt'
p255
F1396655698.0
sS'c:\\marmalade\\7.2\\s3e\\makefile_builder\\docs\\deployment_options.txt'
p256
F1396655698.0
sS'c:\\marmalade\\7.2\\s3e\\makefile_builder\\plugins\\s3e_qmake.pyc'
p257
F1397674109.7792768
sS'c:\\marmalade\\7.2\\s3e\\makefile_builder\\plugins\\ws81_ws81.pyc'
p258
F1396656910.0
sS'c:\\marmalade\\7.2\\s3e\\makefile_builder\\templates\\win32_vcxproj.pyc'
p259
F1396656910.0
sS'c:\\marmalade\\7.2\\s3e\\makefile_builder\\docs'
p260
F1397673793.1573761
sS'c:\\marmalade\\7.2\\s3e\\makefile_builder\\plugins\\XcodeEmitter.py'
p261
F1396655698.0
sS'c:\\marmalade\\7.2\\s3e\\makefile_builder\\templates\\template.opt'
p262
F1396655702.0
sS'c:\\marmalade\\7.2\\s3e\\makefile_builder\\tool_launcher.exe'
p263
F1396656088.0
sS'c:\\marmalade\\7.2\\s3e\\makefile_builder\\templates\\xcode.py'
p264
F1396655702.0
sS'c:\\marmalade\\7.2\\s3e\\makefile_builder\\plugins\\VisualStudioEmitter.pyc'
p265
F1396656908.0
sS'c:\\marmalade\\7.2\\s3e\\makefile_builder\\plugins\\osx_scons.pyc'
p266
F1396656910.0
sS'c:\\marmalade\\7.2\\s3e\\makefile_builder\\templates'
p267
F1397673792.65204
sS'c:\\marmalade\\7.2\\s3e\\makefile_builder\\templates\\ws81_vcxproj.pyc'
p268
F1396656910.0
sS'c:\\marmalade\\7.2\\s3e\\makefile_builder\\templates\\win8_vcxproj.pyc'
p269
F1396656910.0
sS'c:\\marmalade\\7.2\\s3e\\makefile_builder\\plugins\\s3e_ws8.pyc'
p270
F1396656910.0
sS'c:\\marmalade\\7.2\\s3e\\makefile_builder\\templates\\wp8_csproj.pyc'
p271
F1396656910.0
sS'c:\\marmalade\\7.2\\s3e\\makefile_builder\\templates\\vc7_suo.pyc'
p272
F1396656910.0
sS'c:\\marmalade\\7.2\\s3e\\makefile_builder\\plugins\\SConsEmitter.pyc'
p273
F1396656908.0
sS'c:\\marmalade\\7.2\\s3e\\makefile_builder\\mkb_option.pyc'
p274
F1396656908.0
sS'c:\\marmalade\\7.2\\s3e\\makefile_builder\\templates\\ws8_csproj_user.pyc'
p275
F1396656910.0
sS'c:\\marmalade\\7.2\\s3e\\makefile_builder\\mkb_main.pyc'
p276
F1396656908.0
sS'c:\\marmalade\\7.2\\s3e\\makefile_builder\\plugins'
p277
F1397674110.1315114
sS'c:\\marmalade\\7.2\\s3e\\makefile_builder\\plugins\\s3e_web.pyc'
p278
F1396656908.0
sS'c:\\marmalade\\7.2\\s3e\\makefile_builder\\plugins\\s3e_ws81.pyc'
p279
F1396656910.0
sS'c:\\marmalade\\7.2\\s3e\\makefile_builder\\mkb_globals.pyc'
p280
F1396656908.0
sS'c:\\marmalade\\7.2\\s3e\\makefile_builder\\plugins\\iphone.pyc'
p281
F1396656910.0
sS'c:\\marmalade\\7.2\\s3e\\makefile_builder\\mkb_launcher.exe'
p282
F1396656088.0
sS'c:\\marmalade\\7.2\\s3e\\makefile_builder\\plugins\\vc7_utils.pyc'
p283
F1396656908.0
sS'c:\\marmalade\\7.2\\s3e\\makefile_builder\\plugins\\s3e_wp8.pyc'
p284
F1396656910.0
sS'c:\\marmalade\\7.2\\s3e\\makefile_builder\\plugins\\vc6_utils.pyc'
p285
F1396656908.0
sS'c:\\marmalade\\7.2\\s3e\\makefile_builder\\deployment.pyc'
p286
F1396656908.0
sS'c:\\marmalade\\7.2\\s3e\\makefile_builder\\plugins\\s3e_vc6.pyc'
p287
F1396656908.0
sS'c:\\marmalade\\7.2\\s3e\\makefile_builder\\plugins\\null.pyc'
p288
F1396656908.0
sS'c:\\marmalade\\7.2\\s3e\\makefile_builder\\templates\\qmake.py'
p289
F1396655702.0
sS'c:\\marmalade\\7.2\\s3e\\makefile_builder\\templates\\xcode4_DeployTool.xcscheme'
p290
F1396655704.0
sS'c:\\marmalade\\7.2\\s3e\\makefile_builder\\templates\\win8_csproj_user.pyc'
p291
F1396656910.0
sS'c:\\marmalade\\7.2\\s3e\\makefile_builder\\plugins\\win8_utils.pyc'
p292
F1396656908.0
sS'c:\\marmalade\\7.2\\s3e\\makefile_builder\\mkb_util.pyc'
p293
F1396656908.0
sS'c:\\marmalade\\7.2\\s3e\\makefile_builder\\plugins\\wp8_wp8.pyc'
p294
F1396656910.0
sS'c:\\marmalade\\7.2\\s3e\\makefile_builder\\plugins\\s3e_xcode.py'
p295
F1396655700.0
sS'c:\\marmalade\\7.2\\s3e\\makefile_builder\\templates\\vc10_user.pyc'
p296
F1396656910.0
sS'c:\\marmalade\\7.2\\s3e\\makefile_builder\\templates\\qmake_user.py'
p297
F1396655702.0
sS'c:\\marmalade\\7.2\\s3e\\makefile_builder\\templates\\xcode_pbxuser.py'
p298
F1396655704.0
sccopy_reg
_reconstructor
p299
(cmkb_main
MkbFile
p300
c__builtin__
object
p301
Ntp302
Rp303
(dp304
g5
(lp305
sS'target_name'
p306
S'Hoppe'
p307
sS'current_file'
p308
g119
sS'package_path'
p309
(lp310
sS'post_build'
p311
(lp312
(lp313
S'c:/marmalade/7.2/s3e/tools'
p314
aS'C:\\Marmalade\\7.2\\s3e\\python\\python.exe .\\process_map.py "$(TargetPath)"'
p315
aa(S'c:\\marmalade\\7.2\\s3e\\bin'
p316
S'"s3e_plink" -l "$(TargetPath)" '
p317
g150
tp318
asS'librarys'
p319
(lp320
g299
(cmkb_main
Library
p321
g301
Ntp322
Rp323
(dp324
S'name'
p325
S'vc6_compat.lib'
p326
sS'expand_name'
p327
I00
sS'include_spec_rvct_objs'
p328
(lp329
sS'include_all_objs'
p330
I00
sS'share_arm'
p331
I00
sS'arch'
p332
S'x86'
p333
sS'nodebug'
p334
I00
sg35
Nsbag299
(g321
g301
Ntp335
Rp336
(dp337
g325
S'iwutil'
p338
sg327
I01
sg328
(lp339
sg330
Nsg331
Nsg332
Nsg334
I00
sg35
Nsbag299
(g321
g301
Ntp340
Rp341
(dp342
g325
S'jpeg'
p343
sg327
I01
sg328
g339
sg330
Nsg331
Nsg332
Nsg334
I00
sg35
Nsbag299
(g321
g301
Ntp344
Rp345
(dp346
g325
S'z'
p347
sg327
I01
sg328
g339
sg330
Nsg331
Nsg332
Nsg334
I00
sg35
Nsbag299
(g321
g301
Ntp348
Rp349
(dp350
g325
S'png'
p351
sg327
I01
sg328
g339
sg330
Nsg331
Nsg332
Nsg334
I00
sg35
Nsbag299
(g321
g301
Ntp352
Rp353
(dp354
g325
S'iw2d'
p355
sg327
I01
sg328
g339
sg330
Nsg331
Nsg332
Nsg334
I00
sg35
Nsbag299
(g321
g301
Ntp356
Rp357
(dp358
g325
S'ATI_Compress_MT_VC7.lib'
p359
sg327
I00
sg328
g339
sg330
Nsg331
Nsg332
S'x86'
p360
sg334
I00
sg35
Nsbag299
(g321
g301
Ntp361
Rp362
(dp363
g325
S'iwgx'
p364
sg327
I01
sg328
g339
sg330
Nsg331
Nsg332
Nsg334
I00
sg35
Nsbag299
(g321
g301
Ntp365
Rp366
(dp367
g325
S'iwgl'
p368
sg327
I01
sg328
g339
sg330
Nsg331
Nsg332
Nsg334
I00
sg35
Nsbag299
(g321
g301
Ntp369
Rp370
(dp371
g325
S'iwgeom'
p372
sg327
I01
sg328
g339
sg330
Nsg331
Nsg332
Nsg334
I00
sg35
Nsbag299
(g321
g301
Ntp373
Rp374
(dp375
g325
S'iwresmanager'
p376
sg327
I01
sg328
g339
sg330
Nsg331
Nsg332
Nsg334
I00
sg35
Nsbag299
(g321
g301
Ntp377
Rp378
(dp379
g325
S'iwgxfont'
p380
sg327
I01
sg328
g339
sg330
Nsg331
Nsg332
Nsg334
I00
sg35
Nsbag299
(g321
g301
Ntp381
Rp382
(dp383
g325
S'tiniconv'
p384
sg327
I01
sg328
g339
sg330
Nsg331
Nsg332
Nsg334
I00
sg35
Nsbag299
(g321
g301
Ntp385
Rp386
(dp387
g325
S's3e_cpp'
p388
sg327
I01
sg328
g329
sg330
I00
sg331
I00
sg332
Nsg334
I00
sg35
Nsbag299
(g321
g301
Ntp389
Rp390
(dp391
g325
S's3e'
p392
sg327
I01
sg328
(lp393
S'iwcrt.o'
p394
asg330
I00
sg331
I00
sg332
Nsg334
I00
sg35
Nsbag299
(g321
g301
Ntp395
Rp396
(dp397
g325
S's3e_api'
p398
sg327
I01
sg328
g329
sg330
I00
sg331
I00
sg332
S'x86'
p399
sg334
I01
sg35
Nsbag299
(g321
g301
Ntp400
Rp401
(dp402
g325
S's3e_api'
p403
sg327
I01
sg328
g329
sg330
I00
sg331
I00
sg332
S'!x86'
p404
sg334
I01
sg35
Nsbag299
(g321
g301
Ntp405
Rp406
(dp407
g325
S'stdc++'
p408
sg327
I00
sg328
g329
sg330
I00
sg331
I00
sg332
S'mips'
p409
sg334
I00
sg35
Nsbag299
(g321
g301
Ntp410
Rp411
(dp412
g325
S'c'
p413
sg327
I00
sg328
g329
sg330
I00
sg331
I00
sg332
S'mips'
p414
sg334
I00
sg35
Nsbag299
(g321
g301
Ntp415
Rp416
(dp417
g325
S'm'
p418
sg327
I00
sg328
g329
sg330
I00
sg331
I00
sg332
S'mips'
p419
sg334
I00
sg35
Nsbag299
(g321
g301
Ntp420
Rp421
(dp422
g325
S'gcc'
p423
sg327
I00
sg328
g329
sg330
I00
sg331
I00
sg332
S'mips'
p424
sg334
I00
sg35
Nsbag299
(g321
g301
Ntp425
Rp426
(dp427
g325
S'stdc++'
p428
sg327
I00
sg328
g329
sg330
I00
sg331
I00
sg332
S'gcc_x86_tizen'
p429
sg334
I00
sg35
Nsbag299
(g321
g301
Ntp430
Rp431
(dp432
g325
g413
sg327
I00
sg328
g329
sg330
I00
sg331
I00
sg332
S'gcc_x86_tizen'
p433
sg334
I00
sg35
Nsbag299
(g321
g301
Ntp434
Rp435
(dp436
g325
g418
sg327
I00
sg328
g329
sg330
I00
sg331
I00
sg332
S'gcc_x86_tizen'
p437
sg334
I00
sg35
Nsbag299
(g321
g301
Ntp438
Rp439
(dp440
g325
S'gcc'
p441
sg327
I00
sg328
g329
sg330
I00
sg331
I00
sg332
S'gcc_x86_tizen'
p442
sg334
I00
sg35
Nsbag299
(g321
g301
Ntp443
Rp444
(dp445
g325
S'gcc_eh'
p446
sg327
I00
sg328
g329
sg330
I00
sg331
I00
sg332
S'gcc_x86_tizen'
p447
sg334
I00
sg35
Nsbag299
(g321
g301
Ntp448
Rp449
(dp450
g325
S'stdc++'
p451
sg327
I00
sg328
g329
sg330
I00
sg331
I00
sg332
S'gcc_x86_android'
p452
sg334
I00
sg35
Nsbag299
(g321
g301
Ntp453
Rp454
(dp455
g325
g413
sg327
I00
sg328
g329
sg330
I00
sg331
I00
sg332
S'gcc_x86_android'
p456
sg334
I00
sg35
Nsbag299
(g321
g301
Ntp457
Rp458
(dp459
g325
g418
sg327
I00
sg328
g329
sg330
I00
sg331
I00
sg332
S'gcc_x86_android'
p460
sg334
I00
sg35
Nsbag299
(g321
g301
Ntp461
Rp462
(dp463
g325
S'gcc'
p464
sg327
I00
sg328
g329
sg330
I00
sg331
I00
sg332
S'gcc_x86_android'
p465
sg334
I00
sg35
NsbasS'library_paths'
p466
(lp467
g299
(cmkb_main
LibraryPath
p468
g301
Ntp469
Rp470
(dp471
S'expand_path'
p472
I01
sS'add_cpu_variant'
p473
I00
sg325
S'c:/marmalade/7.2/modules/iwutil'
p474
sbag299
(g468
g301
Ntp475
Rp476
(dp477
g472
I01
sg473
I00
sg325
S'c:/marmalade/7.2/modules/third_party/libjpeg'
p478
sbag299
(g468
g301
Ntp479
Rp480
(dp481
g472
I01
sg473
I00
sg325
S'c:/marmalade/7.2/modules/third_party/zlib'
p482
sbag299
(g468
g301
Ntp483
Rp484
(dp485
g472
I01
sg473
I00
sg325
S'c:/marmalade/7.2/modules/third_party/libpng'
p486
sbag299
(g468
g301
Ntp487
Rp488
(dp489
g472
I01
sg473
I00
sg325
S'c:/marmalade/7.2/modules/iw2d'
p490
sbag299
(g468
g301
Ntp491
Rp492
(dp493
g472
I00
sg473
I00
sg325
S'c:/marmalade/7.2/modules/iwgx/atitools'
p494
sbag299
(g468
g301
Ntp495
Rp496
(dp497
g472
I01
sg473
I00
sg325
S'c:/marmalade/7.2/modules/iwgx'
p498
sbag299
(g468
g301
Ntp499
Rp500
(dp501
g472
I01
sg473
I00
sg325
S'c:/marmalade/7.2/modules/iwgl'
p502
sbag299
(g468
g301
Ntp503
Rp504
(dp505
g472
I01
sg473
I00
sg325
S'c:/marmalade/7.2/modules/iwgeom'
p506
sbag299
(g468
g301
Ntp507
Rp508
(dp509
g472
I01
sg473
I00
sg325
S'c:/marmalade/7.2/modules/iwresmanager'
p510
sbag299
(g468
g301
Ntp511
Rp512
(dp513
g472
I01
sg473
I00
sg325
S'c:/marmalade/7.2/modules/iwgxfont'
p514
sbag299
(g468
g301
Ntp515
Rp516
(dp517
g472
I01
sg473
I00
sg325
S'c:/marmalade/7.2/modules/third_party/tiniconv'
p518
sbag299
(g468
g301
Ntp519
Rp520
(dp521
g472
I01
sg473
I00
sg325
S'c:/marmalade/7.2/s3e'
p522
sbasS'macros'
p523
(dp524
S'IW_TRACE_CHANNEL_WEBVIEW_VERBOSE'
p525
S'2'
p526
sS'IW_MKF_S3EFACEBOOK'
p527
NsS'I3D_PLATFORM_S3E'
p528
NsS'IW_TRACE_CHANNEL_FLURRY'
p529
S'1'
p530
sS'IW_USE_CALLSTACK'
p531
NsS'__S3E__'
p532
NsS'IW_TRACE_CHANNEL_WEBVIEW'
p533
g530
sS'IW_MKF_LIBJPEG'
p534
NsS'I3D_OS_S3E'
p535
NsS'IW_ASSERTION_CHANNEL_FLURRY'
p536
g530
sS'IW_MKF_TINICONV'
p537
NsS'IW_APP_VERSION'
p538
S'"1.0"'
p539
sS'IW_MKF_IWRESMANAGER'
p540
NsS'IW_MKF_IWUTIL'
p541
NsS'IW_PLATFORM_S3E'
p542
NsS'IW_ASSERTION_CHANNEL_2D'
p543
g530
sS'IW_APP_NAME'
p544
S'"Hoppe"'
p545
sS'IW_MKF_IWGXFONT'
p546
NsS'IW_MKF_IWTWEEN'
p547
NsS'IW_MKF_S3EFLURRY'
p548
NsS'IW_MKF_ZLIB'
p549
NsS'IW_MKF_IWGX'
p550
NsS'IW_MKF_IW2DSCENEGRAPH'
p551
NsS'IW_MKF_SOUNDENGINE'
p552
NsS'IW_ASSERTION_CHANNEL_WEBVIEW'
p553
g530
sS'IW_USE_ASSERTIONS'
p554
NsS'_CRT_SECURE_NO_DEPRECATE'
p555
NsS'IW_MKF_IWGL'
p556
NsS'IW_MKF_LIBPNG'
p557
NsS'IW_MKF_S3EWEBVIEW'
p558
NsS'IW_TRACE_CHANNEL_IW_2DSCENEGRAPH'
p559
g530
sS'IW_ASSERTION_CHANNEL_FACEBOOK'
p560
g530
sS'IW_TRACE_CHANNEL_FACEBOOK_VERBOSE'
p561
g526
sS'IW_DEBUG'
p562
NsS'IW_USE_TRACING'
p563
NsS'IW_ASSERTION_CHANNEL_IW_2DSCENEGRAPH'
p564
g530
sS'IW_SDK'
p565
NsS'S3E_INCLUDE_LEGACY'
p566
NsS'IW_MKF_IW2DSCENEGRAPHCORE'
p567
NsS'IW_TRACE_CHANNEL_FACEBOOK'
p568
g530
sS'IW_TRACE_CHANNEL_FLURRY_VERBOSE'
p569
g526
sS'IW_MKF_IW2D'
p570
NsS'IW_MKF_IWGEOM'
p571
NssS'done_warnings'
p572
(dp573
sS'subprojects'
p574
(dp575
g185
S'SoundEngine'
p576
sg180
S'iwgxfont'
p577
sg174
S's3eFacebook'
p578
sg169
S's3eWebView'
p579
sg170
S'iwutil'
p580
sg176
S'iwgx'
p581
sg179
S'iwresmanager'
p582
sg171
S'libjpeg'
p583
sg172
S'libpng'
p584
sg177
S'iwgl'
p585
sg184
S'iwtween'
p586
sg182
S'iw2dscenegraph'
p587
sg175
S'iw2d'
p588
sg178
S'iwgeom'
p589
sg181
S'tiniconv'
p590
sg173
S'zlib'
p591
sg183
S'../iw2dscenegraphcore'
p592
sg186
S's3eFlurry'
p593
ssS'deployments'
p594
(dp595
S'Default'
p596
g299
(cdeployment
Deployment
p597
g301
Ntp598
Rp599
(dp600
S'got_version'
p601
I0
sS'assets'
p602
g596
sS'mkb'
p603
g303
sS'target'
p604
Nsg332
(lp605
sS'options'
p606
(dp607
S'iphone-link-lib'
p608
(lp609
S's3eWebView'
p610
aS's3eFacebook'
p611
aS'FlurryAnalytics'
p612
aS's3eFlurry'
p613
asS'game-icf'
p614
NsS'winmobile-icon32'
p615
NsS'ws8-logo-image150x150'
p616
NsS'ws81-product-version'
p617
NsS'osx-ext-dll'
p618
(lp619
S'c:/marmalade/7.2/extensions/s3ewebview/lib/osx/libs3eWebView.dylib'
p620
aS'c:/marmalade/7.2/extensions/s3eflurry/lib/osx/libs3eFlurry.dylib'
p621
asS'iphone-provisioning-profile'
p622
NsS'ws8-splash-screen-image620x300'
p623
NsS'ws8-ext-capabilities'
p624
(lp625
sS'android-icon-hdpi'
p626
NsS'brew-icon-large'
p627
NsS'iphone-splash-full-orient'
p628
NsS'wp8-tile-fliptemplate-supports-large'
p629
NsS'iphone-show-status-bar'
p630
NsS'roku-requires-mkv'
p631
NsS'long-caption'
p632
NsS'android-pkgname'
p633
NsS'blackberry-permissions-read-device-identifying-information'
p634
NsS'ws81-certificate-end-date'
p635
NsS'psp-dlgcontentid'
p636
NsS'target-folder'
p637
NsS'tizen-dist1-CA-path'
p638
NsS'symbian-icon2-format'
p639
NsS'iphone-region'
p640
NsS'uiq3-icon3-mask'
p641
NsS'brew-encoding'
p642
NsS'android-x86'
p643
NsS'nds-initialcode'
p644
NsS'iphone-persistent-wifi'
p645
NsS'psp-snd0'
p646
NsS'osx-signing-identity-inst'
p647
NsS'winmobile-install-folder'
p648
NsS'android-external-res'
p649
(lp650
S'c:/marmalade/7.2/extensions/s3efacebook/facebook-android-sdk/facebook/res'
p651
asS'ws8-product-version'
p652
NsS'brew-priviledges'
p653
NsS'symbian-icon2-mask-black'
p654
NsS'iphone-icon-ipad'
p655
NsS'roku-hidden'
p656
NsS'psp-titlename'
p657
NsS'symbian-icon1-mask'
p658
NsS'psp-parentallevel'
p659
NsS'splashscreen-use-all'
p660
NsS'wp8-author'
p661
NsS'symbian-disable-ecompxl'
p662
NsS'splashscreen-auto-onblack'
p663
NsS'win32-ext-dll'
p664
(lp665
S'c:/marmalade/7.2/extensions/s3ewebview/lib/win32/s3eWebView.dll'
p666
aS'c:/marmalade/7.2/extensions/s3eflurry/lib/win32/s3eFlurry.dll'
p667
asS'iphone-development-key'
p668
NsS'winmobile-icon48'
p669
NsS'android-unsigned'
p670
NsS'osx-appstore-category'
p671
NsS'version-revision'
p672
NsS'roku-icon-focus-sd'
p673
NsS'android-keystore'
p674
NsS'winmobile-png90'
p675
NsS'iphone-icon-ipad-high-res'
p676
NsS'iphone-disable-ipad'
p677
NsS'wp8-product-id'
p678
NsS'wp8-ext-capabilities'
p679
(lp680
sS'iphone-ipad-only'
p681
NsS'symbian-icon1-mask-black'
p682
NsS'iphone-bundle-localisations'
p683
NsS'winmobile-png60'
p684
NsS'blackberry-permissions-access-shared'
p685
NsS'blackberry-author'
p686
NsS'android-icon-xxxhdpi'
p687
NsS'olddeploytoolstyle'
p688
NsS'android_icon_gallery'
p689
NsS'winmobile-cab-compress'
p690
NsS'ws81-ext-managed-dll'
p691
(lp692
sS'win32-icon'
p693
NsS'symbian-key'
p694
NsS'app-icf'
p695
NsS'blackberry-storepass'
p696
NsS'wp8-tile-fliptemplate-back-title'
p697
NsS'brew-compress-loader'
p698
NsS'win32-pref-windowposy'
p699
NsS'win32-pref-windowposx'
p700
NsS'roku-requires-audiometadata'
p701
NsS'wp8-exclude-low-mem'
p702
NsS'wp8-tile-fliptemplate-title'
p703
NsS'iphone-icon-ipad-search-high-res'
p704
NsS'iphone-link-libdir'
p705
(lp706
S'c:/marmalade/7.2/extensions/s3ewebview/lib/iphone'
p707
aS'c:/marmalade/7.2/extensions/s3efacebook/lib/iphone'
p708
aS'c:/marmalade/7.2/extensions/s3eflurry/lib/iphone'
p709
asS'blackberry-permissions-read-geolocation'
p710
NsS'winmobile-nouninstall'
p711
NsS'tizen-signed'
p712
NsS'android-extra-application-manifest'
p713
(lp714
S'c:/marmalade/7.2/extensions/s3efacebook/source/android/extra_app_manifest.xml'
p715
asS'ws8-ext-native-dll'
p716
(lp717
sS'symbian-icon2-mask'
p718
NsS'iphone-backgroundmode-audio'
p719
NsS'webos-memory'
p720
NsS'android-keypass'
p721
NsS'name'
p722
NsS'uiq3-icon2-format'
p723
NsS'roku-splash-screen-sd'
p724
NsS'auto-derbh'
p725
NsS'roku-icon-side-sd'
p726
NsS'symbian-maxheapsize'
p727
NsS'nds-publicsavedatasize'
p728
NsS'splashscreen'
p729
NsS'brew-mif'
p730
NsS'iphone-icon-settings-high-res'
p731
NsS'android-manifest'
p732
NsS'ws81-splash-screen-image620x300'
p733
NsS's3e-compression'
p734
NsS'tizen-author-password'
p735
NsS'wp8-tile-fliptemplate-back-content'
p736
NsS'symbian-icon1'
p737
NsS'symbian-icon2'
p738
NsS'android-extra-styles-file'
p739
NsS'nds-bannertitle-jp'
p740
NsS'osx-sign-for-store'
p741
NsS'symbian7-uid'
p742
NsS'wp8-tile-fliptemplate-large-back-content'
p743
NsS'nds-bannertitle-cn'
p744
NsS'iphone-distribution-key'
p745
NsS'android-icon-gallery'
p746
NsS'blackberry-keystore'
p747
NsS'iphone-nosign'
p748
NsS'caption'
p749
NsS'android-extra-manifest'
p750
(lp751
sS'android-icon-xxhdpi'
p752
NsS'version-minor'
p753
NsS'iphone-link-libdirs'
p754
(lp755
sS'iphone-icon-large'
p756
NsS'symbian-keypwd'
p757
NsS'symbian8-uid'
p758
NsS'symbian-cert-key'
p759
NsS'winmobile-ampd-part-number'
p760
NsS'arch'
p761
NsS'nds-romheadertemplate'
p762
NsS'webos-icon'
p763
NsS'psp-dlgprotectdocument'
p764
NsS'android-icon-mdpi'
p765
NsS'nds-icon'
p766
NsS'ws8-custom-manifest-fill'
p767
NsS'iphone-development-cert'
p768
NsS'blackberry-phone-icon'
p769
NsS'iphone-enable-4inch-retina'
p770
NsS'ws8-custom-manifest'
p771
NsS'version-major'
p772
NsS'wp8-genre-isgame'
p773
NsS'uiq3-uid'
p774
NsS'iphone-splash-retina-generate'
p775
NsS'tizen-hw-acceleration'
p776
NsS'iphone_bundle_localisations'
p777
NsS'tizen-dist1-key'
p778
NsS'wp8-custom-manifest'
p779
NsS'nds-bannertitle-ge'
p780
NsS'iphone-sign-for-distribution'
p781
NsS'wp8-tile-fliptemplate-medium-back-image'
p782
NsS'wp8-publisher-id'
p783
NsS'icon'
p784
NsS'wp8-exclude-wxga'
p785
NsS'uiq3-icon2-mask'
p786
NsS'iphone-splashscreen-portrait'
p787
NsS'iphone-icon-high-res'
p788
NsS'ws81-distribution-pfx-password'
p789
NsS'playbook-author'
p790
NsS'android-icon-xhdpi'
p791
NsS'linux-ext-lib'
p792
(lp793
sS'blackberry-permissions-access-internet'
p794
NsS'wp8-exclude-720p'
p795
NsS'lgtv-use-drm'
p796
NsS'symbian-platsecflags'
p797
NsS'ws8-description'
p798
NsS'blackberry-playbook-icon'
p799
NsS'copyright'
p800
NsS'version'
p801
NsS'ws81-logo-image150x150'
p802
NsS'osx-signing-identity-app'
p803
NsS'tizen-project-url'
p804
NsS'symbian-icon-svg'
p805
NsS'android-aliasname'
p806
NsS'psp-dlgmanual'
p807
NsS'brew-uid'
p808
NsS'symbian-locationsupport'
p809
NsS'ws8-ext-managed-dll'
p810
(lp811
sS'nds-bannertitle-it'
p812
NsS'ws8-ext-sdk-manifest-part'
p813
(lp814
sS'uiq3-icon1-mask'
p815
NsS'winmobile-icon16'
p816
NsS'ws8-product-name'
p817
NsS'blackberry-cskpass'
p818
NsS'winmobile-start-menu-folder'
p819
NsS'brew-clsid'
p820
NsS'roku-requires-bluetooth'
p821
NsS'ws8-ext-device-capabilities'
p822
(lp823
sS'blackberry-permissions-use-camera'
p824
NsS'iphone-prerendered-icon'
p825
NsS'iphone-appid'
p826
S'com.ideaworks3d.s3eIOSGameCenter'
p827
sS'ws8-identity-name'
p828
NsS'tizen-dist2-CA-path'
p829
NsS'winmobile-icon64'
p830
NsS'blackberry-permissions-post-notification'
p831
NsS'winmobile-setup-dll'
p832
NsS'android-external-jars'
p833
(lp834
S'c:/marmalade/7.2/extensions/s3ewebview/lib/android/s3eWebView.jar'
p835
aS'c:/marmalade/7.2/extensions/s3efacebook/lib/android/s3eFacebook.jar'
p836
aS'c:/marmalade/7.2/extensions/s3efacebook/facebook-android-sdk/libs/android-support-v4.jar'
p837
aS'c:/marmalade/7.2/extensions/s3efacebook/lib/android/annotations-4.1.1.4.jar'
p838
aS'c:/marmalade/7.2/extensions/s3eflurry/lib/android/s3eFlurry.jar'
p839
aS'c:/marmalade/7.2/extensions/s3eflurry/lib/android/FlurryAgent.jar'
p840
asS'symbian9-uid'
p841
NsS'iphone-icon-ipad-ios7'
p842
NsS'winmobile-trace-file'
p843
NsS'roku-splash-color'
p844
NsS'psp-appversion'
p845
NsS'ws8-publisher-id'
p846
NsS'android-supports-gl-texture'
p847
(lp848
sS'winmobile-png45'
p849
NsS'android-storepass'
p850
NsS'roku-icon-focus-hd'
p851
NsS'android-custom-activity'
p852
NsS'psp-discversion'
p853
NsS'psp-copyright'
p854
NsS'embed-icf'
p855
NsS'tizen-manifest'
p856
NsS'osx-icon'
p857
NsS'webos-appinfo'
p858
NsS'psp-dlghealthwarning'
p859
NsS'webos-appid'
p860
NsS'roku-icon-side-hd'
p861
NsS'iphone-icon-ipad-search-high-res-ios7'
p862
NsS'ws81-ext-sdk-manifest-part'
p863
(lp864
sS'loader_name_prefix'
p865
NsS'nds-titlename'
p866
NsS'ws81-logo-image50x50'
p867
NsS'osx-entitlements-plist'
p868
NsS'psp-dlgicon0'
p869
NsS'ws81-ext-device-capabilities'
p870
(lp871
sS'psp-discid'
p872
NsS'tizen-dist2-password'
p873
NsS'ws8-ext-sdk-ref'
p874
(lp875
sS'iphone-extra-string'
p876
(lp877
sS'version-string'
p878
NsS'iphone-icon-high-res-ios7'
p879
NsS'blackberry-permissions-record-audio'
p880
NsS'ws8-certificate-end-date'
p881
NsS'tizen-so'
p882
(lp883
sS'wp8-tile-fliptemplate-small-image'
p884
NsS'pkguid-as-uid'
p885
NsS'iphone-signing-identity'
p886
NsS'roku-persist-quota'
p887
NsS'nds-bannertitle-fr'
p888
NsS'ws8-distribution-pfx'
p889
NsS'ws8-publisher-display-name'
p890
NsS'brew-icon-small'
p891
NsS'psp-dlgpic2'
p892
NsS'psp-dlgpic0'
p893
NsS'psp-pic0'
p894
NsS'psp-pic1'
p895
NsS'psp-icon0'
p896
NsS'psp-icon1'
p897
NsS'ws81-identity-name'
p898
NsS'winmobile-icon'
p899
NsS'iphone-no-splash'
p900
NsS'iphone-splash'
p901
NsS'iphone-app-fonts'
p902
NsS'wp8-ext-native-dll'
p903
(lp904
S'c:/marmalade/7.2/extensions/s3ewebview/lib/wp8/s3eWebViewExtension.dll'
p905
aS'c:/marmalade/7.2/extensions/s3efacebook/lib/wp8/s3eFacebookExtension.dll'
p906
aS'c:/marmalade/7.2/extensions/s3eflurry/lib/wp8/s3eFlurryExtension.dll'
p907
asS'ws81-distribution-cer'
p908
NsS'uiq3-icon2'
p909
NsS'uiq3-icon3'
p910
NsS'uiq3-icon1'
p911
NsS'uiq3-icon1-format'
p912
NsS'ws8-logo-image50x50'
p913
NsS'iphone-icon-ipad-search'
p914
NsS'symbian-run-on-install'
p915
NsS'ws81-publisher-display-name'
p916
NsS'ws81-custom-manifest-fill'
p917
NsS'symbian-soundrecordsupport'
p918
NsS'nds-bannertitle-sp'
p919
NsS'psp-producer'
p920
NsS'iphone-apple-wwdr-cert'
p921
NsS'android-icon-nonstandard'
p922
NsS'win32-pref-processtitle'
p923
NsS'nds-bannertitle-hn'
p924
NsS'tizen-dist2-key'
p925
NsS'brew-depends'
p926
NsS'ws81-custom-manifest'
p927
NsS'iphone-icon-ipad-search-ios7'
p928
NsS'brew-icon-medium'
p929
NsS'iphone-bundle-url-name'
p930
S'ADD_YOUR_OWN_APP_ID'
p931
sS'wp8-tile-fliptemplate-large-front-image'
p932
NsS'tizen-dist2-CA-root-path'
p933
NsS'ws81-description'
p934
NsS'uiq3-icon3-format'
p935
NsS'ws81-logo-image30x30'
p936
NsS'iphone-signing-host'
p937
NsS'tizen-icon'
p938
NsS'osx-info-plist'
p939
NsS'symbian-icon1-format'
p940
NsS'ws81-distribution-pfx'
p941
NsS'blackberry-authorid'
p942
NsS'ws81-publisher-id'
p943
NsS'ws81-ext-sdk-ref'
p944
(lp945
sS'wp8-description'
p946
NsS'iphone-link-opts'
p947
(lp948
S'-F$MARMALADE_ROOT/extensions/s3eFacebook/source/iphone/facebook-ios-sdk -framework FacebookSDK -weak_framework AdSupport -weak_framework Accounts -weak_framework Social -lsqlite3'
p949
aS'-framework SystemConfiguration -framework Security'
p950
asS'roku-splash-min-time'
p951
NsS'wp8-tile-fliptemplate-medium-front-image'
p952
NsS'provider'
p953
NsS'playbook-keystore'
p954
NsS'tizen-appid'
p955
NsS'tizen-author-key'
p956
NsS'symbian-osexecsupport'
p957
NsS'android-install-location'
p958
NsS'nds-privatesavedatasize'
p959
NsS'playbook-storepass'
p960
NsS'android-icon-ldpi'
p961
NsS'manufacturer'
p962
NsS'itunes-artwork'
p963
NsS'iphone-extra-sections'
p964
NsS'ws81-product-name'
p965
NsS'ws81-ext-native-dll'
p966
(lp967
sS'iphone-info-plist'
p968
NsS'ws8-distribution-pfx-password'
p969
NsS'ws8-logo-image30x30'
p970
NsS'wp8-ext-managed-dll'
p971
(lp972
S'c:/marmalade/7.2/extensions/s3ewebview/lib/wp8/s3eWebViewManaged.dll'
p973
aS'c:/marmalade/7.2/extensions/s3efacebook/lib/wp8/s3eFacebookManaged.dll'
p974
aS'c:/marmalade/7.2/extensions/s3efacebook/facebook_wp8_lib/Facebook.Client.dll'
p975
aS'c:/marmalade/7.2/extensions/s3efacebook/facebook_wp8_lib/Facebook.dll'
p976
aS'c:/marmalade/7.2/extensions/s3eflurry/lib/wp8/FlurryWP8SDK.dll'
p977
aS'c:/marmalade/7.2/extensions/s3eflurry/lib/wp8/s3eFlurryManaged.dll'
p978
asS'iphone-splashscreen-landscape'
p979
NsS'nds-makercode'
p980
NsS'priv-sign-key'
p981
NsS'networking'
p982
NsS'android-icon'
p983
NsS'iphone-icon-settings'
p984
NsS'iphone-distribution-cert'
p985
NsS'android_extra_strings'
p986
NsS'nds-bannertitle-en'
p987
NsS'playbook-cskpass'
p988
NsS'android-so'
p989
(lp990
S'c:/marmalade/7.2/extensions/s3ewebview/lib/android/libs3eWebView.so'
p991
aS'c:/marmalade/7.2/extensions/s3efacebook/lib/android/libs3eFacebook.so'
p992
aS'c:/marmalade/7.2/extensions/s3eflurry/lib/android/libs3eFlurry.so'
p993
asS'wp8-higher-mem'
p994
NsS'roku-splash-screen-hd'
p995
NsS'iphone-bundle-url-schemes'
p996
S'fd<FACEBOOK_APP_ID>'
p997
sS'roku-screensaver-private'
p998
NsS'osx-extra-res'
p999
(lp1000
sS'playbook-icon'
p1001
NsS'uid'
p1002
NsS'playbook-authorid'
p1003
NsS'win32-pref-windowtitle'
p1004
NsS'tizen-dist1-password'
p1005
NsS'roku-screensaver-title'
p1006
NsS'osx-minimum-osx-version'
p1007
NsS'symbian-cert'
p1008
NsS'iphone-icon'
p1009
NsS'ws81-ext-capabilities'
p1010
(lp1011
sS'ws8-distribution-cer'
p1012
NsS'playbook-access-shared'
p1013
NsS'iphone-icon-ipad-high-res-ios7'
p1014
NsS'iphone-link-libs'
p1015
(lp1016
sS'wp8-exclude-wvga'
p1017
NsS'assets'
p1018
NsS'wp8-tile-fliptemplate-large-back-image'
p1019
NsS'wp8-custom-manifest-fill'
p1020
NsS'pub-sign-key'
p1021
NsS'android-extra-strings'
p1022
NsS'tizen-author-CA-path'
p1023
Nssg325
g596
sbssS'platform'
p1024
S'S3E'
p1025
sg62
S'1.0'
p1026
sS'arcade_platform'
p1027
g4
sS'extensions'
p1028
(dp1029
sS'source_groups_tree'
p1030
(dp1031
S'(libpng)'
p1032
(dp1033
S'h'
p1034
(dp1035
S'c:/marmalade/7.2/modules/third_party/libpng/h/png.h'
p1036
(lp1037
I1
a(dp1038
asS'c:/marmalade/7.2/modules/third_party/libpng/h/pngconf.h'
p1039
(lp1040
I1
ag1038
assS'c:/marmalade/7.2/modules/third_party/libpng/libpng.mkf'
p1041
(lp1042
I1
a(dp1043
assS'(libjpeg)'
p1044
(dp1045
g1034
(dp1046
S'c:/marmalade/7.2/modules/third_party/libjpeg/h/jinclude.h'
p1047
(lp1048
I1
a(dp1049
asS'c:/marmalade/7.2/modules/third_party/libjpeg/h/jconfig.h'
p1050
(lp1051
I1
ag1049
asS'c:/marmalade/7.2/modules/third_party/libjpeg/h/cdjpeg.h'
p1052
(lp1053
I1
ag1049
asS'c:/marmalade/7.2/modules/third_party/libjpeg/h/jpegint.h'
p1054
(lp1055
I1
ag1049
asS'c:/marmalade/7.2/modules/third_party/libjpeg/h/transupp.h'
p1056
(lp1057
I1
ag1049
asS'c:/marmalade/7.2/modules/third_party/libjpeg/h/jpeglib.h'
p1058
(lp1059
I1
ag1049
asS'c:/marmalade/7.2/modules/third_party/libjpeg/h/jversion.h'
p1060
(lp1061
I1
ag1049
asS'c:/marmalade/7.2/modules/third_party/libjpeg/h/jdct.h'
p1062
(lp1063
I1
ag1049
asS'c:/marmalade/7.2/modules/third_party/libjpeg/h/jdhuff.h'
p1064
(lp1065
I1
ag1049
asS'c:/marmalade/7.2/modules/third_party/libjpeg/h/jmemsys.h'
p1066
(lp1067
I1
ag1049
asS'c:/marmalade/7.2/modules/third_party/libjpeg/h/jmorecfg.h'
p1068
(lp1069
I1
ag1049
asS'c:/marmalade/7.2/modules/third_party/libjpeg/h/jerror.h'
p1070
(lp1071
I1
ag1049
asS'c:/marmalade/7.2/modules/third_party/libjpeg/h/jchuff.h'
p1072
(lp1073
I1
ag1049
asS'c:/marmalade/7.2/modules/third_party/libjpeg/h/cderror.h'
p1074
(lp1075
I1
ag1049
assS'c:/marmalade/7.2/modules/third_party/libjpeg/libjpeg.mkf'
p1076
(lp1077
I1
a(dp1078
assS'(tiniconv)'
p1079
(dp1080
S'c:/marmalade/7.2/modules/third_party/tiniconv/source/tiniconv.h'
p1081
(lp1082
I1
a(dp1083
asS'c:/marmalade/7.2/modules/third_party/tiniconv/source/tiniconv_int.h'
p1084
(lp1085
I1
ag1083
asS'c:/marmalade/7.2/modules/third_party/tiniconv/tiniconv.mkf'
p1086
(lp1087
I1
a(dp1088
assS'(SoundEngine)'
p1089
(dp1090
S'c:/users/vinicius/desktop/yes or no/hoppe/modules/soundengine/source/IwSoundADPCM.cpp'
p1091
(lp1092
I1
a(dp1093
asS'c:/users/vinicius/desktop/yes or no/hoppe/modules/soundengine/h/IwSoundPCM.h'
p1094
(lp1095
I1
ag1093
asS'c:/users/vinicius/desktop/yes or no/hoppe/modules/soundengine/source/IwSoundData.cpp'
p1096
(lp1097
I1
ag1093
asS'c:/users/vinicius/desktop/yes or no/hoppe/modules/soundengine/h/IwSoundADPCM.h'
p1098
(lp1099
I1
ag1093
asS'c:/users/vinicius/desktop/yes or no/hoppe/modules/soundengine/h/IwSoundGroup.h'
p1100
(lp1101
I1
ag1093
asS'c:/users/vinicius/desktop/yes or no/hoppe/modules/soundengine/h/IwSoundWAV.h'
p1102
(lp1103
I1
ag1093
asS'c:/users/vinicius/desktop/yes or no/hoppe/modules/soundengine/source/IwSoundInst.cpp'
p1104
(lp1105
I1
ag1093
asS'Docs'
p1106
(dp1107
S'c:/users/vinicius/desktop/yes or no/hoppe/modules/soundengine/docs/iwsound.config.txt'
p1108
(lp1109
I1
ag1093
assS'c:/users/vinicius/desktop/yes or no/hoppe/modules/soundengine/source/IwResHandlerWAV.cpp'
p1110
(lp1111
I1
ag1093
asS'c:/users/vinicius/desktop/yes or no/hoppe/modules/soundengine/h/IwSoundData.h'
p1112
(lp1113
I1
ag1093
asS'c:/users/vinicius/desktop/yes or no/hoppe/modules/soundengine/source/IwSoundGroup.cpp'
p1114
(lp1115
I1
ag1093
asS'c:/users/vinicius/desktop/yes or no/hoppe/modules/soundengine/source/IwSoundSpec.cpp'
p1116
(lp1117
I1
ag1093
asS'c:/users/vinicius/desktop/yes or no/hoppe/modules/soundengine/source/IwSoundParams.cpp'
p1118
(lp1119
I1
ag1093
asS'c:/users/vinicius/desktop/yes or no/hoppe/modules/soundengine/h/IwResHandlerWAV.h'
p1120
(lp1121
I1
ag1093
asS'c:/users/vinicius/desktop/yes or no/hoppe/modules/soundengine/h/IwSound.h'
p1122
(lp1123
I1
ag1093
asS'c:/users/vinicius/desktop/yes or no/hoppe/modules/soundengine/soundengine.mkf'
p1124
(lp1125
I1
a(dp1126
asS'c:/users/vinicius/desktop/yes or no/hoppe/modules/soundengine/source/IwSoundPCM.cpp'
p1127
(lp1128
I1
ag1093
asS'c:/users/vinicius/desktop/yes or no/hoppe/modules/soundengine/source/IwSoundWAV.cpp'
p1129
(lp1130
I1
ag1093
asS'c:/users/vinicius/desktop/yes or no/hoppe/modules/soundengine/h/IwSoundInst.h'
p1131
(lp1132
I1
ag1093
asS'c:/users/vinicius/desktop/yes or no/hoppe/modules/soundengine/source/IwSoundManager.cpp'
p1133
(lp1134
I1
ag1093
asS'c:/users/vinicius/desktop/yes or no/hoppe/modules/soundengine/h/IwSoundSpec.h'
p1135
(lp1136
I1
ag1093
asS'c:/users/vinicius/desktop/yes or no/hoppe/modules/soundengine/h/IwSoundManager.h'
p1137
(lp1138
I1
ag1093
asS'c:/users/vinicius/desktop/yes or no/hoppe/modules/soundengine/h/IwSoundParams.h'
p1139
(lp1140
I1
ag1093
assS'Extensions'
p1141
(dp1142
S's3eWebView'
p1143
(dp1144
S'interface'
p1145
(dp1146
S'c:/marmalade/7.2/extensions/s3ewebview/interface/s3eWebView.defines.txt'
p1147
(lp1148
I1
a(dp1149
asS'c:/marmalade/7.2/extensions/s3ewebview/interface/s3eWebView_interface.cpp'
p1150
(lp1151
I1
ag1149
assS'c:/marmalade/7.2/extensions/s3ewebview/h/s3eWebView.h'
p1152
(lp1153
I1
ag1149
asS'c:/marmalade/7.2/extensions/s3ewebview/s3ewebview.mkf'
p1154
(lp1155
I1
a(dp1156
assS's3eFacebook'
p1157
(dp1158
S'interface'
p1159
(dp1160
S'c:/marmalade/7.2/extensions/s3efacebook/interface/s3eFacebook_interface.cpp'
p1161
(lp1162
I1
a(dp1163
asS'c:/marmalade/7.2/extensions/s3efacebook/interface/s3eFacebook.defines.txt'
p1164
(lp1165
I1
ag1163
assg1034
(dp1166
S'c:/marmalade/7.2/extensions/s3efacebook/h/s3eFacebook.h'
p1167
(lp1168
I1
ag1163
assS'c:/marmalade/7.2/extensions/s3efacebook/s3efacebook.mkf'
p1169
(lp1170
I1
a(dp1171
assS's3eFlurry'
p1172
(dp1173
S'interface'
p1174
(dp1175
S'c:/marmalade/7.2/extensions/s3eflurry/interface/s3eFlurry_interface.cpp'
p1176
(lp1177
I1
a(dp1178
asS'c:/marmalade/7.2/extensions/s3eflurry/interface/s3eFlurry.defines.txt'
p1179
(lp1180
I1
ag1178
assS'c:/marmalade/7.2/extensions/s3eflurry/h/s3eFlurry.h'
p1181
(lp1182
I1
ag1178
asS'c:/marmalade/7.2/extensions/s3eflurry/s3eflurry.mkf'
p1183
(lp1184
I1
a(dp1185
asssS"'Marmalade Studio'"
p1186
(dp1187
S'iw2dscenegraph'
p1188
(dp1189
S'c:/marmalade/7.2/modules/iw2dscenegraph/source/Iw2DSceneGraph.cpp'
p1190
(lp1191
I1
a(dp1192
asS'c:/marmalade/7.2/modules/iw2dscenegraph/iw2dscenegraph.mkf'
p1193
(lp1194
I1
a(dp1195
asS'c:/marmalade/7.2/modules/iw2dscenegraph/h/Iw2DSceneGraph.h'
p1196
(lp1197
I1
ag1192
asS'c:/marmalade/7.2/modules/iw2dscenegraph/docs/iw2dscenegraph.defines.txt'
p1198
(lp1199
I1
ag1192
assS'iwgl'
p1200
(dp1201
S'c:/marmalade/7.2/modules/iwgl/h/IwGL.h'
p1202
(lp1203
I1
a(dp1204
asS'c:/marmalade/7.2/modules/iwgl/iwgl.mkf'
p1205
(lp1206
I1
a(dp1207
asS'c:/marmalade/7.2/modules/iwgl/h/IwGLExt.h'
p1208
(lp1209
I1
ag1204
asS'c:/marmalade/7.2/modules/iwgl/docs/iwgl.config.txt'
p1210
(lp1211
I1
ag1204
assS'iw2d'
p1212
(dp1213
S'c:/marmalade/7.2/modules/iw2d/docs/iw2d_public.defines.txt'
p1214
(lp1215
I1
a(dp1216
asS'c:/marmalade/7.2/modules/iw2d/h/Iw2D.h'
p1217
(lp1218
I1
ag1216
asS'c:/marmalade/7.2/modules/iw2d/docs/iw2d.config.txt'
p1219
(lp1220
I1
ag1216
asS'c:/marmalade/7.2/modules/iw2d/iw2d.mkf'
p1221
(lp1222
I1
a(dp1223
assS'iwgxfont'
p1224
(dp1225
S'c:/marmalade/7.2/modules/iwgxfont/h/IwGxFont.h'
p1226
(lp1227
I1
a(dp1228
asS'c:/marmalade/7.2/modules/iwgxfont/h/IwGxFontPreparedData.h'
p1229
(lp1230
I1
ag1228
asS'c:/marmalade/7.2/modules/iwgxfont/h/IwGxFontContainer.h'
p1231
(lp1232
I1
ag1228
asS'c:/marmalade/7.2/modules/iwgxfont/docs/iwgxfont_public.defines.txt'
p1233
(lp1234
I1
ag1228
asS'c:/marmalade/7.2/modules/iwgxfont/h/IwGxFontGlyph.h'
p1235
(lp1236
I1
ag1228
asS'c:/marmalade/7.2/modules/iwgxfont/h/IwGxFontState.h'
p1237
(lp1238
I1
ag1228
asS'c:/marmalade/7.2/modules/iwgxfont/h/IwGxFontTypes.h'
p1239
(lp1240
I1
ag1228
asS'c:/marmalade/7.2/modules/iwgxfont/iwgxfont.mkf'
p1241
(lp1242
I1
a(dp1243
asS'c:/marmalade/7.2/modules/iwgxfont/docs/iwgxfont.config.txt'
p1244
(lp1245
I1
ag1228
assS'iwgeom'
p1246
(dp1247
S'c:/marmalade/7.2/modules/iwgeom/h/IwGeomFPlane.h'
p1248
(lp1249
I1
a(dp1250
asS'c:/marmalade/7.2/modules/iwgeom/h/IwGeomPlane.h'
p1251
(lp1252
I1
ag1250
asS'c:/marmalade/7.2/modules/iwgeom/h/IwGeomMat.h'
p1253
(lp1254
I1
ag1250
asS'c:/marmalade/7.2/modules/iwgeom/h/IwGeomMat2D.h'
p1255
(lp1256
I1
ag1250
asS'c:/marmalade/7.2/modules/iwgeom/h/IwGeomMenu.h'
p1257
(lp1258
I1
ag1250
asS'c:/marmalade/7.2/modules/iwgeom/h/IwGeomSqrt.h'
p1259
(lp1260
I1
ag1250
asS'c:/marmalade/7.2/modules/iwgeom/h/IwGeomFMat2D.h'
p1261
(lp1262
I1
ag1250
asS'c:/marmalade/7.2/modules/iwgeom/h/IwGeomCore.h'
p1263
(lp1264
I1
ag1250
asS'c:/marmalade/7.2/modules/iwgeom/h/IwGeomFVec3.h'
p1265
(lp1266
I1
ag1250
asS'c:/marmalade/7.2/modules/iwgeom/h/IwGeomFVec2.h'
p1267
(lp1268
I1
ag1250
asS'c:/marmalade/7.2/modules/iwgeom/h/IwGeom.h'
p1269
(lp1270
I1
ag1250
asS'c:/marmalade/7.2/modules/iwgeom/h/IwGeomSVec2.h'
p1271
(lp1272
I1
ag1250
asS'c:/marmalade/7.2/modules/iwgeom/h/IwGeomFVec4.h'
p1273
(lp1274
I1
ag1250
asS'c:/marmalade/7.2/modules/iwgeom/h/IwGeomSVec3.h'
p1275
(lp1276
I1
ag1250
asS'c:/marmalade/7.2/modules/iwgeom/h/IwGeomBBox.h'
p1277
(lp1278
I1
ag1250
asS'c:/marmalade/7.2/modules/iwgeom/h/IwGeomVec2.h'
p1279
(lp1280
I1
ag1250
asS'c:/marmalade/7.2/modules/iwgeom/h/IwGeomFMat.h'
p1281
(lp1282
I1
ag1250
asS'c:/marmalade/7.2/modules/iwgeom/h/IwGeomFQuat.h'
p1283
(lp1284
I1
ag1250
asS'c:/marmalade/7.2/modules/iwgeom/h/IwGeomVec3.h'
p1285
(lp1286
I1
ag1250
asS'c:/marmalade/7.2/modules/iwgeom/h/IwGeomSVec4.h'
p1287
(lp1288
I1
ag1250
asS'c:/marmalade/7.2/modules/iwgeom/docs/iwgeom.config.txt'
p1289
(lp1290
I1
ag1250
asS'c:/marmalade/7.2/modules/iwgeom/h/IwGeomFIntersect.h'
p1291
(lp1292
I1
ag1250
asS'c:/marmalade/7.2/modules/iwgeom/iwgeom.mkf'
p1293
(lp1294
I1
a(dp1295
asS'c:/marmalade/7.2/modules/iwgeom/h/IwGeomFSphere.h'
p1296
(lp1297
I1
ag1250
asS'c:/marmalade/7.2/modules/iwgeom/h/IwGeomLegacy.h'
p1298
(lp1299
I1
ag1250
asS'c:/marmalade/7.2/modules/iwgeom/h/IwGeomIntersect.h'
p1300
(lp1301
I1
ag1250
asS'c:/marmalade/7.2/modules/iwgeom/h/IwGeomSQuat.h'
p1302
(lp1303
I1
ag1250
asS'c:/marmalade/7.2/modules/iwgeom/h/IwGeomQuat.h'
p1304
(lp1305
I1
ag1250
asS'c:/marmalade/7.2/modules/iwgeom/h/IwGeomSphere.h'
p1306
(lp1307
I1
ag1250
asS'c:/marmalade/7.2/modules/iwgeom/h/IwGeomVec.h'
p1308
(lp1309
I1
ag1250
asS'c:/marmalade/7.2/modules/iwgeom/h/IwGeomVec4.h'
p1310
(lp1311
I1
ag1250
asS'c:/marmalade/7.2/modules/iwgeom/h/IwGeomFBBox.h'
p1312
(lp1313
I1
ag1250
assS'iwresmanager'
p1314
(dp1315
S'c:/marmalade/7.2/modules/iwresmanager/h/IwResHandlerGROUP.h'
p1316
(lp1317
I1
a(dp1318
asS'c:/marmalade/7.2/modules/iwresmanager/h/IwResHandler.h'
p1319
(lp1320
I1
ag1318
asS'c:/marmalade/7.2/modules/iwresmanager/iwresmanager.mkf'
p1321
(lp1322
I1
a(dp1323
asS'c:/marmalade/7.2/modules/iwresmanager/h/IwResGroup.h'
p1324
(lp1325
I1
ag1318
asS'c:/marmalade/7.2/modules/iwresmanager/h/IwResHandlerImage.h'
p1326
(lp1327
I1
ag1318
asS'c:/marmalade/7.2/modules/iwresmanager/docs/iwresmanager.config.txt'
p1328
(lp1329
I1
ag1318
asS'c:/marmalade/7.2/modules/iwresmanager/h/IwResManagerClass.h'
p1330
(lp1331
I1
ag1318
asS'c:/marmalade/7.2/modules/iwresmanager/h/IwResHandlerITX.h'
p1332
(lp1333
I1
ag1318
asS'c:/marmalade/7.2/modules/iwresmanager/h/IwResSerialise.h'
p1334
(lp1335
I1
ag1318
asS'c:/marmalade/7.2/modules/iwresmanager/h/IwResManager.h'
p1336
(lp1337
I1
ag1318
assS'iwgx'
p1338
(dp1339
S'c:/marmalade/7.2/modules/iwgx/h/IwTPage.h'
p1340
(lp1341
I1
a(dp1342
asS'c:/marmalade/7.2/modules/iwgx/h/IwGxStream.h'
p1343
(lp1344
I1
ag1342
asS'c:/marmalade/7.2/modules/iwgx/h/IwGxTransformSW.h'
p1345
(lp1346
I1
ag1342
asS'c:/marmalade/7.2/modules/iwgx/h/IwMaterial.h'
p1347
(lp1348
I1
ag1342
asS'c:/marmalade/7.2/modules/iwgx/h/IwMatAnim.h'
p1349
(lp1350
I1
ag1342
asS'c:/marmalade/7.2/modules/iwgx/docs/iwgx.config.txt'
p1351
(lp1352
I1
ag1342
asS'c:/marmalade/7.2/modules/iwgx/iwgx.mkf'
p1353
(lp1354
I1
a(dp1355
asS'c:/marmalade/7.2/modules/iwgx/h/IwResHandlerMTL.h'
p1356
(lp1357
I1
ag1342
asS'c:/marmalade/7.2/modules/iwgx/h/IwGxPrint.h'
p1358
(lp1359
I1
ag1342
asS'c:/marmalade/7.2/modules/iwgx/h/IwGxSurface.h'
p1360
(lp1361
I1
ag1342
asS'c:/marmalade/7.2/modules/iwgx/docs/iwgx_public.defines.txt'
p1362
(lp1363
I1
ag1342
asS'c:/marmalade/7.2/modules/iwgx/h/IwClip.h'
p1364
(lp1365
I1
ag1342
asS'c:/marmalade/7.2/modules/iwgx/h/IwGx.h'
p1366
(lp1367
I1
ag1342
asS'c:/marmalade/7.2/modules/iwgx/h/IwGxDebug.h'
p1368
(lp1369
I1
ag1342
asS'c:/marmalade/7.2/modules/iwgx/h/IwDebugPrim.h'
p1370
(lp1371
I1
ag1342
asS'c:/marmalade/7.2/modules/iwgx/h/IwGxMetrics.h'
p1372
(lp1373
I1
ag1342
asS'c:/marmalade/7.2/modules/iwgx/h/IwGxError.h'
p1374
(lp1375
I1
ag1342
asS'c:/marmalade/7.2/modules/iwgx/h/IwClip.inl'
p1376
(lp1377
I1
ag1342
asS'c:/marmalade/7.2/modules/iwgx/h/IwGxFuncTable.h'
p1378
(lp1379
I1
ag1342
asS'c:/marmalade/7.2/modules/iwgx/h/IwTexture.h'
p1380
(lp1381
I1
ag1342
asS'c:/marmalade/7.2/modules/iwgx/h/IwFColour.h'
p1382
(lp1383
I1
ag1342
asS'c:/marmalade/7.2/modules/iwgx/h/IwColour.h'
p1384
(lp1385
I1
ag1342
asS'c:/marmalade/7.2/modules/iwgx/h/IwGxShaderTechnique.h'
p1386
(lp1387
I1
ag1342
asS'c:/marmalade/7.2/modules/iwgx/h/IwGxTypes.h'
p1388
(lp1389
I1
ag1342
asS'c:/marmalade/7.2/modules/iwgx/h/IwGxState.h'
p1390
(lp1391
I1
ag1342
assS'iw2dscenegraphcore'
p1392
(dp1393
S'c:/marmalade/7.2/modules/iw2dscenegraphcore/iw2dscenegraphcore.mkf'
p1394
(lp1395
I1
a(dp1396
asS'c:/marmalade/7.2/modules/iw2dscenegraphcore/h/Iw2DSceneGraphCore.h'
p1397
(lp1398
I1
a(dp1399
asS'c:/marmalade/7.2/modules/iw2dscenegraphcore/source/Iw2DSceneGraphCore.cpp'
p1400
(lp1401
I1
ag1399
assS'iwutil'
p1402
(dp1403
S'c:/marmalade/7.2/modules/iwutil/h/IwCore.h'
p1404
(lp1405
I1
a(dp1406
asS'c:/marmalade/7.2/modules/iwutil/h/IwArray.h'
p1407
(lp1408
I1
ag1406
asS'c:/marmalade/7.2/modules/iwutil/h/IwResource.h'
p1409
(lp1410
I1
ag1406
asS'c:/marmalade/7.2/modules/iwutil/h/IwFibre.h'
p1411
(lp1412
I1
ag1406
asS'c:/marmalade/7.2/modules/iwutil/h/IwBuffer.h'
p1413
(lp1414
I1
ag1406
asS'c:/marmalade/7.2/modules/iwutil/h/IwRandom.h'
p1415
(lp1416
I1
ag1406
asS'c:/marmalade/7.2/modules/iwutil/h/IwManagedList.h'
p1417
(lp1418
I1
ag1406
asS'c:/marmalade/7.2/modules/iwutil/h/IwList.h'
p1419
(lp1420
I1
ag1406
asS'c:/marmalade/7.2/modules/iwutil/h/IwProfileMenu.h'
p1421
(lp1422
I1
ag1406
asS'c:/marmalade/7.2/modules/iwutil/h/IwMemory.h'
p1423
(lp1424
I1
ag1406
asS'c:/marmalade/7.2/modules/iwutil/h/IwMath.h'
p1425
(lp1426
I1
ag1406
asS'c:/marmalade/7.2/modules/iwutil/h/IwDivTable.h'
p1427
(lp1428
I1
ag1406
asS'c:/marmalade/7.2/modules/iwutil/h/IwTextParserITX.h'
p1429
(lp1430
I1
ag1406
asS'c:/marmalade/7.2/modules/iwutil/h/IwMenu.h'
p1431
(lp1432
I1
ag1406
asS'c:/marmalade/7.2/modules/iwutil/h/IwChar.h'
p1433
(lp1434
I1
ag1406
asS'c:/marmalade/7.2/modules/iwutil/h/IwEvent.h'
p1435
(lp1436
I1
ag1406
asS'c:/marmalade/7.2/modules/iwutil/h/IwTextParser.h'
p1437
(lp1438
I1
ag1406
asS'c:/marmalade/7.2/modules/iwutil/h/IwOptimiseSize.h'
p1439
(lp1440
I1
ag1406
asS'c:/marmalade/7.2/modules/iwutil/h/IwSingleton.h'
p1441
(lp1442
I1
ag1406
asS'c:/marmalade/7.2/modules/iwutil/h/IwImage.h'
p1443
(lp1444
I1
ag1406
asS'c:/marmalade/7.2/modules/iwutil/h/IwFile.h'
p1445
(lp1446
I1
ag1406
asS'c:/marmalade/7.2/modules/iwutil/h/IwString.h'
p1447
(lp1448
I1
ag1406
asS'c:/marmalade/7.2/modules/iwutil/h/IwVariableBitField.h'
p1449
(lp1450
I1
ag1406
asS'c:/marmalade/7.2/modules/iwutil/h/IwUncopyable.h'
p1451
(lp1452
I1
ag1406
asS'c:/marmalade/7.2/modules/iwutil/h/IwAllocator.h'
p1453
(lp1454
I1
ag1406
asS'c:/marmalade/7.2/modules/iwutil/h/IwTypes.h'
p1455
(lp1456
I1
ag1406
asS'c:/marmalade/7.2/modules/iwutil/h/IwManaged.h'
p1457
(lp1458
I1
ag1406
asS'c:/marmalade/7.2/modules/iwutil/h/IwRuntime.h'
p1459
(lp1460
I1
ag1406
asS'c:/marmalade/7.2/modules/iwutil/h/IwMemManagerDL.h'
p1461
(lp1462
I1
ag1406
asS'c:/marmalade/7.2/modules/iwutil/h/IwOptimiseThumb.h'
p1463
(lp1464
I1
ag1406
asS'c:/marmalade/7.2/modules/iwutil/h/IwUtil.h'
p1465
(lp1466
I1
ag1406
asS'c:/marmalade/7.2/modules/iwutil/docs/iwutil.config.txt'
p1467
(lp1468
I1
ag1406
asS'c:/marmalade/7.2/modules/iwutil/h/IwClassFactory.h'
p1469
(lp1470
I1
ag1406
asS'c:/marmalade/7.2/modules/iwutil/h/IwUtilInitTerm.h'
p1471
(lp1472
I1
ag1406
asS'c:/marmalade/7.2/modules/iwutil/h/IwAutoFile.h'
p1473
(lp1474
I1
ag1406
asS'c:/marmalade/7.2/modules/iwutil/h/IwUTF8.h'
p1475
(lp1476
I1
ag1406
asS'c:/marmalade/7.2/modules/iwutil/h/IwSerialise.h'
p1477
(lp1478
I1
ag1406
asS'c:/marmalade/7.2/modules/iwutil/h/IwPath.h'
p1479
(lp1480
I1
ag1406
asS'c:/marmalade/7.2/modules/iwutil/h/IwMemBucketHelpers.h'
p1481
(lp1482
I1
ag1406
asS'c:/marmalade/7.2/modules/iwutil/h/IwCopyingPtr.h'
p1483
(lp1484
I1
ag1406
asS'c:/marmalade/7.2/modules/iwutil/h/IwOptimiseARM.h'
p1485
(lp1486
I1
ag1406
asS'c:/marmalade/7.2/modules/iwutil/h/IwMemBucket.h'
p1487
(lp1488
I1
ag1406
asS'c:/marmalade/7.2/modules/iwutil/iwutil.mkf'
p1489
(lp1490
I1
a(dp1491
asS'c:/marmalade/7.2/modules/iwutil/h/IwKeymap.h'
p1492
(lp1493
I1
ag1406
asS'c:/marmalade/7.2/modules/iwutil/h/IwImageHelper.h'
p1494
(lp1495
I1
ag1406
asS'c:/marmalade/7.2/modules/iwutil/h/IwOptimiseSpeed.h'
p1496
(lp1497
I1
ag1406
asS'c:/marmalade/7.2/modules/iwutil/h/IwTextParseable.h'
p1498
(lp1499
I1
ag1406
asS'c:/marmalade/7.2/modules/iwutil/h/IwDebug.h'
p1500
(lp1501
I1
ag1406
asS'c:/marmalade/7.2/modules/iwutil/h/IwDivide.h'
p1502
(lp1503
I1
ag1406
asS'c:/marmalade/7.2/modules/iwutil/h/IwHashString.h'
p1504
(lp1505
I1
ag1406
asssS'(zlib)'
p1506
(dp1507
g1034
(dp1508
S'c:/marmalade/7.2/modules/third_party/zlib/h/zconf.h'
p1509
(lp1510
I1
a(dp1511
asS'c:/marmalade/7.2/modules/third_party/zlib/h/zlib.h'
p1512
(lp1513
I1
ag1511
assS'c:/marmalade/7.2/modules/third_party/zlib/zlib.mkf'
p1514
(lp1515
I1
a(dp1516
assS'(iwtween)'
p1517
(dp1518
S'c:/marmalade/7.2/modules/iwtween/iwtween.mkf'
p1519
(lp1520
I1
a(dp1521
asS'c:/marmalade/7.2/modules/iwtween/source/IwTween.cpp'
p1522
(lp1523
I1
a(dp1524
asS'c:/marmalade/7.2/modules/iwtween/h/IwTween.h'
p1525
(lp1526
I1
ag1524
assS'hope'
p1527
(dp1528
S'main'
p1529
(dp1530
S'c:/Users/Vinicius/Desktop/Yes or No/Hoppe/source/main.cpp'
p1531
(lp1532
I1
a(dp1533
asS'c:/Users/Vinicius/Desktop/Yes or No/Hoppe/source/include.h'
p1534
(lp1535
I1
ag1533
asS'c:/Users/Vinicius/Desktop/Yes or No/Hoppe/source/main.h'
p1536
(lp1537
I1
ag1533
assS'managers'
p1538
(dp1539
S'c:/Users/Vinicius/Desktop/Yes or No/Hoppe/source/audioManager.h'
p1540
(lp1541
I1
ag1533
asS'c:/Users/Vinicius/Desktop/Yes or No/Hoppe/source/timerManager.cpp'
p1542
(lp1543
I1
ag1533
asS'c:/Users/Vinicius/Desktop/Yes or No/Hoppe/source/timerManager.h'
p1544
(lp1545
I1
ag1533
asS'c:/Users/Vinicius/Desktop/Yes or No/Hoppe/source/inputManager.h'
p1546
(lp1547
I1
ag1533
asS'c:/Users/Vinicius/Desktop/Yes or No/Hoppe/source/inputManager.cpp'
p1548
(lp1549
I1
ag1533
asS'c:/Users/Vinicius/Desktop/Yes or No/Hoppe/source/audioManager.cpp'
p1550
(lp1551
I1
ag1533
asS'c:/Users/Vinicius/Desktop/Yes or No/Hoppe/source/sceneManager.cpp'
p1552
(lp1553
I1
ag1533
asS'c:/Users/Vinicius/Desktop/Yes or No/Hoppe/source/sceneManager.h'
p1554
(lp1555
I1
ag1533
assS'scenes'
p1556
(dp1557
S'c:/Users/Vinicius/Desktop/Yes or No/Hoppe/source/mainMenu.h'
p1558
(lp1559
I1
ag1533
asS'c:/Users/Vinicius/Desktop/Yes or No/Hoppe/source/mainMenu.cpp'
p1560
(lp1561
I1
ag1533
asS'c:/Users/Vinicius/Desktop/Yes or No/Hoppe/source/game.cpp'
p1562
(lp1563
I1
ag1533
asS'c:/Users/Vinicius/Desktop/Yes or No/Hoppe/source/game.h'
p1564
(lp1565
I1
ag1533
assssS'files'
p1566
(dp1567
S'IwGxFontPreparedData.h'
p1568
g299
(cmkb_main
File
p1569
g301
Ntp1570
Rp1571
(dp1572
S'flags'
p1573
g1228
sS'group'
p1574
(lp1575
S"'Marmalade Studio'"
p1576
ag1224
asg325
g1229
sbsS'iterator'
p1577
g299
(g1569
g301
Ntp1578
Rp1579
(dp1580
g1573
(dp1581
sg1574
(lp1582
S"'Marmalade System (S3E)'"
p1583
aS'stdc headers'
p1584
aS'c++'
p1585
asg325
S'c:/marmalade/7.2/s3e/h/std/c++/iterator'
p1586
sbsS'IwGL.h'
p1587
g299
(g1569
g301
Ntp1588
Rp1589
(dp1590
g1573
g1204
sg1574
(lp1591
S"'Marmalade Studio'"
p1592
ag1200
asg325
g1202
sbsS's3e.h'
p1593
g299
(g1569
g301
Ntp1594
Rp1595
(dp1596
g1573
g1581
sg1574
(lp1597
g1583
asg325
S'c:/marmalade/7.2/s3e/h/s3e.h'
p1598
sbsS'errno.h'
p1599
g299
(g1569
g301
Ntp1600
Rp1601
(dp1602
g1573
g1581
sg1574
(lp1603
g1583
aS'stdc headers'
p1604
asg325
S'c:/marmalade/7.2/s3e/h/std/errno.h'
p1605
sbsS'IwSingleton.h'
p1606
g299
(g1569
g301
Ntp1607
Rp1608
(dp1609
g1573
g1406
sg1574
(lp1610
S"'Marmalade Studio'"
p1611
ag1402
asg325
g1441
sbsS'dlfcn.h'
p1612
g299
(g1569
g301
Ntp1613
Rp1614
(dp1615
g1573
g1581
sg1574
g1603
sg325
S'c:/marmalade/7.2/s3e/h/std/dlfcn.h'
p1616
sbsS'IwSoundWAV.cpp'
p1617
g299
(g1569
g301
Ntp1618
Rp1619
(dp1620
g1573
g1093
sg1574
(lp1621
g1089
asg325
g1129
sbsS'sched.h'
p1622
g299
(g1569
g301
Ntp1623
Rp1624
(dp1625
g1573
g1581
sg1574
g1603
sg325
S'c:/marmalade/7.2/s3e/h/std/sched.h'
p1626
sbsS'IwSoundPCM.h'
p1627
g299
(g1569
g301
Ntp1628
Rp1629
(dp1630
g1573
g1093
sg1574
g1621
sg325
g1094
sbsS'IwGeomFMat2D.h'
p1631
g299
(g1569
g301
Ntp1632
Rp1633
(dp1634
g1573
g1250
sg1574
(lp1635
S"'Marmalade Studio'"
p1636
ag1246
asg325
g1261
sbsS'cassert'
p1637
g299
(g1569
g301
Ntp1638
Rp1639
(dp1640
g1573
g1581
sg1574
g1582
sg325
S'c:/marmalade/7.2/s3e/h/std/c++/cassert'
p1641
sbsS'grp.h'
p1642
g299
(g1569
g301
Ntp1643
Rp1644
(dp1645
g1573
g1581
sg1574
g1603
sg325
S'c:/marmalade/7.2/s3e/h/std/grp.h'
p1646
sbsS'list'
p1647
g299
(g1569
g301
Ntp1648
Rp1649
(dp1650
g1573
g1581
sg1574
g1582
sg325
S'c:/marmalade/7.2/s3e/h/std/c++/list'
p1651
sbsS'IwSoundSpec.cpp'
p1652
g299
(g1569
g301
Ntp1653
Rp1654
(dp1655
g1573
g1093
sg1574
g1621
sg325
g1116
sbsS'istream'
p1656
g299
(g1569
g301
Ntp1657
Rp1658
(dp1659
g1573
g1581
sg1574
g1582
sg325
S'c:/marmalade/7.2/s3e/h/std/c++/istream'
p1660
sbsS'jpeglib.h'
p1661
g299
(g1569
g301
Ntp1662
Rp1663
(dp1664
g1573
g1049
sg1574
(lp1665
g1044
ag1034
asg325
g1058
sbsS'iw2d_public.defines.txt'
p1666
g299
(g1569
g301
Ntp1667
Rp1668
(dp1669
g1573
g1216
sg1574
(lp1670
S"'Marmalade Studio'"
p1671
ag1212
asg325
g1214
sbsS'iostream.h'
p1672
g299
(g1569
g301
Ntp1673
Rp1674
(dp1675
g1573
g1581
sg1574
g1582
sg325
S'c:/marmalade/7.2/s3e/h/std/c++/iostream.h'
p1676
sbsS'IwSoundADPCM.h'
p1677
g299
(g1569
g301
Ntp1678
Rp1679
(dp1680
g1573
g1093
sg1574
g1621
sg325
g1098
sbsS'string'
p1681
g299
(g1569
g301
Ntp1682
Rp1683
(dp1684
g1573
g1581
sg1574
g1582
sg325
S'c:/marmalade/7.2/s3e/h/std/c++/string'
p1685
sbsS'IwMemory.h'
p1686
g299
(g1569
g301
Ntp1687
Rp1688
(dp1689
g1573
g1406
sg1574
g1610
sg325
g1423
sbsS'IwGeomPlane.h'
p1690
g299
(g1569
g301
Ntp1691
Rp1692
(dp1693
g1573
g1250
sg1574
g1635
sg325
g1251
sbsS'iw2d.config.txt'
p1694
g299
(g1569
g301
Ntp1695
Rp1696
(dp1697
g1573
g1216
sg1574
g1670
sg325
g1219
sbsS'iomanip'
p1698
g299
(g1569
g301
Ntp1699
Rp1700
(dp1701
g1573
g1581
sg1574
g1582
sg325
S'c:/marmalade/7.2/s3e/h/std/c++/iomanip'
p1702
sbsS'iwgeom.mkf'
p1703
g299
(g1569
g301
Ntp1704
Rp1705
(dp1706
g1573
g1295
sg1574
g1635
sg325
g1293
sbsS'IwGxError.h'
p1707
g299
(g1569
g301
Ntp1708
Rp1709
(dp1710
g1573
g1342
sg1574
(lp1711
S"'Marmalade Studio'"
p1712
ag1338
asg325
g1374
sbsS'IwGeom.h'
p1713
g299
(g1569
g301
Ntp1714
Rp1715
(dp1716
g1573
g1250
sg1574
g1635
sg325
g1269
sbsS'IwGeomVec4.h'
p1717
g299
(g1569
g301
Ntp1718
Rp1719
(dp1720
g1573
g1250
sg1574
g1635
sg325
g1310
sbsS'dir.h'
p1721
g299
(g1569
g301
Ntp1722
Rp1723
(dp1724
g1573
g1581
sg1574
(lp1725
g1583
aS'stdc headers'
p1726
aS'sys'
p1727
asg325
S'c:/marmalade/7.2/s3e/h/std/sys/dir.h'
p1728
sbsS'locale.h'
p1729
g299
(g1569
g301
Ntp1730
Rp1731
(dp1732
g1573
g1581
sg1574
g1603
sg325
S'c:/marmalade/7.2/s3e/h/std/locale.h'
p1733
sbsS'vector'
p1734
g299
(g1569
g301
Ntp1735
Rp1736
(dp1737
g1573
g1581
sg1574
g1582
sg325
S'c:/marmalade/7.2/s3e/h/std/c++/vector'
p1738
sbsS'IwManaged.h'
p1739
g299
(g1569
g301
Ntp1740
Rp1741
(dp1742
g1573
g1406
sg1574
g1610
sg325
g1457
sbsS's3eCompass.h'
p1743
g299
(g1569
g301
Ntp1744
Rp1745
(dp1746
g1573
g1581
sg1574
g1597
sg325
S'c:/marmalade/7.2/s3e/h/s3eCompass.h'
p1747
sbsS'cderror.h'
p1748
g299
(g1569
g301
Ntp1749
Rp1750
(dp1751
g1573
g1049
sg1574
g1665
sg325
g1074
sbsS'climits'
p1752
g299
(g1569
g301
Ntp1753
Rp1754
(dp1755
g1573
g1581
sg1574
g1582
sg325
S'c:/marmalade/7.2/s3e/h/std/c++/climits'
p1756
sbsS's3eVibra.h'
p1757
g299
(g1569
g301
Ntp1758
Rp1759
(dp1760
g1573
g1581
sg1574
g1597
sg325
S'c:/marmalade/7.2/s3e/h/s3eVibra.h'
p1761
sbsS'jversion.h'
p1762
g299
(g1569
g301
Ntp1763
Rp1764
(dp1765
g1573
g1049
sg1574
g1665
sg325
g1060
sbsS'fnmatch.h'
p1766
g299
(g1569
g301
Ntp1767
Rp1768
(dp1769
g1573
g1581
sg1574
g1603
sg325
S'c:/marmalade/7.2/s3e/h/std/fnmatch.h'
p1770
sbsS'IwGxState.h'
p1771
g299
(g1569
g301
Ntp1772
Rp1773
(dp1774
g1573
g1342
sg1574
g1711
sg325
g1390
sbsS's3eAudio.h'
p1775
g299
(g1569
g301
Ntp1776
Rp1777
(dp1778
g1573
g1581
sg1574
g1597
sg325
S'c:/marmalade/7.2/s3e/h/s3eAudio.h'
p1779
sbsS's3eSurface.h'
p1780
g299
(g1569
g301
Ntp1781
Rp1782
(dp1783
g1573
g1581
sg1574
g1597
sg325
S'c:/marmalade/7.2/s3e/h/s3eSurface.h'
p1784
sbsS'new'
p1785
g299
(g1569
g301
Ntp1786
Rp1787
(dp1788
g1573
g1581
sg1574
g1582
sg325
S'c:/marmalade/7.2/s3e/h/std/c++/new'
p1789
sbsS's3eWindow.h'
p1790
g299
(g1569
g301
Ntp1791
Rp1792
(dp1793
g1573
g1581
sg1574
(lp1794
g1583
aS'Extensions'
p1795
asg325
S'c:/marmalade/7.2/s3e/h/ext/s3eWindow.h'
p1796
sbsS'IwBuffer.h'
p1797
g299
(g1569
g301
Ntp1798
Rp1799
(dp1800
g1573
g1406
sg1574
g1610
sg325
g1413
sbsS's3eflurry.mkf'
p1801
g299
(g1569
g301
Ntp1802
Rp1803
(dp1804
g1573
g1185
sg1574
(lp1805
S'Extensions'
p1806
ag1172
asg325
g1183
sbsS'stdio_streambuf'
p1807
g299
(g1569
g301
Ntp1808
Rp1809
(dp1810
g1573
g1581
sg1574
g1582
sg325
S'c:/marmalade/7.2/s3e/h/std/c++/stdio_streambuf'
p1811
sbsS's3eOSExec.h'
p1812
g299
(g1569
g301
Ntp1813
Rp1814
(dp1815
g1573
g1581
sg1574
g1794
sg325
S'c:/marmalade/7.2/s3e/h/ext/s3eOSExec.h'
p1816
sbsS'IwGxTransformSW.h'
p1817
g299
(g1569
g301
Ntp1818
Rp1819
(dp1820
g1573
g1342
sg1574
g1711
sg325
g1345
sbsS'unistd.h'
p1821
g299
(g1569
g301
Ntp1822
Rp1823
(dp1824
g1573
g1581
sg1574
g1603
sg325
S'c:/marmalade/7.2/s3e/h/std/unistd.h'
p1825
sbsS'iwgxfont.config.txt'
p1826
g299
(g1569
g301
Ntp1827
Rp1828
(dp1829
g1573
g1228
sg1574
g1575
sg325
g1244
sbsS'gl2platform.h'
p1830
g299
(g1569
g301
Ntp1831
Rp1832
(dp1833
g1573
g1581
sg1574
(lp1834
g1583
aS'GL'
p1835
aS'GLES 2.0'
p1836
asg325
S'c:/marmalade/7.2/s3e/h/GLES2/gl2platform.h'
p1837
sbsS'IwResManagerClass.h'
p1838
g299
(g1569
g301
Ntp1839
Rp1840
(dp1841
g1573
g1318
sg1574
(lp1842
g1186
ag1314
asg325
g1330
sbsS'queue'
p1843
g299
(g1569
g301
Ntp1844
Rp1845
(dp1846
g1573
g1581
sg1574
g1582
sg325
S'c:/marmalade/7.2/s3e/h/std/c++/queue'
p1847
sbsS'time_1.h'
p1848
g299
(g1569
g301
Ntp1849
Rp1850
(dp1851
g1573
g1581
sg1574
g1725
sg325
S'c:/marmalade/7.2/s3e/h/std/sys/time.h'
p1852
sbsS'Iw2D.h'
p1853
g299
(g1569
g301
Ntp1854
Rp1855
(dp1856
g1573
g1216
sg1574
g1670
sg325
g1217
sbsS'IwGeomVec2.h'
p1857
g299
(g1569
g301
Ntp1858
Rp1859
(dp1860
g1573
g1250
sg1574
g1635
sg325
g1279
sbsS'sendfile.h'
p1861
g299
(g1569
g301
Ntp1862
Rp1863
(dp1864
g1573
g1581
sg1574
g1725
sg325
S'c:/marmalade/7.2/s3e/h/std/sys/sendfile.h'
p1865
sbsS'malloc.h'
p1866
g299
(g1569
g301
Ntp1867
Rp1868
(dp1869
g1573
g1581
sg1574
g1603
sg325
S'c:/marmalade/7.2/s3e/h/std/malloc.h'
p1870
sbsS'timerManager.h'
p1871
g299
(g1569
g301
Ntp1872
Rp1873
(dp1874
g1573
g1533
sg1574
(lp1875
g1527
ag1538
asg325
g1544
sbsS'stdarg.h'
p1876
g299
(g1569
g301
Ntp1877
Rp1878
(dp1879
g1573
g1581
sg1574
g1603
sg325
S'c:/marmalade/7.2/s3e/h/std/stdarg.h'
p1880
sbsS'IwGeomCore.h'
p1881
g299
(g1569
g301
Ntp1882
Rp1883
(dp1884
g1573
g1250
sg1574
g1635
sg325
g1263
sbsS'Iw2DSceneGraph.h'
p1885
g299
(g1569
g301
Ntp1886
Rp1887
(dp1888
g1573
g1192
sg1574
(lp1889
S"'Marmalade Studio'"
p1890
ag1188
asg325
g1196
sbsS'endian.h'
p1891
g299
(g1569
g301
Ntp1892
Rp1893
(dp1894
g1573
g1581
sg1574
g1603
sg325
S'c:/marmalade/7.2/s3e/h/std/endian.h'
p1895
sbsS'glob.h'
p1896
g299
(g1569
g301
Ntp1897
Rp1898
(dp1899
g1573
g1581
sg1574
g1603
sg325
S'c:/marmalade/7.2/s3e/h/std/glob.h'
p1900
sbsS'fstream'
p1901
g299
(g1569
g301
Ntp1902
Rp1903
(dp1904
g1573
g1581
sg1574
g1582
sg325
S'c:/marmalade/7.2/s3e/h/std/c++/fstream'
p1905
sbsS'include.h'
p1906
g299
(g1569
g301
Ntp1907
Rp1908
(dp1909
g1573
g1533
sg1574
(lp1910
S'hope'
p1911
ag1529
asg325
g1534
sbsS'jconfig.h'
p1912
g299
(g1569
g301
Ntp1913
Rp1914
(dp1915
g1573
g1049
sg1574
g1665
sg325
g1050
sbsS'memory'
p1916
g299
(g1569
g301
Ntp1917
Rp1918
(dp1919
g1573
g1581
sg1574
g1582
sg325
S'c:/marmalade/7.2/s3e/h/std/c++/memory'
p1920
sbsS'strstream'
p1921
g299
(g1569
g301
Ntp1922
Rp1923
(dp1924
g1573
g1581
sg1574
g1582
sg325
S'c:/marmalade/7.2/s3e/h/std/c++/strstream'
p1925
sbsS'egl.h'
p1926
g299
(g1569
g301
Ntp1927
Rp1928
(dp1929
g1573
g1581
sg1574
(lp1930
g1583
aS'GL'
p1931
aS'EGL'
p1932
asg325
S'c:/marmalade/7.2/s3e/h/EGL/egl.h'
p1933
sbsS'egl_1.h'
p1934
g299
(g1569
g301
Ntp1935
Rp1936
(dp1937
g1573
g1581
sg1574
(lp1938
g1583
aS'GL'
p1939
aS'GLES 1.x'
p1940
asg325
S'c:/marmalade/7.2/s3e/h/GLES/egl.h'
p1941
sbsS'IwMemManagerDL.h'
p1942
g299
(g1569
g301
Ntp1943
Rp1944
(dp1945
g1573
g1406
sg1574
g1610
sg325
g1461
sbsS'deque'
p1946
g299
(g1569
g301
Ntp1947
Rp1948
(dp1949
g1573
g1581
sg1574
g1582
sg325
S'c:/marmalade/7.2/s3e/h/std/c++/deque'
p1950
sbsS'IwString.h'
p1951
g299
(g1569
g301
Ntp1952
Rp1953
(dp1954
g1573
g1406
sg1574
g1610
sg325
g1447
sbsS'cwchar'
p1955
g299
(g1569
g301
Ntp1956
Rp1957
(dp1958
g1573
g1581
sg1574
g1582
sg325
S'c:/marmalade/7.2/s3e/h/std/c++/cwchar'
p1959
sbsS'iwutil.mkf'
p1960
g299
(g1569
g301
Ntp1961
Rp1962
(dp1963
g1573
g1491
sg1574
g1610
sg325
g1489
sbsS'csignal'
p1964
g299
(g1569
g301
Ntp1965
Rp1966
(dp1967
g1573
g1581
sg1574
g1582
sg325
S'c:/marmalade/7.2/s3e/h/std/c++/csignal'
p1968
sbsS'float.h'
p1969
g299
(g1569
g301
Ntp1970
Rp1971
(dp1972
g1573
g1581
sg1574
g1603
sg325
S'c:/marmalade/7.2/s3e/h/std/float.h'
p1973
sbsS'pthread_alloc'
p1974
g299
(g1569
g301
Ntp1975
Rp1976
(dp1977
g1573
g1581
sg1574
g1582
sg325
S'c:/marmalade/7.2/s3e/h/std/c++/pthread_alloc'
p1978
sbsS'getopt.h'
p1979
g299
(g1569
g301
Ntp1980
Rp1981
(dp1982
g1573
g1581
sg1574
g1603
sg325
S'c:/marmalade/7.2/s3e/h/std/getopt.h'
p1983
sbsS'IwOptimiseARM.h'
p1984
g299
(g1569
g301
Ntp1985
Rp1986
(dp1987
g1573
g1406
sg1574
g1610
sg325
g1485
sbsS'times.h'
p1988
g299
(g1569
g301
Ntp1989
Rp1990
(dp1991
g1573
g1581
sg1574
g1725
sg325
S'c:/marmalade/7.2/s3e/h/std/sys/times.h'
p1992
sbsS'IwGeomFSphere.h'
p1993
g299
(g1569
g301
Ntp1994
Rp1995
(dp1996
g1573
g1250
sg1574
g1635
sg325
g1296
sbsS'game.h'
p1997
g299
(g1569
g301
Ntp1998
Rp1999
(dp2000
g1573
g1533
sg1574
(lp2001
S'hope'
p2002
ag1556
asg325
g1564
sbsS'functional'
p2003
g299
(g1569
g301
Ntp2004
Rp2005
(dp2006
g1573
g1581
sg1574
g1582
sg325
S'c:/marmalade/7.2/s3e/h/std/c++/functional'
p2007
sbsS'IwTypes.h'
p2008
g299
(g1569
g301
Ntp2009
Rp2010
(dp2011
g1573
g1406
sg1574
g1610
sg325
g1455
sbsS'IwGxMetrics.h'
p2012
g299
(g1569
g301
Ntp2013
Rp2014
(dp2015
g1573
g1342
sg1574
g1711
sg325
g1372
sbsS's3eCompression.h'
p2016
g299
(g1569
g301
Ntp2017
Rp2018
(dp2019
g1573
g1581
sg1574
g1597
sg325
S'c:/marmalade/7.2/s3e/h/s3eCompression.h'
p2020
sbsS'langinfo.h'
p2021
g299
(g1569
g301
Ntp2022
Rp2023
(dp2024
g1573
g1581
sg1574
g1603
sg325
S'c:/marmalade/7.2/s3e/h/std/langinfo.h'
p2025
sbsS's3edebugHeap.h'
p2026
g299
(g1569
g301
Ntp2027
Rp2028
(dp2029
g1573
g1581
sg1574
g1794
sg325
S'c:/marmalade/7.2/s3e/h/ext/s3edebugHeap.h'
p2030
sbsS'AirplayVersion.h'
p2031
g299
(g1569
g301
Ntp2032
Rp2033
(dp2034
g1573
g1581
sg1574
g1597
sg325
S'c:/marmalade/7.2/s3e/h/AirplayVersion.h'
p2035
sbsS'gl2extimg.h'
p2036
g299
(g1569
g301
Ntp2037
Rp2038
(dp2039
g1573
g1581
sg1574
g1834
sg325
S'c:/marmalade/7.2/s3e/h/GLES2/gl2extimg.h'
p2040
sbsS'app.config.txt'
p2041
g299
(g1569
g301
Ntp2042
Rp2043
(dp2044
g1573
(dp2045
sg1574
g4
sg325
S'c:/Users/Vinicius/Desktop/Yes or No/Hoppe/data/app.config.txt'
p2046
sbsS'IwGeomSqrt.h'
p2047
g299
(g1569
g301
Ntp2048
Rp2049
(dp2050
g1573
g1250
sg1574
g1635
sg325
g1259
sbsS'tiniconv_int.h'
p2051
g299
(g1569
g301
Ntp2052
Rp2053
(dp2054
g1573
g1083
sg1574
(lp2055
g1079
asg325
g1084
sbsS'syslog.h'
p2056
g299
(g1569
g301
Ntp2057
Rp2058
(dp2059
g1573
g1581
sg1574
g1603
sg325
S'c:/marmalade/7.2/s3e/h/std/syslog.h'
p2060
sbsS'IwGxFontTypes.h'
p2061
g299
(g1569
g301
Ntp2062
Rp2063
(dp2064
g1573
g1228
sg1574
g1575
sg325
g1239
sbsS'IwGeomFIntersect.h'
p2065
g299
(g1569
g301
Ntp2066
Rp2067
(dp2068
g1573
g1250
sg1574
g1635
sg325
g1291
sbsS'hash_map'
p2069
g299
(g1569
g301
Ntp2070
Rp2071
(dp2072
g1573
g1581
sg1574
g1582
sg325
S'c:/marmalade/7.2/s3e/h/std/c++/hash_map'
p2073
sbsS's3e.mkf'
p2074
g299
(g1569
g301
Ntp2075
Rp2076
(dp2077
g1573
(dp2078
sg1574
g1597
sg325
S'c:/marmalade/7.2/s3e/s3e.mkf'
p2079
sbsS's3eOSReadString.h'
p2080
g299
(g1569
g301
Ntp2081
Rp2082
(dp2083
g1573
g1581
sg1574
g1794
sg325
S'c:/marmalade/7.2/s3e/h/ext/s3eOSReadString.h'
p2084
sbsS'IwSound.h'
p2085
g299
(g1569
g301
Ntp2086
Rp2087
(dp2088
g1573
g1093
sg1574
g1621
sg325
g1122
sbsS'map'
p2089
g299
(g1569
g301
Ntp2090
Rp2091
(dp2092
g1573
g1581
sg1574
g1582
sg325
S'c:/marmalade/7.2/s3e/h/std/c++/map'
p2093
sbsS'iwtween.mkf'
p2094
g299
(g1569
g301
Ntp2095
Rp2096
(dp2097
g1573
g1521
sg1574
(lp2098
g1517
asg325
g1519
sbsS'IwOptimiseSpeed.h'
p2099
g299
(g1569
g301
Ntp2100
Rp2101
(dp2102
g1573
g1406
sg1574
g1610
sg325
g1496
sbsS'inputManager.h'
p2103
g299
(g1569
g301
Ntp2104
Rp2105
(dp2106
g1573
g1533
sg1574
g1875
sg325
g1546
sbsS'ostream'
p2107
g299
(g1569
g301
Ntp2108
Rp2109
(dp2110
g1573
g1581
sg1574
g1582
sg325
S'c:/marmalade/7.2/s3e/h/std/c++/ostream'
p2111
sbsS'msl_string.h'
p2112
g299
(g1569
g301
Ntp2113
Rp2114
(dp2115
g1573
g1581
sg1574
g1582
sg325
S'c:/marmalade/7.2/s3e/h/std/c++/msl_string.h'
p2116
sbsS'select.h'
p2117
g299
(g1569
g301
Ntp2118
Rp2119
(dp2120
g1573
g1581
sg1574
g1725
sg325
S'c:/marmalade/7.2/s3e/h/std/sys/select.h'
p2121
sbsS'zlib.mkf'
p2122
g299
(g1569
g301
Ntp2123
Rp2124
(dp2125
g1573
g1516
sg1574
(lp2126
g1506
asg325
g1514
sbsS'signal.h'
p2127
g299
(g1569
g301
Ntp2128
Rp2129
(dp2130
g1573
g1581
sg1574
g1603
sg325
S'c:/marmalade/7.2/s3e/h/std/signal.h'
p2131
sbsS'sigcontext.h'
p2132
g299
(g1569
g301
Ntp2133
Rp2134
(dp2135
g1573
g1581
sg1574
g1603
sg325
S'c:/marmalade/7.2/s3e/h/std/sigcontext.h'
p2136
sbsS'libpng.mkf'
p2137
g299
(g1569
g301
Ntp2138
Rp2139
(dp2140
g1573
g1043
sg1574
(lp2141
g1032
asg325
g1041
sbsS's3eClipboard.h'
p2142
g299
(g1569
g301
Ntp2143
Rp2144
(dp2145
g1573
g1581
sg1574
g1597
sg325
S'c:/marmalade/7.2/s3e/h/s3eClipboard.h'
p2146
sbsS'IwGxFuncTable.h'
p2147
g299
(g1569
g301
Ntp2148
Rp2149
(dp2150
g1573
g1342
sg1574
g1711
sg325
g1378
sbsS'IwResHandlerGROUP.h'
p2151
g299
(g1569
g301
Ntp2152
Rp2153
(dp2154
g1573
g1318
sg1574
g1842
sg325
g1316
sbsS's3eDebug.h'
p2155
g299
(g1569
g301
Ntp2156
Rp2157
(dp2158
g1573
g1581
sg1574
g1597
sg325
S'c:/marmalade/7.2/s3e/h/s3eDebug.h'
p2159
sbsS'socket.h'
p2160
g299
(g1569
g301
Ntp2161
Rp2162
(dp2163
g1573
g1581
sg1574
g1725
sg325
S'c:/marmalade/7.2/s3e/h/std/sys/socket.h'
p2164
sbsS'glext.h'
p2165
g299
(g1569
g301
Ntp2166
Rp2167
(dp2168
g1573
g1581
sg1574
g1938
sg325
S'c:/marmalade/7.2/s3e/h/GLES/glext.h'
p2169
sbsS'typeinfo.h'
p2170
g299
(g1569
g301
Ntp2171
Rp2172
(dp2173
g1573
g1581
sg1574
g1582
sg325
S'c:/marmalade/7.2/s3e/h/std/c++/typeinfo.h'
p2174
sbsS'typeinfo'
p2175
g299
(g1569
g301
Ntp2176
Rp2177
(dp2178
g1573
g1581
sg1574
g1582
sg325
S'c:/marmalade/7.2/s3e/h/std/c++/typeinfo'
p2179
sbsS'iwsound.config.txt'
p2180
g299
(g1569
g301
Ntp2181
Rp2182
(dp2183
g1573
g1093
sg1574
(lp2184
g1089
ag1106
asg325
g1108
sbsS'fstream.h'
p2185
g299
(g1569
g301
Ntp2186
Rp2187
(dp2188
g1573
g1581
sg1574
g1582
sg325
S'c:/marmalade/7.2/s3e/h/std/c++/fstream.h'
p2189
sbsS'IwGeomMat.h'
p2190
g299
(g1569
g301
Ntp2191
Rp2192
(dp2193
g1573
g1250
sg1574
g1635
sg325
g1253
sbsS's3ePointer.h'
p2194
g299
(g1569
g301
Ntp2195
Rp2196
(dp2197
g1573
g1581
sg1574
g1597
sg325
S'c:/marmalade/7.2/s3e/h/s3ePointer.h'
p2198
sbsS'iw2d.mkf'
p2199
g299
(g1569
g301
Ntp2200
Rp2201
(dp2202
g1573
g1223
sg1574
g1670
sg325
g1221
sbsS's3eGL.h'
p2203
g299
(g1569
g301
Ntp2204
Rp2205
(dp2206
g1573
g1581
sg1574
g1597
sg325
S'c:/marmalade/7.2/s3e/h/s3eGL.h'
p2207
sbsS'IwGeomFVec2.h'
p2208
g299
(g1569
g301
Ntp2209
Rp2210
(dp2211
g1573
g1250
sg1574
g1635
sg325
g1267
sbsS'IwGeomSVec4.h'
p2212
g299
(g1569
g301
Ntp2213
Rp2214
(dp2215
g1573
g1250
sg1574
g1635
sg325
g1287
sbsS'poll.h'
p2216
g299
(g1569
g301
Ntp2217
Rp2218
(dp2219
g1573
g1581
sg1574
g1603
sg325
S'c:/marmalade/7.2/s3e/h/std/poll.h'
p2220
sbsS'IwMatAnim.h'
p2221
g299
(g1569
g301
Ntp2222
Rp2223
(dp2224
g1573
g1342
sg1574
g1711
sg325
g1349
sbsS'IwGeomFVec4.h'
p2225
g299
(g1569
g301
Ntp2226
Rp2227
(dp2228
g1573
g1250
sg1574
g1635
sg325
g1273
sbsS'IwGx.h'
p2229
g299
(g1569
g301
Ntp2230
Rp2231
(dp2232
g1573
g1342
sg1574
g1711
sg325
g1366
sbsS'valarray'
p2233
g299
(g1569
g301
Ntp2234
Rp2235
(dp2236
g1573
g1581
sg1574
g1582
sg325
S'c:/marmalade/7.2/s3e/h/std/c++/valarray'
p2237
sbsS'iosfwd'
p2238
g299
(g1569
g301
Ntp2239
Rp2240
(dp2241
g1573
g1581
sg1574
g1582
sg325
S'c:/marmalade/7.2/s3e/h/std/c++/iosfwd'
p2242
sbsS'gl2.h'
p2243
g299
(g1569
g301
Ntp2244
Rp2245
(dp2246
g1573
g1581
sg1574
g1834
sg325
S'c:/marmalade/7.2/s3e/h/GLES2/gl2.h'
p2247
sbsS'jpegint.h'
p2248
g299
(g1569
g301
Ntp2249
Rp2250
(dp2251
g1573
g1049
sg1574
g1665
sg325
g1054
sbsS'stdiostream.h'
p2252
g299
(g1569
g301
Ntp2253
Rp2254
(dp2255
g1573
g1581
sg1574
g1582
sg325
S'c:/marmalade/7.2/s3e/h/std/c++/stdiostream.h'
p2256
sbsS'mem.h'
p2257
g299
(g1569
g301
Ntp2258
Rp2259
(dp2260
g1573
g1581
sg1574
g1582
sg325
S'c:/marmalade/7.2/s3e/h/std/c++/mem.h'
p2261
sbsS'main.cpp'
p2262
g299
(g1569
g301
Ntp2263
Rp2264
(dp2265
g1573
g1533
sg1574
g1910
sg325
g1531
sbsS'zconf.h'
p2266
g299
(g1569
g301
Ntp2267
Rp2268
(dp2269
g1573
g1511
sg1574
(lp2270
g1506
ag1034
asg325
g1509
sbsS's3e.config.txt'
p2271
g299
(g1569
g301
Ntp2272
Rp2273
(dp2274
g1573
g1581
sg1574
g1597
sg325
S'c:/marmalade/7.2/s3e/s3e.config.txt'
p2275
sbsS'numeric'
p2276
g299
(g1569
g301
Ntp2277
Rp2278
(dp2279
g1573
g1581
sg1574
g1582
sg325
S'c:/marmalade/7.2/s3e/h/std/c++/numeric'
p2280
sbsS'utime.h'
p2281
g299
(g1569
g301
Ntp2282
Rp2283
(dp2284
g1573
g1581
sg1574
g1603
sg325
S'c:/marmalade/7.2/s3e/h/std/utime.h'
p2285
sbsS'jdhuff.h'
p2286
g299
(g1569
g301
Ntp2287
Rp2288
(dp2289
g1573
g1049
sg1574
g1665
sg325
g1064
sbsS'IwResHandlerWAV.cpp'
p2290
g299
(g1569
g301
Ntp2291
Rp2292
(dp2293
g1573
g1093
sg1574
g1621
sg325
g1110
sbsS'IwGxStream.h'
p2294
g299
(g1569
g301
Ntp2295
Rp2296
(dp2297
g1573
g1342
sg1574
g1711
sg325
g1343
sbsS'IwImage.h'
p2298
g299
(g1569
g301
Ntp2299
Rp2300
(dp2301
g1573
g1406
sg1574
g1610
sg325
g1443
sbsS's3eImagePicker.h'
p2302
g299
(g1569
g301
Ntp2303
Rp2304
(dp2305
g1573
g1581
sg1574
g1794
sg325
S'c:/marmalade/7.2/s3e/h/ext/s3eImagePicker.h'
p2306
sbsS's3eWebView.defines.txt'
p2307
g299
(g1569
g301
Ntp2308
Rp2309
(dp2310
g1573
g1149
sg1574
(lp2311
S'Extensions'
p2312
ag1143
ag1145
asg325
g1147
sbsS'stdlib.h'
p2313
g299
(g1569
g301
Ntp2314
Rp2315
(dp2316
g1573
g1581
sg1574
g1603
sg325
S'c:/marmalade/7.2/s3e/h/std/stdlib.h'
p2317
sbsS'IwCopyingPtr.h'
p2318
g299
(g1569
g301
Ntp2319
Rp2320
(dp2321
g1573
g1406
sg1574
g1610
sg325
g1483
sbsS'iostream'
p2322
g299
(g1569
g301
Ntp2323
Rp2324
(dp2325
g1573
g1581
sg1574
g1582
sg325
S'c:/marmalade/7.2/s3e/h/std/c++/iostream'
p2326
sbsS'png.h'
p2327
g299
(g1569
g301
Ntp2328
Rp2329
(dp2330
g1573
g1038
sg1574
(lp2331
g1032
ag1034
asg325
g1036
sbsS'stddef.h'
p2332
g299
(g1569
g301
Ntp2333
Rp2334
(dp2335
g1573
g1581
sg1574
g1603
sg325
S'c:/marmalade/7.2/s3e/h/std/stddef.h'
p2336
sbsS'setjmp_win32.h'
p2337
g299
(g1569
g301
Ntp2338
Rp2339
(dp2340
g1573
g1581
sg1574
g1603
sg325
S'c:/marmalade/7.2/s3e/h/std/setjmp_win32.h'
p2341
sbsS'IwGxPrint.h'
p2342
g299
(g1569
g301
Ntp2343
Rp2344
(dp2345
g1573
g1342
sg1574
g1711
sg325
g1358
sbsS'iwgx_public.defines.txt'
p2346
g299
(g1569
g301
Ntp2347
Rp2348
(dp2349
g1573
g1342
sg1574
g1711
sg325
g1362
sbsS'streambuf.h'
p2350
g299
(g1569
g301
Ntp2351
Rp2352
(dp2353
g1573
g1581
sg1574
g1582
sg325
S'c:/marmalade/7.2/s3e/h/std/c++/streambuf.h'
p2354
sbsS'IwGeomFPlane.h'
p2355
g299
(g1569
g301
Ntp2356
Rp2357
(dp2358
g1573
g1250
sg1574
g1635
sg325
g1248
sbsS'un.h'
p2359
g299
(g1569
g301
Ntp2360
Rp2361
(dp2362
g1573
g1581
sg1574
g1725
sg325
S'c:/marmalade/7.2/s3e/h/std/sys/un.h'
p2363
sbsS'wchar.h'
p2364
g299
(g1569
g301
Ntp2365
Rp2366
(dp2367
g1573
g1581
sg1574
g1603
sg325
S'c:/marmalade/7.2/s3e/h/std/wchar.h'
p2368
sbsS's3eCameraCapture.h'
p2369
g299
(g1569
g301
Ntp2370
Rp2371
(dp2372
g1573
g1581
sg1574
g1794
sg325
S'c:/marmalade/7.2/s3e/h/ext/s3eCameraCapture.h'
p2373
sbsS'eglext.h'
p2374
g299
(g1569
g301
Ntp2375
Rp2376
(dp2377
g1573
g1581
sg1574
g1930
sg325
S'c:/marmalade/7.2/s3e/h/EGL/eglext.h'
p2378
sbsS'IwResHandlerImage.h'
p2379
g299
(g1569
g301
Ntp2380
Rp2381
(dp2382
g1573
g1318
sg1574
g1842
sg325
g1326
sbsS'strstream.h'
p2383
g299
(g1569
g301
Ntp2384
Rp2385
(dp2386
g1573
g1581
sg1574
g1582
sg325
S'c:/marmalade/7.2/s3e/h/std/c++/strstream.h'
p2387
sbsS'tiniconv.h'
p2388
g299
(g1569
g301
Ntp2389
Rp2390
(dp2391
g1573
g1083
sg1574
g2055
sg325
g1081
sbsS'IwGLExt.h'
p2392
g299
(g1569
g301
Ntp2393
Rp2394
(dp2395
g1573
g1204
sg1574
g1591
sg325
g1208
sbsS'app.icf'
p2396
g299
(g1569
g301
Ntp2397
Rp2398
(dp2399
g1573
(dp2400
sg1574
g4
sg325
S'c:/Users/Vinicius/Desktop/Yes or No/Hoppe/data/app.icf'
p2401
sbsS'IwClassFactory.h'
p2402
g299
(g1569
g301
Ntp2403
Rp2404
(dp2405
g1573
g1406
sg1574
g1610
sg325
g1469
sbsS'file.h'
p2406
g299
(g1569
g301
Ntp2407
Rp2408
(dp2409
g1573
g1581
sg1574
g1725
sg325
S'c:/marmalade/7.2/s3e/h/std/sys/file.h'
p2410
sbsS'cstring'
p2411
g299
(g1569
g301
Ntp2412
Rp2413
(dp2414
g1573
g1581
sg1574
g1582
sg325
S'c:/marmalade/7.2/s3e/h/std/c++/cstring'
p2415
sbsS'IwSoundInst.cpp'
p2416
g299
(g1569
g301
Ntp2417
Rp2418
(dp2419
g1573
g1093
sg1574
g1621
sg325
g1104
sbsS'iwutil.config.txt'
p2420
g299
(g1569
g301
Ntp2421
Rp2422
(dp2423
g1573
g1406
sg1574
g1610
sg325
g1467
sbsS's3eSMS.h'
p2424
g299
(g1569
g301
Ntp2425
Rp2426
(dp2427
g1573
g1581
sg1574
g1794
sg325
S'c:/marmalade/7.2/s3e/h/ext/s3eSMS.h'
p2428
sbsS'limits.h'
p2429
g299
(g1569
g301
Ntp2430
Rp2431
(dp2432
g1573
g1581
sg1574
g1603
sg325
S'c:/marmalade/7.2/s3e/h/std/limits.h'
p2433
sbsS's3eLibrary.h'
p2434
g299
(g1569
g301
Ntp2435
Rp2436
(dp2437
g1573
g1581
sg1574
g1794
sg325
S'c:/marmalade/7.2/s3e/h/ext/s3eLibrary.h'
p2438
sbsS'IwMaterial.h'
p2439
g299
(g1569
g301
Ntp2440
Rp2441
(dp2442
g1573
g1342
sg1574
g1711
sg325
g1347
sbsS's3eFlurry.defines.txt'
p2443
g299
(g1569
g301
Ntp2444
Rp2445
(dp2446
g1573
g1178
sg1574
(lp2447
g1806
ag1172
ag1174
asg325
g1179
sbsS'IwGxSurface.h'
p2448
g299
(g1569
g301
Ntp2449
Rp2450
(dp2451
g1573
g1342
sg1574
g1711
sg325
g1360
sbsS's3eSocket.h'
p2452
g299
(g1569
g301
Ntp2453
Rp2454
(dp2455
g1573
g1581
sg1574
g1597
sg325
S'c:/marmalade/7.2/s3e/h/s3eSocket.h'
p2456
sbsS'IwAutoFile.h'
p2457
g299
(g1569
g301
Ntp2458
Rp2459
(dp2460
g1573
g1406
sg1574
g1610
sg325
g1473
sbsS'ipc.h'
p2461
g299
(g1569
g301
Ntp2462
Rp2463
(dp2464
g1573
g1581
sg1574
g1725
sg325
S'c:/marmalade/7.2/s3e/h/std/sys/ipc.h'
p2465
sbsS'poll_1.h'
p2466
g299
(g1569
g301
Ntp2467
Rp2468
(dp2469
g1573
g1581
sg1574
g1725
sg325
S'c:/marmalade/7.2/s3e/h/std/sys/poll.h'
p2470
sbsS's3eThread.h'
p2471
g299
(g1569
g301
Ntp2472
Rp2473
(dp2474
g1573
g1581
sg1574
g1597
sg325
S'c:/marmalade/7.2/s3e/h/s3eThread.h'
p2475
sbsS'ucontext.h'
p2476
g299
(g1569
g301
Ntp2477
Rp2478
(dp2479
g1573
g1581
sg1574
g1603
sg325
S'c:/marmalade/7.2/s3e/h/std/ucontext.h'
p2480
sbsS'time.h'
p2481
g299
(g1569
g301
Ntp2482
Rp2483
(dp2484
g1573
g1581
sg1574
g1603
sg325
S'c:/marmalade/7.2/s3e/h/std/time.h'
p2485
sbsS'jchuff.h'
p2486
g299
(g1569
g301
Ntp2487
Rp2488
(dp2489
g1573
g1049
sg1574
g1665
sg325
g1072
sbsS'IwSoundPCM.cpp'
p2490
g299
(g1569
g301
Ntp2491
Rp2492
(dp2493
g1573
g1093
sg1574
g1621
sg325
g1127
sbsS's3eSoundRecord.h'
p2494
g299
(g1569
g301
Ntp2495
Rp2496
(dp2497
g1573
g1581
sg1574
g1597
sg325
S'c:/marmalade/7.2/s3e/h/s3eSoundRecord.h'
p2498
sbsS'IwFibre.h'
p2499
g299
(g1569
g301
Ntp2500
Rp2501
(dp2502
g1573
g1406
sg1574
g1610
sg325
g1411
sbsS's3eVersion.h'
p2503
g299
(g1569
g301
Ntp2504
Rp2505
(dp2506
g1573
g1581
sg1574
g1597
sg325
S'c:/marmalade/7.2/s3e/h/s3eVersion.h'
p2507
sbsS'IwSoundGroup.h'
p2508
g299
(g1569
g301
Ntp2509
Rp2510
(dp2511
g1573
g1093
sg1574
g1621
sg325
g1100
sbsS'IwSoundWAV.h'
p2512
g299
(g1569
g301
Ntp2513
Rp2514
(dp2515
g1573
g1093
sg1574
g1621
sg325
g1102
sbsS'IwGxFontGlyph.h'
p2516
g299
(g1569
g301
Ntp2517
Rp2518
(dp2519
g1573
g1228
sg1574
g1575
sg325
g1235
sbsS's3eTypes.h'
p2520
g299
(g1569
g301
Ntp2521
Rp2522
(dp2523
g1573
g1581
sg1574
g1597
sg325
S'c:/marmalade/7.2/s3e/h/s3eTypes.h'
p2524
sbsS'IwSoundSpec.h'
p2525
g299
(g1569
g301
Ntp2526
Rp2527
(dp2528
g1573
g1093
sg1574
g1621
sg325
g1135
sbsS'signal_2.h'
p2529
g299
(g1569
g301
Ntp2530
Rp2531
(dp2532
g1573
g1581
sg1574
g1582
sg325
S'c:/marmalade/7.2/s3e/h/std/c++/signal.h'
p2533
sbsS'termios.h'
p2534
g299
(g1569
g301
Ntp2535
Rp2536
(dp2537
g1573
g1581
sg1574
g1603
sg325
S'c:/marmalade/7.2/s3e/h/std/termios.h'
p2538
sbsS'iw2dscenegraph.mkf'
p2539
g299
(g1569
g301
Ntp2540
Rp2541
(dp2542
g1573
g1195
sg1574
g1889
sg325
g1193
sbsS'slist'
p2543
g299
(g1569
g301
Ntp2544
Rp2545
(dp2546
g1573
g1581
sg1574
g1582
sg325
S'c:/marmalade/7.2/s3e/h/std/c++/slist'
p2547
sbsS'cstdlib'
p2548
g299
(g1569
g301
Ntp2549
Rp2550
(dp2551
g1573
g1581
sg1574
g1582
sg325
S'c:/marmalade/7.2/s3e/h/std/c++/cstdlib'
p2552
sbsS's3eLocation.h'
p2553
g299
(g1569
g301
Ntp2554
Rp2555
(dp2556
g1573
g1581
sg1574
g1597
sg325
S'c:/marmalade/7.2/s3e/h/s3eLocation.h'
p2557
sbsS'IwMemBucketHelpers.h'
p2558
g299
(g1569
g301
Ntp2559
Rp2560
(dp2561
g1573
g1406
sg1574
g1610
sg325
g1481
sbsS's3eHash.h'
p2562
g299
(g1569
g301
Ntp2563
Rp2564
(dp2565
g1573
g1581
sg1574
g1597
sg325
S'c:/marmalade/7.2/s3e/h/s3eHash.h'
p2566
sbsS'IwSoundGroup.cpp'
p2567
g299
(g1569
g301
Ntp2568
Rp2569
(dp2570
g1573
g1093
sg1574
g1621
sg325
g1114
sbsS'IwGeomFMat.h'
p2571
g299
(g1569
g301
Ntp2572
Rp2573
(dp2574
g1573
g1250
sg1574
g1635
sg325
g1281
sbsS'type_traits.h'
p2575
g299
(g1569
g301
Ntp2576
Rp2577
(dp2578
g1573
g1581
sg1574
g1582
sg325
S'c:/marmalade/7.2/s3e/h/std/c++/type_traits.h'
p2579
sbsS'IwMenu.h'
p2580
g299
(g1569
g301
Ntp2581
Rp2582
(dp2583
g1573
g1406
sg1574
g1610
sg325
g1431
sbsS'IwResHandlerITX.h'
p2584
g299
(g1569
g301
Ntp2585
Rp2586
(dp2587
g1573
g1318
sg1574
g1842
sg325
g1332
sbsS'IwSoundData.h'
p2588
g299
(g1569
g301
Ntp2589
Rp2590
(dp2591
g1573
g1093
sg1574
g1621
sg325
g1112
sbsS'IwArray.h'
p2592
g299
(g1569
g301
Ntp2593
Rp2594
(dp2595
g1573
g1406
sg1574
g1610
sg325
g1407
sbsS'IwUTF8.h'
p2596
g299
(g1569
g301
Ntp2597
Rp2598
(dp2599
g1573
g1406
sg1574
g1610
sg325
g1475
sbsS'math_rvct.h'
p2600
g299
(g1569
g301
Ntp2601
Rp2602
(dp2603
g1573
g1581
sg1574
g1603
sg325
S'c:/marmalade/7.2/s3e/h/std/math_rvct.h'
p2604
sbsS'IwUtil.h'
p2605
g299
(g1569
g301
Ntp2606
Rp2607
(dp2608
g1573
g1406
sg1574
g1610
sg325
g1465
sbsS'IwFColour.h'
p2609
g299
(g1569
g301
Ntp2610
Rp2611
(dp2612
g1573
g1342
sg1574
g1711
sg325
g1382
sbsS'wctype.h'
p2613
g299
(g1569
g301
Ntp2614
Rp2615
(dp2616
g1573
g1581
sg1574
g1603
sg325
S'c:/marmalade/7.2/s3e/h/std/wctype.h'
p2617
sbsS'mainMenu.h'
p2618
g299
(g1569
g301
Ntp2619
Rp2620
(dp2621
g1573
g1533
sg1574
g2001
sg325
g1558
sbsS'cstddef'
p2622
g299
(g1569
g301
Ntp2623
Rp2624
(dp2625
g1573
g1581
sg1574
g1582
sg325
S'c:/marmalade/7.2/s3e/h/std/c++/cstddef'
p2626
sbsS'assert.h'
p2627
g299
(g1569
g301
Ntp2628
Rp2629
(dp2630
g1573
g1581
sg1574
g1603
sg325
S'c:/marmalade/7.2/s3e/h/std/assert.h'
p2631
sbsS'mman.h'
p2632
g299
(g1569
g301
Ntp2633
Rp2634
(dp2635
g1573
g1581
sg1574
g1725
sg325
S'c:/marmalade/7.2/s3e/h/std/sys/mman.h'
p2636
sbsS'IwRandom.h'
p2637
g299
(g1569
g301
Ntp2638
Rp2639
(dp2640
g1573
g1406
sg1574
g1610
sg325
g1415
sbsS'libgen.h'
p2641
g299
(g1569
g301
Ntp2642
Rp2643
(dp2644
g1573
g1581
sg1574
g1603
sg325
S'c:/marmalade/7.2/s3e/h/std/libgen.h'
p2645
sbsS'utsname.h'
p2646
g299
(g1569
g301
Ntp2647
Rp2648
(dp2649
g1573
g1581
sg1574
g1725
sg325
S'c:/marmalade/7.2/s3e/h/std/sys/utsname.h'
p2650
sbsS'wait.h'
p2651
g299
(g1569
g301
Ntp2652
Rp2653
(dp2654
g1573
g1581
sg1574
g1725
sg325
S'c:/marmalade/7.2/s3e/h/std/sys/wait.h'
p2655
sbsS'param.h'
p2656
g299
(g1569
g301
Ntp2657
Rp2658
(dp2659
g1573
g1581
sg1574
g1725
sg325
S'c:/marmalade/7.2/s3e/h/std/sys/param.h'
p2660
sbsS'IwDivide.h'
p2661
g299
(g1569
g301
Ntp2662
Rp2663
(dp2664
g1573
g1406
sg1574
g1610
sg325
g1502
sbsS'Iw2DSceneGraphCore.cpp'
p2665
g299
(g1569
g301
Ntp2666
Rp2667
(dp2668
g1573
g1399
sg1574
(lp2669
S"'Marmalade Studio'"
p2670
ag1392
asg325
g1400
sbsS'IwResManager.h'
p2671
g299
(g1569
g301
Ntp2672
Rp2673
(dp2674
g1573
g1318
sg1574
g1842
sg325
g1336
sbsS'IwSoundManager.h'
p2675
g299
(g1569
g301
Ntp2676
Rp2677
(dp2678
g1573
g1093
sg1574
g1621
sg325
g1137
sbsS'cwctype'
p2679
g299
(g1569
g301
Ntp2680
Rp2681
(dp2682
g1573
g1581
sg1574
g1582
sg325
S'c:/marmalade/7.2/s3e/h/std/c++/cwctype'
p2683
sbsS'set'
p2684
g299
(g1569
g301
Ntp2685
Rp2686
(dp2687
g1573
g1581
sg1574
g1582
sg325
S'c:/marmalade/7.2/s3e/h/std/c++/set'
p2688
sbsS'IwGeomSQuat.h'
p2689
g299
(g1569
g301
Ntp2690
Rp2691
(dp2692
g1573
g1250
sg1574
g1635
sg325
g1302
sbsS'locale'
p2693
g299
(g1569
g301
Ntp2694
Rp2695
(dp2696
g1573
g1581
sg1574
g1582
sg325
S'c:/marmalade/7.2/s3e/h/std/c++/locale'
p2697
sbsS'cstdio'
p2698
g299
(g1569
g301
Ntp2699
Rp2700
(dp2701
g1573
g1581
sg1574
g1582
sg325
S'c:/marmalade/7.2/s3e/h/std/c++/cstdio'
p2702
sbsS'cdjpeg.h'
p2703
g299
(g1569
g301
Ntp2704
Rp2705
(dp2706
g1573
g1049
sg1574
g1665
sg325
g1052
sbsS'IwList.h'
p2707
g299
(g1569
g301
Ntp2708
Rp2709
(dp2710
g1573
g1406
sg1574
g1610
sg325
g1419
sbsS's3eWebView_interface.cpp'
p2711
g299
(g1569
g301
Ntp2712
Rp2713
(dp2714
g1573
g1149
sg1574
g2311
sg325
g1150
sbsS'inttypes.h'
p2715
g299
(g1569
g301
Ntp2716
Rp2717
(dp2718
g1573
g1581
sg1574
g1603
sg325
S'c:/marmalade/7.2/s3e/h/std/inttypes.h'
p2719
sbsS'dirent.h'
p2720
g299
(g1569
g301
Ntp2721
Rp2722
(dp2723
g1573
g1581
sg1574
g1603
sg325
S'c:/marmalade/7.2/s3e/h/std/dirent.h'
p2724
sbsS'IwGeomVec3.h'
p2725
g299
(g1569
g301
Ntp2726
Rp2727
(dp2728
g1573
g1250
sg1574
g1635
sg325
g1285
sbsS'transupp.h'
p2729
g299
(g1569
g301
Ntp2730
Rp2731
(dp2732
g1573
g1049
sg1574
g1665
sg325
g1056
sbsS'IwMath.h'
p2733
g299
(g1569
g301
Ntp2734
Rp2735
(dp2736
g1573
g1406
sg1574
g1610
sg325
g1425
sbsS'IwGeomQuat.h'
p2737
g299
(g1569
g301
Ntp2738
Rp2739
(dp2740
g1573
g1250
sg1574
g1635
sg325
g1304
sbsS'glplatform.h'
p2741
g299
(g1569
g301
Ntp2742
Rp2743
(dp2744
g1573
g1581
sg1574
g1938
sg325
S'c:/marmalade/7.2/s3e/h/GLES/glplatform.h'
p2745
sbsS'iwgl.config.txt'
p2746
g299
(g1569
g301
Ntp2747
Rp2748
(dp2749
g1573
g1204
sg1574
g1591
sg325
g1210
sbsS'bitset'
p2750
g299
(g1569
g301
Ntp2751
Rp2752
(dp2753
g1573
g1581
sg1574
g1582
sg325
S'c:/marmalade/7.2/s3e/h/std/c++/bitset'
p2754
sbsS'alloca.h'
p2755
g299
(g1569
g301
Ntp2756
Rp2757
(dp2758
g1573
g1581
sg1574
g1603
sg325
S'c:/marmalade/7.2/s3e/h/std/alloca.h'
p2759
sbsS'IwResHandler.h'
p2760
g299
(g1569
g301
Ntp2761
Rp2762
(dp2763
g1573
g1318
sg1574
g1842
sg325
g1319
sbsS'IwResHandlerMTL.h'
p2764
g299
(g1569
g301
Ntp2765
Rp2766
(dp2767
g1573
g1342
sg1574
g1711
sg325
g1356
sbsS'IwRuntime.h'
p2768
g299
(g1569
g301
Ntp2769
Rp2770
(dp2771
g1573
g1406
sg1574
g1610
sg325
g1459
sbsS's3eFlurry.h'
p2772
g299
(g1569
g301
Ntp2773
Rp2774
(dp2775
g1573
g1178
sg1574
g1805
sg325
g1181
sbsS'limits'
p2776
g299
(g1569
g301
Ntp2777
Rp2778
(dp2779
g1573
g1581
sg1574
g1582
sg325
S'c:/marmalade/7.2/s3e/h/std/c++/limits'
p2780
sbsS'IwGeomBBox.h'
p2781
g299
(g1569
g301
Ntp2782
Rp2783
(dp2784
g1573
g1250
sg1574
g1635
sg325
g1277
sbsS'audioManager.h'
p2785
g299
(g1569
g301
Ntp2786
Rp2787
(dp2788
g1573
g1533
sg1574
g1875
sg325
g1540
sbsS's3eContacts.h'
p2789
g299
(g1569
g301
Ntp2790
Rp2791
(dp2792
g1573
g1581
sg1574
g1597
sg325
S'c:/marmalade/7.2/s3e/h/s3eContacts.h'
p2793
sbsS's3eLicense.h'
p2794
g299
(g1569
g301
Ntp2795
Rp2796
(dp2797
g1573
g1581
sg1574
g1597
sg325
S'c:/marmalade/7.2/s3e/h/s3eLicense.h'
p2798
sbsS'iwgx.config.txt'
p2799
g299
(g1569
g301
Ntp2800
Rp2801
(dp2802
g1573
g1342
sg1574
g1711
sg325
g1351
sbsS'IwTextParser.h'
p2803
g299
(g1569
g301
Ntp2804
Rp2805
(dp2806
g1573
g1406
sg1574
g1610
sg325
g1437
sbsS's3eTimer.h'
p2807
g299
(g1569
g301
Ntp2808
Rp2809
(dp2810
g1573
g1581
sg1574
g1597
sg325
S'c:/marmalade/7.2/s3e/h/s3eTimer.h'
p2811
sbsS'IwGeomVec.h'
p2812
g299
(g1569
g301
Ntp2813
Rp2814
(dp2815
g1573
g1250
sg1574
g1635
sg325
g1308
sbsS'IwSerialise.h'
p2816
g299
(g1569
g301
Ntp2817
Rp2818
(dp2819
g1573
g1406
sg1574
g1610
sg325
g1477
sbsS'cstdarg'
p2820
g299
(g1569
g301
Ntp2821
Rp2822
(dp2823
g1573
g1581
sg1574
g1582
sg325
S'c:/marmalade/7.2/s3e/h/std/c++/cstdarg'
p2824
sbsS'gl2ext.h'
p2825
g299
(g1569
g301
Ntp2826
Rp2827
(dp2828
g1573
g1581
sg1574
g1834
sg325
S'c:/marmalade/7.2/s3e/h/GLES2/gl2ext.h'
p2829
sbsS'IwChar.h'
p2830
g299
(g1569
g301
Ntp2831
Rp2832
(dp2833
g1573
g1406
sg1574
g1610
sg325
g1433
sbsS's3eSound.h'
p2834
g299
(g1569
g301
Ntp2835
Rp2836
(dp2837
g1573
g1581
sg1574
g1597
sg325
S'c:/marmalade/7.2/s3e/h/s3eSound.h'
p2838
sbsS'IwVariableBitField.h'
p2839
g299
(g1569
g301
Ntp2840
Rp2841
(dp2842
g1573
g1406
sg1574
g1610
sg325
g1449
sbsS'exception.h'
p2843
g299
(g1569
g301
Ntp2844
Rp2845
(dp2846
g1573
g1581
sg1574
g1582
sg325
S'c:/marmalade/7.2/s3e/h/std/c++/exception.h'
p2847
sbsS'iwgeom.config.txt'
p2848
g299
(g1569
g301
Ntp2849
Rp2850
(dp2851
g1573
g1250
sg1574
g1635
sg325
g1289
sbsS'iwgx.mkf'
p2852
g299
(g1569
g301
Ntp2853
Rp2854
(dp2855
g1573
g1355
sg1574
g1711
sg325
g1353
sbsS'gl.h'
p2856
g299
(g1569
g301
Ntp2857
Rp2858
(dp2859
g1573
g1581
sg1574
g1938
sg325
S'c:/marmalade/7.2/s3e/h/GLES/gl.h'
p2860
sbsS'zlib.h'
p2861
g299
(g1569
g301
Ntp2862
Rp2863
(dp2864
g1573
g1511
sg1574
g2270
sg325
g1512
sbsS's3eFacebook.defines.txt'
p2865
g299
(g1569
g301
Ntp2866
Rp2867
(dp2868
g1573
g1163
sg1574
(lp2869
g1141
ag1157
ag1159
asg325
g1164
sbsS'iwgl.mkf'
p2870
g299
(g1569
g301
Ntp2871
Rp2872
(dp2873
g1573
g1207
sg1574
g1591
sg325
g1205
sbsS'audioManager.cpp'
p2874
g299
(g1569
g301
Ntp2875
Rp2876
(dp2877
g1573
g1533
sg1574
g1875
sg325
g1550
sbsS'IwColour.h'
p2878
g299
(g1569
g301
Ntp2879
Rp2880
(dp2881
g1573
g1342
sg1574
g1711
sg325
g1384
sbsS'types.h'
p2882
g299
(g1569
g301
Ntp2883
Rp2884
(dp2885
g1573
g1581
sg1574
g1725
sg325
S'c:/marmalade/7.2/s3e/h/std/sys/types.h'
p2886
sbsS'ifaddrs.h'
p2887
g299
(g1569
g301
Ntp2888
Rp2889
(dp2890
g1573
g1581
sg1574
g1603
sg325
S'c:/marmalade/7.2/s3e/h/std/ifaddrs.h'
p2891
sbsS'inputManager.cpp'
p2892
g299
(g1569
g301
Ntp2893
Rp2894
(dp2895
g1573
g1533
sg1574
g1875
sg325
g1548
sbsS'IwTween.cpp'
p2896
g299
(g1569
g301
Ntp2897
Rp2898
(dp2899
g1573
g1524
sg1574
g2098
sg325
g1522
sbsS'exception'
p2900
g299
(g1569
g301
Ntp2901
Rp2902
(dp2903
g1573
g1581
sg1574
g1582
sg325
S'c:/marmalade/7.2/s3e/h/std/c++/exception'
p2904
sbsS's3eFacebook_interface.cpp'
p2905
g299
(g1569
g301
Ntp2906
Rp2907
(dp2908
g1573
g1163
sg1574
g2869
sg325
g1161
sbsS'rlocks.h'
p2909
g299
(g1569
g301
Ntp2910
Rp2911
(dp2912
g1573
g1581
sg1574
g1582
sg325
S'c:/marmalade/7.2/s3e/h/std/c++/rlocks.h'
p2913
sbsS'ioctl.h'
p2914
g299
(g1569
g301
Ntp2915
Rp2916
(dp2917
g1573
g1581
sg1574
g1725
sg325
S'c:/marmalade/7.2/s3e/h/std/sys/ioctl.h'
p2918
sbsS'rope'
p2919
g299
(g1569
g301
Ntp2920
Rp2921
(dp2922
g1573
g1581
sg1574
g1582
sg325
S'c:/marmalade/7.2/s3e/h/std/c++/rope'
p2923
sbsS'jinclude.h'
p2924
g299
(g1569
g301
Ntp2925
Rp2926
(dp2927
g1573
g1049
sg1574
g1665
sg325
g1047
sbsS's3eFlurry_interface.cpp'
p2928
g299
(g1569
g301
Ntp2929
Rp2930
(dp2931
g1573
g1178
sg1574
g2447
sg325
g1176
sbsS's3eWebView.h'
p2932
g299
(g1569
g301
Ntp2933
Rp2934
(dp2935
g1573
g1149
sg1574
(lp2936
g2312
ag1143
asg325
g1152
sbsS'IwEvent.h'
p2937
g299
(g1569
g301
Ntp2938
Rp2939
(dp2940
g1573
g1406
sg1574
g1610
sg325
g1435
sbsS'IwOptimiseSize.h'
p2941
g299
(g1569
g301
Ntp2942
Rp2943
(dp2944
g1573
g1406
sg1574
g1610
sg325
g1439
sbsS'iwgxfont_public.defines.txt'
p2945
g299
(g1569
g301
Ntp2946
Rp2947
(dp2948
g1573
g1228
sg1574
g1575
sg325
g1233
sbsS'iconv.h'
p2949
g299
(g1569
g301
Ntp2950
Rp2951
(dp2952
g1573
g1581
sg1574
g1603
sg325
S'c:/marmalade/7.2/s3e/h/std/iconv.h'
p2953
sbsS's3eDevice.h'
p2954
g299
(g1569
g301
Ntp2955
Rp2956
(dp2957
g1573
g1581
sg1574
g1597
sg325
S'c:/marmalade/7.2/s3e/h/s3eDevice.h'
p2958
sbsS'IwGeomSphere.h'
p2959
g299
(g1569
g301
Ntp2960
Rp2961
(dp2962
g1573
g1250
sg1574
g1635
sg325
g1306
sbsS'tiniconv.mkf'
p2963
g299
(g1569
g301
Ntp2964
Rp2965
(dp2966
g1573
g1088
sg1574
g2055
sg325
g1086
sbsS'iw2dscenegraph.defines.txt'
p2967
g299
(g1569
g301
Ntp2968
Rp2969
(dp2970
g1573
g1192
sg1574
g1889
sg325
g1198
sbsS'jdct.h'
p2971
g299
(g1569
g301
Ntp2972
Rp2973
(dp2974
g1573
g1049
sg1574
g1665
sg325
g1062
sbsS'cctype'
p2975
g299
(g1569
g301
Ntp2976
Rp2977
(dp2978
g1573
g1581
sg1574
g1582
sg325
S'c:/marmalade/7.2/s3e/h/std/c++/cctype'
p2979
sbsS'IwSoundADPCM.cpp'
p2980
g299
(g1569
g301
Ntp2981
Rp2982
(dp2983
g1573
g1093
sg1574
g1621
sg325
g1091
sbsS's3eConfig.h'
p2984
g299
(g1569
g301
Ntp2985
Rp2986
(dp2987
g1573
g1581
sg1574
g1597
sg325
S'c:/marmalade/7.2/s3e/h/s3eConfig.h'
p2988
sbsS'IwHashString.h'
p2989
g299
(g1569
g301
Ntp2990
Rp2991
(dp2992
g1573
g1406
sg1574
g1610
sg325
g1504
sbsS'stat.h'
p2993
g299
(g1569
g301
Ntp2994
Rp2995
(dp2996
g1573
g1581
sg1574
g1725
sg325
S'c:/marmalade/7.2/s3e/h/std/sys/stat.h'
p2997
sbsS'byteswap.h'
p2998
g299
(g1569
g301
Ntp2999
Rp3000
(dp3001
g1573
g1581
sg1574
g1603
sg325
S'c:/marmalade/7.2/s3e/h/std/byteswap.h'
p3002
sbsS'iwresmanager.mkf'
p3003
g299
(g1569
g301
Ntp3004
Rp3005
(dp3006
g1573
g1323
sg1574
g1842
sg325
g1321
sbsS'IwUtilInitTerm.h'
p3007
g299
(g1569
g301
Ntp3008
Rp3009
(dp3010
g1573
g1406
sg1574
g1610
sg325
g1471
sbsS'pthread_1.h'
p3011
g299
(g1569
g301
Ntp3012
Rp3013
(dp3014
g1573
g1581
sg1574
g1582
sg325
S'c:/marmalade/7.2/s3e/h/std/c++/pthread.h'
p3015
sbsS'IwMemBucket.h'
p3016
g299
(g1569
g301
Ntp3017
Rp3018
(dp3019
g1573
g1406
sg1574
g1610
sg325
g1487
sbsS'complex'
p3020
g299
(g1569
g301
Ntp3021
Rp3022
(dp3023
g1573
g1581
sg1574
g1582
sg325
S'c:/marmalade/7.2/s3e/h/std/c++/complex'
p3024
sbsS'game.cpp'
p3025
g299
(g1569
g301
Ntp3026
Rp3027
(dp3028
g1573
g1533
sg1574
g2001
sg325
g1562
sbsS'algorithm'
p3029
g299
(g1569
g301
Ntp3030
Rp3031
(dp3032
g1573
g1581
sg1574
g1582
sg325
S'c:/marmalade/7.2/s3e/h/std/c++/algorithm'
p3033
sbsS's3e.icf'
p3034
g299
(g1569
g301
Ntp3035
Rp3036
(dp3037
g1573
g1581
sg1574
g1597
sg325
S'c:/marmalade/7.2/s3e/s3e.icf'
p3038
sbsS'sem.h'
p3039
g299
(g1569
g301
Ntp3040
Rp3041
(dp3042
g1573
g1581
sg1574
g1725
sg325
S'c:/marmalade/7.2/s3e/h/std/sys/sem.h'
p3043
sbsS'IwGxFontState.h'
p3044
g299
(g1569
g301
Ntp3045
Rp3046
(dp3047
g1573
g1228
sg1574
g1575
sg325
g1237
sbsS'stdio.h'
p3048
g299
(g1569
g301
Ntp3049
Rp3050
(dp3051
g1573
g1581
sg1574
g1603
sg325
S'c:/marmalade/7.2/s3e/h/std/stdio.h'
p3052
sbsS'jmemsys.h'
p3053
g299
(g1569
g301
Ntp3054
Rp3055
(dp3056
g1573
g1049
sg1574
g1665
sg325
g1066
sbsS'ios'
p3057
g299
(g1569
g301
Ntp3058
Rp3059
(dp3060
g1573
g1581
sg1574
g1582
sg325
S'c:/marmalade/7.2/s3e/h/std/c++/ios'
p3061
sbsS'IwTween.h'
p3062
g299
(g1569
g301
Ntp3063
Rp3064
(dp3065
g1573
g1524
sg1574
g2098
sg325
g1525
sbsS'stack'
p3066
g299
(g1569
g301
Ntp3067
Rp3068
(dp3069
g1573
g1581
sg1574
g1582
sg325
S'c:/marmalade/7.2/s3e/h/std/c++/stack'
p3070
sbsS'IwSoundParams.h'
p3071
g299
(g1569
g301
Ntp3072
Rp3073
(dp3074
g1573
g1093
sg1574
g1621
sg325
g1139
sbsS'new.h'
p3075
g299
(g1569
g301
Ntp3076
Rp3077
(dp3078
g1573
g1581
sg1574
g1582
sg325
S'c:/marmalade/7.2/s3e/h/std/c++/new.h'
p3079
sbsS's3eEMail.h'
p3080
g299
(g1569
g301
Ntp3081
Rp3082
(dp3083
g1573
g1581
sg1574
g1794
sg325
S'c:/marmalade/7.2/s3e/h/ext/s3eEMail.h'
p3084
sbsS's3eVideo.h'
p3085
g299
(g1569
g301
Ntp3086
Rp3087
(dp3088
g1573
g1581
sg1574
g1597
sg325
S'c:/marmalade/7.2/s3e/h/s3eVideo.h'
p3089
sbsS'pngconf.h'
p3090
g299
(g1569
g301
Ntp3091
Rp3092
(dp3093
g1573
g1038
sg1574
g2331
sg325
g1039
sbsS'pwd.h'
p3094
g299
(g1569
g301
Ntp3095
Rp3096
(dp3097
g1573
g1581
sg1574
g1603
sg325
S'c:/marmalade/7.2/s3e/h/std/pwd.h'
p3098
sbsS'IwOptimiseThumb.h'
p3099
g299
(g1569
g301
Ntp3100
Rp3101
(dp3102
g1573
g1406
sg1574
g1610
sg325
g1463
sbsS'IwClip.h'
p3103
g299
(g1569
g301
Ntp3104
Rp3105
(dp3106
g1573
g1342
sg1574
g1711
sg325
g1364
sbsS'IwSoundInst.h'
p3107
g299
(g1569
g301
Ntp3108
Rp3109
(dp3110
g1573
g1093
sg1574
g1621
sg325
g1131
sbsS'iwresmanager.config.txt'
p3111
g299
(g1569
g301
Ntp3112
Rp3113
(dp3114
g1573
g1318
sg1574
g1842
sg325
g1328
sbsS'IwGxShaderTechnique.h'
p3115
g299
(g1569
g301
Ntp3116
Rp3117
(dp3118
g1573
g1342
sg1574
g1711
sg325
g1386
sbsS'IwCore.h'
p3119
g299
(g1569
g301
Ntp3120
Rp3121
(dp3122
g1573
g1406
sg1574
g1610
sg325
g1404
sbsS'cfloat'
p3123
g299
(g1569
g301
Ntp3124
Rp3125
(dp3126
g1573
g1581
sg1574
g1582
sg325
S'c:/marmalade/7.2/s3e/h/std/c++/cfloat'
p3127
sbsS'IwGeomMat2D.h'
p3128
g299
(g1569
g301
Ntp3129
Rp3130
(dp3131
g1573
g1250
sg1574
g1635
sg325
g1255
sbsS'IwAllocator.h'
p3132
g299
(g1569
g301
Ntp3133
Rp3134
(dp3135
g1573
g1406
sg1574
g1610
sg325
g1453
sbsS'timerManager.cpp'
p3136
g299
(g1569
g301
Ntp3137
Rp3138
(dp3139
g1573
g1533
sg1574
g1875
sg325
g1542
sbsS'IwPath.h'
p3140
g299
(g1569
g301
Ntp3141
Rp3142
(dp3143
g1573
g1406
sg1574
g1610
sg325
g1479
sbsS'iwgxfont.mkf'
p3144
g299
(g1569
g301
Ntp3145
Rp3146
(dp3147
g1573
g1243
sg1574
g1575
sg325
g1241
sbsS'IwTexture.h'
p3148
g299
(g1569
g301
Ntp3149
Rp3150
(dp3151
g1573
g1342
sg1574
g1711
sg325
g1380
sbsS's3eAccelerometer.h'
p3152
g299
(g1569
g301
Ntp3153
Rp3154
(dp3155
g1573
g1581
sg1574
g1597
sg325
S'c:/marmalade/7.2/s3e/h/s3eAccelerometer.h'
p3156
sbsS'setjmp.h'
p3157
g299
(g1569
g301
Ntp3158
Rp3159
(dp3160
g1573
g1581
sg1574
g1603
sg325
S'c:/marmalade/7.2/s3e/h/std/setjmp.h'
p3161
sbsS's3eFacebook.h'
p3162
g299
(g1569
g301
Ntp3163
Rp3164
(dp3165
g1573
g1163
sg1574
(lp3166
g1141
ag1157
ag1034
asg325
g1167
sbsS'IwSoundParams.cpp'
p3167
g299
(g1569
g301
Ntp3168
Rp3169
(dp3170
g1573
g1093
sg1574
g1621
sg325
g1118
sbsS'IwFile.h'
p3171
g299
(g1569
g301
Ntp3172
Rp3173
(dp3174
g1573
g1406
sg1574
g1610
sg325
g1445
sbsS'IwTextParseable.h'
p3175
g299
(g1569
g301
Ntp3176
Rp3177
(dp3178
g1573
g1406
sg1574
g1610
sg325
g1498
sbsS'istream.h'
p3179
g299
(g1569
g301
Ntp3180
Rp3181
(dp3182
g1573
g1581
sg1574
g1582
sg325
S'c:/marmalade/7.2/s3e/h/std/c++/istream.h'
p3183
sbsS'stdint.h'
p3184
g299
(g1569
g301
Ntp3185
Rp3186
(dp3187
g1573
g1581
sg1574
g1603
sg325
S'c:/marmalade/7.2/s3e/h/std/stdint.h'
p3188
sbsS'semaphore.h'
p3189
g299
(g1569
g301
Ntp3190
Rp3191
(dp3192
g1573
g1581
sg1574
g1603
sg325
S'c:/marmalade/7.2/s3e/h/std/semaphore.h'
p3193
sbsS'ctime'
p3194
g299
(g1569
g301
Ntp3195
Rp3196
(dp3197
g1573
g1581
sg1574
g1582
sg325
S'c:/marmalade/7.2/s3e/h/std/c++/ctime'
p3198
sbsS'sstream'
p3199
g299
(g1569
g301
Ntp3200
Rp3201
(dp3202
g1573
g1581
sg1574
g1582
sg325
S'c:/marmalade/7.2/s3e/h/std/c++/sstream'
p3203
sbsS'IwGeomFBBox.h'
p3204
g299
(g1569
g301
Ntp3205
Rp3206
(dp3207
g1573
g1250
sg1574
g1635
sg325
g1312
sbsS'IwDebugPrim.h'
p3208
g299
(g1569
g301
Ntp3209
Rp3210
(dp3211
g1573
g1342
sg1574
g1711
sg325
g1370
sbsS'IwGxFontContainer.h'
p3212
g299
(g1569
g301
Ntp3213
Rp3214
(dp3215
g1573
g1228
sg1574
g1575
sg325
g1231
sbsS'IwGeomSVec3.h'
p3216
g299
(g1569
g301
Ntp3217
Rp3218
(dp3219
g1573
g1250
sg1574
g1635
sg325
g1275
sbsS'iw2dscenegraphcore.mkf'
p3220
g299
(g1569
g301
Ntp3221
Rp3222
(dp3223
g1573
g1396
sg1574
g2669
sg325
g1394
sbsS's3eExt.h'
p3224
g299
(g1569
g301
Ntp3225
Rp3226
(dp3227
g1573
g1581
sg1574
g1597
sg325
S'c:/marmalade/7.2/s3e/h/s3eExt.h'
p3228
sbsS'IwGeomFVec3.h'
p3229
g299
(g1569
g301
Ntp3230
Rp3231
(dp3232
g1573
g1250
sg1574
g1635
sg325
g1265
sbsS'IwClip.inl'
p3233
g299
(g1569
g301
Ntp3234
Rp3235
(dp3236
g1573
g1342
sg1574
g1711
sg325
g1376
sbsS'streambuf'
p3237
g299
(g1569
g301
Ntp3238
Rp3239
(dp3240
g1573
g1581
sg1574
g1582
sg325
S'c:/marmalade/7.2/s3e/h/std/c++/streambuf'
p3241
sbsS's3eMetrics.h'
p3242
g299
(g1569
g301
Ntp3243
Rp3244
(dp3245
g1573
g1581
sg1574
g1794
sg325
S'c:/marmalade/7.2/s3e/h/ext/s3eMetrics.h'
p3246
sbsS'IwGxFont.h'
p3247
g299
(g1569
g301
Ntp3248
Rp3249
(dp3250
g1573
g1228
sg1574
g1575
sg325
g1226
sbsS's3eSecureStorage.h'
p3251
g299
(g1569
g301
Ntp3252
Rp3253
(dp3254
g1573
g1581
sg1574
g1597
sg325
S'c:/marmalade/7.2/s3e/h/s3eSecureStorage.h'
p3255
sbsS'string.h'
p3256
g299
(g1569
g301
Ntp3257
Rp3258
(dp3259
g1573
g1581
sg1574
g1603
sg325
S'c:/marmalade/7.2/s3e/h/std/string.h'
p3260
sbsS'IwResource.h'
p3261
g299
(g1569
g301
Ntp3262
Rp3263
(dp3264
g1573
g1406
sg1574
g1610
sg325
g1409
sbsS'IwGeomSVec2.h'
p3265
g299
(g1569
g301
Ntp3266
Rp3267
(dp3268
g1573
g1250
sg1574
g1635
sg325
g1271
sbsS'libjpeg.mkf'
p3269
g299
(g1569
g301
Ntp3270
Rp3271
(dp3272
g1573
g1078
sg1574
(lp3273
g1044
asg325
g1076
sbsS'IwGxDebug.h'
p3274
g299
(g1569
g301
Ntp3275
Rp3276
(dp3277
g1573
g1342
sg1574
g1711
sg325
g1368
sbsS'pthread_types.h'
p3278
g299
(g1569
g301
Ntp3279
Rp3280
(dp3281
g1573
g1581
sg1574
g1603
sg325
S'c:/marmalade/7.2/s3e/h/std/pthread_types.h'
p3282
sbsS'iomanip.h'
p3283
g299
(g1569
g301
Ntp3284
Rp3285
(dp3286
g1573
g1581
sg1574
g1582
sg325
S'c:/marmalade/7.2/s3e/h/std/c++/iomanip.h'
p3287
sbsS'IwKeymap.h'
p3288
g299
(g1569
g301
Ntp3289
Rp3290
(dp3291
g1573
g1406
sg1574
g1610
sg325
g1492
sbsS'IwDebug.h'
p3292
g299
(g1569
g301
Ntp3293
Rp3294
(dp3295
g1573
g1406
sg1574
g1610
sg325
g1500
sbsS's3eIOSBackgroundAudio.h'
p3296
g299
(g1569
g301
Ntp3297
Rp3298
(dp3299
g1573
g1581
sg1574
g1794
sg325
S'c:/marmalade/7.2/s3e/h/ext/s3eIOSBackgroundAudio.h'
p3300
sbsS'IwGeomMenu.h'
p3301
g299
(g1569
g301
Ntp3302
Rp3303
(dp3304
g1573
g1250
sg1574
g1635
sg325
g1257
sbsS'IwDivTable.h'
p3305
g299
(g1569
g301
Ntp3306
Rp3307
(dp3308
g1573
g1406
sg1574
g1610
sg325
g1427
sbsS'ctype.h'
p3309
g299
(g1569
g301
Ntp3310
Rp3311
(dp3312
g1573
g1581
sg1574
g1603
sg325
S'c:/marmalade/7.2/s3e/h/std/ctype.h'
p3313
sbsS'mainMenu.cpp'
p3314
g299
(g1569
g301
Ntp3315
Rp3316
(dp3317
g1573
g1533
sg1574
g2001
sg325
g1560
sbsS'IwResGroup.h'
p3318
g299
(g1569
g301
Ntp3319
Rp3320
(dp3321
g1573
g1318
sg1574
g1842
sg325
g1324
sbsS'signal_1.h'
p3322
g299
(g1569
g301
Ntp3323
Rp3324
(dp3325
g1573
g1581
sg1574
g1725
sg325
S'c:/marmalade/7.2/s3e/h/std/sys/signal.h'
p3326
sbsS'IwSoundData.cpp'
p3327
g299
(g1569
g301
Ntp3328
Rp3329
(dp3330
g1573
g1093
sg1574
g1621
sg325
g1096
sbsS'jerror.h'
p3331
g299
(g1569
g301
Ntp3332
Rp3333
(dp3334
g1573
g1049
sg1574
g1665
sg325
g1070
sbsS'shm.h'
p3335
g299
(g1569
g301
Ntp3336
Rp3337
(dp3338
g1573
g1581
sg1574
g1725
sg325
S'c:/marmalade/7.2/s3e/h/std/sys/shm.h'
p3339
sbsS'IwManagedList.h'
p3340
g299
(g1569
g301
Ntp3341
Rp3342
(dp3343
g1573
g1406
sg1574
g1610
sg325
g1417
sbsS'prctl.h'
p3344
g299
(g1569
g301
Ntp3345
Rp3346
(dp3347
g1573
g1581
sg1574
g1725
sg325
S'c:/marmalade/7.2/s3e/h/std/sys/prctl.h'
p3348
sbsS's3eCamera.h'
p3349
g299
(g1569
g301
Ntp3350
Rp3351
(dp3352
g1573
g1581
sg1574
g1597
sg325
S'c:/marmalade/7.2/s3e/h/s3eCamera.h'
p3353
sbsS'utility'
p3354
g299
(g1569
g301
Ntp3355
Rp3356
(dp3357
g1573
g1581
sg1574
g1582
sg325
S'c:/marmalade/7.2/s3e/h/std/c++/utility'
p3358
sbsS's3ewebview.mkf'
p3359
g299
(g1569
g301
Ntp3360
Rp3361
(dp3362
g1573
g1156
sg1574
g2936
sg325
g1154
sbsS'IwGeomLegacy.h'
p3363
g299
(g1569
g301
Ntp3364
Rp3365
(dp3366
g1573
g1250
sg1574
g1635
sg325
g1298
sbsS'IwTPage.h'
p3367
g299
(g1569
g301
Ntp3368
Rp3369
(dp3370
g1573
g1342
sg1574
g1711
sg325
g1340
sbsS'IwResSerialise.h'
p3371
g299
(g1569
g301
Ntp3372
Rp3373
(dp3374
g1573
g1318
sg1574
g1842
sg325
g1334
sbsS's3eCrypto.h'
p3375
g299
(g1569
g301
Ntp3376
Rp3377
(dp3378
g1573
g1581
sg1574
g1597
sg325
S'c:/marmalade/7.2/s3e/h/s3eCrypto.h'
p3379
sbsS's3eKeyboard.h'
p3380
g299
(g1569
g301
Ntp3381
Rp3382
(dp3383
g1573
g1581
sg1574
g1597
sg325
S'c:/marmalade/7.2/s3e/h/s3eKeyboard.h'
p3384
sbsS'fcntl.h'
p3385
g299
(g1569
g301
Ntp3386
Rp3387
(dp3388
g1573
g1581
sg1574
g1603
sg325
S'c:/marmalade/7.2/s3e/h/std/fcntl.h'
p3389
sbsS'Iw2DSceneGraphCore.h'
p3390
g299
(g1569
g301
Ntp3391
Rp3392
(dp3393
g1573
g1399
sg1574
g2669
sg325
g1397
sbsS'memory.h'
p3394
g299
(g1569
g301
Ntp3395
Rp3396
(dp3397
g1573
g1581
sg1574
g1603
sg325
S'c:/marmalade/7.2/s3e/h/std/memory.h'
p3398
sbsS'pthread.h'
p3399
g299
(g1569
g301
Ntp3400
Rp3401
(dp3402
g1573
g1581
sg1574
g1603
sg325
S'c:/marmalade/7.2/s3e/h/std/pthread.h'
p3403
sbsS'IwGeomIntersect.h'
p3404
g299
(g1569
g301
Ntp3405
Rp3406
(dp3407
g1573
g1250
sg1574
g1635
sg325
g1300
sbsS'IwTextParserITX.h'
p3408
g299
(g1569
g301
Ntp3409
Rp3410
(dp3411
g1573
g1406
sg1574
g1610
sg325
g1429
sbsS'sceneManager.h'
p3412
g299
(g1569
g301
Ntp3413
Rp3414
(dp3415
g1573
g1533
sg1574
g1875
sg325
g1554
sbsS'sceneManager.cpp'
p3416
g299
(g1569
g301
Ntp3417
Rp3418
(dp3419
g1573
g1533
sg1574
g1875
sg325
g1552
sbsS'Iw2DSceneGraph.cpp'
p3420
g299
(g1569
g301
Ntp3421
Rp3422
(dp3423
g1573
g1192
sg1574
g1889
sg325
g1190
sbsS'ostream.h'
p3424
g299
(g1569
g301
Ntp3425
Rp3426
(dp3427
g1573
g1581
sg1574
g1582
sg325
S'c:/marmalade/7.2/s3e/h/std/c++/ostream.h'
p3428
sbsS'stl_user_config.h'
p3429
g299
(g1569
g301
Ntp3430
Rp3431
(dp3432
g1573
g1581
sg1574
g1582
sg325
S'c:/marmalade/7.2/s3e/h/std/c++/stl_user_config.h'
p3433
sbsS'IwProfileMenu.h'
p3434
g299
(g1569
g301
Ntp3435
Rp3436
(dp3437
g1573
g1406
sg1574
g1610
sg325
g1421
sbsS'MarmaladeVersion.h'
p3438
g299
(g1569
g301
Ntp3439
Rp3440
(dp3441
g1573
g1581
sg1574
g1597
sg325
S'c:/marmalade/7.2/s3e/h/MarmaladeVersion.h'
p3442
sbsS'IwResHandlerWAV.h'
p3443
g299
(g1569
g301
Ntp3444
Rp3445
(dp3446
g1573
g1093
sg1574
g1621
sg325
g1120
sbsS'ios.h'
p3447
g299
(g1569
g301
Ntp3448
Rp3449
(dp3450
g1573
g1581
sg1574
g1582
sg325
S'c:/marmalade/7.2/s3e/h/std/c++/ios.h'
p3451
sbsS'IwImageHelper.h'
p3452
g299
(g1569
g301
Ntp3453
Rp3454
(dp3455
g1573
g1406
sg1574
g1610
sg325
g1494
sbsS'hash_set'
p3456
g299
(g1569
g301
Ntp3457
Rp3458
(dp3459
g1573
g1581
sg1574
g1582
sg325
S'c:/marmalade/7.2/s3e/h/std/c++/hash_set'
p3460
sbsS'IwGeomFQuat.h'
p3461
g299
(g1569
g301
Ntp3462
Rp3463
(dp3464
g1573
g1250
sg1574
g1635
sg325
g1283
sbsS'jmorecfg.h'
p3465
g299
(g1569
g301
Ntp3466
Rp3467
(dp3468
g1573
g1049
sg1574
g1665
sg325
g1068
sbsS'eglplatform.h'
p3469
g299
(g1569
g301
Ntp3470
Rp3471
(dp3472
g1573
g1581
sg1574
g1930
sg325
S'c:/marmalade/7.2/s3e/h/EGL/eglplatform.h'
p3473
sbsS'cmath'
p3474
g299
(g1569
g301
Ntp3475
Rp3476
(dp3477
g1573
g1581
sg1574
g1582
sg325
S'c:/marmalade/7.2/s3e/h/std/c++/cmath'
p3478
sbsS'math_gcc.h'
p3479
g299
(g1569
g301
Ntp3480
Rp3481
(dp3482
g1573
g1581
sg1574
g1603
sg325
S'c:/marmalade/7.2/s3e/h/std/math_gcc.h'
p3483
sbsS's3eMemory.h'
p3484
g299
(g1569
g301
Ntp3485
Rp3486
(dp3487
g1573
g1581
sg1574
g1597
sg325
S'c:/marmalade/7.2/s3e/h/s3eMemory.h'
p3488
sbsS'strings.h'
p3489
g299
(g1569
g301
Ntp3490
Rp3491
(dp3492
g1573
g1581
sg1574
g1603
sg325
S'c:/marmalade/7.2/s3e/h/std/strings.h'
p3493
sbsS's3eFile.h'
p3494
g299
(g1569
g301
Ntp3495
Rp3496
(dp3497
g1573
g1581
sg1574
g1597
sg325
S'c:/marmalade/7.2/s3e/h/s3eFile.h'
p3498
sbsS'IwGxTypes.h'
p3499
g299
(g1569
g301
Ntp3500
Rp3501
(dp3502
g1573
g1342
sg1574
g1711
sg325
g1388
sbsS'cerrno'
p3503
g299
(g1569
g301
Ntp3504
Rp3505
(dp3506
g1573
g1581
sg1574
g1582
sg325
S'c:/marmalade/7.2/s3e/h/std/c++/cerrno'
p3507
sbsS'IwSoundManager.cpp'
p3508
g299
(g1569
g301
Ntp3509
Rp3510
(dp3511
g1573
g1093
sg1574
g1621
sg325
g1133
sbsS'main.h'
p3512
g299
(g1569
g301
Ntp3513
Rp3514
(dp3515
g1573
g1533
sg1574
g1910
sg325
g1536
sbsS'soundengine.mkf'
p3516
g299
(g1569
g301
Ntp3517
Rp3518
(dp3519
g1573
g1126
sg1574
g1621
sg325
g1124
sbsS'resource.h'
p3520
g299
(g1569
g301
Ntp3521
Rp3522
(dp3523
g1573
g1581
sg1574
g1725
sg325
S'c:/marmalade/7.2/s3e/h/std/sys/resource.h'
p3524
sbsS'clocale'
p3525
g299
(g1569
g301
Ntp3526
Rp3527
(dp3528
g1573
g1581
sg1574
g1582
sg325
S'c:/marmalade/7.2/s3e/h/std/c++/clocale'
p3529
sbsS'csetjmp'
p3530
g299
(g1569
g301
Ntp3531
Rp3532
(dp3533
g1573
g1581
sg1574
g1582
sg325
S'c:/marmalade/7.2/s3e/h/std/c++/csetjmp'
p3534
sbsS'netdb.h'
p3535
g299
(g1569
g301
Ntp3536
Rp3537
(dp3538
g1573
g1581
sg1574
g1603
sg325
S'c:/marmalade/7.2/s3e/h/std/netdb.h'
p3539
sbsS's3eAndroidJNI.h'
p3540
g299
(g1569
g301
Ntp3541
Rp3542
(dp3543
g1573
g1581
sg1574
g1794
sg325
S'c:/marmalade/7.2/s3e/h/ext/s3eAndroidJNI.h'
p3544
sbsS'stdexcept'
p3545
g299
(g1569
g301
Ntp3546
Rp3547
(dp3548
g1573
g1581
sg1574
g1582
sg325
S'c:/marmalade/7.2/s3e/h/std/c++/stdexcept'
p3549
sbsS'math.h'
p3550
g299
(g1569
g301
Ntp3551
Rp3552
(dp3553
g1573
g1581
sg1574
g1603
sg325
S'c:/marmalade/7.2/s3e/h/std/math.h'
p3554
sbsS'stdbool.h'
p3555
g299
(g1569
g301
Ntp3556
Rp3557
(dp3558
g1573
g1581
sg1574
g1603
sg325
S'c:/marmalade/7.2/s3e/h/std/stdbool.h'
p3559
sbsS'uio.h'
p3560
g299
(g1569
g301
Ntp3561
Rp3562
(dp3563
g1573
g1581
sg1574
g1725
sg325
S'c:/marmalade/7.2/s3e/h/std/sys/uio.h'
p3564
sbsS'IwUncopyable.h'
p3565
g299
(g1569
g301
Ntp3566
Rp3567
(dp3568
g1573
g1406
sg1574
g1610
sg325
g1451
sbsS's3efacebook.mkf'
p3569
g299
(g1569
g301
Ntp3570
Rp3571
(dp3572
g1573
g1171
sg1574
(lp3573
g1141
ag1157
asg325
g1169
sbssS'juice_build_type'
p3574
g4
sS'tests'
p3575
(lp3576
sS'project_name'
p3577
g307
sS'root_file'
p3578
g119
sS'current_root'
p3579
S'c:/Users/Vinicius/Desktop/Yes or No/Hoppe'
p3580
sS'dependencies'
p3581
(lp3582
sS'include_paths'
p3583
(lp3584
S'c:/marmalade/7.2/extensions/s3ewebview/h'
p3585
aS'c:/marmalade/7.2/modules/iwutil/h'
p3586
aS'c:/marmalade/7.2/modules/third_party/libjpeg/h'
p3587
aS'c:/marmalade/7.2/modules/third_party/zlib/h'
p3588
aS'c:/marmalade/7.2/modules/third_party/libpng/h'
p3589
aS'c:/marmalade/7.2/extensions/s3efacebook/h'
p3590
aS'c:/marmalade/7.2/modules/iw2d/h'
p3591
aS'c:/marmalade/7.2/modules/iwgx/h'
p3592
aS'c:/marmalade/7.2/modules/iwgl/h'
p3593
aS'c:/marmalade/7.2/modules/iwgeom/h'
p3594
aS'c:/marmalade/7.2/modules/iwresmanager/h'
p3595
aS'c:/marmalade/7.2/modules/iwgxfont/h'
p3596
aS'c:/marmalade/7.2/modules/third_party/tiniconv/source'
p3597
aS'c:/marmalade/7.2/modules/iw2dscenegraph/h'
p3598
aS'c:/marmalade/7.2/modules/iw2dscenegraphcore/h'
p3599
aS'c:/marmalade/7.2/modules/iwtween/h'
p3600
aS'c:/users/vinicius/desktop/yes or no/hoppe/modules/soundengine/h'
p3601
aS'c:/users/vinicius/desktop/yes or no/hoppe/modules/soundengine/source'
p3602
aS'c:/marmalade/7.2/extensions/s3eflurry/h'
p3603
aS'c:/marmalade/7.2/s3e/h'
p3604
aS'c:/marmalade/7.2/s3e/h/ext'
p3605
aS'c:/marmalade/7.2/s3e/h/std'
p3606
aS'c:/marmalade/7.2/s3e/h/std/c++'
p3607
aS'c:/marmalade/7.2/s3e/h/ext_legacy'
p3608
aS'c:/marmalade/7.2/s3e/h/legacy'
p3609
asS'weak_frameworks'
p3610
(lp3611
sS'extprojects'
p3612
(dp3613
sg602
(dp3614
g596
(lp3615
(S'c:/Users/Vinicius/Desktop/Yes or No/Hoppe/data/audio'
p3616
S'audio'
p3617
I0
tp3618
a(S'c:/Users/Vinicius/Desktop/Yes or No/Hoppe/data/textures'
p3619
S'textures'
p3620
I0
tp3621
a(S'c:/Users/Vinicius/Desktop/Yes or No/Hoppe/data-ram/data-gles1,c:/Users/Vinicius/Desktop/Yes or No/Hoppe/data'
p3622
S'.'
p3623
I0
tp3624
a(S'c:/marmalade/7.2/extensions/s3ewebview/s3eWebView.js'
p3625
S's3eWebView.js'
p3626
I0
tp3627
a(S'c:/marmalade/7.2/extensions/s3efacebook/source/iphone/facebook-ios-sdk/FacebookSDK.framework/Versions/A/Resources/FacebookSDKResources.bundle/FBDialog/images/fbicon.png'
p3628
S'FacebookSDKResources.bundle/FBDialog/images/fbicon.png'
p3629
I0
tp3630
a(S'c:/marmalade/7.2/extensions/s3efacebook/source/iphone/facebook-ios-sdk/FacebookSDK.framework/Versions/A/Resources/FacebookSDKResources.bundle/FBDialog/images/close.png'
p3631
S'FacebookSDKResources.bundle/FBDialog/images/close.png'
p3632
I0
tp3633
a(S'c:/marmalade/7.2/extensions/s3efacebook/source/iphone/facebook-ios-sdk/FacebookSDK.framework/Versions/A/Resources/FacebookSDKResources.bundle/FBDialog/images/close@2x.png'
p3634
S'FacebookSDKResources.bundle/FBDialog/images/close@2x.png'
p3635
I0
tp3636
a(S'c:/marmalade/7.2/extensions/s3efacebook/facebook-winclient-sdk-master/Source/Facebook.Client-WindowsStore/FacebookDialogPage.xaml'
p3637
S'FacebookDialogPage.xaml'
p3638
I0
tp3639
asS'WebView32Assets'
p3640
(lp3641
(S'c:/marmalade/7.2/extensions/s3ewebview/lib/win32/locales'
p3642
S'locales'
p3643
I0
tp3644
a(S'c:/marmalade/7.2/extensions/s3ewebview/lib/win32/avcodec-53.dll'
p3645
S'avcodec-53.dll'
p3646
I0
tp3647
a(S'c:/marmalade/7.2/extensions/s3ewebview/lib/win32/avformat-53.dll'
p3648
S'avformat-53.dll'
p3649
I0
tp3650
a(S'c:/marmalade/7.2/extensions/s3ewebview/lib/win32/avutil-51.dll'
p3651
S'avutil-51.dll'
p3652
I0
tp3653
a(S'c:/marmalade/7.2/extensions/s3ewebview/lib/win32/chrome.pak'
p3654
S'chrome.pak'
p3655
I0
tp3656
a(S'c:/marmalade/7.2/extensions/s3ewebview/lib/win32/d3dcompiler_43.dll'
p3657
S'd3dcompiler_43.dll'
p3658
I0
tp3659
a(S'c:/marmalade/7.2/extensions/s3ewebview/lib/win32/d3dx9_43.dll'
p3660
S'd3dx9_43.dll'
p3661
I0
tp3662
a(S'c:/marmalade/7.2/extensions/s3ewebview/lib/win32/icudt.dll'
p3663
S'icudt.dll'
p3664
I0
tp3665
a(S'c:/marmalade/7.2/extensions/s3ewebview/lib/win32/libcef.dll'
p3666
S'libcef.dll'
p3667
I0
tp3668
a(S'c:/marmalade/7.2/extensions/s3ewebview/lib/win32/libEGL.dll'
p3669
S'libEGL.dll'
p3670
I0
tp3671
a(S'c:/marmalade/7.2/extensions/s3ewebview/lib/win32/libGLESv2.dll'
p3672
S'libGLESv2.dll'
p3673
I0
tp3674
assS'macro_types'
p3675
(dp3676
g525
I0
sg527
I0
sg528
I0
sg529
I0
sg531
I1
sg532
I0
sg533
I0
sg534
I0
sg535
I0
sg536
I0
sg537
I0
sg538
I0
sg540
I0
sg541
I0
sg542
I0
sg543
I0
sg544
I0
sg546
I0
sg547
I0
sg548
I0
sg549
I0
sg550
I0
sg551
I0
sg552
I0
sg553
I0
sg554
I1
sg555
I0
sg556
I0
sg557
I0
sg558
I0
sg559
I0
sg560
I0
sg561
I0
sg562
I01
sg563
I1
sg564
I0
sg565
I0
sg566
I0
sg567
I0
sg568
I0
sg569
I0
sg570
I0
sg571
I0
ssS'commands'
p3677
(lp3678
sg604
(g1025
S'VC12X'
p3679
S'X86ARM'
p3680
tp3681
sS'build_libs'
p3682
(dp3683
sg606
g0
sS'frameworks'
p3684
(lp3685
sS'environ'
p3686
(dp3687
sS'target_name_debug'
p3688
g307
sS'builders'
p3689
(dp3690
g596
(dp3691
S'.S'
p3692
(dp3693
S'rvct'
p3694
(lp3695
S'.obj'
p3696
aS'echo ARM Assembling(RVCT) ${SOURCE}...'
p3697
aS'c:/marmalade/7.2/s3e\\rvct\\bin\\armasm -o ${TARGET} ${SOURCE}'
p3698
asS'gcc'
p3699
(lp3700
g3696
aS'echo ARM Assembling(GCC) ${SOURCE}...'
p3701
aS'c:/marmalade/7.2/s3e\\gcc\\bin\\arm-none-eabi-gcc -c -o ${TARGET} ${SOURCE}'
p3702
asS'ppu'
p3703
(lp3704
S'.a'
p3705
aS'echo PPU Assembling(SNC) ${SOURCE}...'
p3706
aS'c:/marmalade/7.2/s3e\\rvct\\bin\\armasm -o ${TARGET} ${SOURCE}'
p3707
assS'.s'
p3708
g3693
sS'.vp'
p3709
(lp3710
NaS'"C:/Marmalade/7.2/s3e/python/python.exe" "c:/marmalade/7.2/modules/iwgx/tools/compile_shaders.py" ${SOURCE}'
p3711
asssS'extproject_names'
p3712
(lp3713
sbtp3714
.